Archive member included to satisfy reference by file (symbol)

d:/hummingbird/hbird-eclipse_2018_09/gnu mcu eclipse/risc-v embedded gcc/7.2.0-4-20180606-1631/bin/../lib/gcc/riscv-none-embed/7.2.0/rv32im/ilp32\libgcc.a(muldf3.o)
                              ./src/uart.o (__muldf3)
d:/hummingbird/hbird-eclipse_2018_09/gnu mcu eclipse/risc-v embedded gcc/7.2.0-4-20180606-1631/bin/../lib/gcc/riscv-none-embed/7.2.0/rv32im/ilp32\libgcc.a(subdf3.o)
                              ./src/uart.o (__subdf3)
d:/hummingbird/hbird-eclipse_2018_09/gnu mcu eclipse/risc-v embedded gcc/7.2.0-4-20180606-1631/bin/../lib/gcc/riscv-none-embed/7.2.0/rv32im/ilp32\libgcc.a(fixdfsi.o)
                              ./src/uart.o (__fixdfsi)
d:/hummingbird/hbird-eclipse_2018_09/gnu mcu eclipse/risc-v embedded gcc/7.2.0-4-20180606-1631/bin/../lib/gcc/riscv-none-embed/7.2.0/rv32im/ilp32\libgcc.a(floatunsidf.o)
                              ./src/uart.o (__floatunsidf)
d:/hummingbird/hbird-eclipse_2018_09/gnu mcu eclipse/risc-v embedded gcc/7.2.0-4-20180606-1631/bin/../lib/gcc/riscv-none-embed/7.2.0/rv32im/ilp32\libgcc.a(_clzsi2.o)
                              d:/hummingbird/hbird-eclipse_2018_09/gnu mcu eclipse/risc-v embedded gcc/7.2.0-4-20180606-1631/bin/../lib/gcc/riscv-none-embed/7.2.0/rv32im/ilp32\libgcc.a(muldf3.o) (__clzsi2)
d:/hummingbird/hbird-eclipse_2018_09/gnu mcu eclipse/risc-v embedded gcc/7.2.0-4-20180606-1631/bin/../lib/gcc/riscv-none-embed/7.2.0/rv32im/ilp32\libgcc.a(_clz.o)
                              d:/hummingbird/hbird-eclipse_2018_09/gnu mcu eclipse/risc-v embedded gcc/7.2.0-4-20180606-1631/bin/../lib/gcc/riscv-none-embed/7.2.0/rv32im/ilp32\libgcc.a(_clzsi2.o) (__clz_tab)
d:/hummingbird/hbird-eclipse_2018_09/gnu mcu eclipse/risc-v embedded gcc/7.2.0-4-20180606-1631/bin/../lib/gcc/riscv-none-embed/7.2.0/../../../../riscv-none-embed/lib/rv32im/ilp32\libg.a(lib_a-memcpy.o)
                              ./src/nes/InfoNES_system.o (memcpy)
d:/hummingbird/hbird-eclipse_2018_09/gnu mcu eclipse/risc-v embedded gcc/7.2.0-4-20180606-1631/bin/../lib/gcc/riscv-none-embed/7.2.0/../../../../riscv-none-embed/lib/rv32im/ilp32\libg.a(lib_a-memset.o)
                              ./src/nes/InfoNES_system.o (memset)
d:/hummingbird/hbird-eclipse_2018_09/gnu mcu eclipse/risc-v embedded gcc/7.2.0-4-20180606-1631/bin/../lib/gcc/riscv-none-embed/7.2.0/../../../../riscv-none-embed/lib/rv32im/ilp32\libg.a(lib_a-rand.o)
                              ./src/snake.o (rand)
d:/hummingbird/hbird-eclipse_2018_09/gnu mcu eclipse/risc-v embedded gcc/7.2.0-4-20180606-1631/bin/../lib/gcc/riscv-none-embed/7.2.0/../../../../riscv-none-embed/lib/rv32im/ilp32\libg.a(lib_a-impure.o)
                              d:/hummingbird/hbird-eclipse_2018_09/gnu mcu eclipse/risc-v embedded gcc/7.2.0-4-20180606-1631/bin/../lib/gcc/riscv-none-embed/7.2.0/../../../../riscv-none-embed/lib/rv32im/ilp32\libg.a(lib_a-rand.o) (_impure_ptr)

Memory Configuration

Name             Origin             Length             Attributes
SMEM             0x0000000000010000 0x0000000000030000 xr
RAM              0x0000000000000000 0x0000000000010000 xrw
//FLASH          0x0000000000100000 0x0000000000400000 xr
//RAM            0x0000000000000000 0x0000000000000400 xrw
*default*        0x0000000000000000 0xffffffffffffffff

Linker script and memory map

LOAD ./src/nes/InfoNES.o
LOAD ./src/nes/InfoNES_Mapper.o
LOAD ./src/nes/InfoNES_pAPU.o
LOAD ./src/nes/InfoNES_system.o
LOAD ./src/nes/K6502.o
LOAD ./src/nes/rom.o
LOAD ./src/main.o
LOAD ./src/snake.o
LOAD ./src/start.o
LOAD ./src/uart.o
LOAD d:/hummingbird/hbird-eclipse_2018_09/gnu mcu eclipse/risc-v embedded gcc/7.2.0-4-20180606-1631/bin/../lib/gcc/riscv-none-embed/7.2.0/rv32im/ilp32\libgcc.a
START GROUP
LOAD d:/hummingbird/hbird-eclipse_2018_09/gnu mcu eclipse/risc-v embedded gcc/7.2.0-4-20180606-1631/bin/../lib/gcc/riscv-none-embed/7.2.0/rv32im/ilp32\libgcc.a
LOAD d:/hummingbird/hbird-eclipse_2018_09/gnu mcu eclipse/risc-v embedded gcc/7.2.0-4-20180606-1631/bin/../lib/gcc/riscv-none-embed/7.2.0/../../../../riscv-none-embed/lib/rv32im/ilp32\libg.a
LOAD d:/hummingbird/hbird-eclipse_2018_09/gnu mcu eclipse/risc-v embedded gcc/7.2.0-4-20180606-1631/bin/../lib/gcc/riscv-none-embed/7.2.0/../../../../riscv-none-embed/lib/rv32im/ilp32\libc.a
END GROUP
LOAD d:/hummingbird/hbird-eclipse_2018_09/gnu mcu eclipse/risc-v embedded gcc/7.2.0-4-20180606-1631/bin/../lib/gcc/riscv-none-embed/7.2.0/rv32im/ilp32\libgcc.a

.text           0x0000000000010000    0x2c3a4
                0x0000000000010000                . = ALIGN (0x4)
 *(.text)
 .text          0x0000000000010000        0x0 ./src/nes/InfoNES.o
 .text          0x0000000000010000        0x0 ./src/nes/InfoNES_Mapper.o
 .text          0x0000000000010000        0x0 ./src/nes/InfoNES_pAPU.o
 .text          0x0000000000010000        0x0 ./src/nes/InfoNES_system.o
 .text          0x0000000000010000        0x0 ./src/nes/K6502.o
 .text          0x0000000000010000        0x0 ./src/nes/rom.o
 .text          0x0000000000010000        0x0 ./src/main.o
 .text          0x0000000000010000        0x0 ./src/snake.o
 .text          0x0000000000010000       0xcc ./src/start.o
 .text          0x00000000000100cc        0x0 ./src/uart.o
 .text          0x00000000000100cc        0x0 d:/hummingbird/hbird-eclipse_2018_09/gnu mcu eclipse/risc-v embedded gcc/7.2.0-4-20180606-1631/bin/../lib/gcc/riscv-none-embed/7.2.0/rv32im/ilp32\libgcc.a(muldf3.o)
 .text          0x00000000000100cc        0x0 d:/hummingbird/hbird-eclipse_2018_09/gnu mcu eclipse/risc-v embedded gcc/7.2.0-4-20180606-1631/bin/../lib/gcc/riscv-none-embed/7.2.0/rv32im/ilp32\libgcc.a(subdf3.o)
 .text          0x00000000000100cc        0x0 d:/hummingbird/hbird-eclipse_2018_09/gnu mcu eclipse/risc-v embedded gcc/7.2.0-4-20180606-1631/bin/../lib/gcc/riscv-none-embed/7.2.0/rv32im/ilp32\libgcc.a(fixdfsi.o)
 .text          0x00000000000100cc        0x0 d:/hummingbird/hbird-eclipse_2018_09/gnu mcu eclipse/risc-v embedded gcc/7.2.0-4-20180606-1631/bin/../lib/gcc/riscv-none-embed/7.2.0/rv32im/ilp32\libgcc.a(floatunsidf.o)
 .text          0x00000000000100cc        0x0 d:/hummingbird/hbird-eclipse_2018_09/gnu mcu eclipse/risc-v embedded gcc/7.2.0-4-20180606-1631/bin/../lib/gcc/riscv-none-embed/7.2.0/rv32im/ilp32\libgcc.a(_clzsi2.o)
 .text          0x00000000000100cc        0x0 d:/hummingbird/hbird-eclipse_2018_09/gnu mcu eclipse/risc-v embedded gcc/7.2.0-4-20180606-1631/bin/../lib/gcc/riscv-none-embed/7.2.0/rv32im/ilp32\libgcc.a(_clz.o)
 .text          0x00000000000100cc        0x0 d:/hummingbird/hbird-eclipse_2018_09/gnu mcu eclipse/risc-v embedded gcc/7.2.0-4-20180606-1631/bin/../lib/gcc/riscv-none-embed/7.2.0/../../../../riscv-none-embed/lib/rv32im/ilp32\libg.a(lib_a-memcpy.o)
 .text          0x00000000000100cc       0xdc d:/hummingbird/hbird-eclipse_2018_09/gnu mcu eclipse/risc-v embedded gcc/7.2.0-4-20180606-1631/bin/../lib/gcc/riscv-none-embed/7.2.0/../../../../riscv-none-embed/lib/rv32im/ilp32\libg.a(lib_a-memset.o)
                0x00000000000100cc                memset
 .text          0x00000000000101a8        0x0 d:/hummingbird/hbird-eclipse_2018_09/gnu mcu eclipse/risc-v embedded gcc/7.2.0-4-20180606-1631/bin/../lib/gcc/riscv-none-embed/7.2.0/../../../../riscv-none-embed/lib/rv32im/ilp32\libg.a(lib_a-rand.o)
 .text          0x00000000000101a8        0x0 d:/hummingbird/hbird-eclipse_2018_09/gnu mcu eclipse/risc-v embedded gcc/7.2.0-4-20180606-1631/bin/../lib/gcc/riscv-none-embed/7.2.0/../../../../riscv-none-embed/lib/rv32im/ilp32\libg.a(lib_a-impure.o)
 *(.text*)
 .text.InfoNES_Init
                0x00000000000101a8       0x56 ./src/nes/InfoNES.o
                0x00000000000101a8                InfoNES_Init
 .text.InfoNES_Fin
                0x00000000000101fe        0x4 ./src/nes/InfoNES.o
                0x00000000000101fe                InfoNES_Fin
 .text.InfoNES_SetupPPU
                0x0000000000010202      0x164 ./src/nes/InfoNES.o
                0x0000000000010202                InfoNES_SetupPPU
 .text.InfoNES_Reset
                0x0000000000010366      0x112 ./src/nes/InfoNES.o
                0x0000000000010366                InfoNES_Reset
 .text.InfoNES_Load
                0x0000000000010478       0x26 ./src/nes/InfoNES.o
                0x0000000000010478                InfoNES_Load
 .text.InfoNES_Mirroring
                0x000000000001049e       0x46 ./src/nes/InfoNES.o
                0x000000000001049e                InfoNES_Mirroring
 .text.InfoNES_DrawLine
                0x00000000000104e4      0x5ec ./src/nes/InfoNES.o
                0x00000000000104e4                InfoNES_DrawLine
 .text.InfoNES_GetSprHitY
                0x0000000000010ad0       0xec ./src/nes/InfoNES.o
                0x0000000000010ad0                InfoNES_GetSprHitY
 .text.InfoNES_HSync
                0x0000000000010bbc      0x1b6 ./src/nes/InfoNES.o
                0x0000000000010bbc                InfoNES_HSync
 .text.InfoNES_Cycle
                0x0000000000010d72      0x11e ./src/nes/InfoNES.o
                0x0000000000010d72                InfoNES_Cycle
 .text.InfoNES_Main
                0x0000000000010e90       0x22 ./src/nes/InfoNES.o
                0x0000000000010e90                InfoNES_Main
 .text.Map0_Write
                0x0000000000010eb2        0x2 ./src/nes/InfoNES_Mapper.o
                0x0000000000010eb2                Map0_Write
 .text.Map0_ReadApu
                0x0000000000010eb4        0x4 ./src/nes/InfoNES_Mapper.o
                0x0000000000010eb4                Map0_ReadApu
 .text.Map0_VSync
                0x0000000000010eb8        0x2 ./src/nes/InfoNES_Mapper.o
                0x0000000000010eb8                Map0_VSync
 .text.Map0_PPU
                0x0000000000010eba        0x2 ./src/nes/InfoNES_Mapper.o
                0x0000000000010eba                Map0_PPU
 .text.Map0_RenderScreen
                0x0000000000010ebc        0x2 ./src/nes/InfoNES_Mapper.o
                0x0000000000010ebc                Map0_RenderScreen
 .text.Map2_Write
                0x0000000000010ebe       0x2e ./src/nes/InfoNES_Mapper.o
                0x0000000000010ebe                Map2_Write
 .text.Map3_Write
                0x0000000000010eec       0x6c ./src/nes/InfoNES_Mapper.o
                0x0000000000010eec                Map3_Write
 .text.Map4_HSync
                0x0000000000010f58       0xb4 ./src/nes/InfoNES_Mapper.o
                0x0000000000010f58                Map4_HSync
 .text.Map8_Write
                0x000000000001100c       0xaa ./src/nes/InfoNES_Mapper.o
                0x000000000001100c                Map8_Write
 .text.Map9_PPU
                0x00000000000110b6      0x13c ./src/nes/InfoNES_Mapper.o
                0x00000000000110b6                Map9_PPU
 .text.Map10_PPU
                0x00000000000111f2      0x13c ./src/nes/InfoNES_Mapper.o
                0x00000000000111f2                Map10_PPU
 .text.Map11_Write
                0x000000000001132e       0xfc ./src/nes/InfoNES_Mapper.o
                0x000000000001132e                Map11_Write
 .text.Map13_Write
                0x000000000001142a       0x96 ./src/nes/InfoNES_Mapper.o
                0x000000000001142a                Map13_Write
 .text.Map21_HSync
                0x00000000000114c0       0x50 ./src/nes/InfoNES_Mapper.o
                0x00000000000114c0                Map21_HSync
 .text.Map34_Write
                0x0000000000011510       0x48 ./src/nes/InfoNES_Mapper.o
                0x0000000000011510                Map34_Write
 .text.Map34_Sram
                0x0000000000011558       0xf8 ./src/nes/InfoNES_Mapper.o
                0x0000000000011558                Map34_Sram
 .text.Map66_Write
                0x0000000000011650       0xc2 ./src/nes/InfoNES_Mapper.o
                0x0000000000011650                Map66_Write
 .text.Map72_Write
                0x0000000000011712       0xb0 ./src/nes/InfoNES_Mapper.o
                0x0000000000011712                Map72_Write
 .text.Map73_Write
                0x00000000000117c2       0xd4 ./src/nes/InfoNES_Mapper.o
                0x00000000000117c2                Map73_Write
 .text.Map74_HSync
                0x0000000000011896       0xb4 ./src/nes/InfoNES_Mapper.o
                0x0000000000011896                Map74_HSync
 .text.Map77_Write
                0x000000000001194a       0x80 ./src/nes/InfoNES_Mapper.o
                0x000000000001194a                Map77_Write
 .text.Map79_Apu
                0x00000000000119ca       0xc4 ./src/nes/InfoNES_Mapper.o
                0x00000000000119ca                Map79_Apu
 .text.Map83_ReadApu
                0x0000000000011a8e       0x1a ./src/nes/InfoNES_Mapper.o
                0x0000000000011a8e                Map83_ReadApu
 .text.Map83_Apu
                0x0000000000011aa8       0x1c ./src/nes/InfoNES_Mapper.o
                0x0000000000011aa8                Map83_Apu
 .text.Map90_Apu
                0x0000000000011ac4       0x1e ./src/nes/InfoNES_Mapper.o
                0x0000000000011ac4                Map90_Apu
 .text.Map91_Sram
                0x0000000000011ae2      0x132 ./src/nes/InfoNES_Mapper.o
                0x0000000000011ae2                Map91_Sram
 .text.Map92_Write
                0x0000000000011c14       0xda ./src/nes/InfoNES_Mapper.o
                0x0000000000011c14                Map92_Write
 .text.Map99_Apu
                0x0000000000011cee      0x104 ./src/nes/InfoNES_Mapper.o
                0x0000000000011cee                Map99_Apu
 .text.Map99_ReadApu
                0x0000000000011df2       0x16 ./src/nes/InfoNES_Mapper.o
                0x0000000000011df2                Map99_ReadApu
 .text.Map101_Write
                0x0000000000011e08       0x72 ./src/nes/InfoNES_Mapper.o
                0x0000000000011e08                Map101_Write
 .text.Map107_Write
                0x0000000000011e7a       0xf4 ./src/nes/InfoNES_Mapper.o
                0x0000000000011e7a                Map107_Write
 .text.Map108_Write
                0x0000000000011f6e       0x1e ./src/nes/InfoNES_Mapper.o
                0x0000000000011f6e                Map108_Write
 .text.Map117_Write
                0x0000000000011f8c      0x1c6 ./src/nes/InfoNES_Mapper.o
                0x0000000000011f8c                Map117_Write
 .text.Map140_Apu
                0x0000000000012152      0x114 ./src/nes/InfoNES_Mapper.o
                0x0000000000012152                Map140_Apu
 .text.Map140_Sram
                0x0000000000012266        0x2 ./src/nes/InfoNES_Mapper.o
                0x0000000000012266                Map140_Sram
 .text.Map151_Write
                0x0000000000012268      0x124 ./src/nes/InfoNES_Mapper.o
                0x0000000000012268                Map151_Write
 .text.Map160_Write
                0x000000000001238c      0x26c ./src/nes/InfoNES_Mapper.o
                0x000000000001238c                Map160_Write
 .text.Map160_HSync
                0x00000000000125f8      0x41a ./src/nes/InfoNES_Mapper.o
                0x00000000000125f8                Map160_HSync
 .text.Map180_Write
                0x0000000000012a12       0x2e ./src/nes/InfoNES_Mapper.o
                0x0000000000012a12                Map180_Write
 .text.Map187_ReadApu
                0x0000000000012a40       0x18 ./src/nes/InfoNES_Mapper.o
                0x0000000000012a40                Map187_ReadApu
 .text.Map187_HSync
                0x0000000000012a58       0x5e ./src/nes/InfoNES_Mapper.o
                0x0000000000012a58                Map187_HSync
 .text.Map193_Sram
                0x0000000000012ab6      0x12c ./src/nes/InfoNES_Mapper.o
                0x0000000000012ab6                Map193_Sram
 .text.Map194_Write
                0x0000000000012be2        0x4 ./src/nes/InfoNES_Mapper.o
                0x0000000000012be2                Map194_Write
 .text.Map201_Write
                0x0000000000012be6      0x118 ./src/nes/InfoNES_Mapper.o
                0x0000000000012be6                Map201_Write
 .text.Map222_Write
                0x0000000000012cfe      0x184 ./src/nes/InfoNES_Mapper.o
                0x0000000000012cfe                Map222_Write
 .text.Map232_Write
                0x0000000000012e82       0x96 ./src/nes/InfoNES_Mapper.o
                0x0000000000012e82                Map232_Write
 .text.Map242_Write
                0x0000000000012f18       0x60 ./src/nes/InfoNES_Mapper.o
                0x0000000000012f18                Map242_Write
 .text.Map245_HSync
                0x0000000000012f78       0x6c ./src/nes/InfoNES_Mapper.o
                0x0000000000012f78                Map245_HSync
 .text.Map248_Sram
                0x0000000000012fe4       0x4e ./src/nes/InfoNES_Mapper.o
                0x0000000000012fe4                Map248_Sram
 .text.Map248_Apu
                0x0000000000013032        0x2 ./src/nes/InfoNES_Mapper.o
                0x0000000000013032                Map248_Apu
 .text.Map249_HSync
                0x0000000000013034       0x6c ./src/nes/InfoNES_Mapper.o
                0x0000000000013034                Map249_HSync
 .text.Map252_HSync
                0x00000000000130a0       0x58 ./src/nes/InfoNES_Mapper.o
                0x00000000000130a0                Map252_HSync
 .text.Map255_Apu
                0x00000000000130f8       0x1c ./src/nes/InfoNES_Mapper.o
                0x00000000000130f8                Map255_Apu
 .text.Map255_ReadApu
                0x0000000000013114       0x20 ./src/nes/InfoNES_Mapper.o
                0x0000000000013114                Map255_ReadApu
 .text.Map0_Init
                0x0000000000013134      0x128 ./src/nes/InfoNES_Mapper.o
                0x0000000000013134                Map0_Init
 .text.Map2_Init
                0x000000000001325c       0xc6 ./src/nes/InfoNES_Mapper.o
                0x000000000001325c                Map2_Init
 .text.Map3_Init
                0x0000000000013322      0x10a ./src/nes/InfoNES_Mapper.o
                0x0000000000013322                Map3_Init
 .text.Map7_Init
                0x000000000001342c       0xbc ./src/nes/InfoNES_Mapper.o
                0x000000000001342c                Map7_Init
 .text.Map8_Init
                0x00000000000134e8       0xe0 ./src/nes/InfoNES_Mapper.o
                0x00000000000134e8                Map8_Init
 .text.Map9_Init
                0x00000000000135c8      0x10e ./src/nes/InfoNES_Mapper.o
                0x00000000000135c8                Map9_Init
 .text.Map10_Init
                0x00000000000136d6      0x10a ./src/nes/InfoNES_Mapper.o
                0x00000000000136d6                Map10_Init
 .text.Map13_Init
                0x00000000000137e0       0xee ./src/nes/InfoNES_Mapper.o
                0x00000000000137e0                Map13_Init
 .text.Map15_Init
                0x00000000000138ce       0xbc ./src/nes/InfoNES_Mapper.o
                0x00000000000138ce                Map15_Init
 .text.Map16_Init
                0x000000000001398a       0xe0 ./src/nes/InfoNES_Mapper.o
                0x000000000001398a                Map16_Init
 .text.Map17_Init
                0x0000000000013a6a       0xfe ./src/nes/InfoNES_Mapper.o
                0x0000000000013a6a                Map17_Init
 .text.Map18_Init
                0x0000000000013b68       0xf0 ./src/nes/InfoNES_Mapper.o
                0x0000000000013b68                Map18_Init
 .text.Map21_Init
                0x0000000000013c58       0xf6 ./src/nes/InfoNES_Mapper.o
                0x0000000000013c58                Map21_Init
 .text.Map22_Init
                0x0000000000013d4e       0xec ./src/nes/InfoNES_Mapper.o
                0x0000000000013d4e                Map22_Init
 .text.Map23_Init
                0x0000000000013e3a      0x11c ./src/nes/InfoNES_Mapper.o
                0x0000000000013e3a                Map23_Init
 .text.Map24_Init
                0x0000000000013f56       0xc6 ./src/nes/InfoNES_Mapper.o
                0x0000000000013f56                Map24_Init
 .text.Map25_Init
                0x000000000001401c       0xde ./src/nes/InfoNES_Mapper.o
                0x000000000001401c                Map25_Init
 .text.Map26_Init
                0x00000000000140fa       0xf8 ./src/nes/InfoNES_Mapper.o
                0x00000000000140fa                Map26_Init
 .text.Map32_Init
                0x00000000000141f2       0xf2 ./src/nes/InfoNES_Mapper.o
                0x00000000000141f2                Map32_Init
 .text.Map33_Init
                0x00000000000142e4      0x11c ./src/nes/InfoNES_Mapper.o
                0x00000000000142e4                Map33_Init
 .text.Map34_Init
                0x0000000000014400       0xec ./src/nes/InfoNES_Mapper.o
                0x0000000000014400                Map34_Init
 .text.Map40_Init
                0x00000000000144ec       0xec ./src/nes/InfoNES_Mapper.o
                0x00000000000144ec                Map40_Init
 .text.Map41_Init
                0x00000000000145d8       0xe0 ./src/nes/InfoNES_Mapper.o
                0x00000000000145d8                Map41_Init
 .text.Map42_Init
                0x00000000000146b8       0xf2 ./src/nes/InfoNES_Mapper.o
                0x00000000000146b8                Map42_Init
 .text.Map43_Init
                0x00000000000147aa       0xee ./src/nes/InfoNES_Mapper.o
                0x00000000000147aa                Map43_Init
 .text.Map45_Init
                0x0000000000014898      0x194 ./src/nes/InfoNES_Mapper.o
                0x0000000000014898                Map45_Init
 .text.Map48_Init
                0x0000000000014a2c       0xfe ./src/nes/InfoNES_Mapper.o
                0x0000000000014a2c                Map48_Init
 .text.Map49_Init
                0x0000000000014b2a      0x134 ./src/nes/InfoNES_Mapper.o
                0x0000000000014b2a                Map49_Init
 .text.Map50_Init
                0x0000000000014c5e      0x10a ./src/nes/InfoNES_Mapper.o
                0x0000000000014c5e                Map50_Init
 .text.Map57_Init
                0x0000000000014d68       0xde ./src/nes/InfoNES_Mapper.o
                0x0000000000014d68                Map57_Init
 .text.Map58_Init
                0x0000000000014e46       0xd8 ./src/nes/InfoNES_Mapper.o
                0x0000000000014e46                Map58_Init
 .text.Map60_Init
                0x0000000000014f1e       0xe0 ./src/nes/InfoNES_Mapper.o
                0x0000000000014f1e                Map60_Init
 .text.Map61_Init
                0x0000000000014ffe       0xc6 ./src/nes/InfoNES_Mapper.o
                0x0000000000014ffe                Map61_Init
 .text.Map62_Init
                0x00000000000150c4       0xe0 ./src/nes/InfoNES_Mapper.o
                0x00000000000150c4                Map62_Init
 .text.Map64_Init
                0x00000000000151a4       0xf6 ./src/nes/InfoNES_Mapper.o
                0x00000000000151a4                Map64_Init
 .text.Map65_Init
                0x000000000001529a       0xec ./src/nes/InfoNES_Mapper.o
                0x000000000001529a                Map65_Init
 .text.Map66_Init
                0x0000000000015386       0xda ./src/nes/InfoNES_Mapper.o
                0x0000000000015386                Map66_Init
 .text.Map67_Init
                0x0000000000015460      0x148 ./src/nes/InfoNES_Mapper.o
                0x0000000000015460                Map67_Init
 .text.Map68_Init
                0x00000000000155a8       0xcc ./src/nes/InfoNES_Mapper.o
                0x00000000000155a8                Map68_Init
 .text.Map69_Init
                0x0000000000015674       0xf8 ./src/nes/InfoNES_Mapper.o
                0x0000000000015674                Map69_Init
 .text.Map70_Init
                0x000000000001576c       0xc6 ./src/nes/InfoNES_Mapper.o
                0x000000000001576c                Map70_Init
 .text.Map71_Init
                0x0000000000015832       0xc6 ./src/nes/InfoNES_Mapper.o
                0x0000000000015832                Map71_Init
 .text.Map72_Init
                0x00000000000158f8       0xec ./src/nes/InfoNES_Mapper.o
                0x00000000000158f8                Map72_Init
 .text.Map73_Init
                0x00000000000159e4       0xd2 ./src/nes/InfoNES_Mapper.o
                0x00000000000159e4                Map73_Init
 .text.Map75_Init
                0x0000000000015ab6       0xf6 ./src/nes/InfoNES_Mapper.o
                0x0000000000015ab6                Map75_Init
 .text.Map76_Init
                0x0000000000015bac       0xec ./src/nes/InfoNES_Mapper.o
                0x0000000000015bac                Map76_Init
 .text.Map77_Init
                0x0000000000015c98       0xc4 ./src/nes/InfoNES_Mapper.o
                0x0000000000015c98                Map77_Init
 .text.Map78_Init
                0x0000000000015d5c       0xec ./src/nes/InfoNES_Mapper.o
                0x0000000000015d5c                Map78_Init
 .text.Map79_Init
                0x0000000000015e48       0xe0 ./src/nes/InfoNES_Mapper.o
                0x0000000000015e48                Map79_Init
 .text.Map80_Init
                0x0000000000015f28       0xec ./src/nes/InfoNES_Mapper.o
                0x0000000000015f28                Map80_Init
 .text.Map83_Init
                0x0000000000016014      0x146 ./src/nes/InfoNES_Mapper.o
                0x0000000000016014                Map83_Init
 .text.Map86_Init
                0x000000000001615a       0xe0 ./src/nes/InfoNES_Mapper.o
                0x000000000001615a                Map86_Init
 .text.Map87_Init
                0x000000000001623a       0xe0 ./src/nes/InfoNES_Mapper.o
                0x000000000001623a                Map87_Init
 .text.Map88_Init
                0x000000000001631a       0xec ./src/nes/InfoNES_Mapper.o
                0x000000000001631a                Map88_Init
 .text.Map89_Init
                0x0000000000016406       0xec ./src/nes/InfoNES_Mapper.o
                0x0000000000016406                Map89_Init
 .text.Map90_Init
                0x00000000000164f2      0x16e ./src/nes/InfoNES_Mapper.o
                0x00000000000164f2                Map90_Init
 .text.Map92_Init
                0x0000000000016660       0xec ./src/nes/InfoNES_Mapper.o
                0x0000000000016660                Map92_Init
 .text.Map93_Init
                0x000000000001674c       0xec ./src/nes/InfoNES_Mapper.o
                0x000000000001674c                Map93_Init
 .text.Map94_Init
                0x0000000000016838       0xc6 ./src/nes/InfoNES_Mapper.o
                0x0000000000016838                Map94_Init
 .text.Map97_Init
                0x00000000000168fe       0xee ./src/nes/InfoNES_Mapper.o
                0x00000000000168fe                Map97_Init
 .text.Map99_Init
                0x00000000000169ec      0x12e ./src/nes/InfoNES_Mapper.o
                0x00000000000169ec                Map99_Init
 .text.Map101_Init
                0x0000000000016b1a       0xda ./src/nes/InfoNES_Mapper.o
                0x0000000000016b1a                Map101_Init
 .text.Map105_Init
                0x0000000000016bf4       0xe6 ./src/nes/InfoNES_Mapper.o
                0x0000000000016bf4                Map105_Init
 .text.Map107_Init
                0x0000000000016cda       0xec ./src/nes/InfoNES_Mapper.o
                0x0000000000016cda                Map107_Init
 .text.Map108_Init
                0x0000000000016dc6       0xde ./src/nes/InfoNES_Mapper.o
                0x0000000000016dc6                Map108_Init
 .text.Map110_Init
                0x0000000000016ea4       0xec ./src/nes/InfoNES_Mapper.o
                0x0000000000016ea4                Map110_Init
 .text.Map113_Init
                0x0000000000016f90       0xe0 ./src/nes/InfoNES_Mapper.o
                0x0000000000016f90                Map113_Init
 .text.Map117_Init
                0x0000000000017070      0x100 ./src/nes/InfoNES_Mapper.o
                0x0000000000017070                Map117_Init
 .text.Map122_Init
                0x0000000000017170       0xbc ./src/nes/InfoNES_Mapper.o
                0x0000000000017170                Map122_Init
 .text.Map133_Init
                0x000000000001722c       0xe0 ./src/nes/InfoNES_Mapper.o
                0x000000000001722c                Map133_Init
 .text.Map134_Init
                0x000000000001730c       0xe0 ./src/nes/InfoNES_Mapper.o
                0x000000000001730c                Map134_Init
 .text.Map140_Init
                0x00000000000173ec       0xe0 ./src/nes/InfoNES_Mapper.o
                0x00000000000173ec                Map140_Init
 .text.Map151_Init
                0x00000000000174cc       0xec ./src/nes/InfoNES_Mapper.o
                0x00000000000174cc                Map151_Init
 .text.Map160_Init
                0x00000000000175b8       0xde ./src/nes/InfoNES_Mapper.o
                0x00000000000175b8                Map160_Init
 .text.Map180_Init
                0x0000000000017696       0xe0 ./src/nes/InfoNES_Mapper.o
                0x0000000000017696                Map180_Init
 .text.Map181_Init
                0x0000000000017776       0xe0 ./src/nes/InfoNES_Mapper.o
                0x0000000000017776                Map181_Init
 .text.Map182_Init
                0x0000000000017856       0xfe ./src/nes/InfoNES_Mapper.o
                0x0000000000017856                Map182_Init
 .text.Map183_Init
                0x0000000000017954      0x112 ./src/nes/InfoNES_Mapper.o
                0x0000000000017954                Map183_Init
 .text.Map185_Init
                0x0000000000017a66       0xd2 ./src/nes/InfoNES_Mapper.o
                0x0000000000017a66                Map185_Init
 .text.Map189_Init
                0x0000000000017b38       0xfe ./src/nes/InfoNES_Mapper.o
                0x0000000000017b38                Map189_Init
 .text.Map193_Init
                0x0000000000017c36       0xf6 ./src/nes/InfoNES_Mapper.o
                0x0000000000017c36                Map193_Init
 .text.Map194_Init
                0x0000000000017d2c       0xd0 ./src/nes/InfoNES_Mapper.o
                0x0000000000017d2c                Map194_Init
 .text.Map200_Init
                0x0000000000017dfc       0xd8 ./src/nes/InfoNES_Mapper.o
                0x0000000000017dfc                Map200_Init
 .text.Map201_Init
                0x0000000000017ed4       0xd8 ./src/nes/InfoNES_Mapper.o
                0x0000000000017ed4                Map201_Init
 .text.Map202_Init
                0x0000000000017fac       0xe4 ./src/nes/InfoNES_Mapper.o
                0x0000000000017fac                Map202_Init
 .text.Map225_Init
                0x0000000000018090       0xe0 ./src/nes/InfoNES_Mapper.o
                0x0000000000018090                Map225_Init
 .text.Map226_Init
                0x0000000000018170       0xc2 ./src/nes/InfoNES_Mapper.o
                0x0000000000018170                Map226_Init
 .text.Map227_Init
                0x0000000000018232       0xb4 ./src/nes/InfoNES_Mapper.o
                0x0000000000018232                Map227_Init
 .text.Map228_Init
                0x00000000000182e6       0xe0 ./src/nes/InfoNES_Mapper.o
                0x00000000000182e6                Map228_Init
 .text.Map229_Init
                0x00000000000183c6       0xe0 ./src/nes/InfoNES_Mapper.o
                0x00000000000183c6                Map229_Init
 .text.Map230_Init
                0x00000000000184a6      0x112 ./src/nes/InfoNES_Mapper.o
                0x00000000000184a6                Map230_Init
 .text.Map231_Init
                0x00000000000185b8       0xe0 ./src/nes/InfoNES_Mapper.o
                0x00000000000185b8                Map231_Init
 .text.Map232_Init
                0x0000000000018698       0xce ./src/nes/InfoNES_Mapper.o
                0x0000000000018698                Map232_Init
 .text.Map233_Init
                0x0000000000018766       0xbc ./src/nes/InfoNES_Mapper.o
                0x0000000000018766                Map233_Init
 .text.Map234_Init
                0x0000000000018822       0xc2 ./src/nes/InfoNES_Mapper.o
                0x0000000000018822                Map234_Init
 .text.Map236_Init
                0x00000000000188e4       0xd2 ./src/nes/InfoNES_Mapper.o
                0x00000000000188e4                Map236_Init
 .text.Map240_Init
                0x00000000000189b6       0xec ./src/nes/InfoNES_Mapper.o
                0x00000000000189b6                Map240_Init
 .text.Map241_Init
                0x0000000000018aa2       0xe0 ./src/nes/InfoNES_Mapper.o
                0x0000000000018aa2                Map241_Init
 .text.Map242_Init
                0x0000000000018b82       0xbc ./src/nes/InfoNES_Mapper.o
                0x0000000000018b82                Map242_Init
 .text.Map243_Init
                0x0000000000018c3e       0xe6 ./src/nes/InfoNES_Mapper.o
                0x0000000000018c3e                Map243_Init
 .text.Map244_Init
                0x0000000000018d24       0xbc ./src/nes/InfoNES_Mapper.o
                0x0000000000018d24                Map244_Init
 .text.Map245_Init
                0x0000000000018de0      0x128 ./src/nes/InfoNES_Mapper.o
                0x0000000000018de0                Map245_Init
 .text.Map246_Init
                0x0000000000018f08       0xc6 ./src/nes/InfoNES_Mapper.o
                0x0000000000018f08                Map246_Init
 .text.Map249_Init
                0x0000000000018fce      0x11a ./src/nes/InfoNES_Mapper.o
                0x0000000000018fce                Map249_Init
 .text.Map252_Init
                0x00000000000190e8      0x120 ./src/nes/InfoNES_Mapper.o
                0x00000000000190e8                Map252_Init
 .text.Map7_Write
                0x0000000000019208       0x52 ./src/nes/InfoNES_Mapper.o
                0x0000000000019208                Map7_Write
 .text.Map9_Write
                0x000000000001925a      0x166 ./src/nes/InfoNES_Mapper.o
                0x000000000001925a                Map9_Write
 .text.Map10_Write
                0x00000000000193c0      0x176 ./src/nes/InfoNES_Mapper.o
                0x00000000000193c0                Map10_Write
 .text.Map11_Init
                0x0000000000019536       0xee ./src/nes/InfoNES_Mapper.o
                0x0000000000019536                Map11_Init
 .text.Map15_Write
                0x0000000000019624      0x136 ./src/nes/InfoNES_Mapper.o
                0x0000000000019624                Map15_Write
 .text.Map16_Write
                0x000000000001975a      0x1a6 ./src/nes/InfoNES_Mapper.o
                0x000000000001975a                Map16_Write
 .text.Map17_Apu
                0x0000000000019900      0x258 ./src/nes/InfoNES_Mapper.o
                0x0000000000019900                Map17_Apu
 .text.Map18_Write
                0x0000000000019b58      0x630 ./src/nes/InfoNES_Mapper.o
                0x0000000000019b58                Map18_Write
 .text.Map21_Write
                0x000000000001a188      0x544 ./src/nes/InfoNES_Mapper.o
                0x000000000001a188                Map21_Write
 .text.Map22_Write
                0x000000000001a6cc      0x1c0 ./src/nes/InfoNES_Mapper.o
                0x000000000001a6cc                Map22_Write
 .text.Map23_Write
                0x000000000001a88c      0x5b8 ./src/nes/InfoNES_Mapper.o
                0x000000000001a88c                Map23_Write
 .text.Map24_Write
                0x000000000001ae44      0x22a ./src/nes/InfoNES_Mapper.o
                0x000000000001ae44                Map24_Write
 .text.Map26_Write
                0x000000000001b06e      0x21e ./src/nes/InfoNES_Mapper.o
                0x000000000001b06e                Map26_Write
 .text.Map33_Write
                0x000000000001b28c      0x1f8 ./src/nes/InfoNES_Mapper.o
                0x000000000001b28c                Map33_Write
 .text.Map48_Write
                0x000000000001b484      0x1d0 ./src/nes/InfoNES_Mapper.o
                0x000000000001b484                Map48_Write
 .text.Map57_Write
                0x000000000001b654      0x212 ./src/nes/InfoNES_Mapper.o
                0x000000000001b654                Map57_Write
 .text.Map58_Write
                0x000000000001b866      0x136 ./src/nes/InfoNES_Mapper.o
                0x000000000001b866                Map58_Write
 .text.Map60_Write
                0x000000000001b99c      0x11e ./src/nes/InfoNES_Mapper.o
                0x000000000001b99c                Map60_Write
 .text.Map61_Write
                0x000000000001baba       0xe4 ./src/nes/InfoNES_Mapper.o
                0x000000000001baba                Map61_Write
 .text.Map65_Write
                0x000000000001bb9e      0x208 ./src/nes/InfoNES_Mapper.o
                0x000000000001bb9e                Map65_Write
 .text.Map67_Write
                0x000000000001bda6      0x1ae ./src/nes/InfoNES_Mapper.o
                0x000000000001bda6                Map67_Write
 .text.Map70_Write
                0x000000000001bf54       0xbe ./src/nes/InfoNES_Mapper.o
                0x000000000001bf54                Map70_Write
 .text.Map75_Write
                0x000000000001c012      0x1dc ./src/nes/InfoNES_Mapper.o
                0x000000000001c012                Map75_Write
 .text.Map78_Write
                0x000000000001c1ee       0xd6 ./src/nes/InfoNES_Mapper.o
                0x000000000001c1ee                Map78_Write
 .text.Map80_Sram
                0x000000000001c2c4      0x178 ./src/nes/InfoNES_Mapper.o
                0x000000000001c2c4                Map80_Sram
 .text.Map82_Init
                0x000000000001c43c       0xfa ./src/nes/InfoNES_Mapper.o
                0x000000000001c43c                Map82_Init
 .text.Map82_Sram
                0x000000000001c536      0x1f4 ./src/nes/InfoNES_Mapper.o
                0x000000000001c536                Map82_Sram
 .text.Map83_Write
                0x000000000001c72a      0x510 ./src/nes/InfoNES_Mapper.o
                0x000000000001c72a                Map83_Write
 .text.Map91_Init
                0x000000000001cc3a       0xf8 ./src/nes/InfoNES_Mapper.o
                0x000000000001cc3a                Map91_Init
 .text.Map105_Write
                0x000000000001cd32      0x232 ./src/nes/InfoNES_Mapper.o
                0x000000000001cd32                Map105_Write
 .text.Map134_Apu
                0x000000000001cf64      0x1e8 ./src/nes/InfoNES_Mapper.o
                0x000000000001cf64                Map134_Apu
 .text.Map183_Write
                0x000000000001d14c      0x58c ./src/nes/InfoNES_Mapper.o
                0x000000000001d14c                Map183_Write
 .text.Map200_Write
                0x000000000001d6d8       0xf2 ./src/nes/InfoNES_Mapper.o
                0x000000000001d6d8                Map200_Write
 .text.Map222_Init
                0x000000000001d7ca       0xfa ./src/nes/InfoNES_Mapper.o
                0x000000000001d7ca                Map222_Init
 .text.Map225_Write
                0x000000000001d8c4      0x1a0 ./src/nes/InfoNES_Mapper.o
                0x000000000001d8c4                Map225_Write
 .text.Map226_Write
                0x000000000001da64      0x114 ./src/nes/InfoNES_Mapper.o
                0x000000000001da64                Map226_Write
 .text.Map227_Write
                0x000000000001db78      0x11c ./src/nes/InfoNES_Mapper.o
                0x000000000001db78                Map227_Write
 .text.Map228_Write
                0x000000000001dc94      0x178 ./src/nes/InfoNES_Mapper.o
                0x000000000001dc94                Map228_Write
 .text.Map229_Write
                0x000000000001de0c      0x178 ./src/nes/InfoNES_Mapper.o
                0x000000000001de0c                Map229_Write
 .text.Map231_Write
                0x000000000001df84       0x90 ./src/nes/InfoNES_Mapper.o
                0x000000000001df84                Map231_Write
 .text.Map233_Write
                0x000000000001e014       0xc6 ./src/nes/InfoNES_Mapper.o
                0x000000000001e014                Map233_Write
 .text.Map236_Write
                0x000000000001e0da      0x1ae ./src/nes/InfoNES_Mapper.o
                0x000000000001e0da                Map236_Write
 .text.Map245_Write
                0x000000000001e288      0x174 ./src/nes/InfoNES_Mapper.o
                0x000000000001e288                Map245_Write
 .text.Map249_Write
                0x000000000001e3fc      0x516 ./src/nes/InfoNES_Mapper.o
                0x000000000001e3fc                Map249_Write
 .text.Map251_Init
                0x000000000001e912       0xf0 ./src/nes/InfoNES_Mapper.o
                0x000000000001e912                Map251_Init
 .text.Map255_Init
                0x000000000001ea02       0xf4 ./src/nes/InfoNES_Mapper.o
                0x000000000001ea02                Map255_Init
 .text.Map255_Write
                0x000000000001eaf6      0x196 ./src/nes/InfoNES_Mapper.o
                0x000000000001eaf6                Map255_Write
 .text.Map25_Write
                0x000000000001ec8c      0x210 ./src/nes/InfoNES_Mapper.o
                0x000000000001ec8c                Map25_Write
 .text.Map16_HSync
                0x000000000001ee9c       0x34 ./src/nes/InfoNES_Mapper.o
                0x000000000001ee9c                Map16_HSync
 .text.Map17_HSync
                0x000000000001eed0       0x36 ./src/nes/InfoNES_Mapper.o
                0x000000000001eed0                Map17_HSync
 .text.Map18_HSync
                0x000000000001ef06       0x38 ./src/nes/InfoNES_Mapper.o
                0x000000000001ef06                Map18_HSync
 .text.Map24_HSync
                0x000000000001ef3e       0x36 ./src/nes/InfoNES_Mapper.o
                0x000000000001ef3e                Map24_HSync
 .text.Map25_HSync
                0x000000000001ef74       0x32 ./src/nes/InfoNES_Mapper.o
                0x000000000001ef74                Map25_HSync
 .text.Map26_HSync
                0x000000000001efa6       0x3e ./src/nes/InfoNES_Mapper.o
                0x000000000001efa6                Map26_HSync
 .text.Map40_Write
                0x000000000001efe4       0x54 ./src/nes/InfoNES_Mapper.o
                0x000000000001efe4                Map40_Write
 .text.Map40_HSync
                0x000000000001f038       0x1e ./src/nes/InfoNES_Mapper.o
                0x000000000001f038                Map40_HSync
 .text.Map41_Write
                0x000000000001f056       0x8a ./src/nes/InfoNES_Mapper.o
                0x000000000001f056                Map41_Write
 .text.Map42_HSync
                0x000000000001f0e0       0x3e ./src/nes/InfoNES_Mapper.o
                0x000000000001f0e0                Map42_HSync
 .text.Map43_ReadApu
                0x000000000001f11e       0x24 ./src/nes/InfoNES_Mapper.o
                0x000000000001f11e                Map43_ReadApu
 .text.Map43_Apu
                0x000000000001f142       0x74 ./src/nes/InfoNES_Mapper.o
                0x000000000001f142                Map43_Apu
 .text.Map43_Write
                0x000000000001f1b6       0x28 ./src/nes/InfoNES_Mapper.o
                0x000000000001f1b6                Map43_Write
 .text.Map43_HSync
                0x000000000001f1de       0x30 ./src/nes/InfoNES_Mapper.o
                0x000000000001f1de                Map43_HSync
 .text.Map44_HSync
                0x000000000001f20e       0x46 ./src/nes/InfoNES_Mapper.o
                0x000000000001f20e                Map44_HSync
 .text.Map45_HSync
                0x000000000001f254       0x46 ./src/nes/InfoNES_Mapper.o
                0x000000000001f254                Map45_HSync
 .text.Map47_HSync
                0x000000000001f29a       0x48 ./src/nes/InfoNES_Mapper.o
                0x000000000001f29a                Map47_HSync
 .text.Map48_HSync
                0x000000000001f2e2       0x4a ./src/nes/InfoNES_Mapper.o
                0x000000000001f2e2                Map48_HSync
 .text.Map49_HSync
                0x000000000001f32c       0x46 ./src/nes/InfoNES_Mapper.o
                0x000000000001f32c                Map49_HSync
 .text.Map50_Apu
                0x000000000001f372       0x56 ./src/nes/InfoNES_Mapper.o
                0x000000000001f372                Map50_Apu
 .text.Map50_HSync
                0x000000000001f3c8       0x1e ./src/nes/InfoNES_Mapper.o
                0x000000000001f3c8                Map50_HSync
 .text.Map62_Write
                0x000000000001f3e6      0x11a ./src/nes/InfoNES_Mapper.o
                0x000000000001f3e6                Map62_Write
 .text.Map65_HSync
                0x000000000001f500       0x36 ./src/nes/InfoNES_Mapper.o
                0x000000000001f500                Map65_HSync
 .text.Map67_HSync
                0x000000000001f536       0x4e ./src/nes/InfoNES_Mapper.o
                0x000000000001f536                Map67_HSync
 .text.Map69_HSync
                0x000000000001f584       0x2c ./src/nes/InfoNES_Mapper.o
                0x000000000001f584                Map69_HSync
 .text.Map73_HSync
                0x000000000001f5b0       0x36 ./src/nes/InfoNES_Mapper.o
                0x000000000001f5b0                Map73_HSync
 .text.Map76_Write
                0x000000000001f5e6      0x12c ./src/nes/InfoNES_Mapper.o
                0x000000000001f5e6                Map76_Write
 .text.Map83_HSync
                0x000000000001f712       0x30 ./src/nes/InfoNES_Mapper.o
                0x000000000001f712                Map83_HSync
 .text.Map86_Sram
                0x000000000001f742       0xd4 ./src/nes/InfoNES_Mapper.o
                0x000000000001f742                Map86_Sram
 .text.Map87_Sram
                0x000000000001f816       0x7c ./src/nes/InfoNES_Mapper.o
                0x000000000001f816                Map87_Sram
 .text.Map90_ReadApu
                0x000000000001f892       0x20 ./src/nes/InfoNES_Mapper.o
                0x000000000001f892                Map90_ReadApu
 .text.Map90_HSync
                0x000000000001f8b2       0x4a ./src/nes/InfoNES_Mapper.o
                0x000000000001f8b2                Map90_HSync
 .text.Map93_Sram
                0x000000000001f8fc       0x38 ./src/nes/InfoNES_Mapper.o
                0x000000000001f8fc                Map93_Sram
 .text.Map94_Write
                0x000000000001f934       0x3e ./src/nes/InfoNES_Mapper.o
                0x000000000001f934                Map94_Write
 .text.Map100_HSync
                0x000000000001f972       0x46 ./src/nes/InfoNES_Mapper.o
                0x000000000001f972                Map100_HSync
 .text.Map105_HSync
                0x000000000001f9b8       0x40 ./src/nes/InfoNES_Mapper.o
                0x000000000001f9b8                Map105_HSync
 .text.Map110_Apu
                0x000000000001f9f8      0x2b6 ./src/nes/InfoNES_Mapper.o
                0x000000000001f9f8                Map110_Apu
 .text.Map112_HSync
                0x000000000001fcae       0x46 ./src/nes/InfoNES_Mapper.o
                0x000000000001fcae                Map112_HSync
 .text.Map113_Apu.part.38
                0x000000000001fcf4       0xde ./src/nes/InfoNES_Mapper.o
 .text.Map113_Apu
                0x000000000001fdd2       0x30 ./src/nes/InfoNES_Mapper.o
                0x000000000001fdd2                Map113_Apu
 .text.Map113_Write
                0x000000000001fe02       0x1a ./src/nes/InfoNES_Mapper.o
                0x000000000001fe02                Map113_Write
 .text.Map114_HSync
                0x000000000001fe1c       0x46 ./src/nes/InfoNES_Mapper.o
                0x000000000001fe1c                Map114_HSync
 .text.Map115_HSync
                0x000000000001fe62       0x46 ./src/nes/InfoNES_Mapper.o
                0x000000000001fe62                Map115_HSync
 .text.Map116_HSync
                0x000000000001fea8       0x46 ./src/nes/InfoNES_Mapper.o
                0x000000000001fea8                Map116_HSync
 .text.Map117_HSync
                0x000000000001feee       0x32 ./src/nes/InfoNES_Mapper.o
                0x000000000001feee                Map117_HSync
 .text.Map118_HSync
                0x000000000001ff20       0x46 ./src/nes/InfoNES_Mapper.o
                0x000000000001ff20                Map118_HSync
 .text.Map119_HSync
                0x000000000001ff66       0x46 ./src/nes/InfoNES_Mapper.o
                0x000000000001ff66                Map119_HSync
 .text.Map122_Sram
                0x000000000001ffac       0x7e ./src/nes/InfoNES_Mapper.o
                0x000000000001ffac                Map122_Sram
 .text.Map133_Apu
                0x000000000002002a      0x102 ./src/nes/InfoNES_Mapper.o
                0x000000000002002a                Map133_Apu
 .text.Map181_Apu
                0x000000000002012c      0x108 ./src/nes/InfoNES_Mapper.o
                0x000000000002012c                Map181_Apu
 .text.Map182_HSync
                0x0000000000020234       0x46 ./src/nes/InfoNES_Mapper.o
                0x0000000000020234                Map182_HSync
 .text.Map183_HSync
                0x000000000002027a       0x2e ./src/nes/InfoNES_Mapper.o
                0x000000000002027a                Map183_HSync
 .text.Map185_Write
                0x00000000000202a8       0x72 ./src/nes/InfoNES_Mapper.o
                0x00000000000202a8                Map185_Write
 .text.Map189_Apu
                0x000000000002031a       0x6c ./src/nes/InfoNES_Mapper.o
                0x000000000002031a                Map189_Apu
 .text.Map189_Write
                0x0000000000020386      0x18c ./src/nes/InfoNES_Mapper.o
                0x0000000000020386                Map189_Write
 .text.Map189_HSync
                0x0000000000020512       0x48 ./src/nes/InfoNES_Mapper.o
                0x0000000000020512                Map189_HSync
 .text.Map240_Apu
                0x000000000002055a      0x114 ./src/nes/InfoNES_Mapper.o
                0x000000000002055a                Map240_Apu
 .text.Map241_Write
                0x000000000002066e       0x5e ./src/nes/InfoNES_Mapper.o
                0x000000000002066e                Map241_Write
 .text.Map243_Apu
                0x00000000000206cc      0x204 ./src/nes/InfoNES_Mapper.o
                0x00000000000206cc                Map243_Apu
 .text.Map244_Write
                0x00000000000208d0       0xe8 ./src/nes/InfoNES_Mapper.o
                0x00000000000208d0                Map244_Write
 .text.Map246_Sram
                0x00000000000209b8      0x194 ./src/nes/InfoNES_Mapper.o
                0x00000000000209b8                Map246_Sram
 .text.Map248_HSync
                0x0000000000020b4c       0x46 ./src/nes/InfoNES_Mapper.o
                0x0000000000020b4c                Map248_HSync
 .text.Map249_Apu
                0x0000000000020b92       0x24 ./src/nes/InfoNES_Mapper.o
                0x0000000000020b92                Map249_Apu
 .text.Map252_Write
                0x0000000000020bb6      0x4d4 ./src/nes/InfoNES_Mapper.o
                0x0000000000020bb6                Map252_Write
 .text.Map32_Write
                0x000000000002108a       0xa6 ./src/nes/InfoNES_Mapper.o
                0x000000000002108a                Map32_Write
 .text.Map41_Sram
                0x0000000000021130       0x7e ./src/nes/InfoNES_Mapper.o
                0x0000000000021130                Map41_Sram
 .text.Map42_Write
                0x00000000000211ae       0x68 ./src/nes/InfoNES_Mapper.o
                0x00000000000211ae                Map42_Write
 .text.Map64_Write
                0x0000000000021216      0x230 ./src/nes/InfoNES_Mapper.o
                0x0000000000021216                Map64_Write
 .text.Map69_Write
                0x0000000000021446      0x10e ./src/nes/InfoNES_Mapper.o
                0x0000000000021446                Map69_Write
 .text.Map71_Write
                0x0000000000021554       0x6a ./src/nes/InfoNES_Mapper.o
                0x0000000000021554                Map71_Write
 .text.Map88_Write
                0x00000000000215be      0x17e ./src/nes/InfoNES_Mapper.o
                0x00000000000215be                Map88_Write
 .text.Map89_Write
                0x000000000002173c       0xee ./src/nes/InfoNES_Mapper.o
                0x000000000002173c                Map89_Write
 .text.Map97_Write
                0x000000000002182a       0x4a ./src/nes/InfoNES_Mapper.o
                0x000000000002182a                Map97_Write
 .text.Map182_Write
                0x0000000000021874      0x190 ./src/nes/InfoNES_Mapper.o
                0x0000000000021874                Map182_Write
 .text.Map230_Write
                0x0000000000021a04       0xe0 ./src/nes/InfoNES_Mapper.o
                0x0000000000021a04                Map230_Write
 .text.Map248_Set_PPU_Banks.part.100
                0x0000000000021ae4       0xc2 ./src/nes/InfoNES_Mapper.o
 .text.Map0_Sram
                0x0000000000021ba6        0x2 ./src/nes/InfoNES_Mapper.o
                0x0000000000021ba6                Map0_Sram
 .text.Map0_Apu
                0x0000000000021ba8        0x2 ./src/nes/InfoNES_Mapper.o
                0x0000000000021ba8                Map0_Apu
 .text.Map0_HSync
                0x0000000000021baa        0x2 ./src/nes/InfoNES_Mapper.o
                0x0000000000021baa                Map0_HSync
 .text.Map1_set_ROM_banks
                0x0000000000021bac       0x7a ./src/nes/InfoNES_Mapper.o
                0x0000000000021bac                Map1_set_ROM_banks
 .text.Map1_Init
                0x0000000000021c26      0x13c ./src/nes/InfoNES_Mapper.o
                0x0000000000021c26                Map1_Init
 .text.Map1_Write
                0x0000000000021d62      0x3b2 ./src/nes/InfoNES_Mapper.o
                0x0000000000021d62                Map1_Write
 .text.Map4_Set_CPU_Banks
                0x0000000000022114       0x78 ./src/nes/InfoNES_Mapper.o
                0x0000000000022114                Map4_Set_CPU_Banks
 .text.Map4_Set_PPU_Banks
                0x000000000002218c      0x10e ./src/nes/InfoNES_Mapper.o
                0x000000000002218c                Map4_Set_PPU_Banks
 .text.Map4_Init
                0x000000000002229a      0x13e ./src/nes/InfoNES_Mapper.o
                0x000000000002229a                Map4_Init
 .text.Map4_Write
                0x00000000000223d8      0x1b0 ./src/nes/InfoNES_Mapper.o
                0x00000000000223d8                Map4_Write
 .text.Map23_HSync
                0x0000000000022588       0x50 ./src/nes/InfoNES_Mapper.o
                0x0000000000022588                Map23_HSync
 .text.Map25_Sync_Vrom
                0x00000000000225d8       0x48 ./src/nes/InfoNES_Mapper.o
                0x00000000000225d8                Map25_Sync_Vrom
 .text.Map33_HSync
                0x0000000000022620       0x50 ./src/nes/InfoNES_Mapper.o
                0x0000000000022620                Map33_HSync
 .text.Map44_Set_CPU_Banks
                0x0000000000022670       0x8c ./src/nes/InfoNES_Mapper.o
                0x0000000000022670                Map44_Set_CPU_Banks
 .text.Map44_Set_PPU_Banks
                0x00000000000226fc       0xd6 ./src/nes/InfoNES_Mapper.o
                0x00000000000226fc                Map44_Set_PPU_Banks
 .text.Map44_Init
                0x00000000000227d2      0x132 ./src/nes/InfoNES_Mapper.o
                0x00000000000227d2                Map44_Init
 .text.Map44_Write
                0x0000000000022904      0x1c6 ./src/nes/InfoNES_Mapper.o
                0x0000000000022904                Map44_Write
 .text.Map45_Set_CPU_Bank4
                0x0000000000022aca       0x42 ./src/nes/InfoNES_Mapper.o
                0x0000000000022aca                Map45_Set_CPU_Bank4
 .text.Map45_Set_CPU_Bank5
                0x0000000000022b0c       0x42 ./src/nes/InfoNES_Mapper.o
                0x0000000000022b0c                Map45_Set_CPU_Bank5
 .text.Map45_Set_CPU_Bank6
                0x0000000000022b4e       0x42 ./src/nes/InfoNES_Mapper.o
                0x0000000000022b4e                Map45_Set_CPU_Bank6
 .text.Map45_Set_CPU_Bank7
                0x0000000000022b90       0x42 ./src/nes/InfoNES_Mapper.o
                0x0000000000022b90                Map45_Set_CPU_Bank7
 .text.Map45_Set_PPU_Banks
                0x0000000000022bd2      0x154 ./src/nes/InfoNES_Mapper.o
                0x0000000000022bd2                Map45_Set_PPU_Banks
 .text.Map45_Sram
                0x0000000000022d26       0xca ./src/nes/InfoNES_Mapper.o
                0x0000000000022d26                Map45_Sram
 .text.Map45_Write
                0x0000000000022df0      0x35c ./src/nes/InfoNES_Mapper.o
                0x0000000000022df0                Map45_Write
 .text.Map46_Set_ROM_Banks
                0x000000000002314c      0x110 ./src/nes/InfoNES_Mapper.o
                0x000000000002314c                Map46_Set_ROM_Banks
 .text.Map46_Init
                0x000000000002325c       0xaa ./src/nes/InfoNES_Mapper.o
                0x000000000002325c                Map46_Init
 .text.Map46_Sram
                0x0000000000023306       0x18 ./src/nes/InfoNES_Mapper.o
                0x0000000000023306                Map46_Sram
 .text.Map46_Write
                0x000000000002331e       0x1a ./src/nes/InfoNES_Mapper.o
                0x000000000002331e                Map46_Write
 .text.Map47_Set_CPU_Banks
                0x0000000000023338       0x8c ./src/nes/InfoNES_Mapper.o
                0x0000000000023338                Map47_Set_CPU_Banks
 .text.Map47_Set_PPU_Banks
                0x00000000000233c4       0xd6 ./src/nes/InfoNES_Mapper.o
                0x00000000000233c4                Map47_Set_PPU_Banks
 .text.Map47_Init
                0x000000000002349a      0x132 ./src/nes/InfoNES_Mapper.o
                0x000000000002349a                Map47_Init
 .text.Map47_Sram
                0x00000000000235cc       0x20 ./src/nes/InfoNES_Mapper.o
                0x00000000000235cc                Map47_Sram
 .text.Map47_Write
                0x00000000000235ec      0x13e ./src/nes/InfoNES_Mapper.o
                0x00000000000235ec                Map47_Write
 .text.Map49_Set_CPU_Banks
                0x000000000002372a       0xac ./src/nes/InfoNES_Mapper.o
                0x000000000002372a                Map49_Set_CPU_Banks
 .text.Map49_Set_PPU_Banks
                0x00000000000237d6      0x142 ./src/nes/InfoNES_Mapper.o
                0x00000000000237d6                Map49_Set_PPU_Banks
 .text.Map49_Sram
                0x0000000000023918       0x24 ./src/nes/InfoNES_Mapper.o
                0x0000000000023918                Map49_Sram
 .text.Map49_Write
                0x000000000002393c      0x144 ./src/nes/InfoNES_Mapper.o
                0x000000000002393c                Map49_Write
 .text.Map51_Set_CPU_Banks
                0x0000000000023a80      0x13e ./src/nes/InfoNES_Mapper.o
                0x0000000000023a80                Map51_Set_CPU_Banks
 .text.Map51_Init
                0x0000000000023bbe       0xf4 ./src/nes/InfoNES_Mapper.o
                0x0000000000023bbe                Map51_Init
 .text.Map51_Write
                0x0000000000023cb2       0x32 ./src/nes/InfoNES_Mapper.o
                0x0000000000023cb2                Map51_Write
 .text.Map51_Sram
                0x0000000000023ce4       0x1e ./src/nes/InfoNES_Mapper.o
                0x0000000000023ce4                Map51_Sram
 .text.Map68_SyncMirror
                0x0000000000023d02       0xae ./src/nes/InfoNES_Mapper.o
                0x0000000000023d02                Map68_SyncMirror
 .text.Map68_Write
                0x0000000000023db0      0x152 ./src/nes/InfoNES_Mapper.o
                0x0000000000023db0                Map68_Write
 .text.Map74_Set_CPU_Banks
                0x0000000000023f02       0x78 ./src/nes/InfoNES_Mapper.o
                0x0000000000023f02                Map74_Set_CPU_Banks
 .text.Map74_Set_PPU_Banks
                0x0000000000023f7a      0x10e ./src/nes/InfoNES_Mapper.o
                0x0000000000023f7a                Map74_Set_PPU_Banks
 .text.Map74_Init
                0x0000000000024088      0x146 ./src/nes/InfoNES_Mapper.o
                0x0000000000024088                Map74_Init
 .text.Map74_Write
                0x00000000000241ce      0x1b0 ./src/nes/InfoNES_Mapper.o
                0x00000000000241ce                Map74_Write
 .text.Map90_Sync_Mirror
                0x000000000002437e       0xe6 ./src/nes/InfoNES_Mapper.o
                0x000000000002437e                Map90_Sync_Mirror
 .text.Map90_Sync_Chr_Banks
                0x0000000000024464      0x23c ./src/nes/InfoNES_Mapper.o
                0x0000000000024464                Map90_Sync_Chr_Banks
 .text.Map90_Sync_Prg_Banks
                0x00000000000246a0      0x174 ./src/nes/InfoNES_Mapper.o
                0x00000000000246a0                Map90_Sync_Prg_Banks
 .text.Map90_Write
                0x0000000000024814      0x14c ./src/nes/InfoNES_Mapper.o
                0x0000000000024814                Map90_Write
 .text.Map95_Set_CPU_Banks
                0x0000000000024960       0x78 ./src/nes/InfoNES_Mapper.o
                0x0000000000024960                Map95_Set_CPU_Banks
 .text.Map95_Set_PPU_Banks
                0x00000000000249d8       0xc4 ./src/nes/InfoNES_Mapper.o
                0x00000000000249d8                Map95_Set_PPU_Banks
 .text.Map95_Init
                0x0000000000024a9c      0x11c ./src/nes/InfoNES_Mapper.o
                0x0000000000024a9c                Map95_Init
 .text.Map95_Write
                0x0000000000024bb8       0xf6 ./src/nes/InfoNES_Mapper.o
                0x0000000000024bb8                Map95_Write
 .text.Map96_Set_Banks
                0x0000000000024cae       0x70 ./src/nes/InfoNES_Mapper.o
                0x0000000000024cae                Map96_Set_Banks
 .text.Map96_Init
                0x0000000000024d1e       0xd4 ./src/nes/InfoNES_Mapper.o
                0x0000000000024d1e                Map96_Init
 .text.Map96_Write
                0x0000000000024df2       0x68 ./src/nes/InfoNES_Mapper.o
                0x0000000000024df2                Map96_Write
 .text.Map96_PPU
                0x0000000000024e5a       0x1a ./src/nes/InfoNES_Mapper.o
                0x0000000000024e5a                Map96_PPU
 .text.Map100_Set_CPU_Banks
                0x0000000000024e74       0x60 ./src/nes/InfoNES_Mapper.o
                0x0000000000024e74                Map100_Set_CPU_Banks
 .text.Map100_Set_PPU_Banks
                0x0000000000024ed4       0xa0 ./src/nes/InfoNES_Mapper.o
                0x0000000000024ed4                Map100_Set_PPU_Banks
 .text.Map100_Init
                0x0000000000024f74      0x16e ./src/nes/InfoNES_Mapper.o
                0x0000000000024f74                Map100_Init
 .text.Map100_Write
                0x00000000000250e2      0x224 ./src/nes/InfoNES_Mapper.o
                0x00000000000250e2                Map100_Write
 .text.Map109_Set_PPU_Banks
                0x0000000000025306       0xb6 ./src/nes/InfoNES_Mapper.o
                0x0000000000025306                Map109_Set_PPU_Banks
 .text.Map109_Init
                0x00000000000253bc       0xf2 ./src/nes/InfoNES_Mapper.o
                0x00000000000253bc                Map109_Init
 .text.Map109_Apu
                0x00000000000254ae       0xe4 ./src/nes/InfoNES_Mapper.o
                0x00000000000254ae                Map109_Apu
 .text.Map112_Set_CPU_Banks
                0x0000000000025592       0x78 ./src/nes/InfoNES_Mapper.o
                0x0000000000025592                Map112_Set_CPU_Banks
 .text.Map112_Set_PPU_Banks
                0x000000000002560a       0xc4 ./src/nes/InfoNES_Mapper.o
                0x000000000002560a                Map112_Set_PPU_Banks
 .text.Map112_Init
                0x00000000000256ce      0x12c ./src/nes/InfoNES_Mapper.o
                0x00000000000256ce                Map112_Init
 .text.Map112_Write
                0x00000000000257fa      0x16c ./src/nes/InfoNES_Mapper.o
                0x00000000000257fa                Map112_Write
 .text.Map114_Set_CPU_Banks
                0x0000000000025966       0x78 ./src/nes/InfoNES_Mapper.o
                0x0000000000025966                Map114_Set_CPU_Banks
 .text.Map114_Set_PPU_Banks
                0x00000000000259de       0xc4 ./src/nes/InfoNES_Mapper.o
                0x00000000000259de                Map114_Set_PPU_Banks
 .text.Map114_Init
                0x0000000000025aa2      0x12c ./src/nes/InfoNES_Mapper.o
                0x0000000000025aa2                Map114_Init
 .text.Map114_Sram
                0x0000000000025bce       0xa6 ./src/nes/InfoNES_Mapper.o
                0x0000000000025bce                Map114_Sram
 .text.Map114_Write
                0x0000000000025c74      0x16e ./src/nes/InfoNES_Mapper.o
                0x0000000000025c74                Map114_Write
 .text.Map115_Set_CPU_Banks
                0x0000000000025de2       0xee ./src/nes/InfoNES_Mapper.o
                0x0000000000025de2                Map115_Set_CPU_Banks
 .text.Map115_Set_PPU_Banks
                0x0000000000025ed0       0xde ./src/nes/InfoNES_Mapper.o
                0x0000000000025ed0                Map115_Set_PPU_Banks
 .text.Map115_Init
                0x0000000000025fae      0x186 ./src/nes/InfoNES_Mapper.o
                0x0000000000025fae                Map115_Init
 .text.Map115_Write
                0x0000000000026134      0x15e ./src/nes/InfoNES_Mapper.o
                0x0000000000026134                Map115_Write
 .text.Map115_Sram
                0x0000000000026292       0x24 ./src/nes/InfoNES_Mapper.o
                0x0000000000026292                Map115_Sram
 .text.Map116_Set_CPU_Banks
                0x00000000000262b6       0x78 ./src/nes/InfoNES_Mapper.o
                0x00000000000262b6                Map116_Set_CPU_Banks
 .text.Map116_Set_PPU_Banks
                0x000000000002632e       0xde ./src/nes/InfoNES_Mapper.o
                0x000000000002632e                Map116_Set_PPU_Banks
 .text.Map116_Init
                0x000000000002640c      0x186 ./src/nes/InfoNES_Mapper.o
                0x000000000002640c                Map116_Init
 .text.Map116_Write
                0x0000000000026592      0x152 ./src/nes/InfoNES_Mapper.o
                0x0000000000026592                Map116_Write
 .text.Map118_Set_CPU_Banks
                0x00000000000266e4       0x78 ./src/nes/InfoNES_Mapper.o
                0x00000000000266e4                Map118_Set_CPU_Banks
 .text.Map118_Set_PPU_Banks
                0x000000000002675c       0xc8 ./src/nes/InfoNES_Mapper.o
                0x000000000002675c                Map118_Set_PPU_Banks
 .text.Map118_Init
                0x0000000000026824      0x14a ./src/nes/InfoNES_Mapper.o
                0x0000000000026824                Map118_Init
 .text.Map118_Write
                0x000000000002696e      0x172 ./src/nes/InfoNES_Mapper.o
                0x000000000002696e                Map118_Write
 .text.Map119_Set_CPU_Banks
                0x0000000000026ae0       0x78 ./src/nes/InfoNES_Mapper.o
                0x0000000000026ae0                Map119_Set_CPU_Banks
 .text.Map119_Set_PPU_Banks
                0x0000000000026b58      0x3bc ./src/nes/InfoNES_Mapper.o
                0x0000000000026b58                Map119_Set_PPU_Banks
 .text.Map119_Init
                0x0000000000026f14      0x104 ./src/nes/InfoNES_Mapper.o
                0x0000000000026f14                Map119_Init
 .text.Map119_Write
                0x0000000000027018      0x178 ./src/nes/InfoNES_Mapper.o
                0x0000000000027018                Map119_Write
 .text.Map135_Set_PPU_Banks
                0x0000000000027190       0xcc ./src/nes/InfoNES_Mapper.o
                0x0000000000027190                Map135_Set_PPU_Banks
 .text.Map135_Init
                0x000000000002725c       0xec ./src/nes/InfoNES_Mapper.o
                0x000000000002725c                Map135_Init
 .text.Map135_Apu
                0x0000000000027348       0xfa ./src/nes/InfoNES_Mapper.o
                0x0000000000027348                Map135_Apu
 .text.Map187_Set_CPU_Banks
                0x0000000000027442       0x6e ./src/nes/InfoNES_Mapper.o
                0x0000000000027442                Map187_Set_CPU_Banks
 .text.Map187_Init
                0x00000000000274b0      0x118 ./src/nes/InfoNES_Mapper.o
                0x00000000000274b0                Map187_Init
 .text.Map187_Apu
                0x00000000000275c8       0xa6 ./src/nes/InfoNES_Mapper.o
                0x00000000000275c8                Map187_Apu
 .text.Map187_Set_PPU_Banks
                0x000000000002766e       0xb0 ./src/nes/InfoNES_Mapper.o
                0x000000000002766e                Map187_Set_PPU_Banks
 .text.Map187_Write
                0x000000000002771e      0x200 ./src/nes/InfoNES_Mapper.o
                0x000000000002771e                Map187_Write
 .text.Map191_Set_CPU_Banks
                0x000000000002791e       0x5e ./src/nes/InfoNES_Mapper.o
                0x000000000002791e                Map191_Set_CPU_Banks
 .text.Map191_Set_PPU_Banks
                0x000000000002797c       0xc0 ./src/nes/InfoNES_Mapper.o
                0x000000000002797c                Map191_Set_PPU_Banks
 .text.Map191_Init
                0x0000000000027a3c       0xd4 ./src/nes/InfoNES_Mapper.o
                0x0000000000027a3c                Map191_Init
 .text.Map191_Apu
                0x0000000000027b10       0x9a ./src/nes/InfoNES_Mapper.o
                0x0000000000027b10                Map191_Apu
 .text.Map202_WriteSub
                0x0000000000027baa      0x116 ./src/nes/InfoNES_Mapper.o
                0x0000000000027baa                Map202_WriteSub
 .text.Map202_Apu
                0x0000000000027cc0        0x4 ./src/nes/InfoNES_Mapper.o
                0x0000000000027cc0                Map202_Apu
 .text.Map202_Write
                0x0000000000027cc4        0x4 ./src/nes/InfoNES_Mapper.o
                0x0000000000027cc4                Map202_Write
 .text.Map234_Set_Banks
                0x0000000000027cc8      0x146 ./src/nes/InfoNES_Mapper.o
                0x0000000000027cc8                Map234_Set_Banks
 .text.Map234_Write
                0x0000000000027e0e       0x66 ./src/nes/InfoNES_Mapper.o
                0x0000000000027e0e                Map234_Write
 .text.Map248_Set_CPU_Banks
                0x0000000000027e74       0x78 ./src/nes/InfoNES_Mapper.o
                0x0000000000027e74                Map248_Set_CPU_Banks
 .text.Map248_Init
                0x0000000000027eec      0x112 ./src/nes/InfoNES_Mapper.o
                0x0000000000027eec                Map248_Init
 .text.Map248_Write
                0x0000000000027ffe      0x13a ./src/nes/InfoNES_Mapper.o
                0x0000000000027ffe                Map248_Write
 .text.Map248_Set_PPU_Banks
                0x0000000000028138        0xe ./src/nes/InfoNES_Mapper.o
                0x0000000000028138                Map248_Set_PPU_Banks
 .text.Map251_Set_Banks
                0x0000000000028146      0x188 ./src/nes/InfoNES_Mapper.o
                0x0000000000028146                Map251_Set_Banks
 .text.Map251_Write
                0x00000000000282ce       0x60 ./src/nes/InfoNES_Mapper.o
                0x00000000000282ce                Map251_Write
 .text.Map251_Sram
                0x000000000002832e       0x44 ./src/nes/InfoNES_Mapper.o
                0x000000000002832e                Map251_Sram
 .text.InfoNES_Menu
                0x0000000000028372        0x4 ./src/nes/InfoNES_system.o
                0x0000000000028372                InfoNES_Menu
 .text.InfoNES_ReadRom
                0x0000000000028376       0xa2 ./src/nes/InfoNES_system.o
                0x0000000000028376                InfoNES_ReadRom
 .text.InfoNES_ReleaseRom
                0x0000000000028418        0x2 ./src/nes/InfoNES_system.o
                0x0000000000028418                InfoNES_ReleaseRom
 .text.InfoNES_LoadFrame
                0x000000000002841a        0x2 ./src/nes/InfoNES_system.o
                0x000000000002841a                InfoNES_LoadFrame
 .text.InfoNES_LoadLine
                0x000000000002841c       0x68 ./src/nes/InfoNES_system.o
                0x000000000002841c                InfoNES_LoadLine
 .text.InfoNES_PadState
                0x0000000000028484        0x2 ./src/nes/InfoNES_system.o
                0x0000000000028484                InfoNES_PadState
 .text.InfoNES_MemoryCopy
                0x0000000000028486        0x4 ./src/nes/InfoNES_system.o
                0x0000000000028486                InfoNES_MemoryCopy
 .text.InfoNES_MemorySet
                0x000000000002848a        0x4 ./src/nes/InfoNES_system.o
                0x000000000002848a                InfoNES_MemorySet
 .text.InfoNES_DebugPrint
                0x000000000002848e        0x2 ./src/nes/InfoNES_system.o
                0x000000000002848e                InfoNES_DebugPrint
 .text.InfoNES_Wait
                0x0000000000028490        0x2 ./src/nes/InfoNES_system.o
                0x0000000000028490                InfoNES_Wait
 .text.InfoNES_SoundInit
                0x0000000000028492        0x2 ./src/nes/InfoNES_system.o
                0x0000000000028492                InfoNES_SoundInit
 .text.InfoNES_SoundOpen
                0x0000000000028494        0x4 ./src/nes/InfoNES_system.o
                0x0000000000028494                InfoNES_SoundOpen
 .text.InfoNES_SoundClose
                0x0000000000028498        0x2 ./src/nes/InfoNES_system.o
                0x0000000000028498                InfoNES_SoundClose
 .text.InfoNES_SoundOutput
                0x000000000002849a        0x2 ./src/nes/InfoNES_system.o
                0x000000000002849a                InfoNES_SoundOutput
 .text.InfoNES_MessageBox
                0x000000000002849c       0x14 ./src/nes/InfoNES_system.o
                0x000000000002849c                InfoNES_MessageBox
 .text.K6502_Write
                0x00000000000284b0      0x412 ./src/nes/K6502.o
 .text.K6502_ReadAbsX
                0x00000000000288c2      0x5fa ./src/nes/K6502.o
 .text.K6502_ReadAbsY
                0x0000000000028ebc      0x5fa ./src/nes/K6502.o
 .text.K6502_Read
                0x00000000000294b6      0x1d4 ./src/nes/K6502.o
 .text.K6502_Init
                0x000000000002968a      0x2c0 ./src/nes/K6502.o
                0x000000000002968a                K6502_Init
 .text.K6502_Reset
                0x000000000002994a       0x60 ./src/nes/K6502.o
                0x000000000002994a                K6502_Reset
 .text.K6502_Set_Int_Wiring
                0x00000000000299aa        0xe ./src/nes/K6502.o
                0x00000000000299aa                K6502_Set_Int_Wiring
 .text.K6502_Step
                0x00000000000299b8     0x5d36 ./src/nes/K6502.o
                0x00000000000299b8                K6502_Step
 .text.led_blink
                0x000000000002f6ee        0x2 ./src/main.o
                0x000000000002f6ee                led_blink
 .text.gpio_test
                0x000000000002f6f0       0x3e ./src/main.o
                0x000000000002f6f0                gpio_test
 .text.startup.main
                0x000000000002f72e       0x8e ./src/main.o
                0x000000000002f72e                main
 .text.HDMI_DrawPoint.part.0
                0x000000000002f7bc       0x2c ./src/snake.o
 .text.HDMI_DrawPoint
                0x000000000002f7e8       0x20 ./src/snake.o
                0x000000000002f7e8                HDMI_DrawPoint
 .text.draw_point
                0x000000000002f808       0x14 ./src/snake.o
                0x000000000002f808                draw_point
 .text.clear_point
                0x000000000002f81c       0x1a ./src/snake.o
                0x000000000002f81c                clear_point
 .text.delay    0x000000000002f836       0x26 ./src/snake.o
                0x000000000002f836                delay
 .text.draw_c   0x000000000002f85c       0x1c ./src/snake.o
                0x000000000002f85c                draw_c
 .text.draw_gameover
                0x000000000002f878       0x5e ./src/snake.o
                0x000000000002f878                draw_gameover
 .text.SnakeGameStart
                0x000000000002f8d6      0x32e ./src/snake.o
                0x000000000002f8d6                SnakeGameStart
 .text.print_num
                0x000000000002fc04        0x6 ./src/uart.o
                0x000000000002fc04                print_num
 .text.print_num.part.0
                0x000000000002fc0a       0x54 ./src/uart.o
 .text.put_char
                0x000000000002fc5e       0x22 ./src/uart.o
                0x000000000002fc5e                put_char
 .text.print_str
                0x000000000002fc80       0x2a ./src/uart.o
                0x000000000002fc80                print_str
 .text.print_hex
                0x000000000002fcaa       0x4e ./src/uart.o
                0x000000000002fcaa                print_hex
 .text.print_hex2
                0x000000000002fcf8       0x14 ./src/uart.o
                0x000000000002fcf8                print_hex2
 .text.print_dec
                0x000000000002fd0c       0x14 ./src/uart.o
                0x000000000002fd0c                print_dec
 .text.print_flt
                0x000000000002fd20       0x80 ./src/uart.o
                0x000000000002fd20                print_flt
 .text.printk   0x000000000002fda0      0x13e ./src/uart.o
                0x000000000002fda0                printk
 .text.getchar_prompt
                0x000000000002fede       0x88 ./src/uart.o
                0x000000000002fede                getchar_prompt
 .text.get_char
                0x000000000002ff66       0x32 ./src/uart.o
                0x000000000002ff66                get_char
 .text.__muldf3
                0x000000000002ff98      0x68c d:/hummingbird/hbird-eclipse_2018_09/gnu mcu eclipse/risc-v embedded gcc/7.2.0-4-20180606-1631/bin/../lib/gcc/riscv-none-embed/7.2.0/rv32im/ilp32\libgcc.a(muldf3.o)
                0x000000000002ff98                __muldf3
 .text.__subdf3
                0x0000000000030624      0x880 d:/hummingbird/hbird-eclipse_2018_09/gnu mcu eclipse/risc-v embedded gcc/7.2.0-4-20180606-1631/bin/../lib/gcc/riscv-none-embed/7.2.0/rv32im/ilp32\libgcc.a(subdf3.o)
                0x0000000000030624                __subdf3
 .text.__fixdfsi
                0x0000000000030ea4       0x84 d:/hummingbird/hbird-eclipse_2018_09/gnu mcu eclipse/risc-v embedded gcc/7.2.0-4-20180606-1631/bin/../lib/gcc/riscv-none-embed/7.2.0/rv32im/ilp32\libgcc.a(fixdfsi.o)
                0x0000000000030ea4                __fixdfsi
 .text.__floatunsidf
                0x0000000000030f28       0xc0 d:/hummingbird/hbird-eclipse_2018_09/gnu mcu eclipse/risc-v embedded gcc/7.2.0-4-20180606-1631/bin/../lib/gcc/riscv-none-embed/7.2.0/rv32im/ilp32\libgcc.a(floatunsidf.o)
                0x0000000000030f28                __floatunsidf
 .text.__clzsi2
                0x0000000000030fe8       0x94 d:/hummingbird/hbird-eclipse_2018_09/gnu mcu eclipse/risc-v embedded gcc/7.2.0-4-20180606-1631/bin/../lib/gcc/riscv-none-embed/7.2.0/rv32im/ilp32\libgcc.a(_clzsi2.o)
                0x0000000000030fe8                __clzsi2
 .text.memcpy   0x000000000003107c      0x11c d:/hummingbird/hbird-eclipse_2018_09/gnu mcu eclipse/risc-v embedded gcc/7.2.0-4-20180606-1631/bin/../lib/gcc/riscv-none-embed/7.2.0/../../../../riscv-none-embed/lib/rv32im/ilp32\libg.a(lib_a-memcpy.o)
                0x000000000003107c                memcpy
 .text.srand    0x0000000000031198       0x18 d:/hummingbird/hbird-eclipse_2018_09/gnu mcu eclipse/risc-v embedded gcc/7.2.0-4-20180606-1631/bin/../lib/gcc/riscv-none-embed/7.2.0/../../../../riscv-none-embed/lib/rv32im/ilp32\libg.a(lib_a-rand.o)
                0x0000000000031198                srand
 .text.rand     0x00000000000311b0       0x60 d:/hummingbird/hbird-eclipse_2018_09/gnu mcu eclipse/risc-v embedded gcc/7.2.0-4-20180606-1631/bin/../lib/gcc/riscv-none-embed/7.2.0/../../../../riscv-none-embed/lib/rv32im/ilp32\libg.a(lib_a-rand.o)
                0x00000000000311b0                rand
 *(.rodata)
 *(.rodata*)
 .rodata.InfoNES_Reset.str1.4
                0x0000000000031210       0x1c ./src/nes/InfoNES.o
 .rodata.JustHitStep
                0x000000000003122c      0x200 ./src/nes/InfoNES.o
                0x000000000003122c                JustHitStep
 .rodata.Map16_Write
                0x000000000003142c       0x34 ./src/nes/InfoNES_Mapper.o
 .rodata.Map26_Write
                0x0000000000031460       0x94 ./src/nes/InfoNES_Mapper.o
 .rodata.Map80_Sram
                0x00000000000314f4       0x40 ./src/nes/InfoNES_Mapper.o
 .rodata.Map82_Sram
                0x0000000000031534       0x34 ./src/nes/InfoNES_Mapper.o
 .rodata.Map134_Apu
                0x0000000000031568       0x20 ./src/nes/InfoNES_Mapper.o
 .rodata.Map249_Write
                0x0000000000031588       0x20 ./src/nes/InfoNES_Mapper.o
 .rodata.Map76_Write
                0x00000000000315a8       0x20 ./src/nes/InfoNES_Mapper.o
 .rodata.Map110_Apu
                0x00000000000315c8       0x1c ./src/nes/InfoNES_Mapper.o
 .rodata.Map189_Write
                0x00000000000315e4       0x20 ./src/nes/InfoNES_Mapper.o
 .rodata.Map243_Apu
                0x0000000000031604       0x20 ./src/nes/InfoNES_Mapper.o
 .rodata.Map246_Sram
                0x0000000000031624       0x20 ./src/nes/InfoNES_Mapper.o
 .rodata.Map64_Write
                0x0000000000031644       0x40 ./src/nes/InfoNES_Mapper.o
 .rodata.Map69_Write
                0x0000000000031684       0x40 ./src/nes/InfoNES_Mapper.o
 .rodata.Map88_Write
                0x00000000000316c4       0x20 ./src/nes/InfoNES_Mapper.o
 .rodata.Map182_Write
                0x00000000000316e4       0x20 ./src/nes/InfoNES_Mapper.o
 .rodata.Map4_Write
                0x0000000000031704       0x20 ./src/nes/InfoNES_Mapper.o
 .rodata.Map44_Write
                0x0000000000031724       0x20 ./src/nes/InfoNES_Mapper.o
 .rodata.Map45_Write
                0x0000000000031744       0x20 ./src/nes/InfoNES_Mapper.o
 .rodata.Map47_Write
                0x0000000000031764       0x20 ./src/nes/InfoNES_Mapper.o
 .rodata.Map49_Write
                0x0000000000031784       0x20 ./src/nes/InfoNES_Mapper.o
 .rodata.Map74_Write
                0x00000000000317a4       0x20 ./src/nes/InfoNES_Mapper.o
 .rodata.Map95_Write
                0x00000000000317c4       0x20 ./src/nes/InfoNES_Mapper.o
 .rodata.Map100_Write
                0x00000000000317e4      0x218 ./src/nes/InfoNES_Mapper.o
 .rodata.Map109_Apu
                0x00000000000319fc       0x20 ./src/nes/InfoNES_Mapper.o
 .rodata.Map112_Write
                0x0000000000031a1c       0x20 ./src/nes/InfoNES_Mapper.o
 .rodata.Map114_Write
                0x0000000000031a3c       0x20 ./src/nes/InfoNES_Mapper.o
 .rodata.Map115_Write
                0x0000000000031a5c       0x20 ./src/nes/InfoNES_Mapper.o
 .rodata.Map116_Write
                0x0000000000031a7c       0x20 ./src/nes/InfoNES_Mapper.o
 .rodata.Map118_Write
                0x0000000000031a9c       0x20 ./src/nes/InfoNES_Mapper.o
 .rodata.Map119_Write
                0x0000000000031abc       0x20 ./src/nes/InfoNES_Mapper.o
 .rodata.Map135_Apu
                0x0000000000031adc       0x20 ./src/nes/InfoNES_Mapper.o
 .rodata.Map187_Write
                0x0000000000031afc       0x20 ./src/nes/InfoNES_Mapper.o
 .rodata.Map191_Apu
                0x0000000000031b1c       0x20 ./src/nes/InfoNES_Mapper.o
 .rodata.Map248_Write
                0x0000000000031b3c       0x20 ./src/nes/InfoNES_Mapper.o
 .rodata.InfoNES_LoadLine.str1.4
                0x0000000000031b5c       0x21 ./src/nes/InfoNES_system.o
 *fill*         0x0000000000031b7d        0x3 
 .rodata.InfoNES_ReadRom.str1.4
                0x0000000000031b80        0x5 ./src/nes/InfoNES_system.o
 *fill*         0x0000000000031b85        0x3 
 .rodata.K6502_Write
                0x0000000000031b88       0x40 ./src/nes/K6502.o
 .rodata.K6502_Step
                0x0000000000031bc8      0x3fc ./src/nes/K6502.o
 .rodata.nes_rom
                0x0000000000031fc4     0xa010 ./src/nes/rom.o
                0x0000000000031fc4                nes_rom
 .rodata.gpio_test.str1.4
                0x000000000003bfd4       0x26 ./src/main.o
 *fill*         0x000000000003bffa        0x6 
 .rodata.main.cst8
                0x000000000003c000       0x10 ./src/main.o
 .rodata.main.str1.4
                0x000000000003c010       0x9f ./src/main.o
 *fill*         0x000000000003c0af        0x1 
 .rodata.SnakeGameStart.str1.4
                0x000000000003c0b0       0x44 ./src/snake.o
 .rodata.printk
                0x000000000003c0f4      0x150 ./src/uart.o
 *fill*         0x000000000003c244        0x4 
 .rodata.print_flt.cst8
                0x000000000003c248        0x8 ./src/uart.o
 .rodata.print_num.part.0.str1.4
                0x000000000003c250       0x14 ./src/uart.o
                                         0x11 (size before relaxing)
 .rodata.__muldf3
                0x000000000003c264       0x40 d:/hummingbird/hbird-eclipse_2018_09/gnu mcu eclipse/risc-v embedded gcc/7.2.0-4-20180606-1631/bin/../lib/gcc/riscv-none-embed/7.2.0/rv32im/ilp32\libgcc.a(muldf3.o)
 .rodata.__clz_tab
                0x000000000003c2a4      0x100 d:/hummingbird/hbird-eclipse_2018_09/gnu mcu eclipse/risc-v embedded gcc/7.2.0-4-20180606-1631/bin/../lib/gcc/riscv-none-embed/7.2.0/rv32im/ilp32\libgcc.a(_clz.o)
                0x000000000003c2a4                __clz_tab
 *(.srodata)
 *(.srodata*)
                0x000000000003c3a4                . = ALIGN (0x4)
                0x000000000003c3a4                _etext = .
                0x000000000003c3a4                _sidata = _etext

.rela.dyn       0x000000000003c3a4        0x0
 .rela.text.InfoNES_Init
                0x000000000003c3a4        0x0 ./src/nes/InfoNES.o
 .rela.text.InfoNES_Fin
                0x000000000003c3a4        0x0 ./src/nes/InfoNES.o
 .rela.text.InfoNES_SetupPPU
                0x000000000003c3a4        0x0 ./src/nes/InfoNES.o
 .rela.text.InfoNES_Reset
                0x000000000003c3a4        0x0 ./src/nes/InfoNES.o
 .rela.text.InfoNES_Load
                0x000000000003c3a4        0x0 ./src/nes/InfoNES.o
 .rela.text.InfoNES_DrawLine
                0x000000000003c3a4        0x0 ./src/nes/InfoNES.o
 .rela.text.InfoNES_HSync
                0x000000000003c3a4        0x0 ./src/nes/InfoNES.o
 .rela.text.InfoNES_Cycle
                0x000000000003c3a4        0x0 ./src/nes/InfoNES.o
 .rela.text.InfoNES_Main
                0x000000000003c3a4        0x0 ./src/nes/InfoNES.o
 .rela.text.Map4_HSync
                0x000000000003c3a4        0x0 ./src/nes/InfoNES.o
 .rela.text.Map21_HSync
                0x000000000003c3a4        0x0 ./src/nes/InfoNES.o
 .rela.text.Map74_HSync
                0x000000000003c3a4        0x0 ./src/nes/InfoNES.o
 .rela.text.Map160_HSync
                0x000000000003c3a4        0x0 ./src/nes/InfoNES.o
 .rela.text.Map187_HSync
                0x000000000003c3a4        0x0 ./src/nes/InfoNES.o
 .rela.text.Map245_HSync
                0x000000000003c3a4        0x0 ./src/nes/InfoNES.o
 .rela.text.Map249_HSync
                0x000000000003c3a4        0x0 ./src/nes/InfoNES.o
 .rela.text.Map252_HSync
                0x000000000003c3a4        0x0 ./src/nes/InfoNES.o
 .rela.text.Map0_Init
                0x000000000003c3a4        0x0 ./src/nes/InfoNES.o
 .rela.text.Map2_Init
                0x000000000003c3a4        0x0 ./src/nes/InfoNES.o
 .rela.text.Map3_Init
                0x000000000003c3a4        0x0 ./src/nes/InfoNES.o
 .rela.text.Map7_Init
                0x000000000003c3a4        0x0 ./src/nes/InfoNES.o
 .rela.text.Map8_Init
                0x000000000003c3a4        0x0 ./src/nes/InfoNES.o
 .rela.text.Map9_Init
                0x000000000003c3a4        0x0 ./src/nes/InfoNES.o
 .rela.text.Map10_Init
                0x000000000003c3a4        0x0 ./src/nes/InfoNES.o
 .rela.text.Map13_Init
                0x000000000003c3a4        0x0 ./src/nes/InfoNES.o
 .rela.text.Map15_Init
                0x000000000003c3a4        0x0 ./src/nes/InfoNES.o
 .rela.text.Map16_Init
                0x000000000003c3a4        0x0 ./src/nes/InfoNES.o
 .rela.text.Map17_Init
                0x000000000003c3a4        0x0 ./src/nes/InfoNES.o
 .rela.text.Map18_Init
                0x000000000003c3a4        0x0 ./src/nes/InfoNES.o
 .rela.text.Map21_Init
                0x000000000003c3a4        0x0 ./src/nes/InfoNES.o
 .rela.text.Map22_Init
                0x000000000003c3a4        0x0 ./src/nes/InfoNES.o
 .rela.text.Map23_Init
                0x000000000003c3a4        0x0 ./src/nes/InfoNES.o
 .rela.text.Map24_Init
                0x000000000003c3a4        0x0 ./src/nes/InfoNES.o
 .rela.text.Map25_Init
                0x000000000003c3a4        0x0 ./src/nes/InfoNES.o
 .rela.text.Map26_Init
                0x000000000003c3a4        0x0 ./src/nes/InfoNES.o
 .rela.text.Map32_Init
                0x000000000003c3a4        0x0 ./src/nes/InfoNES.o
 .rela.text.Map33_Init
                0x000000000003c3a4        0x0 ./src/nes/InfoNES.o
 .rela.text.Map34_Init
                0x000000000003c3a4        0x0 ./src/nes/InfoNES.o
 .rela.text.Map40_Init
                0x000000000003c3a4        0x0 ./src/nes/InfoNES.o
 .rela.text.Map41_Init
                0x000000000003c3a4        0x0 ./src/nes/InfoNES.o
 .rela.text.Map42_Init
                0x000000000003c3a4        0x0 ./src/nes/InfoNES.o
 .rela.text.Map43_Init
                0x000000000003c3a4        0x0 ./src/nes/InfoNES.o
 .rela.text.Map45_Init
                0x000000000003c3a4        0x0 ./src/nes/InfoNES.o
 .rela.text.Map48_Init
                0x000000000003c3a4        0x0 ./src/nes/InfoNES.o
 .rela.text.Map49_Init
                0x000000000003c3a4        0x0 ./src/nes/InfoNES.o
 .rela.text.Map50_Init
                0x000000000003c3a4        0x0 ./src/nes/InfoNES.o
 .rela.text.Map57_Init
                0x000000000003c3a4        0x0 ./src/nes/InfoNES.o
 .rela.text.Map58_Init
                0x000000000003c3a4        0x0 ./src/nes/InfoNES.o
 .rela.text.Map60_Init
                0x000000000003c3a4        0x0 ./src/nes/InfoNES.o
 .rela.text.Map61_Init
                0x000000000003c3a4        0x0 ./src/nes/InfoNES.o
 .rela.text.Map62_Init
                0x000000000003c3a4        0x0 ./src/nes/InfoNES.o
 .rela.text.Map64_Init
                0x000000000003c3a4        0x0 ./src/nes/InfoNES.o
 .rela.text.Map65_Init
                0x000000000003c3a4        0x0 ./src/nes/InfoNES.o
 .rela.text.Map66_Init
                0x000000000003c3a4        0x0 ./src/nes/InfoNES.o
 .rela.text.Map67_Init
                0x000000000003c3a4        0x0 ./src/nes/InfoNES.o
 .rela.text.Map68_Init
                0x000000000003c3a4        0x0 ./src/nes/InfoNES.o
 .rela.text.Map69_Init
                0x000000000003c3a4        0x0 ./src/nes/InfoNES.o
 .rela.text.Map70_Init
                0x000000000003c3a4        0x0 ./src/nes/InfoNES.o
 .rela.text.Map71_Init
                0x000000000003c3a4        0x0 ./src/nes/InfoNES.o
 .rela.text.Map72_Init
                0x000000000003c3a4        0x0 ./src/nes/InfoNES.o
 .rela.text.Map73_Init
                0x000000000003c3a4        0x0 ./src/nes/InfoNES.o
 .rela.text.Map75_Init
                0x000000000003c3a4        0x0 ./src/nes/InfoNES.o
 .rela.text.Map76_Init
                0x000000000003c3a4        0x0 ./src/nes/InfoNES.o
 .rela.text.Map77_Init
                0x000000000003c3a4        0x0 ./src/nes/InfoNES.o
 .rela.text.Map78_Init
                0x000000000003c3a4        0x0 ./src/nes/InfoNES.o
 .rela.text.Map79_Init
                0x000000000003c3a4        0x0 ./src/nes/InfoNES.o
 .rela.text.Map80_Init
                0x000000000003c3a4        0x0 ./src/nes/InfoNES.o
 .rela.text.Map83_Init
                0x000000000003c3a4        0x0 ./src/nes/InfoNES.o
 .rela.text.Map86_Init
                0x000000000003c3a4        0x0 ./src/nes/InfoNES.o
 .rela.text.Map87_Init
                0x000000000003c3a4        0x0 ./src/nes/InfoNES.o
 .rela.text.Map88_Init
                0x000000000003c3a4        0x0 ./src/nes/InfoNES.o
 .rela.text.Map89_Init
                0x000000000003c3a4        0x0 ./src/nes/InfoNES.o
 .rela.text.Map90_Init
                0x000000000003c3a4        0x0 ./src/nes/InfoNES.o
 .rela.text.Map92_Init
                0x000000000003c3a4        0x0 ./src/nes/InfoNES.o
 .rela.text.Map93_Init
                0x000000000003c3a4        0x0 ./src/nes/InfoNES.o
 .rela.text.Map94_Init
                0x000000000003c3a4        0x0 ./src/nes/InfoNES.o
 .rela.text.Map97_Init
                0x000000000003c3a4        0x0 ./src/nes/InfoNES.o
 .rela.text.Map99_Init
                0x000000000003c3a4        0x0 ./src/nes/InfoNES.o
 .rela.text.Map101_Init
                0x000000000003c3a4        0x0 ./src/nes/InfoNES.o
 .rela.text.Map105_Init
                0x000000000003c3a4        0x0 ./src/nes/InfoNES.o
 .rela.text.Map107_Init
                0x000000000003c3a4        0x0 ./src/nes/InfoNES.o
 .rela.text.Map108_Init
                0x000000000003c3a4        0x0 ./src/nes/InfoNES.o
 .rela.text.Map110_Init
                0x000000000003c3a4        0x0 ./src/nes/InfoNES.o
 .rela.text.Map113_Init
                0x000000000003c3a4        0x0 ./src/nes/InfoNES.o
 .rela.text.Map117_Init
                0x000000000003c3a4        0x0 ./src/nes/InfoNES.o
 .rela.text.Map122_Init
                0x000000000003c3a4        0x0 ./src/nes/InfoNES.o
 .rela.text.Map133_Init
                0x000000000003c3a4        0x0 ./src/nes/InfoNES.o
 .rela.text.Map134_Init
                0x000000000003c3a4        0x0 ./src/nes/InfoNES.o
 .rela.text.Map140_Init
                0x000000000003c3a4        0x0 ./src/nes/InfoNES.o
 .rela.text.Map151_Init
                0x000000000003c3a4        0x0 ./src/nes/InfoNES.o
 .rela.text.Map160_Init
                0x000000000003c3a4        0x0 ./src/nes/InfoNES.o
 .rela.text.Map180_Init
                0x000000000003c3a4        0x0 ./src/nes/InfoNES.o
 .rela.text.Map181_Init
                0x000000000003c3a4        0x0 ./src/nes/InfoNES.o
 .rela.text.Map182_Init
                0x000000000003c3a4        0x0 ./src/nes/InfoNES.o
 .rela.text.Map183_Init
                0x000000000003c3a4        0x0 ./src/nes/InfoNES.o
 .rela.text.Map185_Init
                0x000000000003c3a4        0x0 ./src/nes/InfoNES.o
 .rela.text.Map189_Init
                0x000000000003c3a4        0x0 ./src/nes/InfoNES.o
 .rela.text.Map193_Init
                0x000000000003c3a4        0x0 ./src/nes/InfoNES.o
 .rela.text.Map194_Init
                0x000000000003c3a4        0x0 ./src/nes/InfoNES.o
 .rela.text.Map200_Init
                0x000000000003c3a4        0x0 ./src/nes/InfoNES.o
 .rela.text.Map201_Init
                0x000000000003c3a4        0x0 ./src/nes/InfoNES.o
 .rela.text.Map202_Init
                0x000000000003c3a4        0x0 ./src/nes/InfoNES.o
 .rela.text.Map225_Init
                0x000000000003c3a4        0x0 ./src/nes/InfoNES.o
 .rela.text.Map226_Init
                0x000000000003c3a4        0x0 ./src/nes/InfoNES.o
 .rela.text.Map227_Init
                0x000000000003c3a4        0x0 ./src/nes/InfoNES.o
 .rela.text.Map228_Init
                0x000000000003c3a4        0x0 ./src/nes/InfoNES.o
 .rela.text.Map229_Init
                0x000000000003c3a4        0x0 ./src/nes/InfoNES.o
 .rela.text.Map230_Init
                0x000000000003c3a4        0x0 ./src/nes/InfoNES.o
 .rela.text.Map231_Init
                0x000000000003c3a4        0x0 ./src/nes/InfoNES.o
 .rela.text.Map232_Init
                0x000000000003c3a4        0x0 ./src/nes/InfoNES.o
 .rela.text.Map233_Init
                0x000000000003c3a4        0x0 ./src/nes/InfoNES.o
 .rela.text.Map234_Init
                0x000000000003c3a4        0x0 ./src/nes/InfoNES.o
 .rela.text.Map236_Init
                0x000000000003c3a4        0x0 ./src/nes/InfoNES.o
 .rela.text.Map240_Init
                0x000000000003c3a4        0x0 ./src/nes/InfoNES.o
 .rela.text.Map241_Init
                0x000000000003c3a4        0x0 ./src/nes/InfoNES.o
 .rela.text.Map242_Init
                0x000000000003c3a4        0x0 ./src/nes/InfoNES.o
 .rela.text.Map243_Init
                0x000000000003c3a4        0x0 ./src/nes/InfoNES.o
 .rela.text.Map244_Init
                0x000000000003c3a4        0x0 ./src/nes/InfoNES.o
 .rela.text.Map245_Init
                0x000000000003c3a4        0x0 ./src/nes/InfoNES.o
 .rela.text.Map246_Init
                0x000000000003c3a4        0x0 ./src/nes/InfoNES.o
 .rela.text.Map249_Init
                0x000000000003c3a4        0x0 ./src/nes/InfoNES.o
 .rela.text.Map252_Init
                0x000000000003c3a4        0x0 ./src/nes/InfoNES.o
 .rela.text.Map11_Init
                0x000000000003c3a4        0x0 ./src/nes/InfoNES.o
 .rela.text.Map82_Init
                0x000000000003c3a4        0x0 ./src/nes/InfoNES.o
 .rela.text.Map91_Init
                0x000000000003c3a4        0x0 ./src/nes/InfoNES.o
 .rela.text.Map222_Init
                0x000000000003c3a4        0x0 ./src/nes/InfoNES.o
 .rela.text.Map251_Init
                0x000000000003c3a4        0x0 ./src/nes/InfoNES.o
 .rela.text.Map255_Init
                0x000000000003c3a4        0x0 ./src/nes/InfoNES.o
 .rela.text.Map16_HSync
                0x000000000003c3a4        0x0 ./src/nes/InfoNES.o
 .rela.text.Map17_HSync
                0x000000000003c3a4        0x0 ./src/nes/InfoNES.o
 .rela.text.Map18_HSync
                0x000000000003c3a4        0x0 ./src/nes/InfoNES.o
 .rela.text.Map24_HSync
                0x000000000003c3a4        0x0 ./src/nes/InfoNES.o
 .rela.text.Map25_HSync
                0x000000000003c3a4        0x0 ./src/nes/InfoNES.o
 .rela.text.Map26_HSync
                0x000000000003c3a4        0x0 ./src/nes/InfoNES.o
 .rela.text.Map40_HSync
                0x000000000003c3a4        0x0 ./src/nes/InfoNES.o
 .rela.text.Map42_HSync
                0x000000000003c3a4        0x0 ./src/nes/InfoNES.o
 .rela.text.Map43_HSync
                0x000000000003c3a4        0x0 ./src/nes/InfoNES.o
 .rela.text.Map44_HSync
                0x000000000003c3a4        0x0 ./src/nes/InfoNES.o
 .rela.text.Map45_HSync
                0x000000000003c3a4        0x0 ./src/nes/InfoNES.o
 .rela.text.Map47_HSync
                0x000000000003c3a4        0x0 ./src/nes/InfoNES.o
 .rela.text.Map48_HSync
                0x000000000003c3a4        0x0 ./src/nes/InfoNES.o
 .rela.text.Map49_HSync
                0x000000000003c3a4        0x0 ./src/nes/InfoNES.o
 .rela.text.Map50_HSync
                0x000000000003c3a4        0x0 ./src/nes/InfoNES.o
 .rela.text.Map65_HSync
                0x000000000003c3a4        0x0 ./src/nes/InfoNES.o
 .rela.text.Map67_HSync
                0x000000000003c3a4        0x0 ./src/nes/InfoNES.o
 .rela.text.Map69_HSync
                0x000000000003c3a4        0x0 ./src/nes/InfoNES.o
 .rela.text.Map73_HSync
                0x000000000003c3a4        0x0 ./src/nes/InfoNES.o
 .rela.text.Map83_HSync
                0x000000000003c3a4        0x0 ./src/nes/InfoNES.o
 .rela.text.Map90_HSync
                0x000000000003c3a4        0x0 ./src/nes/InfoNES.o
 .rela.text.Map100_HSync
                0x000000000003c3a4        0x0 ./src/nes/InfoNES.o
 .rela.text.Map105_HSync
                0x000000000003c3a4        0x0 ./src/nes/InfoNES.o
 .rela.text.Map112_HSync
                0x000000000003c3a4        0x0 ./src/nes/InfoNES.o
 .rela.text.Map114_HSync
                0x000000000003c3a4        0x0 ./src/nes/InfoNES.o
 .rela.text.Map115_HSync
                0x000000000003c3a4        0x0 ./src/nes/InfoNES.o
 .rela.text.Map116_HSync
                0x000000000003c3a4        0x0 ./src/nes/InfoNES.o
 .rela.text.Map117_HSync
                0x000000000003c3a4        0x0 ./src/nes/InfoNES.o
 .rela.text.Map118_HSync
                0x000000000003c3a4        0x0 ./src/nes/InfoNES.o
 .rela.text.Map119_HSync
                0x000000000003c3a4        0x0 ./src/nes/InfoNES.o
 .rela.text.Map182_HSync
                0x000000000003c3a4        0x0 ./src/nes/InfoNES.o
 .rela.text.Map183_HSync
                0x000000000003c3a4        0x0 ./src/nes/InfoNES.o
 .rela.text.Map189_HSync
                0x000000000003c3a4        0x0 ./src/nes/InfoNES.o
 .rela.text.Map248_HSync
                0x000000000003c3a4        0x0 ./src/nes/InfoNES.o
 .rela.text.Map1_Init
                0x000000000003c3a4        0x0 ./src/nes/InfoNES.o
 .rela.text.Map4_Init
                0x000000000003c3a4        0x0 ./src/nes/InfoNES.o
 .rela.text.Map23_HSync
                0x000000000003c3a4        0x0 ./src/nes/InfoNES.o
 .rela.text.Map33_HSync
                0x000000000003c3a4        0x0 ./src/nes/InfoNES.o
 .rela.text.Map44_Init
                0x000000000003c3a4        0x0 ./src/nes/InfoNES.o
 .rela.text.Map46_Init
                0x000000000003c3a4        0x0 ./src/nes/InfoNES.o
 .rela.text.Map47_Init
                0x000000000003c3a4        0x0 ./src/nes/InfoNES.o
 .rela.text.Map51_Init
                0x000000000003c3a4        0x0 ./src/nes/InfoNES.o
 .rela.text.Map74_Init
                0x000000000003c3a4        0x0 ./src/nes/InfoNES.o
 .rela.text.Map95_Init
                0x000000000003c3a4        0x0 ./src/nes/InfoNES.o
 .rela.text.Map96_Init
                0x000000000003c3a4        0x0 ./src/nes/InfoNES.o
 .rela.text.Map100_Init
                0x000000000003c3a4        0x0 ./src/nes/InfoNES.o
 .rela.text.Map109_Init
                0x000000000003c3a4        0x0 ./src/nes/InfoNES.o
 .rela.text.Map112_Init
                0x000000000003c3a4        0x0 ./src/nes/InfoNES.o
 .rela.text.Map114_Init
                0x000000000003c3a4        0x0 ./src/nes/InfoNES.o
 .rela.text.Map115_Init
                0x000000000003c3a4        0x0 ./src/nes/InfoNES.o
 .rela.text.Map116_Init
                0x000000000003c3a4        0x0 ./src/nes/InfoNES.o
 .rela.text.Map118_Init
                0x000000000003c3a4        0x0 ./src/nes/InfoNES.o
 .rela.text.Map119_Init
                0x000000000003c3a4        0x0 ./src/nes/InfoNES.o
 .rela.text.Map135_Init
                0x000000000003c3a4        0x0 ./src/nes/InfoNES.o
 .rela.text.Map187_Init
                0x000000000003c3a4        0x0 ./src/nes/InfoNES.o
 .rela.text.Map191_Init
                0x000000000003c3a4        0x0 ./src/nes/InfoNES.o
 .rela.text.Map248_Init
                0x000000000003c3a4        0x0 ./src/nes/InfoNES.o
 .rela.text.InfoNES_ReadRom
                0x000000000003c3a4        0x0 ./src/nes/InfoNES.o
 .rela.text.InfoNES_LoadLine
                0x000000000003c3a4        0x0 ./src/nes/InfoNES.o
 .rela.text.InfoNES_MemoryCopy
                0x000000000003c3a4        0x0 ./src/nes/InfoNES.o
 .rela.text.InfoNES_MemorySet
                0x000000000003c3a4        0x0 ./src/nes/InfoNES.o
 .rela.text.gpio_test
                0x000000000003c3a4        0x0 ./src/nes/InfoNES.o
 .rela.text.startup.main
                0x000000000003c3a4        0x0 ./src/nes/InfoNES.o
 .rela.text.SnakeGameStart
                0x000000000003c3a4        0x0 ./src/nes/InfoNES.o
 .rela.text     0x000000000003c3a4        0x0 ./src/nes/InfoNES.o
 .rela.text.print_flt
                0x000000000003c3a4        0x0 ./src/nes/InfoNES.o
 .rela.text.__muldf3
                0x000000000003c3a4        0x0 ./src/nes/InfoNES.o
 .rela.text.__subdf3
                0x000000000003c3a4        0x0 ./src/nes/InfoNES.o
 .rela.text.__floatunsidf
                0x000000000003c3a4        0x0 ./src/nes/InfoNES.o
 .rela.text.__clzsi2
                0x000000000003c3a4        0x0 ./src/nes/InfoNES.o
 .rela.text.srand
                0x000000000003c3a4        0x0 ./src/nes/InfoNES.o
 .rela.text.rand
                0x000000000003c3a4        0x0 ./src/nes/InfoNES.o

.data           0x0000000000000000      0x8f8 load address 0x000000000003c3a4
                0x0000000000000000                . = ALIGN (0x4)
                0x0000000000000000                _sdata = .
                0x0000000000000000                _ram_start = .
                0x0000000000000000                . = ALIGN (0x4)
 *(.data)
 .data          0x0000000000000000        0x0 ./src/nes/InfoNES.o
 .data          0x0000000000000000        0x0 ./src/nes/InfoNES_Mapper.o
 .data          0x0000000000000000        0x0 ./src/nes/InfoNES_pAPU.o
 .data          0x0000000000000000        0x0 ./src/nes/InfoNES_system.o
 .data          0x0000000000000000        0x0 ./src/nes/K6502.o
 .data          0x0000000000000000        0x0 ./src/nes/rom.o
 .data          0x0000000000000000        0x0 ./src/main.o
 .data          0x0000000000000000        0x0 ./src/snake.o
 .data          0x0000000000000000        0x0 ./src/start.o
 .data          0x0000000000000000        0x0 ./src/uart.o
 .data          0x0000000000000000        0x0 d:/hummingbird/hbird-eclipse_2018_09/gnu mcu eclipse/risc-v embedded gcc/7.2.0-4-20180606-1631/bin/../lib/gcc/riscv-none-embed/7.2.0/rv32im/ilp32\libgcc.a(muldf3.o)
 .data          0x0000000000000000        0x0 d:/hummingbird/hbird-eclipse_2018_09/gnu mcu eclipse/risc-v embedded gcc/7.2.0-4-20180606-1631/bin/../lib/gcc/riscv-none-embed/7.2.0/rv32im/ilp32\libgcc.a(subdf3.o)
 .data          0x0000000000000000        0x0 d:/hummingbird/hbird-eclipse_2018_09/gnu mcu eclipse/risc-v embedded gcc/7.2.0-4-20180606-1631/bin/../lib/gcc/riscv-none-embed/7.2.0/rv32im/ilp32\libgcc.a(fixdfsi.o)
 .data          0x0000000000000000        0x0 d:/hummingbird/hbird-eclipse_2018_09/gnu mcu eclipse/risc-v embedded gcc/7.2.0-4-20180606-1631/bin/../lib/gcc/riscv-none-embed/7.2.0/rv32im/ilp32\libgcc.a(floatunsidf.o)
 .data          0x0000000000000000        0x0 d:/hummingbird/hbird-eclipse_2018_09/gnu mcu eclipse/risc-v embedded gcc/7.2.0-4-20180606-1631/bin/../lib/gcc/riscv-none-embed/7.2.0/rv32im/ilp32\libgcc.a(_clzsi2.o)
 .data          0x0000000000000000        0x0 d:/hummingbird/hbird-eclipse_2018_09/gnu mcu eclipse/risc-v embedded gcc/7.2.0-4-20180606-1631/bin/../lib/gcc/riscv-none-embed/7.2.0/rv32im/ilp32\libgcc.a(_clz.o)
 .data          0x0000000000000000        0x0 d:/hummingbird/hbird-eclipse_2018_09/gnu mcu eclipse/risc-v embedded gcc/7.2.0-4-20180606-1631/bin/../lib/gcc/riscv-none-embed/7.2.0/../../../../riscv-none-embed/lib/rv32im/ilp32\libg.a(lib_a-memcpy.o)
 .data          0x0000000000000000        0x0 d:/hummingbird/hbird-eclipse_2018_09/gnu mcu eclipse/risc-v embedded gcc/7.2.0-4-20180606-1631/bin/../lib/gcc/riscv-none-embed/7.2.0/../../../../riscv-none-embed/lib/rv32im/ilp32\libg.a(lib_a-memset.o)
 .data          0x0000000000000000        0x0 d:/hummingbird/hbird-eclipse_2018_09/gnu mcu eclipse/risc-v embedded gcc/7.2.0-4-20180606-1631/bin/../lib/gcc/riscv-none-embed/7.2.0/../../../../riscv-none-embed/lib/rv32im/ilp32\libg.a(lib_a-rand.o)
 .data          0x0000000000000000        0x0 d:/hummingbird/hbird-eclipse_2018_09/gnu mcu eclipse/risc-v embedded gcc/7.2.0-4-20180606-1631/bin/../lib/gcc/riscv-none-embed/7.2.0/../../../../riscv-none-embed/lib/rv32im/ilp32\libg.a(lib_a-impure.o)
 *(.data*)
 .data.PPU_MirrorTable
                0x0000000000000000       0x18 ./src/nes/InfoNES.o
                0x0000000000000000                PPU_MirrorTable
 .data.MapperTable
                0x0000000000000018      0x428 ./src/nes/InfoNES_Mapper.o
                0x0000000000000018                MapperTable
 .data.NesPalette
                0x0000000000000440       0x80 ./src/nes/InfoNES_system.o
                0x0000000000000440                NesPalette
 .data.impure_data
                0x00000000000004c0      0x428 d:/hummingbird/hbird-eclipse_2018_09/gnu mcu eclipse/risc-v embedded gcc/7.2.0-4-20180606-1631/bin/../lib/gcc/riscv-none-embed/7.2.0/../../../../riscv-none-embed/lib/rv32im/ilp32\libg.a(lib_a-impure.o)
 *(.sdata)
 *(.sdata*)
 .sdata.CSWTCH.3768
                0x00000000000008e8        0x4 ./src/nes/InfoNES_Mapper.o
 .sdata.rgb_data
                0x00000000000008ec        0x4 ./src/main.o
                0x00000000000008ec                rgb_data
 .sdata._global_impure_ptr
                0x00000000000008f0        0x4 d:/hummingbird/hbird-eclipse_2018_09/gnu mcu eclipse/risc-v embedded gcc/7.2.0-4-20180606-1631/bin/../lib/gcc/riscv-none-embed/7.2.0/../../../../riscv-none-embed/lib/rv32im/ilp32\libg.a(lib_a-impure.o)
                0x00000000000008f0                _global_impure_ptr
 .sdata._impure_ptr
                0x00000000000008f4        0x4 d:/hummingbird/hbird-eclipse_2018_09/gnu mcu eclipse/risc-v embedded gcc/7.2.0-4-20180606-1631/bin/../lib/gcc/riscv-none-embed/7.2.0/../../../../riscv-none-embed/lib/rv32im/ilp32\libg.a(lib_a-impure.o)
                0x00000000000008f4                _impure_ptr
                0x00000000000008f8                . = ALIGN (0x4)
                0x00000000000008f8                _edata = .

.bss            0x00000000000008f8     0x6b78 load address 0x000000000003cc9c
                0x00000000000008f8                . = ALIGN (0x4)
                0x00000000000008f8                _sbss = .
 *(.bss)
 .bss           0x00000000000008f8        0x0 ./src/nes/InfoNES.o
 .bss           0x00000000000008f8        0x0 ./src/nes/InfoNES_Mapper.o
 .bss           0x00000000000008f8        0x0 ./src/nes/InfoNES_pAPU.o
 .bss           0x00000000000008f8        0x0 ./src/nes/InfoNES_system.o
 .bss           0x00000000000008f8        0x0 ./src/nes/K6502.o
 .bss           0x00000000000008f8        0x0 ./src/nes/rom.o
 .bss           0x00000000000008f8        0x0 ./src/main.o
 .bss           0x00000000000008f8        0x0 ./src/snake.o
 .bss           0x00000000000008f8        0x0 ./src/start.o
 .bss           0x00000000000008f8        0x0 ./src/uart.o
 .bss           0x00000000000008f8        0x0 d:/hummingbird/hbird-eclipse_2018_09/gnu mcu eclipse/risc-v embedded gcc/7.2.0-4-20180606-1631/bin/../lib/gcc/riscv-none-embed/7.2.0/rv32im/ilp32\libgcc.a(muldf3.o)
 .bss           0x00000000000008f8        0x0 d:/hummingbird/hbird-eclipse_2018_09/gnu mcu eclipse/risc-v embedded gcc/7.2.0-4-20180606-1631/bin/../lib/gcc/riscv-none-embed/7.2.0/rv32im/ilp32\libgcc.a(subdf3.o)
 .bss           0x00000000000008f8        0x0 d:/hummingbird/hbird-eclipse_2018_09/gnu mcu eclipse/risc-v embedded gcc/7.2.0-4-20180606-1631/bin/../lib/gcc/riscv-none-embed/7.2.0/rv32im/ilp32\libgcc.a(fixdfsi.o)
 .bss           0x00000000000008f8        0x0 d:/hummingbird/hbird-eclipse_2018_09/gnu mcu eclipse/risc-v embedded gcc/7.2.0-4-20180606-1631/bin/../lib/gcc/riscv-none-embed/7.2.0/rv32im/ilp32\libgcc.a(floatunsidf.o)
 .bss           0x00000000000008f8        0x0 d:/hummingbird/hbird-eclipse_2018_09/gnu mcu eclipse/risc-v embedded gcc/7.2.0-4-20180606-1631/bin/../lib/gcc/riscv-none-embed/7.2.0/rv32im/ilp32\libgcc.a(_clzsi2.o)
 .bss           0x00000000000008f8        0x0 d:/hummingbird/hbird-eclipse_2018_09/gnu mcu eclipse/risc-v embedded gcc/7.2.0-4-20180606-1631/bin/../lib/gcc/riscv-none-embed/7.2.0/rv32im/ilp32\libgcc.a(_clz.o)
 .bss           0x00000000000008f8        0x0 d:/hummingbird/hbird-eclipse_2018_09/gnu mcu eclipse/risc-v embedded gcc/7.2.0-4-20180606-1631/bin/../lib/gcc/riscv-none-embed/7.2.0/../../../../riscv-none-embed/lib/rv32im/ilp32\libg.a(lib_a-memcpy.o)
 .bss           0x00000000000008f8        0x0 d:/hummingbird/hbird-eclipse_2018_09/gnu mcu eclipse/risc-v embedded gcc/7.2.0-4-20180606-1631/bin/../lib/gcc/riscv-none-embed/7.2.0/../../../../riscv-none-embed/lib/rv32im/ilp32\libg.a(lib_a-memset.o)
 .bss           0x00000000000008f8        0x0 d:/hummingbird/hbird-eclipse_2018_09/gnu mcu eclipse/risc-v embedded gcc/7.2.0-4-20180606-1631/bin/../lib/gcc/riscv-none-embed/7.2.0/../../../../riscv-none-embed/lib/rv32im/ilp32\libg.a(lib_a-rand.o)
 .bss           0x00000000000008f8        0x0 d:/hummingbird/hbird-eclipse_2018_09/gnu mcu eclipse/risc-v embedded gcc/7.2.0-4-20180606-1631/bin/../lib/gcc/riscv-none-embed/7.2.0/../../../../riscv-none-embed/lib/rv32im/ilp32\libg.a(lib_a-impure.o)
 *(.bss*)
 .bss.NesHeader
                0x00000000000008f8       0x10 ./src/nes/InfoNES.o
                0x00000000000008f8                NesHeader
 .bss.PPUBANK   0x0000000000000908       0x40 ./src/nes/InfoNES.o
                0x0000000000000908                PPUBANK
 .bss.PPU_ScanTable
                0x0000000000000948      0x107 ./src/nes/InfoNES.o
                0x0000000000000948                PPU_ScanTable
 *fill*         0x0000000000000a4f        0x1 
 .bss.PalTable  0x0000000000000a50       0x40 ./src/nes/InfoNES.o
                0x0000000000000a50                PalTable
 .bss.RAM       0x0000000000000a90      0x800 ./src/nes/InfoNES.o
                0x0000000000000a90                RAM
 .bss.SPRRAM    0x0000000000001290      0x100 ./src/nes/InfoNES.o
                0x0000000000001290                SPRRAM
 .bss.SRAM      0x0000000000001390     0x2000 ./src/nes/InfoNES.o
                0x0000000000001390                SRAM
 .bss.VRAM      0x0000000000003390      0x800 ./src/nes/InfoNES.o
                0x0000000000003390                VRAM
 .bss.WorkLine  0x0000000000003b90      0x200 ./src/nes/InfoNES.o
                0x0000000000003b90                WorkLine
 .bss.CRAM      0x0000000000003d90     0x2000 ./src/nes/InfoNES_Mapper.o
                0x0000000000003d90                CRAM
 .bss.Map185_Dummy_Chr_Rom
                0x0000000000005d90      0x400 ./src/nes/InfoNES_Mapper.o
                0x0000000000005d90                Map185_Dummy_Chr_Rom
 .bss.Map187_Chr
                0x0000000000006190       0x20 ./src/nes/InfoNES_Mapper.o
                0x0000000000006190                Map187_Chr
 .bss.Map18_Regs
                0x00000000000061b0        0xb ./src/nes/InfoNES_Mapper.o
                0x00000000000061b0                Map18_Regs
 *fill*         0x00000000000061bb        0x1 
 .bss.Map21_Regs
                0x00000000000061bc        0xa ./src/nes/InfoNES_Mapper.o
                0x00000000000061bc                Map21_Regs
 *fill*         0x00000000000061c6        0x2 
 .bss.Map23_Regs
                0x00000000000061c8        0x9 ./src/nes/InfoNES_Mapper.o
                0x00000000000061c8                Map23_Regs
 *fill*         0x00000000000061d1        0x3 
 .bss.Map251_Reg
                0x00000000000061d4        0xb ./src/nes/InfoNES_Mapper.o
                0x00000000000061d4                Map251_Reg
 *fill*         0x00000000000061df        0x1 
 .bss.Map252_Reg
                0x00000000000061e0        0x9 ./src/nes/InfoNES_Mapper.o
                0x00000000000061e0                Map252_Reg
 *fill*         0x00000000000061e9        0x3 
 .bss.Map25_VBank
                0x00000000000061ec       0x10 ./src/nes/InfoNES_Mapper.o
                0x00000000000061ec                Map25_VBank
 .bss.Map45_C   0x00000000000061fc       0x10 ./src/nes/InfoNES_Mapper.o
                0x00000000000061fc                Map45_C
 .bss.Map45_P   0x000000000000620c       0x10 ./src/nes/InfoNES_Mapper.o
                0x000000000000620c                Map45_P
 .bss.g_ASLTable
                0x000000000000621c      0x200 ./src/nes/K6502.o
                0x000000000000621c                g_ASLTable
 .bss.g_LSRTable
                0x000000000000641c      0x200 ./src/nes/K6502.o
                0x000000000000641c                g_LSRTable
 .bss.g_ROLTable
                0x000000000000661c      0x400 ./src/nes/K6502.o
                0x000000000000661c                g_ROLTable
 .bss.g_RORTable
                0x0000000000006a1c      0x400 ./src/nes/K6502.o
                0x0000000000006a1c                g_RORTable
 .bss.g_byTestTable
                0x0000000000006e1c      0x100 ./src/nes/K6502.o
                0x0000000000006e1c                g_byTestTable
 .bss.snake_info
                0x0000000000006f1c       0x64 ./src/snake.o
                0x0000000000006f1c                snake_info
 *(.sbss)
 *(.sbss*)
 .sbss.FrameCnt
                0x0000000000006f80        0x2 ./src/nes/InfoNES.o
                0x0000000000006f80                FrameCnt
 .sbss.FrameIRQ_Enable
                0x0000000000006f82        0x1 ./src/nes/InfoNES.o
                0x0000000000006f82                FrameIRQ_Enable
 *fill*         0x0000000000006f83        0x1 
 .sbss.FrameScanLine
                0x0000000000006f84        0x2 ./src/nes/InfoNES.o
                0x0000000000006f84                FrameScanLine
 .sbss.FrameSkip
                0x0000000000006f86        0x2 ./src/nes/InfoNES.o
                0x0000000000006f86                FrameSkip
 .sbss.FrameStep
                0x0000000000006f88        0x2 ./src/nes/InfoNES.o
                0x0000000000006f88                FrameStep
 .sbss.MapperNo
                0x0000000000006f8a        0x1 ./src/nes/InfoNES.o
                0x0000000000006f8a                MapperNo
 *fill*         0x0000000000006f8b        0x1 
 .sbss.PAD1_Bit
                0x0000000000006f8c        0x4 ./src/nes/InfoNES.o
                0x0000000000006f8c                PAD1_Bit
 .sbss.PAD1_Latch
                0x0000000000006f90        0x4 ./src/nes/InfoNES.o
                0x0000000000006f90                PAD1_Latch
 .sbss.PAD2_Bit
                0x0000000000006f94        0x4 ./src/nes/InfoNES.o
                0x0000000000006f94                PAD2_Bit
 .sbss.PAD2_Latch
                0x0000000000006f98        0x4 ./src/nes/InfoNES.o
                0x0000000000006f98                PAD2_Latch
 .sbss.PAD_System
                0x0000000000006f9c        0x4 ./src/nes/InfoNES.o
                0x0000000000006f9c                PAD_System
 .sbss.PPU_BG_Base
                0x0000000000006fa0        0x4 ./src/nes/InfoNES.o
                0x0000000000006fa0                PPU_BG_Base
 .sbss.PPU_Increment
                0x0000000000006fa4        0x2 ./src/nes/InfoNES.o
                0x0000000000006fa4                PPU_Increment
 .sbss.PPU_Latch_Flag
                0x0000000000006fa6        0x1 ./src/nes/InfoNES.o
                0x0000000000006fa6                PPU_Latch_Flag
 .sbss.PPU_NameTableBank
                0x0000000000006fa7        0x1 ./src/nes/InfoNES.o
                0x0000000000006fa7                PPU_NameTableBank
 .sbss.PPU_R0   0x0000000000006fa8        0x1 ./src/nes/InfoNES.o
                0x0000000000006fa8                PPU_R0
 .sbss.PPU_R1   0x0000000000006fa9        0x1 ./src/nes/InfoNES.o
                0x0000000000006fa9                PPU_R1
 .sbss.PPU_R2   0x0000000000006faa        0x1 ./src/nes/InfoNES.o
                0x0000000000006faa                PPU_R2
 .sbss.PPU_R3   0x0000000000006fab        0x1 ./src/nes/InfoNES.o
                0x0000000000006fab                PPU_R3
 .sbss.PPU_R7   0x0000000000006fac        0x1 ./src/nes/InfoNES.o
                0x0000000000006fac                PPU_R7
 *fill*         0x0000000000006fad        0x3 
 .sbss.PPU_SP_Base
                0x0000000000006fb0        0x4 ./src/nes/InfoNES.o
                0x0000000000006fb0                PPU_SP_Base
 .sbss.PPU_SP_Height
                0x0000000000006fb4        0x2 ./src/nes/InfoNES.o
                0x0000000000006fb4                PPU_SP_Height
 .sbss.PPU_Scanline
                0x0000000000006fb6        0x2 ./src/nes/InfoNES.o
                0x0000000000006fb6                PPU_Scanline
 .sbss.PPU_UpDown_Clip
                0x0000000000006fb8        0x1 ./src/nes/InfoNES.o
                0x0000000000006fb8                PPU_UpDown_Clip
 *fill*         0x0000000000006fb9        0x3 
 .sbss.ROM      0x0000000000006fbc        0x4 ./src/nes/InfoNES.o
                0x0000000000006fbc                ROM
 .sbss.ROMBANK0
                0x0000000000006fc0        0x4 ./src/nes/InfoNES.o
                0x0000000000006fc0                ROMBANK0
 .sbss.ROMBANK1
                0x0000000000006fc4        0x4 ./src/nes/InfoNES.o
                0x0000000000006fc4                ROMBANK1
 .sbss.ROMBANK2
                0x0000000000006fc8        0x4 ./src/nes/InfoNES.o
                0x0000000000006fc8                ROMBANK2
 .sbss.ROMBANK3
                0x0000000000006fcc        0x4 ./src/nes/InfoNES.o
                0x0000000000006fcc                ROMBANK3
 .sbss.ROM_FourScr
                0x0000000000006fd0        0x1 ./src/nes/InfoNES.o
                0x0000000000006fd0                ROM_FourScr
 .sbss.ROM_Mirroring
                0x0000000000006fd1        0x1 ./src/nes/InfoNES.o
                0x0000000000006fd1                ROM_Mirroring
 .sbss.ROM_SRAM
                0x0000000000006fd2        0x1 ./src/nes/InfoNES.o
                0x0000000000006fd2                ROM_SRAM
 .sbss.ROM_Trainer
                0x0000000000006fd3        0x1 ./src/nes/InfoNES.o
                0x0000000000006fd3                ROM_Trainer
 .sbss.SRAMBANK
                0x0000000000006fd4        0x4 ./src/nes/InfoNES.o
                0x0000000000006fd4                SRAMBANK
 .sbss.SpriteJustHit
                0x0000000000006fd8        0x4 ./src/nes/InfoNES.o
                0x0000000000006fd8                SpriteJustHit
 .sbss.VROM     0x0000000000006fdc        0x4 ./src/nes/InfoNES.o
                0x0000000000006fdc                VROM
 .sbss.byVramWriteEnable
                0x0000000000006fe0        0x1 ./src/nes/InfoNES.o
                0x0000000000006fe0                byVramWriteEnable
 *fill*         0x0000000000006fe1        0x1 
 .sbss.loopy_shift
                0x0000000000006fe2        0x2 ./src/nes/InfoNES.o
                0x0000000000006fe2                loopy_shift
 .sbss.loopy_t  0x0000000000006fe4        0x2 ./src/nes/InfoNES.o
                0x0000000000006fe4                loopy_t
 .sbss.loopy_v  0x0000000000006fe6        0x2 ./src/nes/InfoNES.o
                0x0000000000006fe6                loopy_v
 .sbss.loopy_x  0x0000000000006fe8        0x2 ./src/nes/InfoNES.o
                0x0000000000006fe8                loopy_x
 .sbss.loopy_y  0x0000000000006fea        0x2 ./src/nes/InfoNES.o
                0x0000000000006fea                loopy_y
 .sbss.DRAM     0x0000000000006fec        0x1 ./src/nes/InfoNES_Mapper.o
                0x0000000000006fec                DRAM
 .sbss.Map100_Chr0
                0x0000000000006fed        0x1 ./src/nes/InfoNES_Mapper.o
                0x0000000000006fed                Map100_Chr0
 .sbss.Map100_Chr1
                0x0000000000006fee        0x1 ./src/nes/InfoNES_Mapper.o
                0x0000000000006fee                Map100_Chr1
 .sbss.Map100_Chr2
                0x0000000000006fef        0x1 ./src/nes/InfoNES_Mapper.o
                0x0000000000006fef                Map100_Chr2
 .sbss.Map100_Chr3
                0x0000000000006ff0        0x1 ./src/nes/InfoNES_Mapper.o
                0x0000000000006ff0                Map100_Chr3
 .sbss.Map100_Chr4
                0x0000000000006ff1        0x1 ./src/nes/InfoNES_Mapper.o
                0x0000000000006ff1                Map100_Chr4
 .sbss.Map100_Chr5
                0x0000000000006ff2        0x1 ./src/nes/InfoNES_Mapper.o
                0x0000000000006ff2                Map100_Chr5
 .sbss.Map100_Chr6
                0x0000000000006ff3        0x1 ./src/nes/InfoNES_Mapper.o
                0x0000000000006ff3                Map100_Chr6
 .sbss.Map100_Chr7
                0x0000000000006ff4        0x1 ./src/nes/InfoNES_Mapper.o
                0x0000000000006ff4                Map100_Chr7
 .sbss.Map100_IRQ_Cnt
                0x0000000000006ff5        0x1 ./src/nes/InfoNES_Mapper.o
                0x0000000000006ff5                Map100_IRQ_Cnt
 .sbss.Map100_IRQ_Enable
                0x0000000000006ff6        0x1 ./src/nes/InfoNES_Mapper.o
                0x0000000000006ff6                Map100_IRQ_Enable
 .sbss.Map100_IRQ_Latch
                0x0000000000006ff7        0x1 ./src/nes/InfoNES_Mapper.o
                0x0000000000006ff7                Map100_IRQ_Latch
 .sbss.Map100_Prg0
                0x0000000000006ff8        0x1 ./src/nes/InfoNES_Mapper.o
                0x0000000000006ff8                Map100_Prg0
 .sbss.Map100_Prg1
                0x0000000000006ff9        0x1 ./src/nes/InfoNES_Mapper.o
                0x0000000000006ff9                Map100_Prg1
 .sbss.Map100_Prg2
                0x0000000000006ffa        0x1 ./src/nes/InfoNES_Mapper.o
                0x0000000000006ffa                Map100_Prg2
 .sbss.Map100_Prg3
                0x0000000000006ffb        0x1 ./src/nes/InfoNES_Mapper.o
                0x0000000000006ffb                Map100_Prg3
 .sbss.Map100_Reg
                0x0000000000006ffc        0x8 ./src/nes/InfoNES_Mapper.o
                0x0000000000006ffc                Map100_Reg
 .sbss.Map105_Bits
                0x0000000000007004        0x1 ./src/nes/InfoNES_Mapper.o
                0x0000000000007004                Map105_Bits
 *fill*         0x0000000000007005        0x3 
 .sbss.Map105_IRQ_Counter
                0x0000000000007008        0x4 ./src/nes/InfoNES_Mapper.o
                0x0000000000007008                Map105_IRQ_Counter
 .sbss.Map105_IRQ_Enable
                0x000000000000700c        0x1 ./src/nes/InfoNES_Mapper.o
                0x000000000000700c                Map105_IRQ_Enable
 .sbss.Map105_Init_State
                0x000000000000700d        0x1 ./src/nes/InfoNES_Mapper.o
                0x000000000000700d                Map105_Init_State
 *fill*         0x000000000000700e        0x2 
 .sbss.Map105_Reg
                0x0000000000007010        0x4 ./src/nes/InfoNES_Mapper.o
                0x0000000000007010                Map105_Reg
 .sbss.Map105_Write_Count
                0x0000000000007014        0x1 ./src/nes/InfoNES_Mapper.o
                0x0000000000007014                Map105_Write_Count
 .sbss.Map109_Chr0
                0x0000000000007015        0x1 ./src/nes/InfoNES_Mapper.o
                0x0000000000007015                Map109_Chr0
 .sbss.Map109_Chr1
                0x0000000000007016        0x1 ./src/nes/InfoNES_Mapper.o
                0x0000000000007016                Map109_Chr1
 .sbss.Map109_Chr2
                0x0000000000007017        0x1 ./src/nes/InfoNES_Mapper.o
                0x0000000000007017                Map109_Chr2
 .sbss.Map109_Chr3
                0x0000000000007018        0x1 ./src/nes/InfoNES_Mapper.o
                0x0000000000007018                Map109_Chr3
 .sbss.Map109_Chrmode0
                0x0000000000007019        0x1 ./src/nes/InfoNES_Mapper.o
                0x0000000000007019                Map109_Chrmode0
 .sbss.Map109_Chrmode1
                0x000000000000701a        0x1 ./src/nes/InfoNES_Mapper.o
                0x000000000000701a                Map109_Chrmode1
 .sbss.Map109_Reg
                0x000000000000701b        0x1 ./src/nes/InfoNES_Mapper.o
                0x000000000000701b                Map109_Reg
 .sbss.Map110_Reg0
                0x000000000000701c        0x1 ./src/nes/InfoNES_Mapper.o
                0x000000000000701c                Map110_Reg0
 .sbss.Map110_Reg1
                0x000000000000701d        0x1 ./src/nes/InfoNES_Mapper.o
                0x000000000000701d                Map110_Reg1
 *fill*         0x000000000000701e        0x2 
 .sbss.Map112_Chr01
                0x0000000000007020        0x4 ./src/nes/InfoNES_Mapper.o
                0x0000000000007020                Map112_Chr01
 .sbss.Map112_Chr23
                0x0000000000007024        0x4 ./src/nes/InfoNES_Mapper.o
                0x0000000000007024                Map112_Chr23
 .sbss.Map112_Chr4
                0x0000000000007028        0x4 ./src/nes/InfoNES_Mapper.o
                0x0000000000007028                Map112_Chr4
 .sbss.Map112_Chr5
                0x000000000000702c        0x4 ./src/nes/InfoNES_Mapper.o
                0x000000000000702c                Map112_Chr5
 .sbss.Map112_Chr6
                0x0000000000007030        0x4 ./src/nes/InfoNES_Mapper.o
                0x0000000000007030                Map112_Chr6
 .sbss.Map112_Chr7
                0x0000000000007034        0x4 ./src/nes/InfoNES_Mapper.o
                0x0000000000007034                Map112_Chr7
 .sbss.Map112_IRQ_Cnt
                0x0000000000007038        0x1 ./src/nes/InfoNES_Mapper.o
                0x0000000000007038                Map112_IRQ_Cnt
 .sbss.Map112_IRQ_Enable
                0x0000000000007039        0x1 ./src/nes/InfoNES_Mapper.o
                0x0000000000007039                Map112_IRQ_Enable
 .sbss.Map112_IRQ_Latch
                0x000000000000703a        0x1 ./src/nes/InfoNES_Mapper.o
                0x000000000000703a                Map112_IRQ_Latch
 *fill*         0x000000000000703b        0x1 
 .sbss.Map112_Prg0
                0x000000000000703c        0x4 ./src/nes/InfoNES_Mapper.o
                0x000000000000703c                Map112_Prg0
 .sbss.Map112_Prg1
                0x0000000000007040        0x4 ./src/nes/InfoNES_Mapper.o
                0x0000000000007040                Map112_Prg1
 .sbss.Map112_Regs
                0x0000000000007044        0x8 ./src/nes/InfoNES_Mapper.o
                0x0000000000007044                Map112_Regs
 .sbss.Map114_Chr01
                0x000000000000704c        0x4 ./src/nes/InfoNES_Mapper.o
                0x000000000000704c                Map114_Chr01
 .sbss.Map114_Chr23
                0x0000000000007050        0x4 ./src/nes/InfoNES_Mapper.o
                0x0000000000007050                Map114_Chr23
 .sbss.Map114_Chr4
                0x0000000000007054        0x4 ./src/nes/InfoNES_Mapper.o
                0x0000000000007054                Map114_Chr4
 .sbss.Map114_Chr5
                0x0000000000007058        0x4 ./src/nes/InfoNES_Mapper.o
                0x0000000000007058                Map114_Chr5
 .sbss.Map114_Chr6
                0x000000000000705c        0x4 ./src/nes/InfoNES_Mapper.o
                0x000000000000705c                Map114_Chr6
 .sbss.Map114_Chr7
                0x0000000000007060        0x4 ./src/nes/InfoNES_Mapper.o
                0x0000000000007060                Map114_Chr7
 .sbss.Map114_IRQ_Cnt
                0x0000000000007064        0x1 ./src/nes/InfoNES_Mapper.o
                0x0000000000007064                Map114_IRQ_Cnt
 .sbss.Map114_IRQ_Enable
                0x0000000000007065        0x1 ./src/nes/InfoNES_Mapper.o
                0x0000000000007065                Map114_IRQ_Enable
 .sbss.Map114_IRQ_Latch
                0x0000000000007066        0x1 ./src/nes/InfoNES_Mapper.o
                0x0000000000007066                Map114_IRQ_Latch
 *fill*         0x0000000000007067        0x1 
 .sbss.Map114_Prg0
                0x0000000000007068        0x4 ./src/nes/InfoNES_Mapper.o
                0x0000000000007068                Map114_Prg0
 .sbss.Map114_Prg1
                0x000000000000706c        0x4 ./src/nes/InfoNES_Mapper.o
                0x000000000000706c                Map114_Prg1
 .sbss.Map114_Regs
                0x0000000000007070        0x8 ./src/nes/InfoNES_Mapper.o
                0x0000000000007070                Map114_Regs
 .sbss.Map115_Chr0
                0x0000000000007078        0x1 ./src/nes/InfoNES_Mapper.o
                0x0000000000007078                Map115_Chr0
 .sbss.Map115_Chr1
                0x0000000000007079        0x1 ./src/nes/InfoNES_Mapper.o
                0x0000000000007079                Map115_Chr1
 .sbss.Map115_Chr2
                0x000000000000707a        0x1 ./src/nes/InfoNES_Mapper.o
                0x000000000000707a                Map115_Chr2
 .sbss.Map115_Chr3
                0x000000000000707b        0x1 ./src/nes/InfoNES_Mapper.o
                0x000000000000707b                Map115_Chr3
 .sbss.Map115_Chr4
                0x000000000000707c        0x1 ./src/nes/InfoNES_Mapper.o
                0x000000000000707c                Map115_Chr4
 .sbss.Map115_Chr5
                0x000000000000707d        0x1 ./src/nes/InfoNES_Mapper.o
                0x000000000000707d                Map115_Chr5
 .sbss.Map115_Chr6
                0x000000000000707e        0x1 ./src/nes/InfoNES_Mapper.o
                0x000000000000707e                Map115_Chr6
 .sbss.Map115_Chr7
                0x000000000000707f        0x1 ./src/nes/InfoNES_Mapper.o
                0x000000000000707f                Map115_Chr7
 .sbss.Map115_ExChrSwitch
                0x0000000000007080        0x1 ./src/nes/InfoNES_Mapper.o
                0x0000000000007080                Map115_ExChrSwitch
 .sbss.Map115_ExPrgSwitch
                0x0000000000007081        0x1 ./src/nes/InfoNES_Mapper.o
                0x0000000000007081                Map115_ExPrgSwitch
 .sbss.Map115_IRQ_Counter
                0x0000000000007082        0x1 ./src/nes/InfoNES_Mapper.o
                0x0000000000007082                Map115_IRQ_Counter
 .sbss.Map115_IRQ_Enable
                0x0000000000007083        0x1 ./src/nes/InfoNES_Mapper.o
                0x0000000000007083                Map115_IRQ_Enable
 .sbss.Map115_IRQ_Latch
                0x0000000000007084        0x1 ./src/nes/InfoNES_Mapper.o
                0x0000000000007084                Map115_IRQ_Latch
 .sbss.Map115_Prg0
                0x0000000000007085        0x1 ./src/nes/InfoNES_Mapper.o
                0x0000000000007085                Map115_Prg0
 .sbss.Map115_Prg0L
                0x0000000000007086        0x1 ./src/nes/InfoNES_Mapper.o
                0x0000000000007086                Map115_Prg0L
 .sbss.Map115_Prg1
                0x0000000000007087        0x1 ./src/nes/InfoNES_Mapper.o
                0x0000000000007087                Map115_Prg1
 .sbss.Map115_Prg1L
                0x0000000000007088        0x1 ./src/nes/InfoNES_Mapper.o
                0x0000000000007088                Map115_Prg1L
 .sbss.Map115_Prg2
                0x0000000000007089        0x1 ./src/nes/InfoNES_Mapper.o
                0x0000000000007089                Map115_Prg2
 .sbss.Map115_Prg3
                0x000000000000708a        0x1 ./src/nes/InfoNES_Mapper.o
                0x000000000000708a                Map115_Prg3
 *fill*         0x000000000000708b        0x1 
 .sbss.Map115_Reg
                0x000000000000708c        0x8 ./src/nes/InfoNES_Mapper.o
                0x000000000000708c                Map115_Reg
 .sbss.Map116_Chr0
                0x0000000000007094        0x1 ./src/nes/InfoNES_Mapper.o
                0x0000000000007094                Map116_Chr0
 .sbss.Map116_Chr1
                0x0000000000007095        0x1 ./src/nes/InfoNES_Mapper.o
                0x0000000000007095                Map116_Chr1
 .sbss.Map116_Chr2
                0x0000000000007096        0x1 ./src/nes/InfoNES_Mapper.o
                0x0000000000007096                Map116_Chr2
 .sbss.Map116_Chr3
                0x0000000000007097        0x1 ./src/nes/InfoNES_Mapper.o
                0x0000000000007097                Map116_Chr3
 .sbss.Map116_Chr4
                0x0000000000007098        0x1 ./src/nes/InfoNES_Mapper.o
                0x0000000000007098                Map116_Chr4
 .sbss.Map116_Chr5
                0x0000000000007099        0x1 ./src/nes/InfoNES_Mapper.o
                0x0000000000007099                Map116_Chr5
 .sbss.Map116_Chr6
                0x000000000000709a        0x1 ./src/nes/InfoNES_Mapper.o
                0x000000000000709a                Map116_Chr6
 .sbss.Map116_Chr7
                0x000000000000709b        0x1 ./src/nes/InfoNES_Mapper.o
                0x000000000000709b                Map116_Chr7
 .sbss.Map116_ExChrSwitch
                0x000000000000709c        0x1 ./src/nes/InfoNES_Mapper.o
                0x000000000000709c                Map116_ExChrSwitch
 .sbss.Map116_ExPrgSwitch
                0x000000000000709d        0x1 ./src/nes/InfoNES_Mapper.o
                0x000000000000709d                Map116_ExPrgSwitch
 .sbss.Map116_IRQ_Counter
                0x000000000000709e        0x1 ./src/nes/InfoNES_Mapper.o
                0x000000000000709e                Map116_IRQ_Counter
 .sbss.Map116_IRQ_Enable
                0x000000000000709f        0x1 ./src/nes/InfoNES_Mapper.o
                0x000000000000709f                Map116_IRQ_Enable
 .sbss.Map116_IRQ_Latch
                0x00000000000070a0        0x1 ./src/nes/InfoNES_Mapper.o
                0x00000000000070a0                Map116_IRQ_Latch
 .sbss.Map116_Prg0
                0x00000000000070a1        0x1 ./src/nes/InfoNES_Mapper.o
                0x00000000000070a1                Map116_Prg0
 .sbss.Map116_Prg0L
                0x00000000000070a2        0x1 ./src/nes/InfoNES_Mapper.o
                0x00000000000070a2                Map116_Prg0L
 .sbss.Map116_Prg1
                0x00000000000070a3        0x1 ./src/nes/InfoNES_Mapper.o
                0x00000000000070a3                Map116_Prg1
 .sbss.Map116_Prg1L
                0x00000000000070a4        0x1 ./src/nes/InfoNES_Mapper.o
                0x00000000000070a4                Map116_Prg1L
 .sbss.Map116_Prg2
                0x00000000000070a5        0x1 ./src/nes/InfoNES_Mapper.o
                0x00000000000070a5                Map116_Prg2
 .sbss.Map116_Prg3
                0x00000000000070a6        0x1 ./src/nes/InfoNES_Mapper.o
                0x00000000000070a6                Map116_Prg3
 *fill*         0x00000000000070a7        0x1 
 .sbss.Map116_Reg
                0x00000000000070a8        0x8 ./src/nes/InfoNES_Mapper.o
                0x00000000000070a8                Map116_Reg
 .sbss.Map117_IRQ_Enable1
                0x00000000000070b0        0x1 ./src/nes/InfoNES_Mapper.o
                0x00000000000070b0                Map117_IRQ_Enable1
 .sbss.Map117_IRQ_Enable2
                0x00000000000070b1        0x1 ./src/nes/InfoNES_Mapper.o
                0x00000000000070b1                Map117_IRQ_Enable2
 .sbss.Map117_IRQ_Line
                0x00000000000070b2        0x1 ./src/nes/InfoNES_Mapper.o
                0x00000000000070b2                Map117_IRQ_Line
 *fill*         0x00000000000070b3        0x1 
 .sbss.Map118_Chr0
                0x00000000000070b4        0x4 ./src/nes/InfoNES_Mapper.o
                0x00000000000070b4                Map118_Chr0
 .sbss.Map118_Chr1
                0x00000000000070b8        0x4 ./src/nes/InfoNES_Mapper.o
                0x00000000000070b8                Map118_Chr1
 .sbss.Map118_Chr2
                0x00000000000070bc        0x4 ./src/nes/InfoNES_Mapper.o
                0x00000000000070bc                Map118_Chr2
 .sbss.Map118_Chr3
                0x00000000000070c0        0x4 ./src/nes/InfoNES_Mapper.o
                0x00000000000070c0                Map118_Chr3
 .sbss.Map118_Chr4
                0x00000000000070c4        0x4 ./src/nes/InfoNES_Mapper.o
                0x00000000000070c4                Map118_Chr4
 .sbss.Map118_Chr5
                0x00000000000070c8        0x4 ./src/nes/InfoNES_Mapper.o
                0x00000000000070c8                Map118_Chr5
 .sbss.Map118_Chr6
                0x00000000000070cc        0x4 ./src/nes/InfoNES_Mapper.o
                0x00000000000070cc                Map118_Chr6
 .sbss.Map118_Chr7
                0x00000000000070d0        0x4 ./src/nes/InfoNES_Mapper.o
                0x00000000000070d0                Map118_Chr7
 .sbss.Map118_IRQ_Cnt
                0x00000000000070d4        0x1 ./src/nes/InfoNES_Mapper.o
                0x00000000000070d4                Map118_IRQ_Cnt
 .sbss.Map118_IRQ_Enable
                0x00000000000070d5        0x1 ./src/nes/InfoNES_Mapper.o
                0x00000000000070d5                Map118_IRQ_Enable
 .sbss.Map118_IRQ_Latch
                0x00000000000070d6        0x1 ./src/nes/InfoNES_Mapper.o
                0x00000000000070d6                Map118_IRQ_Latch
 *fill*         0x00000000000070d7        0x1 
 .sbss.Map118_Prg0
                0x00000000000070d8        0x4 ./src/nes/InfoNES_Mapper.o
                0x00000000000070d8                Map118_Prg0
 .sbss.Map118_Prg1
                0x00000000000070dc        0x4 ./src/nes/InfoNES_Mapper.o
                0x00000000000070dc                Map118_Prg1
 .sbss.Map118_Regs
                0x00000000000070e0        0x8 ./src/nes/InfoNES_Mapper.o
                0x00000000000070e0                Map118_Regs
 .sbss.Map119_Chr01
                0x00000000000070e8        0x1 ./src/nes/InfoNES_Mapper.o
                0x00000000000070e8                Map119_Chr01
 .sbss.Map119_Chr23
                0x00000000000070e9        0x1 ./src/nes/InfoNES_Mapper.o
                0x00000000000070e9                Map119_Chr23
 .sbss.Map119_Chr4
                0x00000000000070ea        0x1 ./src/nes/InfoNES_Mapper.o
                0x00000000000070ea                Map119_Chr4
 .sbss.Map119_Chr5
                0x00000000000070eb        0x1 ./src/nes/InfoNES_Mapper.o
                0x00000000000070eb                Map119_Chr5
 .sbss.Map119_Chr6
                0x00000000000070ec        0x1 ./src/nes/InfoNES_Mapper.o
                0x00000000000070ec                Map119_Chr6
 .sbss.Map119_Chr7
                0x00000000000070ed        0x1 ./src/nes/InfoNES_Mapper.o
                0x00000000000070ed                Map119_Chr7
 .sbss.Map119_IRQ_Counter
                0x00000000000070ee        0x1 ./src/nes/InfoNES_Mapper.o
                0x00000000000070ee                Map119_IRQ_Counter
 .sbss.Map119_IRQ_Enable
                0x00000000000070ef        0x1 ./src/nes/InfoNES_Mapper.o
                0x00000000000070ef                Map119_IRQ_Enable
 .sbss.Map119_IRQ_Latch
                0x00000000000070f0        0x1 ./src/nes/InfoNES_Mapper.o
                0x00000000000070f0                Map119_IRQ_Latch
 .sbss.Map119_Prg0
                0x00000000000070f1        0x1 ./src/nes/InfoNES_Mapper.o
                0x00000000000070f1                Map119_Prg0
 .sbss.Map119_Prg1
                0x00000000000070f2        0x1 ./src/nes/InfoNES_Mapper.o
                0x00000000000070f2                Map119_Prg1
 *fill*         0x00000000000070f3        0x1 
 .sbss.Map119_Reg
                0x00000000000070f4        0x8 ./src/nes/InfoNES_Mapper.o
                0x00000000000070f4                Map119_Reg
 .sbss.Map119_WeSram
                0x00000000000070fc        0x1 ./src/nes/InfoNES_Mapper.o
                0x00000000000070fc                Map119_WeSram
 .sbss.Map134_Chr
                0x00000000000070fd        0x1 ./src/nes/InfoNES_Mapper.o
                0x00000000000070fd                Map134_Chr
 .sbss.Map134_Cmd
                0x00000000000070fe        0x1 ./src/nes/InfoNES_Mapper.o
                0x00000000000070fe                Map134_Cmd
 .sbss.Map134_Prg
                0x00000000000070ff        0x1 ./src/nes/InfoNES_Mapper.o
                0x00000000000070ff                Map134_Prg
 .sbss.Map135_Chr0h
                0x0000000000007100        0x1 ./src/nes/InfoNES_Mapper.o
                0x0000000000007100                Map135_Chr0h
 .sbss.Map135_Chr0l
                0x0000000000007101        0x1 ./src/nes/InfoNES_Mapper.o
                0x0000000000007101                Map135_Chr0l
 .sbss.Map135_Chr1h
                0x0000000000007102        0x1 ./src/nes/InfoNES_Mapper.o
                0x0000000000007102                Map135_Chr1h
 .sbss.Map135_Chr1l
                0x0000000000007103        0x1 ./src/nes/InfoNES_Mapper.o
                0x0000000000007103                Map135_Chr1l
 .sbss.Map135_Chrch
                0x0000000000007104        0x1 ./src/nes/InfoNES_Mapper.o
                0x0000000000007104                Map135_Chrch
 .sbss.Map135_Cmd
                0x0000000000007105        0x1 ./src/nes/InfoNES_Mapper.o
                0x0000000000007105                Map135_Cmd
 .sbss.Map160_IRQ_Cnt
                0x0000000000007106        0x1 ./src/nes/InfoNES_Mapper.o
                0x0000000000007106                Map160_IRQ_Cnt
 .sbss.Map160_IRQ_Enable
                0x0000000000007107        0x1 ./src/nes/InfoNES_Mapper.o
                0x0000000000007107                Map160_IRQ_Enable
 .sbss.Map160_IRQ_Latch
                0x0000000000007108        0x1 ./src/nes/InfoNES_Mapper.o
                0x0000000000007108                Map160_IRQ_Latch
 .sbss.Map160_Refresh_Type
                0x0000000000007109        0x1 ./src/nes/InfoNES_Mapper.o
                0x0000000000007109                Map160_Refresh_Type
 *fill*         0x000000000000710a        0x2 
 .sbss.Map16_IRQ_Cnt
                0x000000000000710c        0x4 ./src/nes/InfoNES_Mapper.o
                0x000000000000710c                Map16_IRQ_Cnt
 .sbss.Map16_IRQ_Enable
                0x0000000000007110        0x1 ./src/nes/InfoNES_Mapper.o
                0x0000000000007110                Map16_IRQ_Enable
 *fill*         0x0000000000007111        0x3 
 .sbss.Map16_IRQ_Latch
                0x0000000000007114        0x4 ./src/nes/InfoNES_Mapper.o
                0x0000000000007114                Map16_IRQ_Latch
 .sbss.Map16_Regs
                0x0000000000007118        0x3 ./src/nes/InfoNES_Mapper.o
                0x0000000000007118                Map16_Regs
 *fill*         0x000000000000711b        0x1 
 .sbss.Map17_IRQ_Cnt
                0x000000000000711c        0x4 ./src/nes/InfoNES_Mapper.o
                0x000000000000711c                Map17_IRQ_Cnt
 .sbss.Map17_IRQ_Enable
                0x0000000000007120        0x1 ./src/nes/InfoNES_Mapper.o
                0x0000000000007120                Map17_IRQ_Enable
 *fill*         0x0000000000007121        0x3 
 .sbss.Map17_IRQ_Latch
                0x0000000000007124        0x4 ./src/nes/InfoNES_Mapper.o
                0x0000000000007124                Map17_IRQ_Latch
 .sbss.Map182_IRQ_Cnt
                0x0000000000007128        0x1 ./src/nes/InfoNES_Mapper.o
                0x0000000000007128                Map182_IRQ_Cnt
 .sbss.Map182_IRQ_Enable
                0x0000000000007129        0x1 ./src/nes/InfoNES_Mapper.o
                0x0000000000007129                Map182_IRQ_Enable
 *fill*         0x000000000000712a        0x2 
 .sbss.Map182_Regs
                0x000000000000712c        0x1 ./src/nes/InfoNES_Mapper.o
                0x000000000000712c                Map182_Regs
 *fill*         0x000000000000712d        0x3 
 .sbss.Map183_IRQ_Counter
                0x0000000000007130        0x4 ./src/nes/InfoNES_Mapper.o
                0x0000000000007130                Map183_IRQ_Counter
 .sbss.Map183_IRQ_Enable
                0x0000000000007134        0x1 ./src/nes/InfoNES_Mapper.o
                0x0000000000007134                Map183_IRQ_Enable
 *fill*         0x0000000000007135        0x3 
 .sbss.Map183_Reg
                0x0000000000007138        0x8 ./src/nes/InfoNES_Mapper.o
                0x0000000000007138                Map183_Reg
 .sbss.Map187_Bank
                0x0000000000007140        0x8 ./src/nes/InfoNES_Mapper.o
                0x0000000000007140                Map187_Bank
 .sbss.Map187_ChrMode
                0x0000000000007148        0x1 ./src/nes/InfoNES_Mapper.o
                0x0000000000007148                Map187_ChrMode
 .sbss.Map187_ExtEnable
                0x0000000000007149        0x1 ./src/nes/InfoNES_Mapper.o
                0x0000000000007149                Map187_ExtEnable
 .sbss.Map187_ExtMode
                0x000000000000714a        0x1 ./src/nes/InfoNES_Mapper.o
                0x000000000000714a                Map187_ExtMode
 .sbss.Map187_IRQ_Counter
                0x000000000000714b        0x1 ./src/nes/InfoNES_Mapper.o
                0x000000000000714b                Map187_IRQ_Counter
 .sbss.Map187_IRQ_Enable
                0x000000000000714c        0x1 ./src/nes/InfoNES_Mapper.o
                0x000000000000714c                Map187_IRQ_Enable
 .sbss.Map187_IRQ_Latch
                0x000000000000714d        0x1 ./src/nes/InfoNES_Mapper.o
                0x000000000000714d                Map187_IRQ_Latch
 .sbss.Map187_IRQ_Occur
                0x000000000000714e        0x1 ./src/nes/InfoNES_Mapper.o
                0x000000000000714e                Map187_IRQ_Occur
 .sbss.Map187_LastWrite
                0x000000000000714f        0x1 ./src/nes/InfoNES_Mapper.o
                0x000000000000714f                Map187_LastWrite
 .sbss.Map187_Prg
                0x0000000000007150        0x4 ./src/nes/InfoNES_Mapper.o
                0x0000000000007150                Map187_Prg
 .sbss.Map189_IRQ_Cnt
                0x0000000000007154        0x1 ./src/nes/InfoNES_Mapper.o
                0x0000000000007154                Map189_IRQ_Cnt
 .sbss.Map189_IRQ_Enable
                0x0000000000007155        0x1 ./src/nes/InfoNES_Mapper.o
                0x0000000000007155                Map189_IRQ_Enable
 .sbss.Map189_IRQ_Latch
                0x0000000000007156        0x1 ./src/nes/InfoNES_Mapper.o
                0x0000000000007156                Map189_IRQ_Latch
 *fill*         0x0000000000007157        0x1 
 .sbss.Map189_Regs
                0x0000000000007158        0x1 ./src/nes/InfoNES_Mapper.o
                0x0000000000007158                Map189_Regs
 *fill*         0x0000000000007159        0x1 
 .sbss.Map18_IRQ_Cnt
                0x000000000000715a        0x2 ./src/nes/InfoNES_Mapper.o
                0x000000000000715a                Map18_IRQ_Cnt
 .sbss.Map18_IRQ_Enable
                0x000000000000715c        0x1 ./src/nes/InfoNES_Mapper.o
                0x000000000000715c                Map18_IRQ_Enable
 *fill*         0x000000000000715d        0x1 
 .sbss.Map18_IRQ_Latch
                0x000000000000715e        0x2 ./src/nes/InfoNES_Mapper.o
                0x000000000000715e                Map18_IRQ_Latch
 .sbss.Map191_Chr0
                0x0000000000007160        0x1 ./src/nes/InfoNES_Mapper.o
                0x0000000000007160                Map191_Chr0
 .sbss.Map191_Chr1
                0x0000000000007161        0x1 ./src/nes/InfoNES_Mapper.o
                0x0000000000007161                Map191_Chr1
 .sbss.Map191_Chr2
                0x0000000000007162        0x1 ./src/nes/InfoNES_Mapper.o
                0x0000000000007162                Map191_Chr2
 .sbss.Map191_Chr3
                0x0000000000007163        0x1 ./src/nes/InfoNES_Mapper.o
                0x0000000000007163                Map191_Chr3
 .sbss.Map191_Highbank
                0x0000000000007164        0x1 ./src/nes/InfoNES_Mapper.o
                0x0000000000007164                Map191_Highbank
 .sbss.Map191_Prg0
                0x0000000000007165        0x1 ./src/nes/InfoNES_Mapper.o
                0x0000000000007165                Map191_Prg0
 .sbss.Map191_Prg1
                0x0000000000007166        0x1 ./src/nes/InfoNES_Mapper.o
                0x0000000000007166                Map191_Prg1
 *fill*         0x0000000000007167        0x1 
 .sbss.Map191_Reg
                0x0000000000007168        0x8 ./src/nes/InfoNES_Mapper.o
                0x0000000000007168                Map191_Reg
 .sbss.Map1_256K_base
                0x0000000000007170        0x4 ./src/nes/InfoNES_Mapper.o
                0x0000000000007170                Map1_256K_base
 .sbss.Map1_Cnt
                0x0000000000007174        0x4 ./src/nes/InfoNES_Mapper.o
                0x0000000000007174                Map1_Cnt
 .sbss.Map1_HI1
                0x0000000000007178        0x4 ./src/nes/InfoNES_Mapper.o
                0x0000000000007178                Map1_HI1
 .sbss.Map1_HI2
                0x000000000000717c        0x4 ./src/nes/InfoNES_Mapper.o
                0x000000000000717c                Map1_HI2
 .sbss.Map1_Last_Write_Addr
                0x0000000000007180        0x2 ./src/nes/InfoNES_Mapper.o
                0x0000000000007180                Map1_Last_Write_Addr
 .sbss.Map1_Latch
                0x0000000000007182        0x1 ./src/nes/InfoNES_Mapper.o
                0x0000000000007182                Map1_Latch
 *fill*         0x0000000000007183        0x1 
 .sbss.Map1_Regs
                0x0000000000007184        0x4 ./src/nes/InfoNES_Mapper.o
                0x0000000000007184                Map1_Regs
 .sbss.Map1_Size
                0x0000000000007188        0x4 ./src/nes/InfoNES_Mapper.o
                0x0000000000007188                Map1_Size
 .sbss.Map1_bank1
                0x000000000000718c        0x4 ./src/nes/InfoNES_Mapper.o
                0x000000000000718c                Map1_bank1
 .sbss.Map1_bank2
                0x0000000000007190        0x4 ./src/nes/InfoNES_Mapper.o
                0x0000000000007190                Map1_bank2
 .sbss.Map1_bank3
                0x0000000000007194        0x4 ./src/nes/InfoNES_Mapper.o
                0x0000000000007194                Map1_bank3
 .sbss.Map1_bank4
                0x0000000000007198        0x4 ./src/nes/InfoNES_Mapper.o
                0x0000000000007198                Map1_bank4
 .sbss.Map1_swap
                0x000000000000719c        0x4 ./src/nes/InfoNES_Mapper.o
                0x000000000000719c                Map1_swap
 .sbss.Map21_IRQ_Cnt
                0x00000000000071a0        0x1 ./src/nes/InfoNES_Mapper.o
                0x00000000000071a0                Map21_IRQ_Cnt
 .sbss.Map21_IRQ_Enable
                0x00000000000071a1        0x1 ./src/nes/InfoNES_Mapper.o
                0x00000000000071a1                Map21_IRQ_Enable
 .sbss.Map21_IRQ_Latch
                0x00000000000071a2        0x1 ./src/nes/InfoNES_Mapper.o
                0x00000000000071a2                Map21_IRQ_Latch
 *fill*         0x00000000000071a3        0x1 
 .sbss.Map226_Reg
                0x00000000000071a4        0x2 ./src/nes/InfoNES_Mapper.o
                0x00000000000071a4                Map226_Reg
 .sbss.Map230_RomSw
                0x00000000000071a6        0x1 ./src/nes/InfoNES_Mapper.o
                0x00000000000071a6                Map230_RomSw
 *fill*         0x00000000000071a7        0x1 
 .sbss.Map232_Regs
                0x00000000000071a8        0x2 ./src/nes/InfoNES_Mapper.o
                0x00000000000071a8                Map232_Regs
 *fill*         0x00000000000071aa        0x2 
 .sbss.Map234_Reg
                0x00000000000071ac        0x2 ./src/nes/InfoNES_Mapper.o
                0x00000000000071ac                Map234_Reg
 .sbss.Map236_Bank
                0x00000000000071ae        0x1 ./src/nes/InfoNES_Mapper.o
                0x00000000000071ae                Map236_Bank
 .sbss.Map236_Mode
                0x00000000000071af        0x1 ./src/nes/InfoNES_Mapper.o
                0x00000000000071af                Map236_Mode
 .sbss.Map23_IRQ_Cnt
                0x00000000000071b0        0x1 ./src/nes/InfoNES_Mapper.o
                0x00000000000071b0                Map23_IRQ_Cnt
 .sbss.Map23_IRQ_Enable
                0x00000000000071b1        0x1 ./src/nes/InfoNES_Mapper.o
                0x00000000000071b1                Map23_IRQ_Enable
 .sbss.Map23_IRQ_Latch
                0x00000000000071b2        0x1 ./src/nes/InfoNES_Mapper.o
                0x00000000000071b2                Map23_IRQ_Latch
 *fill*         0x00000000000071b3        0x1 
 .sbss.Map243_Regs
                0x00000000000071b4        0x4 ./src/nes/InfoNES_Mapper.o
                0x00000000000071b4                Map243_Regs
 .sbss.Map245_Chr01
                0x00000000000071b8        0x1 ./src/nes/InfoNES_Mapper.o
                0x00000000000071b8                Map245_Chr01
 .sbss.Map245_Chr23
                0x00000000000071b9        0x1 ./src/nes/InfoNES_Mapper.o
                0x00000000000071b9                Map245_Chr23
 .sbss.Map245_Chr4
                0x00000000000071ba        0x1 ./src/nes/InfoNES_Mapper.o
                0x00000000000071ba                Map245_Chr4
 .sbss.Map245_Chr5
                0x00000000000071bb        0x1 ./src/nes/InfoNES_Mapper.o
                0x00000000000071bb                Map245_Chr5
 .sbss.Map245_Chr6
                0x00000000000071bc        0x1 ./src/nes/InfoNES_Mapper.o
                0x00000000000071bc                Map245_Chr6
 .sbss.Map245_Chr7
                0x00000000000071bd        0x1 ./src/nes/InfoNES_Mapper.o
                0x00000000000071bd                Map245_Chr7
 .sbss.Map245_IRQ_Counter
                0x00000000000071be        0x1 ./src/nes/InfoNES_Mapper.o
                0x00000000000071be                Map245_IRQ_Counter
 .sbss.Map245_IRQ_Enable
                0x00000000000071bf        0x1 ./src/nes/InfoNES_Mapper.o
                0x00000000000071bf                Map245_IRQ_Enable
 .sbss.Map245_IRQ_Latch
                0x00000000000071c0        0x1 ./src/nes/InfoNES_Mapper.o
                0x00000000000071c0                Map245_IRQ_Latch
 .sbss.Map245_IRQ_Request
                0x00000000000071c1        0x1 ./src/nes/InfoNES_Mapper.o
                0x00000000000071c1                Map245_IRQ_Request
 .sbss.Map245_Prg0
                0x00000000000071c2        0x1 ./src/nes/InfoNES_Mapper.o
                0x00000000000071c2                Map245_Prg0
 .sbss.Map245_Prg1
                0x00000000000071c3        0x1 ./src/nes/InfoNES_Mapper.o
                0x00000000000071c3                Map245_Prg1
 .sbss.Map245_Reg
                0x00000000000071c4        0x8 ./src/nes/InfoNES_Mapper.o
                0x00000000000071c4                Map245_Reg
 .sbss.Map245_WeSram
                0x00000000000071cc        0x1 ./src/nes/InfoNES_Mapper.o
                0x00000000000071cc                Map245_WeSram
 .sbss.Map248_Chr01
                0x00000000000071cd        0x1 ./src/nes/InfoNES_Mapper.o
                0x00000000000071cd                Map248_Chr01
 .sbss.Map248_Chr23
                0x00000000000071ce        0x1 ./src/nes/InfoNES_Mapper.o
                0x00000000000071ce                Map248_Chr23
 .sbss.Map248_Chr4
                0x00000000000071cf        0x1 ./src/nes/InfoNES_Mapper.o
                0x00000000000071cf                Map248_Chr4
 .sbss.Map248_Chr5
                0x00000000000071d0        0x1 ./src/nes/InfoNES_Mapper.o
                0x00000000000071d0                Map248_Chr5
 .sbss.Map248_Chr6
                0x00000000000071d1        0x1 ./src/nes/InfoNES_Mapper.o
                0x00000000000071d1                Map248_Chr6
 .sbss.Map248_Chr7
                0x00000000000071d2        0x1 ./src/nes/InfoNES_Mapper.o
                0x00000000000071d2                Map248_Chr7
 .sbss.Map248_IRQ_Counter
                0x00000000000071d3        0x1 ./src/nes/InfoNES_Mapper.o
                0x00000000000071d3                Map248_IRQ_Counter
 .sbss.Map248_IRQ_Enable
                0x00000000000071d4        0x1 ./src/nes/InfoNES_Mapper.o
                0x00000000000071d4                Map248_IRQ_Enable
 .sbss.Map248_IRQ_Latch
                0x00000000000071d5        0x1 ./src/nes/InfoNES_Mapper.o
                0x00000000000071d5                Map248_IRQ_Latch
 .sbss.Map248_IRQ_Request
                0x00000000000071d6        0x1 ./src/nes/InfoNES_Mapper.o
                0x00000000000071d6                Map248_IRQ_Request
 .sbss.Map248_Prg0
                0x00000000000071d7        0x1 ./src/nes/InfoNES_Mapper.o
                0x00000000000071d7                Map248_Prg0
 .sbss.Map248_Prg1
                0x00000000000071d8        0x1 ./src/nes/InfoNES_Mapper.o
                0x00000000000071d8                Map248_Prg1
 *fill*         0x00000000000071d9        0x3 
 .sbss.Map248_Reg
                0x00000000000071dc        0x8 ./src/nes/InfoNES_Mapper.o
                0x00000000000071dc                Map248_Reg
 .sbss.Map248_WeSram
                0x00000000000071e4        0x1 ./src/nes/InfoNES_Mapper.o
                0x00000000000071e4                Map248_WeSram
 .sbss.Map249_IRQ_Counter
                0x00000000000071e5        0x1 ./src/nes/InfoNES_Mapper.o
                0x00000000000071e5                Map249_IRQ_Counter
 .sbss.Map249_IRQ_Enable
                0x00000000000071e6        0x1 ./src/nes/InfoNES_Mapper.o
                0x00000000000071e6                Map249_IRQ_Enable
 .sbss.Map249_IRQ_Latch
                0x00000000000071e7        0x1 ./src/nes/InfoNES_Mapper.o
                0x00000000000071e7                Map249_IRQ_Latch
 .sbss.Map249_IRQ_Request
                0x00000000000071e8        0x1 ./src/nes/InfoNES_Mapper.o
                0x00000000000071e8                Map249_IRQ_Request
 *fill*         0x00000000000071e9        0x3 
 .sbss.Map249_Reg
                0x00000000000071ec        0x8 ./src/nes/InfoNES_Mapper.o
                0x00000000000071ec                Map249_Reg
 .sbss.Map249_Spdata
                0x00000000000071f4        0x1 ./src/nes/InfoNES_Mapper.o
                0x00000000000071f4                Map249_Spdata
 .sbss.Map24_IRQ_Count
                0x00000000000071f5        0x1 ./src/nes/InfoNES_Mapper.o
                0x00000000000071f5                Map24_IRQ_Count
 .sbss.Map24_IRQ_Latch
                0x00000000000071f6        0x1 ./src/nes/InfoNES_Mapper.o
                0x00000000000071f6                Map24_IRQ_Latch
 .sbss.Map24_IRQ_State
                0x00000000000071f7        0x1 ./src/nes/InfoNES_Mapper.o
                0x00000000000071f7                Map24_IRQ_State
 .sbss.Map251_Breg
                0x00000000000071f8        0x4 ./src/nes/InfoNES_Mapper.o
                0x00000000000071f8                Map251_Breg
 .sbss.Map252_IRQ_Clock
                0x00000000000071fc        0x4 ./src/nes/InfoNES_Mapper.o
                0x00000000000071fc                Map252_IRQ_Clock
 .sbss.Map252_IRQ_Counter
                0x0000000000007200        0x1 ./src/nes/InfoNES_Mapper.o
                0x0000000000007200                Map252_IRQ_Counter
 .sbss.Map252_IRQ_Enable
                0x0000000000007201        0x1 ./src/nes/InfoNES_Mapper.o
                0x0000000000007201                Map252_IRQ_Enable
 .sbss.Map252_IRQ_Latch
                0x0000000000007202        0x1 ./src/nes/InfoNES_Mapper.o
                0x0000000000007202                Map252_IRQ_Latch
 .sbss.Map252_IRQ_Occur
                0x0000000000007203        0x1 ./src/nes/InfoNES_Mapper.o
                0x0000000000007203                Map252_IRQ_Occur
 .sbss.Map255_Reg
                0x0000000000007204        0x4 ./src/nes/InfoNES_Mapper.o
                0x0000000000007204                Map255_Reg
 .sbss.Map25_Bank_Selector
                0x0000000000007208        0x1 ./src/nes/InfoNES_Mapper.o
                0x0000000000007208                Map25_Bank_Selector
 .sbss.Map25_IRQ_Count
                0x0000000000007209        0x1 ./src/nes/InfoNES_Mapper.o
                0x0000000000007209                Map25_IRQ_Count
 .sbss.Map25_IRQ_Latch
                0x000000000000720a        0x1 ./src/nes/InfoNES_Mapper.o
                0x000000000000720a                Map25_IRQ_Latch
 .sbss.Map25_IRQ_State
                0x000000000000720b        0x1 ./src/nes/InfoNES_Mapper.o
                0x000000000000720b                Map25_IRQ_State
 .sbss.Map26_IRQ_Cnt
                0x000000000000720c        0x1 ./src/nes/InfoNES_Mapper.o
                0x000000000000720c                Map26_IRQ_Cnt
 .sbss.Map26_IRQ_Enable
                0x000000000000720d        0x1 ./src/nes/InfoNES_Mapper.o
                0x000000000000720d                Map26_IRQ_Enable
 .sbss.Map26_IRQ_Latch
                0x000000000000720e        0x1 ./src/nes/InfoNES_Mapper.o
                0x000000000000720e                Map26_IRQ_Latch
 .sbss.Map32_Saved
                0x000000000000720f        0x1 ./src/nes/InfoNES_Mapper.o
                0x000000000000720f                Map32_Saved
 .sbss.Map33_IRQ_Cnt
                0x0000000000007210        0x1 ./src/nes/InfoNES_Mapper.o
                0x0000000000007210                Map33_IRQ_Cnt
 .sbss.Map33_IRQ_Enable
                0x0000000000007211        0x1 ./src/nes/InfoNES_Mapper.o
                0x0000000000007211                Map33_IRQ_Enable
 *fill*         0x0000000000007212        0x2 
 .sbss.Map33_Regs
                0x0000000000007214        0x8 ./src/nes/InfoNES_Mapper.o
                0x0000000000007214                Map33_Regs
 .sbss.Map33_Switch
                0x000000000000721c        0x1 ./src/nes/InfoNES_Mapper.o
                0x000000000000721c                Map33_Switch
 .sbss.Map40_IRQ_Enable
                0x000000000000721d        0x1 ./src/nes/InfoNES_Mapper.o
                0x000000000000721d                Map40_IRQ_Enable
 *fill*         0x000000000000721e        0x2 
 .sbss.Map40_Line_To_IRQ
                0x0000000000007220        0x4 ./src/nes/InfoNES_Mapper.o
                0x0000000000007220                Map40_Line_To_IRQ
 .sbss.Map41_Regs
                0x0000000000007224        0x2 ./src/nes/InfoNES_Mapper.o
                0x0000000000007224                Map41_Regs
 .sbss.Map42_IRQ_Cnt
                0x0000000000007226        0x1 ./src/nes/InfoNES_Mapper.o
                0x0000000000007226                Map42_IRQ_Cnt
 .sbss.Map42_IRQ_Enable
                0x0000000000007227        0x1 ./src/nes/InfoNES_Mapper.o
                0x0000000000007227                Map42_IRQ_Enable
 .sbss.Map43_IRQ_Cnt
                0x0000000000007228        0x4 ./src/nes/InfoNES_Mapper.o
                0x0000000000007228                Map43_IRQ_Cnt
 .sbss.Map43_IRQ_Enable
                0x000000000000722c        0x1 ./src/nes/InfoNES_Mapper.o
                0x000000000000722c                Map43_IRQ_Enable
 *fill*         0x000000000000722d        0x3 
 .sbss.Map44_Chr01
                0x0000000000007230        0x4 ./src/nes/InfoNES_Mapper.o
                0x0000000000007230                Map44_Chr01
 .sbss.Map44_Chr23
                0x0000000000007234        0x4 ./src/nes/InfoNES_Mapper.o
                0x0000000000007234                Map44_Chr23
 .sbss.Map44_Chr4
                0x0000000000007238        0x4 ./src/nes/InfoNES_Mapper.o
                0x0000000000007238                Map44_Chr4
 .sbss.Map44_Chr5
                0x000000000000723c        0x4 ./src/nes/InfoNES_Mapper.o
                0x000000000000723c                Map44_Chr5
 .sbss.Map44_Chr6
                0x0000000000007240        0x4 ./src/nes/InfoNES_Mapper.o
                0x0000000000007240                Map44_Chr6
 .sbss.Map44_Chr7
                0x0000000000007244        0x4 ./src/nes/InfoNES_Mapper.o
                0x0000000000007244                Map44_Chr7
 .sbss.Map44_IRQ_Cnt
                0x0000000000007248        0x1 ./src/nes/InfoNES_Mapper.o
                0x0000000000007248                Map44_IRQ_Cnt
 .sbss.Map44_IRQ_Enable
                0x0000000000007249        0x1 ./src/nes/InfoNES_Mapper.o
                0x0000000000007249                Map44_IRQ_Enable
 .sbss.Map44_IRQ_Latch
                0x000000000000724a        0x1 ./src/nes/InfoNES_Mapper.o
                0x000000000000724a                Map44_IRQ_Latch
 *fill*         0x000000000000724b        0x1 
 .sbss.Map44_Prg0
                0x000000000000724c        0x4 ./src/nes/InfoNES_Mapper.o
                0x000000000000724c                Map44_Prg0
 .sbss.Map44_Prg1
                0x0000000000007250        0x4 ./src/nes/InfoNES_Mapper.o
                0x0000000000007250                Map44_Prg1
 .sbss.Map44_Regs
                0x0000000000007254        0x8 ./src/nes/InfoNES_Mapper.o
                0x0000000000007254                Map44_Regs
 .sbss.Map44_Rom_Bank
                0x000000000000725c        0x4 ./src/nes/InfoNES_Mapper.o
                0x000000000000725c                Map44_Rom_Bank
 .sbss.Map45_Chr0
                0x0000000000007260        0x4 ./src/nes/InfoNES_Mapper.o
                0x0000000000007260                Map45_Chr0
 .sbss.Map45_Chr1
                0x0000000000007264        0x4 ./src/nes/InfoNES_Mapper.o
                0x0000000000007264                Map45_Chr1
 .sbss.Map45_Chr2
                0x0000000000007268        0x4 ./src/nes/InfoNES_Mapper.o
                0x0000000000007268                Map45_Chr2
 .sbss.Map45_Chr3
                0x000000000000726c        0x4 ./src/nes/InfoNES_Mapper.o
                0x000000000000726c                Map45_Chr3
 .sbss.Map45_Chr4
                0x0000000000007270        0x4 ./src/nes/InfoNES_Mapper.o
                0x0000000000007270                Map45_Chr4
 .sbss.Map45_Chr5
                0x0000000000007274        0x4 ./src/nes/InfoNES_Mapper.o
                0x0000000000007274                Map45_Chr5
 .sbss.Map45_Chr6
                0x0000000000007278        0x4 ./src/nes/InfoNES_Mapper.o
                0x0000000000007278                Map45_Chr6
 .sbss.Map45_Chr7
                0x000000000000727c        0x4 ./src/nes/InfoNES_Mapper.o
                0x000000000000727c                Map45_Chr7
 .sbss.Map45_IRQ_Cnt
                0x0000000000007280        0x1 ./src/nes/InfoNES_Mapper.o
                0x0000000000007280                Map45_IRQ_Cnt
 .sbss.Map45_IRQ_Enable
                0x0000000000007281        0x1 ./src/nes/InfoNES_Mapper.o
                0x0000000000007281                Map45_IRQ_Enable
 .sbss.Map45_IRQ_Latch
                0x0000000000007282        0x1 ./src/nes/InfoNES_Mapper.o
                0x0000000000007282                Map45_IRQ_Latch
 *fill*         0x0000000000007283        0x1 
 .sbss.Map45_Prg0
                0x0000000000007284        0x4 ./src/nes/InfoNES_Mapper.o
                0x0000000000007284                Map45_Prg0
 .sbss.Map45_Prg1
                0x0000000000007288        0x4 ./src/nes/InfoNES_Mapper.o
                0x0000000000007288                Map45_Prg1
 .sbss.Map45_Prg2
                0x000000000000728c        0x4 ./src/nes/InfoNES_Mapper.o
                0x000000000000728c                Map45_Prg2
 .sbss.Map45_Prg3
                0x0000000000007290        0x4 ./src/nes/InfoNES_Mapper.o
                0x0000000000007290                Map45_Prg3
 .sbss.Map45_Regs
                0x0000000000007294        0x7 ./src/nes/InfoNES_Mapper.o
                0x0000000000007294                Map45_Regs
 *fill*         0x000000000000729b        0x1 
 .sbss.Map46_Regs
                0x000000000000729c        0x4 ./src/nes/InfoNES_Mapper.o
                0x000000000000729c                Map46_Regs
 .sbss.Map47_Chr01
                0x00000000000072a0        0x4 ./src/nes/InfoNES_Mapper.o
                0x00000000000072a0                Map47_Chr01
 .sbss.Map47_Chr23
                0x00000000000072a4        0x4 ./src/nes/InfoNES_Mapper.o
                0x00000000000072a4                Map47_Chr23
 .sbss.Map47_Chr4
                0x00000000000072a8        0x4 ./src/nes/InfoNES_Mapper.o
                0x00000000000072a8                Map47_Chr4
 .sbss.Map47_Chr5
                0x00000000000072ac        0x4 ./src/nes/InfoNES_Mapper.o
                0x00000000000072ac                Map47_Chr5
 .sbss.Map47_Chr6
                0x00000000000072b0        0x4 ./src/nes/InfoNES_Mapper.o
                0x00000000000072b0                Map47_Chr6
 .sbss.Map47_Chr7
                0x00000000000072b4        0x4 ./src/nes/InfoNES_Mapper.o
                0x00000000000072b4                Map47_Chr7
 .sbss.Map47_IRQ_Cnt
                0x00000000000072b8        0x1 ./src/nes/InfoNES_Mapper.o
                0x00000000000072b8                Map47_IRQ_Cnt
 .sbss.Map47_IRQ_Enable
                0x00000000000072b9        0x1 ./src/nes/InfoNES_Mapper.o
                0x00000000000072b9                Map47_IRQ_Enable
 .sbss.Map47_IRQ_Latch
                0x00000000000072ba        0x1 ./src/nes/InfoNES_Mapper.o
                0x00000000000072ba                Map47_IRQ_Latch
 *fill*         0x00000000000072bb        0x1 
 .sbss.Map47_Prg0
                0x00000000000072bc        0x4 ./src/nes/InfoNES_Mapper.o
                0x00000000000072bc                Map47_Prg0
 .sbss.Map47_Prg1
                0x00000000000072c0        0x4 ./src/nes/InfoNES_Mapper.o
                0x00000000000072c0                Map47_Prg1
 .sbss.Map47_Regs
                0x00000000000072c4        0x8 ./src/nes/InfoNES_Mapper.o
                0x00000000000072c4                Map47_Regs
 .sbss.Map47_Rom_Bank
                0x00000000000072cc        0x4 ./src/nes/InfoNES_Mapper.o
                0x00000000000072cc                Map47_Rom_Bank
 .sbss.Map48_IRQ_Cnt
                0x00000000000072d0        0x1 ./src/nes/InfoNES_Mapper.o
                0x00000000000072d0                Map48_IRQ_Cnt
 .sbss.Map48_IRQ_Enable
                0x00000000000072d1        0x1 ./src/nes/InfoNES_Mapper.o
                0x00000000000072d1                Map48_IRQ_Enable
 *fill*         0x00000000000072d2        0x2 
 .sbss.Map48_Regs
                0x00000000000072d4        0x1 ./src/nes/InfoNES_Mapper.o
                0x00000000000072d4                Map48_Regs
 *fill*         0x00000000000072d5        0x3 
 .sbss.Map49_Chr01
                0x00000000000072d8        0x4 ./src/nes/InfoNES_Mapper.o
                0x00000000000072d8                Map49_Chr01
 .sbss.Map49_Chr23
                0x00000000000072dc        0x4 ./src/nes/InfoNES_Mapper.o
                0x00000000000072dc                Map49_Chr23
 .sbss.Map49_Chr4
                0x00000000000072e0        0x4 ./src/nes/InfoNES_Mapper.o
                0x00000000000072e0                Map49_Chr4
 .sbss.Map49_Chr5
                0x00000000000072e4        0x4 ./src/nes/InfoNES_Mapper.o
                0x00000000000072e4                Map49_Chr5
 .sbss.Map49_Chr6
                0x00000000000072e8        0x4 ./src/nes/InfoNES_Mapper.o
                0x00000000000072e8                Map49_Chr6
 .sbss.Map49_Chr7
                0x00000000000072ec        0x4 ./src/nes/InfoNES_Mapper.o
                0x00000000000072ec                Map49_Chr7
 .sbss.Map49_IRQ_Cnt
                0x00000000000072f0        0x1 ./src/nes/InfoNES_Mapper.o
                0x00000000000072f0                Map49_IRQ_Cnt
 .sbss.Map49_IRQ_Enable
                0x00000000000072f1        0x1 ./src/nes/InfoNES_Mapper.o
                0x00000000000072f1                Map49_IRQ_Enable
 .sbss.Map49_IRQ_Latch
                0x00000000000072f2        0x1 ./src/nes/InfoNES_Mapper.o
                0x00000000000072f2                Map49_IRQ_Latch
 *fill*         0x00000000000072f3        0x1 
 .sbss.Map49_Prg0
                0x00000000000072f4        0x4 ./src/nes/InfoNES_Mapper.o
                0x00000000000072f4                Map49_Prg0
 .sbss.Map49_Prg1
                0x00000000000072f8        0x4 ./src/nes/InfoNES_Mapper.o
                0x00000000000072f8                Map49_Prg1
 .sbss.Map49_Regs
                0x00000000000072fc        0x3 ./src/nes/InfoNES_Mapper.o
                0x00000000000072fc                Map49_Regs
 *fill*         0x00000000000072ff        0x1 
 .sbss.Map4_Chr01
                0x0000000000007300        0x4 ./src/nes/InfoNES_Mapper.o
                0x0000000000007300                Map4_Chr01
 .sbss.Map4_Chr23
                0x0000000000007304        0x4 ./src/nes/InfoNES_Mapper.o
                0x0000000000007304                Map4_Chr23
 .sbss.Map4_Chr4
                0x0000000000007308        0x4 ./src/nes/InfoNES_Mapper.o
                0x0000000000007308                Map4_Chr4
 .sbss.Map4_Chr5
                0x000000000000730c        0x4 ./src/nes/InfoNES_Mapper.o
                0x000000000000730c                Map4_Chr5
 .sbss.Map4_Chr6
                0x0000000000007310        0x4 ./src/nes/InfoNES_Mapper.o
                0x0000000000007310                Map4_Chr6
 .sbss.Map4_Chr7
                0x0000000000007314        0x4 ./src/nes/InfoNES_Mapper.o
                0x0000000000007314                Map4_Chr7
 .sbss.Map4_IRQ_Cnt
                0x0000000000007318        0x1 ./src/nes/InfoNES_Mapper.o
                0x0000000000007318                Map4_IRQ_Cnt
 .sbss.Map4_IRQ_Enable
                0x0000000000007319        0x1 ./src/nes/InfoNES_Mapper.o
                0x0000000000007319                Map4_IRQ_Enable
 .sbss.Map4_IRQ_Latch
                0x000000000000731a        0x1 ./src/nes/InfoNES_Mapper.o
                0x000000000000731a                Map4_IRQ_Latch
 .sbss.Map4_IRQ_Present
                0x000000000000731b        0x1 ./src/nes/InfoNES_Mapper.o
                0x000000000000731b                Map4_IRQ_Present
 .sbss.Map4_IRQ_Present_Vbl
                0x000000000000731c        0x1 ./src/nes/InfoNES_Mapper.o
                0x000000000000731c                Map4_IRQ_Present_Vbl
 .sbss.Map4_IRQ_Request
                0x000000000000731d        0x1 ./src/nes/InfoNES_Mapper.o
                0x000000000000731d                Map4_IRQ_Request
 *fill*         0x000000000000731e        0x2 
 .sbss.Map4_Prg0
                0x0000000000007320        0x4 ./src/nes/InfoNES_Mapper.o
                0x0000000000007320                Map4_Prg0
 .sbss.Map4_Prg1
                0x0000000000007324        0x4 ./src/nes/InfoNES_Mapper.o
                0x0000000000007324                Map4_Prg1
 .sbss.Map4_Regs
                0x0000000000007328        0x8 ./src/nes/InfoNES_Mapper.o
                0x0000000000007328                Map4_Regs
 .sbss.Map4_Rom_Bank
                0x0000000000007330        0x4 ./src/nes/InfoNES_Mapper.o
                0x0000000000007330                Map4_Rom_Bank
 .sbss.Map50_IRQ_Enable
                0x0000000000007334        0x1 ./src/nes/InfoNES_Mapper.o
                0x0000000000007334                Map50_IRQ_Enable
 *fill*         0x0000000000007335        0x3 
 .sbss.Map51_Bank
                0x0000000000007338        0x4 ./src/nes/InfoNES_Mapper.o
                0x0000000000007338                Map51_Bank
 .sbss.Map51_Mode
                0x000000000000733c        0x4 ./src/nes/InfoNES_Mapper.o
                0x000000000000733c                Map51_Mode
 .sbss.Map57_Reg
                0x0000000000007340        0x1 ./src/nes/InfoNES_Mapper.o
                0x0000000000007340                Map57_Reg
 .sbss.Map64_Chr
                0x0000000000007341        0x1 ./src/nes/InfoNES_Mapper.o
                0x0000000000007341                Map64_Chr
 .sbss.Map64_Cmd
                0x0000000000007342        0x1 ./src/nes/InfoNES_Mapper.o
                0x0000000000007342                Map64_Cmd
 .sbss.Map64_Prg
                0x0000000000007343        0x1 ./src/nes/InfoNES_Mapper.o
                0x0000000000007343                Map64_Prg
 .sbss.Map65_IRQ_Cnt
                0x0000000000007344        0x4 ./src/nes/InfoNES_Mapper.o
                0x0000000000007344                Map65_IRQ_Cnt
 .sbss.Map65_IRQ_Enable
                0x0000000000007348        0x1 ./src/nes/InfoNES_Mapper.o
                0x0000000000007348                Map65_IRQ_Enable
 *fill*         0x0000000000007349        0x3 
 .sbss.Map65_IRQ_Latch
                0x000000000000734c        0x4 ./src/nes/InfoNES_Mapper.o
                0x000000000000734c                Map65_IRQ_Latch
 .sbss.Map67_IRQ_Cnt
                0x0000000000007350        0x1 ./src/nes/InfoNES_Mapper.o
                0x0000000000007350                Map67_IRQ_Cnt
 .sbss.Map67_IRQ_Enable
                0x0000000000007351        0x1 ./src/nes/InfoNES_Mapper.o
                0x0000000000007351                Map67_IRQ_Enable
 .sbss.Map67_IRQ_Latch
                0x0000000000007352        0x1 ./src/nes/InfoNES_Mapper.o
                0x0000000000007352                Map67_IRQ_Latch
 *fill*         0x0000000000007353        0x1 
 .sbss.Map68_Regs
                0x0000000000007354        0x4 ./src/nes/InfoNES_Mapper.o
                0x0000000000007354                Map68_Regs
 .sbss.Map69_IRQ_Cnt
                0x0000000000007358        0x4 ./src/nes/InfoNES_Mapper.o
                0x0000000000007358                Map69_IRQ_Cnt
 .sbss.Map69_IRQ_Enable
                0x000000000000735c        0x1 ./src/nes/InfoNES_Mapper.o
                0x000000000000735c                Map69_IRQ_Enable
 *fill*         0x000000000000735d        0x3 
 .sbss.Map69_Regs
                0x0000000000007360        0x1 ./src/nes/InfoNES_Mapper.o
                0x0000000000007360                Map69_Regs
 *fill*         0x0000000000007361        0x3 
 .sbss.Map73_IRQ_Cnt
                0x0000000000007364        0x4 ./src/nes/InfoNES_Mapper.o
                0x0000000000007364                Map73_IRQ_Cnt
 .sbss.Map73_IRQ_Enable
                0x0000000000007368        0x1 ./src/nes/InfoNES_Mapper.o
                0x0000000000007368                Map73_IRQ_Enable
 *fill*         0x0000000000007369        0x3 
 .sbss.Map74_Chr01
                0x000000000000736c        0x4 ./src/nes/InfoNES_Mapper.o
                0x000000000000736c                Map74_Chr01
 .sbss.Map74_Chr23
                0x0000000000007370        0x4 ./src/nes/InfoNES_Mapper.o
                0x0000000000007370                Map74_Chr23
 .sbss.Map74_Chr4
                0x0000000000007374        0x4 ./src/nes/InfoNES_Mapper.o
                0x0000000000007374                Map74_Chr4
 .sbss.Map74_Chr5
                0x0000000000007378        0x4 ./src/nes/InfoNES_Mapper.o
                0x0000000000007378                Map74_Chr5
 .sbss.Map74_Chr6
                0x000000000000737c        0x4 ./src/nes/InfoNES_Mapper.o
                0x000000000000737c                Map74_Chr6
 .sbss.Map74_Chr7
                0x0000000000007380        0x4 ./src/nes/InfoNES_Mapper.o
                0x0000000000007380                Map74_Chr7
 .sbss.Map74_IRQ_Cnt
                0x0000000000007384        0x1 ./src/nes/InfoNES_Mapper.o
                0x0000000000007384                Map74_IRQ_Cnt
 .sbss.Map74_IRQ_Enable
                0x0000000000007385        0x1 ./src/nes/InfoNES_Mapper.o
                0x0000000000007385                Map74_IRQ_Enable
 .sbss.Map74_IRQ_Latch
                0x0000000000007386        0x1 ./src/nes/InfoNES_Mapper.o
                0x0000000000007386                Map74_IRQ_Latch
 .sbss.Map74_IRQ_Present
                0x0000000000007387        0x1 ./src/nes/InfoNES_Mapper.o
                0x0000000000007387                Map74_IRQ_Present
 .sbss.Map74_IRQ_Present_Vbl
                0x0000000000007388        0x1 ./src/nes/InfoNES_Mapper.o
                0x0000000000007388                Map74_IRQ_Present_Vbl
 .sbss.Map74_IRQ_Request
                0x0000000000007389        0x1 ./src/nes/InfoNES_Mapper.o
                0x0000000000007389                Map74_IRQ_Request
 *fill*         0x000000000000738a        0x2 
 .sbss.Map74_Prg0
                0x000000000000738c        0x4 ./src/nes/InfoNES_Mapper.o
                0x000000000000738c                Map74_Prg0
 .sbss.Map74_Prg1
                0x0000000000007390        0x4 ./src/nes/InfoNES_Mapper.o
                0x0000000000007390                Map74_Prg1
 .sbss.Map74_Regs
                0x0000000000007394        0x8 ./src/nes/InfoNES_Mapper.o
                0x0000000000007394                Map74_Regs
 .sbss.Map74_Rom_Bank
                0x000000000000739c        0x4 ./src/nes/InfoNES_Mapper.o
                0x000000000000739c                Map74_Rom_Bank
 .sbss.Map75_Regs
                0x00000000000073a0        0x2 ./src/nes/InfoNES_Mapper.o
                0x00000000000073a0                Map75_Regs
 .sbss.Map76_Reg
                0x00000000000073a2        0x1 ./src/nes/InfoNES_Mapper.o
                0x00000000000073a2                Map76_Reg
 *fill*         0x00000000000073a3        0x1 
 .sbss.Map82_Regs
                0x00000000000073a4        0x1 ./src/nes/InfoNES_Mapper.o
                0x00000000000073a4                Map82_Regs
 *fill*         0x00000000000073a5        0x3 
 .sbss.Map83_Chr_Bank
                0x00000000000073a8        0x4 ./src/nes/InfoNES_Mapper.o
                0x00000000000073a8                Map83_Chr_Bank
 .sbss.Map83_IRQ_Cnt
                0x00000000000073ac        0x4 ./src/nes/InfoNES_Mapper.o
                0x00000000000073ac                Map83_IRQ_Cnt
 .sbss.Map83_IRQ_Enabled
                0x00000000000073b0        0x1 ./src/nes/InfoNES_Mapper.o
                0x00000000000073b0                Map83_IRQ_Enabled
 *fill*         0x00000000000073b1        0x3 
 .sbss.Map83_Regs
                0x00000000000073b4        0x3 ./src/nes/InfoNES_Mapper.o
                0x00000000000073b4                Map83_Regs
 *fill*         0x00000000000073b7        0x1 
 .sbss.Map88_Regs
                0x00000000000073b8        0x1 ./src/nes/InfoNES_Mapper.o
                0x00000000000073b8                Map88_Regs
 .sbss.Map90_Chr_Bank_Size
                0x00000000000073b9        0x1 ./src/nes/InfoNES_Mapper.o
                0x00000000000073b9                Map90_Chr_Bank_Size
 *fill*         0x00000000000073ba        0x2 
 .sbss.Map90_Chr_High_Reg
                0x00000000000073bc        0x8 ./src/nes/InfoNES_Mapper.o
                0x00000000000073bc                Map90_Chr_High_Reg
 .sbss.Map90_Chr_Low_Reg
                0x00000000000073c4        0x8 ./src/nes/InfoNES_Mapper.o
                0x00000000000073c4                Map90_Chr_Low_Reg
 .sbss.Map90_IRQ_Cnt
                0x00000000000073cc        0x1 ./src/nes/InfoNES_Mapper.o
                0x00000000000073cc                Map90_IRQ_Cnt
 .sbss.Map90_IRQ_Enable
                0x00000000000073cd        0x1 ./src/nes/InfoNES_Mapper.o
                0x00000000000073cd                Map90_IRQ_Enable
 .sbss.Map90_IRQ_Latch
                0x00000000000073ce        0x1 ./src/nes/InfoNES_Mapper.o
                0x00000000000073ce                Map90_IRQ_Latch
 .sbss.Map90_Mirror_Mode
                0x00000000000073cf        0x1 ./src/nes/InfoNES_Mapper.o
                0x00000000000073cf                Map90_Mirror_Mode
 .sbss.Map90_Mirror_Type
                0x00000000000073d0        0x1 ./src/nes/InfoNES_Mapper.o
                0x00000000000073d0                Map90_Mirror_Type
 *fill*         0x00000000000073d1        0x3 
 .sbss.Map90_Nam_High_Reg
                0x00000000000073d4        0x4 ./src/nes/InfoNES_Mapper.o
                0x00000000000073d4                Map90_Nam_High_Reg
 .sbss.Map90_Nam_Low_Reg
                0x00000000000073d8        0x4 ./src/nes/InfoNES_Mapper.o
                0x00000000000073d8                Map90_Nam_Low_Reg
 .sbss.Map90_Prg_Bank_6000
                0x00000000000073dc        0x1 ./src/nes/InfoNES_Mapper.o
                0x00000000000073dc                Map90_Prg_Bank_6000
 .sbss.Map90_Prg_Bank_E000
                0x00000000000073dd        0x1 ./src/nes/InfoNES_Mapper.o
                0x00000000000073dd                Map90_Prg_Bank_E000
 .sbss.Map90_Prg_Bank_Size
                0x00000000000073de        0x1 ./src/nes/InfoNES_Mapper.o
                0x00000000000073de                Map90_Prg_Bank_Size
 *fill*         0x00000000000073df        0x1 
 .sbss.Map90_Prg_Reg
                0x00000000000073e0        0x4 ./src/nes/InfoNES_Mapper.o
                0x00000000000073e0                Map90_Prg_Reg
 .sbss.Map90_Value1
                0x00000000000073e4        0x4 ./src/nes/InfoNES_Mapper.o
                0x00000000000073e4                Map90_Value1
 .sbss.Map90_Value2
                0x00000000000073e8        0x4 ./src/nes/InfoNES_Mapper.o
                0x00000000000073e8                Map90_Value2
 .sbss.Map95_Chr01
                0x00000000000073ec        0x4 ./src/nes/InfoNES_Mapper.o
                0x00000000000073ec                Map95_Chr01
 .sbss.Map95_Chr23
                0x00000000000073f0        0x4 ./src/nes/InfoNES_Mapper.o
                0x00000000000073f0                Map95_Chr23
 .sbss.Map95_Chr4
                0x00000000000073f4        0x4 ./src/nes/InfoNES_Mapper.o
                0x00000000000073f4                Map95_Chr4
 .sbss.Map95_Chr5
                0x00000000000073f8        0x4 ./src/nes/InfoNES_Mapper.o
                0x00000000000073f8                Map95_Chr5
 .sbss.Map95_Chr6
                0x00000000000073fc        0x4 ./src/nes/InfoNES_Mapper.o
                0x00000000000073fc                Map95_Chr6
 .sbss.Map95_Chr7
                0x0000000000007400        0x4 ./src/nes/InfoNES_Mapper.o
                0x0000000000007400                Map95_Chr7
 .sbss.Map95_Prg0
                0x0000000000007404        0x4 ./src/nes/InfoNES_Mapper.o
                0x0000000000007404                Map95_Prg0
 .sbss.Map95_Prg1
                0x0000000000007408        0x4 ./src/nes/InfoNES_Mapper.o
                0x0000000000007408                Map95_Prg1
 .sbss.Map95_Regs
                0x000000000000740c        0x1 ./src/nes/InfoNES_Mapper.o
                0x000000000000740c                Map95_Regs
 *fill*         0x000000000000740d        0x3 
 .sbss.Map96_Reg
                0x0000000000007410        0x2 ./src/nes/InfoNES_Mapper.o
                0x0000000000007410                Map96_Reg
 .sbss.Map99_Coin
                0x0000000000007412        0x1 ./src/nes/InfoNES_Mapper.o
                0x0000000000007412                Map99_Coin
 *fill*         0x0000000000007413        0x1 
 .sbss.MapperApu
                0x0000000000007414        0x4 ./src/nes/InfoNES_Mapper.o
                0x0000000000007414                MapperApu
 .sbss.MapperHSync
                0x0000000000007418        0x4 ./src/nes/InfoNES_Mapper.o
                0x0000000000007418                MapperHSync
 .sbss.MapperInit
                0x000000000000741c        0x4 ./src/nes/InfoNES_Mapper.o
                0x000000000000741c                MapperInit
 .sbss.MapperPPU
                0x0000000000007420        0x4 ./src/nes/InfoNES_Mapper.o
                0x0000000000007420                MapperPPU
 .sbss.MapperReadApu
                0x0000000000007424        0x4 ./src/nes/InfoNES_Mapper.o
                0x0000000000007424                MapperReadApu
 .sbss.MapperRenderScreen
                0x0000000000007428        0x4 ./src/nes/InfoNES_Mapper.o
                0x0000000000007428                MapperRenderScreen
 .sbss.MapperSram
                0x000000000000742c        0x4 ./src/nes/InfoNES_Mapper.o
                0x000000000000742c                MapperSram
 .sbss.MapperVSync
                0x0000000000007430        0x4 ./src/nes/InfoNES_Mapper.o
                0x0000000000007430                MapperVSync
 .sbss.MapperWrite
                0x0000000000007434        0x4 ./src/nes/InfoNES_Mapper.o
                0x0000000000007434                MapperWrite
 .sbss.latch1   0x0000000000007438        0x3 ./src/nes/InfoNES_Mapper.o
                0x0000000000007438                latch1
 *fill*         0x000000000000743b        0x1 
 .sbss.latch2   0x000000000000743c        0x3 ./src/nes/InfoNES_Mapper.o
                0x000000000000743c                latch2
 *fill*         0x000000000000743f        0x1 
 .sbss.latch3   0x0000000000007440        0x3 ./src/nes/InfoNES_Mapper.o
                0x0000000000007440                latch3
 *fill*         0x0000000000007443        0x1 
 .sbss.latch4   0x0000000000007444        0x3 ./src/nes/InfoNES_Mapper.o
                0x0000000000007444                latch4
 *fill*         0x0000000000007447        0x1 
 .sbss.FrameCount
                0x0000000000007448        0x4 ./src/nes/InfoNES_system.o
                0x0000000000007448                FrameCount
 .sbss.A        0x000000000000744c        0x1 ./src/nes/K6502.o
                0x000000000000744c                A
 .sbss.F        0x000000000000744d        0x1 ./src/nes/K6502.o
                0x000000000000744d                F
 .sbss.IRQ_State
                0x000000000000744e        0x1 ./src/nes/K6502.o
                0x000000000000744e                IRQ_State
 .sbss.IRQ_Wiring
                0x000000000000744f        0x1 ./src/nes/K6502.o
                0x000000000000744f                IRQ_Wiring
 .sbss.NMI_State
                0x0000000000007450        0x1 ./src/nes/K6502.o
                0x0000000000007450                NMI_State
 .sbss.NMI_Wiring
                0x0000000000007451        0x1 ./src/nes/K6502.o
                0x0000000000007451                NMI_Wiring
 .sbss.PC       0x0000000000007452        0x2 ./src/nes/K6502.o
                0x0000000000007452                PC
 .sbss.SP       0x0000000000007454        0x1 ./src/nes/K6502.o
                0x0000000000007454                SP
 .sbss.X        0x0000000000007455        0x1 ./src/nes/K6502.o
                0x0000000000007455                X
 .sbss.Y        0x0000000000007456        0x1 ./src/nes/K6502.o
                0x0000000000007456                Y
 *fill*         0x0000000000007457        0x1 
 .sbss.g_wPassedClocks
                0x0000000000007458        0x2 ./src/nes/K6502.o
                0x0000000000007458                g_wPassedClocks
 *fill*         0x000000000000745a        0x2 
 .sbss.delaycnt
                0x000000000000745c        0x4 ./src/main.o
                0x000000000000745c                delaycnt
 .sbss.rgb_data_get_test
                0x0000000000007460        0x4 ./src/main.o
                0x0000000000007460                rgb_data_get_test
 .sbss.temp_data
                0x0000000000007464        0x4 ./src/main.o
                0x0000000000007464                temp_data
 .sbss.uart_data
                0x0000000000007468        0x4 ./src/main.o
                0x0000000000007468                uart_data
 .sbss.node_cnt
                0x000000000000746c        0x1 ./src/snake.o
 *(COMMON)
                0x0000000000007470                . = ALIGN (0x4)
 *fill*         0x000000000000746d        0x3 
                0x0000000000007470                _ebss = .

.heap           0x0000000000007470        0x0
                0x0000000000007470                . = ALIGN (0x4)
                0x0000000000007470                _heap_start = .
OUTPUT(pico_test_1.elf elf32-littleriscv)

.debug_info     0x0000000000000000    0x1322f
 .debug_info    0x0000000000000000     0x16e8 ./src/nes/InfoNES.o
 .debug_info    0x00000000000016e8     0x9d23 ./src/nes/InfoNES_Mapper.o
 .debug_info    0x000000000000b40b      0xcdd ./src/nes/InfoNES_pAPU.o
 .debug_info    0x000000000000c0e8      0xf2c ./src/nes/InfoNES_system.o
 .debug_info    0x000000000000d014     0x3067 ./src/nes/K6502.o
 .debug_info    0x000000000001007b       0x58 ./src/nes/rom.o
 .debug_info    0x00000000000100d3      0xd8a ./src/main.o
 .debug_info    0x0000000000010e5d     0x136d ./src/snake.o
 .debug_info    0x00000000000121ca       0x26 ./src/start.o
 .debug_info    0x00000000000121f0     0x103f ./src/uart.o

.debug_abbrev   0x0000000000000000     0x1bfc
 .debug_abbrev  0x0000000000000000      0x37c ./src/nes/InfoNES.o
 .debug_abbrev  0x000000000000037c      0x57b ./src/nes/InfoNES_Mapper.o
 .debug_abbrev  0x00000000000008f7      0x1ad ./src/nes/InfoNES_pAPU.o
 .debug_abbrev  0x0000000000000aa4      0x365 ./src/nes/InfoNES_system.o
 .debug_abbrev  0x0000000000000e09      0x435 ./src/nes/K6502.o
 .debug_abbrev  0x000000000000123e       0x45 ./src/nes/rom.o
 .debug_abbrev  0x0000000000001283      0x262 ./src/main.o
 .debug_abbrev  0x00000000000014e5      0x39f ./src/snake.o
 .debug_abbrev  0x0000000000001884       0x14 ./src/start.o
 .debug_abbrev  0x0000000000001898      0x364 ./src/uart.o

.debug_loc      0x0000000000000000     0xe2c7
 .debug_loc     0x0000000000000000      0x6c1 ./src/nes/InfoNES.o
 .debug_loc     0x00000000000006c1     0xa120 ./src/nes/InfoNES_Mapper.o
 .debug_loc     0x000000000000a7e1      0x13a ./src/nes/InfoNES_system.o
 .debug_loc     0x000000000000a91b     0x2843 ./src/nes/K6502.o
 .debug_loc     0x000000000000d15e      0xa72 ./src/snake.o
 .debug_loc     0x000000000000dbd0      0x6f7 ./src/uart.o

.debug_aranges  0x0000000000000000      0xef0
 .debug_aranges
                0x0000000000000000       0x70 ./src/nes/InfoNES.o
 .debug_aranges
                0x0000000000000070      0xc68 ./src/nes/InfoNES_Mapper.o
 .debug_aranges
                0x0000000000000cd8       0x18 ./src/nes/InfoNES_pAPU.o
 .debug_aranges
                0x0000000000000cf0       0x78 ./src/nes/InfoNES_system.o
 .debug_aranges
                0x0000000000000d68       0x58 ./src/nes/K6502.o
 .debug_aranges
                0x0000000000000dc0       0x18 ./src/nes/rom.o
 .debug_aranges
                0x0000000000000dd8       0x30 ./src/main.o
 .debug_aranges
                0x0000000000000e08       0x58 ./src/snake.o
 .debug_aranges
                0x0000000000000e60       0x20 ./src/start.o
 .debug_aranges
                0x0000000000000e80       0x70 ./src/uart.o

.debug_ranges   0x0000000000000000     0x30a0
 .debug_ranges  0x0000000000000000      0x150 ./src/nes/InfoNES.o
 .debug_ranges  0x0000000000000150     0x1580 ./src/nes/InfoNES_Mapper.o
 .debug_ranges  0x00000000000016d0       0x68 ./src/nes/InfoNES_system.o
 .debug_ranges  0x0000000000001738     0x1580 ./src/nes/K6502.o
 .debug_ranges  0x0000000000002cb8       0x20 ./src/main.o
 .debug_ranges  0x0000000000002cd8       0xe0 ./src/snake.o
 .debug_ranges  0x0000000000002db8      0x2e8 ./src/uart.o

.debug_line     0x0000000000000000    0x1e08c
 .debug_line    0x0000000000000000      0xeba ./src/nes/InfoNES.o
 .debug_line    0x0000000000000eba    0x180cc ./src/nes/InfoNES_Mapper.o
 .debug_line    0x0000000000018f86      0x1aa ./src/nes/InfoNES_pAPU.o
 .debug_line    0x0000000000019130      0x425 ./src/nes/InfoNES_system.o
 .debug_line    0x0000000000019555     0x385c ./src/nes/K6502.o
 .debug_line    0x000000000001cdb1       0x31 ./src/nes/rom.o
 .debug_line    0x000000000001cde2      0x2e9 ./src/main.o
 .debug_line    0x000000000001d0cb      0x77f ./src/snake.o
 .debug_line    0x000000000001d84a      0x16f ./src/start.o
 .debug_line    0x000000000001d9b9      0x6d3 ./src/uart.o

.debug_str      0x0000000000000000     0x3b66
 .debug_str     0x0000000000000000      0xa5f ./src/nes/InfoNES.o
                                        0xaf2 (size before relaxing)
 .debug_str     0x0000000000000a5f     0x2c1f ./src/nes/InfoNES_Mapper.o
                                       0x34c1 (size before relaxing)
 .debug_str     0x000000000000367e       0x1a ./src/nes/InfoNES_pAPU.o
                                        0x894 (size before relaxing)
 .debug_str     0x0000000000003698      0x131 ./src/nes/InfoNES_system.o
                                        0x993 (size before relaxing)
 .debug_str     0x00000000000037c9      0x124 ./src/nes/K6502.o
                                        0xa13 (size before relaxing)
 .debug_str     0x00000000000038ed       0x11 ./src/nes/rom.o
                                        0x107 (size before relaxing)
 .debug_str     0x00000000000038fe       0x6a ./src/main.o
                                        0x83a (size before relaxing)
 .debug_str     0x0000000000003968      0x115 ./src/snake.o
                                        0x693 (size before relaxing)
 .debug_str     0x0000000000003a7d       0x1b ./src/start.o
                                         0x4c (size before relaxing)
 .debug_str     0x0000000000003a98       0xce ./src/uart.o
                                        0x65c (size before relaxing)

.comment        0x0000000000000000       0x3a
 .comment       0x0000000000000000       0x3a ./src/nes/InfoNES.o
                                         0x3b (size before relaxing)
 .comment       0x000000000000003a       0x3b ./src/nes/InfoNES_Mapper.o
 .comment       0x000000000000003a       0x3b ./src/nes/InfoNES_pAPU.o
 .comment       0x000000000000003a       0x3b ./src/nes/InfoNES_system.o
 .comment       0x000000000000003a       0x3b ./src/nes/K6502.o
 .comment       0x000000000000003a       0x3b ./src/nes/rom.o
 .comment       0x000000000000003a       0x3b ./src/main.o
 .comment       0x000000000000003a       0x3b ./src/snake.o
 .comment       0x000000000000003a       0x3b ./src/uart.o

.debug_frame    0x0000000000000000     0x2a48
 .debug_frame   0x0000000000000000      0x1e8 ./src/nes/InfoNES.o
 .debug_frame   0x00000000000001e8     0x2160 ./src/nes/InfoNES_Mapper.o
 .debug_frame   0x0000000000002348      0x158 ./src/nes/InfoNES_system.o
 .debug_frame   0x00000000000024a0      0x19c ./src/nes/K6502.o
 .debug_frame   0x000000000000263c       0x5c ./src/main.o
 .debug_frame   0x0000000000002698       0xe0 ./src/snake.o
 .debug_frame   0x0000000000002778      0x178 ./src/uart.o
 .debug_frame   0x00000000000028f0       0x54 d:/hummingbird/hbird-eclipse_2018_09/gnu mcu eclipse/risc-v embedded gcc/7.2.0-4-20180606-1631/bin/../lib/gcc/riscv-none-embed/7.2.0/rv32im/ilp32\libgcc.a(muldf3.o)
 .debug_frame   0x0000000000002944       0x40 d:/hummingbird/hbird-eclipse_2018_09/gnu mcu eclipse/risc-v embedded gcc/7.2.0-4-20180606-1631/bin/../lib/gcc/riscv-none-embed/7.2.0/rv32im/ilp32\libgcc.a(subdf3.o)
 .debug_frame   0x0000000000002984       0x20 d:/hummingbird/hbird-eclipse_2018_09/gnu mcu eclipse/risc-v embedded gcc/7.2.0-4-20180606-1631/bin/../lib/gcc/riscv-none-embed/7.2.0/rv32im/ilp32\libgcc.a(fixdfsi.o)
 .debug_frame   0x00000000000029a4       0x34 d:/hummingbird/hbird-eclipse_2018_09/gnu mcu eclipse/risc-v embedded gcc/7.2.0-4-20180606-1631/bin/../lib/gcc/riscv-none-embed/7.2.0/rv32im/ilp32\libgcc.a(floatunsidf.o)
 .debug_frame   0x00000000000029d8       0x20 d:/hummingbird/hbird-eclipse_2018_09/gnu mcu eclipse/risc-v embedded gcc/7.2.0-4-20180606-1631/bin/../lib/gcc/riscv-none-embed/7.2.0/rv32im/ilp32\libgcc.a(_clzsi2.o)
 .debug_frame   0x00000000000029f8       0x20 d:/hummingbird/hbird-eclipse_2018_09/gnu mcu eclipse/risc-v embedded gcc/7.2.0-4-20180606-1631/bin/../lib/gcc/riscv-none-embed/7.2.0/../../../../riscv-none-embed/lib/rv32im/ilp32\libg.a(lib_a-memcpy.o)
 .debug_frame   0x0000000000002a18       0x30 d:/hummingbird/hbird-eclipse_2018_09/gnu mcu eclipse/risc-v embedded gcc/7.2.0-4-20180606-1631/bin/../lib/gcc/riscv-none-embed/7.2.0/../../../../riscv-none-embed/lib/rv32im/ilp32\libg.a(lib_a-rand.o)
