
pico_test_1.elf:     file format elf32-littleriscv
pico_test_1.elf
architecture: riscv:rv32, flags 0x00000112:
EXEC_P, HAS_SYMS, D_PAGED
start address 0x00004000

Program Header:
    LOAD off    0x00001000 vaddr 0x00004000 paddr 0x00004000 align 2**12
         filesz 0x00004834 memsz 0x00004834 flags r-x
    LOAD off    0x00006000 vaddr 0x00000000 paddr 0x00008834 align 2**12
         filesz 0x00000444 memsz 0x0000137c flags rw-

Sections:
Idx Name           Size      VMA       LMA       File off  Algn  Flags
  0 .text          00004834  00004000  00004000  00001000  2**3  CONTENTS, ALLOC, LOAD, READONLY, CODE
  1 .data          00000444  00000000  00008834  00006000  2**3  CONTENTS, ALLOC, LOAD, DATA
  2 .bss           00000f38  00000444  00008c78  00006444  2**2  ALLOC
  3 .heap          00000000  0000137c  0000137c  00006444  2**0  CONTENTS
  4 .debug_info    00009c2f  00000000  00000000  00006444  2**0  CONTENTS, READONLY, DEBUGGING
  5 .debug_abbrev  0000154f  00000000  00000000  00010073  2**0  CONTENTS, READONLY, DEBUGGING
  6 .debug_loc     0000367b  00000000  00000000  000115c2  2**0  CONTENTS, READONLY, DEBUGGING
  7 .debug_aranges 00000310  00000000  00000000  00014c40  2**3  CONTENTS, READONLY, DEBUGGING
  8 .debug_ranges  00000d00  00000000  00000000  00014f50  2**0  CONTENTS, READONLY, DEBUGGING
  9 .debug_line    000039d3  00000000  00000000  00015c50  2**0  CONTENTS, READONLY, DEBUGGING
 10 .debug_str     00000bf5  00000000  00000000  00019623  2**0  CONTENTS, READONLY, DEBUGGING
 11 .comment       0000003a  00000000  00000000  0001a218  2**0  CONTENTS, READONLY
 12 .debug_frame   00000cf8  00000000  00000000  0001a254  2**2  CONTENTS, READONLY, DEBUGGING
SYMBOL TABLE:
00004000 l    d  .text	00000000 .text
00000000 l    d  .data	00000000 .data
00000444 l    d  .bss	00000000 .bss
0000137c l    d  .heap	00000000 .heap
00000000 l    d  .debug_info	00000000 .debug_info
00000000 l    d  .debug_abbrev	00000000 .debug_abbrev
00000000 l    d  .debug_loc	00000000 .debug_loc
00000000 l    d  .debug_aranges	00000000 .debug_aranges
00000000 l    d  .debug_ranges	00000000 .debug_ranges
00000000 l    d  .debug_line	00000000 .debug_line
00000000 l    d  .debug_str	00000000 .debug_str
00000000 l    d  .comment	00000000 .comment
00000000 l    d  .debug_frame	00000000 .debug_frame
00000000 l    df *ABS*	00000000 Tetris.c
00000000 l    df *ABS*	00000000 board.c
00000000 l    df *ABS*	00000000 hdmidraw.c
00007b78 l     O .text	000005f0 F8X16
00008168 l     O .text	00000060 bitmap_bytes
000081c8 l     O .text	000000c0 quwei
00008288 l     O .text	00000010 triangle
00008298 l     O .text	00000200 ziguang
00000000 l    df *ABS*	00000000 main.c
00000000 l    df *ABS*	00000000 newsnake.c
00005fce l     F .text	000000a4 refresh.part.0
00000000 l    df *ABS*	00000000 ./src/start.o
00004000 l       .text	00000000 start
0000407a l       .text	00000000 setmemloop
000040a2 l       .text	00000000 end_init_data
00004096 l       .text	00000000 loop_init_data
000040bc l       .text	00000000 end_init_bss
000040b2 l       .text	00000000 loop_init_bss
00000000 l    df *ABS*	00000000 uart.c
00006678 l     F .text	0000004c print_num.part.0
00000000 l    df *ABS*	00000000 muldf3.c
00000000 l    df *ABS*	00000000 subdf3.c
00000000 l    df *ABS*	00000000 fixdfsi.c
00000000 l    df *ABS*	00000000 floatunsidf.c
00000000 l    df *ABS*	00000000 libgcc2.c
00000000 l    df *ABS*	00000000 libgcc2.c
00000000 l    df *ABS*	00000000 rand.c
00000000 l    df *ABS*	00000000 impure.c
00000010 l     O .data	00000428 impure_data
00004464 g     F .text	00000056 IsLegal
000043d4 g     F .text	00000090 DrawSpace
000010e4 g     O .bss	00000268 snake
00004fb6 g     F .text	00000080 initGame
00006778 g     F .text	00000078 print_flt
00004b60 g     F .text	00000028 initBall
00006372 g     F .text	000001cc snakeGo
00000444 g     O .bss	000001c0 block
00005a3a g     F .text	00000078 hdmi_drawtriangle
00000604 g     O .bss	000006cc face
00008834 g       .text	00000000 _sidata
0000653e g     F .text	00000134 GameStart
0000136c g     O .bss	00000004 delaycnt
0000135d g     O .bss	00000001 boardps2
00001376 g     O .bss	00000001 quit
000042fe g     F .text	000000d6 DrawBlock
00008834 g       .text	00000000 _etext
00001374 g     O .bss	00000001 getps2
00000444 g       .bss	00000000 _sbss
00004c9e g     F .text	00000052 drawBz
000057d4 g     F .text	0000010c hdmi_draw_dircle_solid_vertical
000040d4 g     F .text	00000146 InitInterface
000058e0 g     F .text	0000010c hdmi_draw_dircle_solid
00005ab2 g     F .text	0000008a hdmi_drawziguang
00006924 g     F .text	00000084 getchar_prompt
000066e4 g     F .text	00000028 print_str
00001358 g     O .bss	00000004 pos
00005732 g     F .text	000000a2 hdmi_drawLine_vertical
00004c44 g     F .text	0000005a drawBall
00005396 g     F .text	00000080 hdmi_draw_string
00000000 g       .data	00000000 _sdata
00006768 g     F .text	00000010 print_dec
00001368 g     O .bss	00000001 ps2key
00001364 g     O .bss	00000004 gtime_cnt
00005300 g     F .text	00000096 hdmi_draw_char_back_vertical
0000421a g     F .text	000000e2 InitBlockInfo
0000548a g     F .text	00000074 hdmi_draw_string_back_verticlal
0000043c g     O .data	00000004 _global_impure_ptr
00007964 g     F .text	000000c0 .hidden __floatunsidf
00005140 g     F .text	00000094 hdmi_draw_test
00005654 g     F .text	0000004c hdmi_draw_square_vertical
00001375 g     O .bss	00000001 key_val
00005036 g     F .text	0000003c showGame
0000137c g       .bss	00000000 _ebss
000078e0 g     F .text	00000084 .hidden __fixdfsi
0000137c g       .heap	00000000 _heap_start
00001378 g     O .bss	00000002 score
00001370 g     O .bss	00000004 uart_data
000044ba g     F .text	0000022c JudeFunc
000046e6 g     F .text	00000010 TetrisDelay
00000000 g       .data	00000000 _ram_start
000069a8 g     F .text	0000002a get_char
0000134c g     O .bss	00000001 end
00004de8 g     F .text	00000134 check
00007a24 g     F .text	00000094 .hidden __clzsi2
00004f9e g     F .text	00000018 keyCtol
00006290 g     F .text	000000e2 dead
00005bc6 g     F .text	0000004e hdmi_drawrectangle_vertical
000054fe g     F .text	0000001c hdmi_draw_clear
00005282 g     F .text	0000007e hdmi_draw_char_back
00000438 g     O .data	00000001 glevel
00007acc g     F .text	0000005c rand
00005208 g     F .text	0000007a hdmi_draw_char
00001350 g     O .bss	00000004 grade
00004d58 g     F .text	00000058 drawAllZk
00004cf0 g     F .text	00000068 drawZK
00000000 g     O .data	0000000e gcolor
00001354 g     O .bss	00000004 max
000059ec g     F .text	0000004e hdmi_drawrectangle
000067f0 g     F .text	00000134 printk
00001360 g     O .bss	00000004 gscore
00000439 g     O .data	00000001 isContinue
000069d4 g     F .text	0000068c .hidden __muldf3
0000551a g     F .text	00000070 hdmi_draw_num
00006072 g     F .text	00000020 soundDelay
00006758 g     F .text	00000010 print_hex2
00005072 g     F .text	0000000e ctolGame
00005c80 g     F .text	0000034e main
0000558a g     F .text	00000078 hdmi_draw_num_back_vertical
00007ab8 g     F .text	00000014 srand
000051ec g     F .text	0000001c hdmi_draw_point_vertical
00005602 g     F .text	00000052 hdmi_draw_fill
00005b3c g     F .text	0000008a hdmi_drawquwei
00004db0 g     F .text	00000038 ball_move
00000ce8 g     O .bss	00000014 bz
000060dc g     F .text	00000038 isCover
000056a0 g     F .text	00000092 hdmi_drawLine
0000670c g     F .text	0000004c print_hex
00004c42 g     F .text	00000002 delayBall
000060cc g     F .text	00000010 refresh
000042fc g     F .text	00000002 color
00005c6c g     F .text	00000014 delay
00005080 g     F .text	000000c0 app_demo
0000135c g     O .bss	00000001 tetriskey
00004bae g     F .text	00000094 initZk
00008734 g     O .text	00000100 .hidden __clz_tab
0000615a g     F .text	000000c8 generateFood
00000440 g     O .data	00000004 _impure_ptr
00006672 g     F .text	00000006 print_num
00005c14 g     F .text	00000058 hdmi_draw_fill_vertical
00000cd0 g     O .bss	00000018 ball
00004b3c g     F .text	00000024 Tetris
000051d4 g     F .text	00000018 hdmi_draw_point
00000444 g       .data	00000000 _edata
000040c4 g     F .text	00000010 CursorJump
00004b88 g     F .text	00000026 initBz
00004f1c g     F .text	00000040 bz_moveLeft
00006114 g     F .text	00000046 isNearSelf
00005416 g     F .text	00000074 hdmi_draw_string_back
00006222 g     F .text	0000006e snakeInit
00004f5c g     F .text	00000042 bz_moveRight
00007060 g     F .text	00000880 .hidden __subdf3
00006092 g     F .text	0000003a snakeDelay
000066c4 g     F .text	00000020 put_char
000046f6 g     F .text	00000446 StartGame
00000cfc g     O .bss	000003e8 zk



Disassembly of section .text:

00004000 <start>:
start():
D:\Hummingbird\HBird-workspace\pico_test_1\Debug/../src/start.S:5
	.section .text

start:
	# zero-initialize register file
	addi x1, zero, 0
    4000:	00000093          	li	ra,0
D:\Hummingbird\HBird-workspace\pico_test_1\Debug/../src/start.S:7
	# x2 (sp) is initialized by reset
	addi x3, zero, 0
    4004:	00000193          	li	gp,0
D:\Hummingbird\HBird-workspace\pico_test_1\Debug/../src/start.S:8
	addi x4, zero, 0
    4008:	00000213          	li	tp,0
D:\Hummingbird\HBird-workspace\pico_test_1\Debug/../src/start.S:9
	addi x5, zero, 0
    400c:	00000293          	li	t0,0
D:\Hummingbird\HBird-workspace\pico_test_1\Debug/../src/start.S:10
	addi x6, zero, 0
    4010:	00000313          	li	t1,0
D:\Hummingbird\HBird-workspace\pico_test_1\Debug/../src/start.S:11
	addi x7, zero, 0
    4014:	00000393          	li	t2,0
D:\Hummingbird\HBird-workspace\pico_test_1\Debug/../src/start.S:12
	addi x8, zero, 0
    4018:	00000413          	li	s0,0
D:\Hummingbird\HBird-workspace\pico_test_1\Debug/../src/start.S:13
	addi x9, zero, 0
    401c:	00000493          	li	s1,0
D:\Hummingbird\HBird-workspace\pico_test_1\Debug/../src/start.S:14
	addi x10, zero, 0
    4020:	00000513          	li	a0,0
D:\Hummingbird\HBird-workspace\pico_test_1\Debug/../src/start.S:15
	addi x11, zero, 0
    4024:	00000593          	li	a1,0
D:\Hummingbird\HBird-workspace\pico_test_1\Debug/../src/start.S:16
	addi x12, zero, 0
    4028:	00000613          	li	a2,0
D:\Hummingbird\HBird-workspace\pico_test_1\Debug/../src/start.S:17
	addi x13, zero, 0
    402c:	00000693          	li	a3,0
D:\Hummingbird\HBird-workspace\pico_test_1\Debug/../src/start.S:18
	addi x14, zero, 0
    4030:	00000713          	li	a4,0
D:\Hummingbird\HBird-workspace\pico_test_1\Debug/../src/start.S:19
	addi x15, zero, 0
    4034:	00000793          	li	a5,0
D:\Hummingbird\HBird-workspace\pico_test_1\Debug/../src/start.S:20
	addi x16, zero, 0
    4038:	00000813          	li	a6,0
D:\Hummingbird\HBird-workspace\pico_test_1\Debug/../src/start.S:21
	addi x17, zero, 0
    403c:	00000893          	li	a7,0
D:\Hummingbird\HBird-workspace\pico_test_1\Debug/../src/start.S:22
	addi x18, zero, 0
    4040:	00000913          	li	s2,0
D:\Hummingbird\HBird-workspace\pico_test_1\Debug/../src/start.S:23
	addi x19, zero, 0
    4044:	00000993          	li	s3,0
D:\Hummingbird\HBird-workspace\pico_test_1\Debug/../src/start.S:24
	addi x20, zero, 0
    4048:	00000a13          	li	s4,0
D:\Hummingbird\HBird-workspace\pico_test_1\Debug/../src/start.S:25
	addi x21, zero, 0
    404c:	00000a93          	li	s5,0
D:\Hummingbird\HBird-workspace\pico_test_1\Debug/../src/start.S:26
	addi x22, zero, 0
    4050:	00000b13          	li	s6,0
D:\Hummingbird\HBird-workspace\pico_test_1\Debug/../src/start.S:27
	addi x23, zero, 0
    4054:	00000b93          	li	s7,0
D:\Hummingbird\HBird-workspace\pico_test_1\Debug/../src/start.S:28
	addi x24, zero, 0
    4058:	00000c13          	li	s8,0
D:\Hummingbird\HBird-workspace\pico_test_1\Debug/../src/start.S:29
	addi x25, zero, 0
    405c:	00000c93          	li	s9,0
D:\Hummingbird\HBird-workspace\pico_test_1\Debug/../src/start.S:30
	addi x26, zero, 0
    4060:	00000d13          	li	s10,0
D:\Hummingbird\HBird-workspace\pico_test_1\Debug/../src/start.S:31
	addi x27, zero, 0
    4064:	00000d93          	li	s11,0
D:\Hummingbird\HBird-workspace\pico_test_1\Debug/../src/start.S:32
	addi x28, zero, 0
    4068:	00000e13          	li	t3,0
D:\Hummingbird\HBird-workspace\pico_test_1\Debug/../src/start.S:33
	addi x29, zero, 0
    406c:	00000e93          	li	t4,0
D:\Hummingbird\HBird-workspace\pico_test_1\Debug/../src/start.S:34
	addi x30, zero, 0
    4070:	00000f13          	li	t5,0
D:\Hummingbird\HBird-workspace\pico_test_1\Debug/../src/start.S:35
	addi x31, zero, 0
    4074:	00000f93          	li	t6,0
D:\Hummingbird\HBird-workspace\pico_test_1\Debug/../src/start.S:38

	# zero initialize entire scratchpad memory
	li a0, 0x00000000
    4078:	4501                	li	a0,0

0000407a <setmemloop>:
setmemloop():
D:\Hummingbird\HBird-workspace\pico_test_1\Debug/../src/start.S:40
setmemloop:
	sw a0, 0(a0)
    407a:	c108                	sw	a0,0(a0)
D:\Hummingbird\HBird-workspace\pico_test_1\Debug/../src/start.S:41
	addi a0, a0, 4
    407c:	0511                	addi	a0,a0,4
D:\Hummingbird\HBird-workspace\pico_test_1\Debug/../src/start.S:42
	blt a0, sp, setmemloop
    407e:	fe254ee3          	blt	a0,sp,407a <setmemloop>
D:\Hummingbird\HBird-workspace\pico_test_1\Debug/../src/start.S:45

	# copy data section
	la a0, _sidata
    4082:	00004517          	auipc	a0,0x4
    4086:	7b250513          	addi	a0,a0,1970 # 8834 <_etext>
D:\Hummingbird\HBird-workspace\pico_test_1\Debug/../src/start.S:46
	la a1, _sdata
    408a:	00000593          	li	a1,0
D:\Hummingbird\HBird-workspace\pico_test_1\Debug/../src/start.S:47
	la a2, _edata
    408e:	44400613          	li	a2,1092
D:\Hummingbird\HBird-workspace\pico_test_1\Debug/../src/start.S:48
	bge a1, a2, end_init_data
    4092:	00c5d863          	ble	a2,a1,40a2 <end_init_data>

00004096 <loop_init_data>:
loop_init_data():
D:\Hummingbird\HBird-workspace\pico_test_1\Debug/../src/start.S:50
loop_init_data:
	lw a3, 0(a0)
    4096:	4114                	lw	a3,0(a0)
D:\Hummingbird\HBird-workspace\pico_test_1\Debug/../src/start.S:51
	sw a3, 0(a1)
    4098:	c194                	sw	a3,0(a1)
D:\Hummingbird\HBird-workspace\pico_test_1\Debug/../src/start.S:52
	addi a0, a0, 4
    409a:	0511                	addi	a0,a0,4
D:\Hummingbird\HBird-workspace\pico_test_1\Debug/../src/start.S:53
	addi a1, a1, 4
    409c:	0591                	addi	a1,a1,4
D:\Hummingbird\HBird-workspace\pico_test_1\Debug/../src/start.S:54
	blt a1, a2, loop_init_data
    409e:	fec5cce3          	blt	a1,a2,4096 <loop_init_data>

000040a2 <end_init_data>:
end_init_data():
D:\Hummingbird\HBird-workspace\pico_test_1\Debug/../src/start.S:58
end_init_data:

	# zero-init bss section
	la a0, _sbss
    40a2:	44400513          	li	a0,1092
D:\Hummingbird\HBird-workspace\pico_test_1\Debug/../src/start.S:59
	la a1, _ebss
    40a6:	ffffd597          	auipc	a1,0xffffd
    40aa:	2d658593          	addi	a1,a1,726 # 137c <_ebss>
D:\Hummingbird\HBird-workspace\pico_test_1\Debug/../src/start.S:60
	bge a0, a1, end_init_bss
    40ae:	00b55763          	ble	a1,a0,40bc <end_init_bss>

000040b2 <loop_init_bss>:
loop_init_bss():
D:\Hummingbird\HBird-workspace\pico_test_1\Debug/../src/start.S:62
loop_init_bss:
	sw zero, 0(a0)
    40b2:	00052023          	sw	zero,0(a0)
D:\Hummingbird\HBird-workspace\pico_test_1\Debug/../src/start.S:63
	addi a0, a0, 4
    40b6:	0511                	addi	a0,a0,4
D:\Hummingbird\HBird-workspace\pico_test_1\Debug/../src/start.S:64
	blt a0, a1, loop_init_bss
    40b8:	feb54de3          	blt	a0,a1,40b2 <loop_init_bss>

000040bc <end_init_bss>:
end_init_bss():
D:\Hummingbird\HBird-workspace\pico_test_1\Debug/../src/start.S:69
end_init_bss:


	/* jump to main C code */
	jal ra,main
    40bc:	3c5010ef          	jal	ra,5c80 <main>
D:\Hummingbird\HBird-workspace\pico_test_1\Debug/../src/start.S:72

1:
	j 1b
    40c0:	a001                	j	40c0 <end_init_bss+0x4>
D:\Hummingbird\HBird-workspace\pico_test_1\Debug/../src/start.S:75

	/* trap */
	ebreak
    40c2:	9002                	ebreak

000040c4 <CursorJump>:
CursorJump():
D:\Hummingbird\HBird-workspace\pico_test_1\Debug/../src/Tetris.c:52

//光标跳转
void CursorJump(int x, int y)
{
	 //定义光标位置的结构体变量
	pos.X = x; //横坐标设置
    40c4:	6785                	lui	a5,0x1
    40c6:	35878793          	addi	a5,a5,856 # 1358 <pos>
    40ca:	00a79023          	sh	a0,0(a5)
D:\Hummingbird\HBird-workspace\pico_test_1\Debug/../src/Tetris.c:53
	pos.Y = y; //纵坐标设置
    40ce:	00b79123          	sh	a1,2(a5)
D:\Hummingbird\HBird-workspace\pico_test_1\Debug/../src/Tetris.c:54
}
    40d2:	8082                	ret

000040d4 <InitInterface>:
InitInterface():
D:\Hummingbird\HBird-workspace\pico_test_1\Debug/../src/Tetris.c:57
//初始化界面
void InitInterface()
{
    40d4:	7179                	addi	sp,sp,-48
D:\Hummingbird\HBird-workspace\pico_test_1\Debug/../src/Tetris.c:58
	hdmi_draw_clear(255);
    40d6:	0ff00513          	li	a0,255
D:\Hummingbird\HBird-workspace\pico_test_1\Debug/../src/Tetris.c:57
{
    40da:	ce4e                	sw	s3,28(sp)
    40dc:	d606                	sw	ra,44(sp)
    40de:	d422                	sw	s0,40(sp)
    40e0:	d226                	sw	s1,36(sp)
    40e2:	d04a                	sw	s2,32(sp)
    40e4:	cc52                	sw	s4,24(sp)
    40e6:	ca56                	sw	s5,20(sp)
    40e8:	c85a                	sw	s6,16(sp)
    40ea:	c65e                	sw	s7,12(sp)
D:\Hummingbird\HBird-workspace\pico_test_1\Debug/../src/Tetris.c:58
	hdmi_draw_clear(255);
    40ec:	412010ef          	jal	ra,54fe <hdmi_draw_clear>
D:\Hummingbird\HBird-workspace\pico_test_1\Debug/../src/Tetris.c:63
	for (int i = 0; i < ROW; i++)
	{
		for (int j = 0; j < COL + 10; j++)
		{
			if (j == 0 || j == COL - 1 || j == COL + 9)
    40f0:	200805b7          	lui	a1,0x20080
    40f4:	60400993          	li	s3,1540
D:\Hummingbird\HBird-workspace\pico_test_1\Debug/../src/Tetris.c:58
	hdmi_draw_clear(255);
    40f8:	60400313          	li	t1,1540
D:\Hummingbird\HBird-workspace\pico_test_1\Debug/../src/Tetris.c:59
	for (int i = 0; i < ROW; i++)
    40fc:	4601                	li	a2,0
D:\Hummingbird\HBird-workspace\pico_test_1\Debug/../src/Tetris.c:58
	hdmi_draw_clear(255);
    40fe:	60400893          	li	a7,1540
D:\Hummingbird\HBird-workspace\pico_test_1\Debug/../src/Tetris.c:63
			if (j == 0 || j == COL - 1 || j == COL + 9)
    4102:	0585                	addi	a1,a1,1
D:\Hummingbird\HBird-workspace\pico_test_1\Debug/../src/Tetris.c:61
		for (int j = 0; j < COL + 10; j++)
    4104:	4579                	li	a0,30
D:\Hummingbird\HBird-workspace\pico_test_1\Debug/../src/Tetris.c:67
			{
				face.data[i][j] = 1; //标记该位置有方块
			}
			else if (i == ROW - 1)
    4106:	4871                	li	a6,28
D:\Hummingbird\HBird-workspace\pico_test_1\Debug/../src/Tetris.c:69
			{
				face.data[i][j] = 1; //标记该位置有方块
    4108:	4e05                	li	t3,1
D:\Hummingbird\HBird-workspace\pico_test_1\Debug/../src/Tetris.c:59
	for (int i = 0; i < ROW; i++)
    410a:	4ef5                	li	t4,29
D:\Hummingbird\HBird-workspace\pico_test_1\Debug/../src/Tetris.c:57
{
    410c:	86c6                	mv	a3,a7
D:\Hummingbird\HBird-workspace\pico_test_1\Debug/../src/Tetris.c:61
		for (int j = 0; j < COL + 10; j++)
    410e:	4781                	li	a5,0
    4110:	a809                	j	4122 <InitInterface+0x4e>
D:\Hummingbird\HBird-workspace\pico_test_1\Debug/../src/Tetris.c:67
			else if (i == ROW - 1)
    4112:	0f060b63          	beq	a2,a6,4208 <InitInterface+0x134>
D:\Hummingbird\HBird-workspace\pico_test_1\Debug/../src/Tetris.c:72
			}
			else
				face.data[i][j] = 0; //标记该位置无方块
    4116:	00068023          	sb	zero,0(a3)
D:\Hummingbird\HBird-workspace\pico_test_1\Debug/../src/Tetris.c:61
		for (int j = 0; j < COL + 10; j++)
    411a:	0785                	addi	a5,a5,1
    411c:	0685                	addi	a3,a3,1
    411e:	00a78c63          	beq	a5,a0,4136 <InitInterface+0x62>
D:\Hummingbird\HBird-workspace\pico_test_1\Debug/../src/Tetris.c:63
			if (j == 0 || j == COL - 1 || j == COL + 9)
    4122:	00f5d733          	srl	a4,a1,a5
    4126:	8b05                	andi	a4,a4,1
    4128:	d76d                	beqz	a4,4112 <InitInterface+0x3e>
D:\Hummingbird\HBird-workspace\pico_test_1\Debug/../src/Tetris.c:65
				face.data[i][j] = 1; //标记该位置有方块
    412a:	01c68023          	sb	t3,0(a3)
D:\Hummingbird\HBird-workspace\pico_test_1\Debug/../src/Tetris.c:61
		for (int j = 0; j < COL + 10; j++)
    412e:	0785                	addi	a5,a5,1
    4130:	0685                	addi	a3,a3,1
    4132:	fea798e3          	bne	a5,a0,4122 <InitInterface+0x4e>
D:\Hummingbird\HBird-workspace\pico_test_1\Debug/../src/Tetris.c:59 (discriminator 2)
	for (int i = 0; i < ROW; i++)
    4136:	0605                	addi	a2,a2,1
    4138:	08f9                	addi	a7,a7,30
    413a:	fdd619e3          	bne	a2,t4,410c <InitInterface+0x38>
    413e:	10430793          	addi	a5,t1,260
    4142:	10e98693          	addi	a3,s3,270
D:\Hummingbird\HBird-workspace\pico_test_1\Debug/../src/Tetris.c:77
		}
	}
	for (int i = COL; i < COL + 10; i++)
	{
		face.data[8][i] = 1; //标记该位置有方块
    4146:	4705                	li	a4,1
D:\Hummingbird\HBird-workspace\pico_test_1\Debug/../src/Tetris.c:77 (discriminator 3)
    4148:	00e78023          	sb	a4,0(a5)
    414c:	0785                	addi	a5,a5,1
D:\Hummingbird\HBird-workspace\pico_test_1\Debug/../src/Tetris.c:75 (discriminator 3)
	for (int i = COL; i < COL + 10; i++)
    414e:	fed79de3          	bne	a5,a3,4148 <InitInterface+0x74>
    4152:	4901                	li	s2,0
D:\Hummingbird\HBird-workspace\pico_test_1\Debug/../src/Tetris.c:83
	}
	//上色
	for (int i = 0; i < ROW; i++)
		{
			for (int j = 0; j < COL + 10; j++){
				if(face.data[i][j] == 1){
    4154:	4a85                	li	s5,1
D:\Hummingbird\HBird-workspace\pico_test_1\Debug/../src/Tetris.c:82
			for (int j = 0; j < COL + 10; j++){
    4156:	0f000a13          	li	s4,240
D:\Hummingbird\HBird-workspace\pico_test_1\Debug/../src/Tetris.c:80
	for (int i = 0; i < ROW; i++)
    415a:	0e800b93          	li	s7,232
    415e:	00190b13          	addi	s6,s2,1
    4162:	0b42                	slli	s6,s6,0x10
    4164:	010b5b13          	srli	s6,s6,0x10
D:\Hummingbird\HBird-workspace\pico_test_1\Debug/../src/Tetris.c:59
	for (int i = 0; i < ROW; i++)
    4168:	84ce                	mv	s1,s3
    416a:	4401                	li	s0,0
    416c:	a809                	j	417e <InitInterface+0xaa>
    416e:	0421                	addi	s0,s0,8
    4170:	0442                	slli	s0,s0,0x10
    4172:	8041                	srli	s0,s0,0x10
D:\Hummingbird\HBird-workspace\pico_test_1\Debug/../src/Tetris.c:88
					hdmi_draw_square_vertical(j*8,i*8,8,255);
					hdmi_draw_square_vertical(j*8+1,i*8+1,6,0);
				}
				else{
					hdmi_draw_square_vertical(j*8,i*8,8,255);
    4174:	4e0010ef          	jal	ra,5654 <hdmi_draw_square_vertical>
    4178:	0485                	addi	s1,s1,1
D:\Hummingbird\HBird-workspace\pico_test_1\Debug/../src/Tetris.c:82
			for (int j = 0; j < COL + 10; j++){
    417a:	03440c63          	beq	s0,s4,41b2 <InitInterface+0xde>
D:\Hummingbird\HBird-workspace\pico_test_1\Debug/../src/Tetris.c:83
				if(face.data[i][j] == 1){
    417e:	0004c783          	lbu	a5,0(s1)
D:\Hummingbird\HBird-workspace\pico_test_1\Debug/../src/Tetris.c:88
					hdmi_draw_square_vertical(j*8,i*8,8,255);
    4182:	8522                	mv	a0,s0
    4184:	0ff00693          	li	a3,255
    4188:	4621                	li	a2,8
    418a:	85ca                	mv	a1,s2
D:\Hummingbird\HBird-workspace\pico_test_1\Debug/../src/Tetris.c:83
				if(face.data[i][j] == 1){
    418c:	ff5791e3          	bne	a5,s5,416e <InitInterface+0x9a>
D:\Hummingbird\HBird-workspace\pico_test_1\Debug/../src/Tetris.c:84
					hdmi_draw_square_vertical(j*8,i*8,8,255);
    4190:	4c4010ef          	jal	ra,5654 <hdmi_draw_square_vertical>
D:\Hummingbird\HBird-workspace\pico_test_1\Debug/../src/Tetris.c:85
					hdmi_draw_square_vertical(j*8+1,i*8+1,6,0);
    4194:	00140513          	addi	a0,s0,1
    4198:	0421                	addi	s0,s0,8
    419a:	0542                	slli	a0,a0,0x10
    419c:	0442                	slli	s0,s0,0x10
    419e:	4681                	li	a3,0
    41a0:	4619                	li	a2,6
    41a2:	85da                	mv	a1,s6
    41a4:	8141                	srli	a0,a0,0x10
    41a6:	8041                	srli	s0,s0,0x10
    41a8:	4ac010ef          	jal	ra,5654 <hdmi_draw_square_vertical>
    41ac:	0485                	addi	s1,s1,1
D:\Hummingbird\HBird-workspace\pico_test_1\Debug/../src/Tetris.c:82
			for (int j = 0; j < COL + 10; j++){
    41ae:	fd4418e3          	bne	s0,s4,417e <InitInterface+0xaa>
    41b2:	0921                	addi	s2,s2,8
    41b4:	0942                	slli	s2,s2,0x10
    41b6:	01095913          	srli	s2,s2,0x10
    41ba:	09f9                	addi	s3,s3,30
D:\Hummingbird\HBird-workspace\pico_test_1\Debug/../src/Tetris.c:80 (discriminator 2)
	for (int i = 0; i < ROW; i++)
    41bc:	fb7911e3          	bne	s2,s7,415e <InitInterface+0x8a>
D:\Hummingbird\HBird-workspace\pico_test_1\Debug/../src/Tetris.c:92
				}
			}
		}
	hdmi_draw_string_back_verticlal((COL + 1)*8,160,"SCORE:",0,255);
    41c0:	00008637          	lui	a2,0x8
    41c4:	0ff00713          	li	a4,255
    41c8:	4681                	li	a3,0
    41ca:	b2860613          	addi	a2,a2,-1240 # 7b28 <rand+0x5c>
    41ce:	0a000593          	li	a1,160
    41d2:	0a800513          	li	a0,168
    41d6:	2b4010ef          	jal	ra,548a <hdmi_draw_string_back_verticlal>
D:\Hummingbird\HBird-workspace\pico_test_1\Debug/../src/Tetris.c:93
	hdmi_draw_num_back_vertical((COL + 1)*8,180,grade,3,0,255);
    41da:	6785                	lui	a5,0x1
D:\Hummingbird\HBird-workspace\pico_test_1\Debug/../src/Tetris.c:95
//功能区打印东西
}
    41dc:	5422                	lw	s0,40(sp)
D:\Hummingbird\HBird-workspace\pico_test_1\Debug/../src/Tetris.c:93
	hdmi_draw_num_back_vertical((COL + 1)*8,180,grade,3,0,255);
    41de:	3507d603          	lhu	a2,848(a5) # 1350 <grade>
D:\Hummingbird\HBird-workspace\pico_test_1\Debug/../src/Tetris.c:95
}
    41e2:	50b2                	lw	ra,44(sp)
    41e4:	5492                	lw	s1,36(sp)
    41e6:	5902                	lw	s2,32(sp)
    41e8:	49f2                	lw	s3,28(sp)
    41ea:	4a62                	lw	s4,24(sp)
    41ec:	4ad2                	lw	s5,20(sp)
    41ee:	4b42                	lw	s6,16(sp)
    41f0:	4bb2                	lw	s7,12(sp)
D:\Hummingbird\HBird-workspace\pico_test_1\Debug/../src/Tetris.c:93
	hdmi_draw_num_back_vertical((COL + 1)*8,180,grade,3,0,255);
    41f2:	0ff00793          	li	a5,255
    41f6:	4701                	li	a4,0
    41f8:	468d                	li	a3,3
    41fa:	0b400593          	li	a1,180
    41fe:	0a800513          	li	a0,168
D:\Hummingbird\HBird-workspace\pico_test_1\Debug/../src/Tetris.c:95
}
    4202:	6145                	addi	sp,sp,48
D:\Hummingbird\HBird-workspace\pico_test_1\Debug/../src/Tetris.c:93
	hdmi_draw_num_back_vertical((COL + 1)*8,180,grade,3,0,255);
    4204:	3860106f          	j	558a <hdmi_draw_num_back_vertical>
D:\Hummingbird\HBird-workspace\pico_test_1\Debug/../src/Tetris.c:69
				face.data[i][j] = 1; //标记该位置有方块
    4208:	00f30733          	add	a4,t1,a5
    420c:	35c70423          	sb	t3,840(a4)
D:\Hummingbird\HBird-workspace\pico_test_1\Debug/../src/Tetris.c:61
		for (int j = 0; j < COL + 10; j++)
    4210:	0785                	addi	a5,a5,1
    4212:	0685                	addi	a3,a3,1
    4214:	f0a797e3          	bne	a5,a0,4122 <InitInterface+0x4e>
    4218:	b71d                	j	413e <InitInterface+0x6a>

0000421a <InitBlockInfo>:
InitBlockInfo():
D:\Hummingbird\HBird-workspace\pico_test_1\Debug/../src/Tetris.c:101

void InitBlockInfo()
{
	//“T”形
	for (int i = 0; i <= 2; i++)
		block[0][0].space[1][i] = 1;
    421a:	44400793          	li	a5,1092
    421e:	4705                	li	a4,1
    4220:	10100693          	li	a3,257
D:\Hummingbird\HBird-workspace\pico_test_1\Debug/../src/Tetris.c:98
{
    4224:	7139                	addi	sp,sp,-64
    4226:	44400e93          	li	t4,1092
D:\Hummingbird\HBird-workspace\pico_test_1\Debug/../src/Tetris.c:101
		block[0][0].space[1][i] = 1;
    422a:	00d79223          	sh	a3,4(a5)
    422e:	00e78323          	sb	a4,6(a5)
D:\Hummingbird\HBird-workspace\pico_test_1\Debug/../src/Tetris.c:102
	block[0][0].space[2][1] = 1;
    4232:	00e784a3          	sb	a4,9(a5)
D:\Hummingbird\HBird-workspace\pico_test_1\Debug/../src/Tetris.c:106

	//“L”形
	for (int i = 1; i <= 3; i++)
		block[1][0].space[i][1] = 1;
    4236:	04e782a3          	sb	a4,69(a5)
    423a:	04e784a3          	sb	a4,73(a5)
    423e:	04e786a3          	sb	a4,77(a5)
D:\Hummingbird\HBird-workspace\pico_test_1\Debug/../src/Tetris.c:107
	block[1][0].space[3][2] = 1;
    4242:	04e78723          	sb	a4,78(a5)
D:\Hummingbird\HBird-workspace\pico_test_1\Debug/../src/Tetris.c:111

	//“J”形
	for (int i = 1; i <= 3; i++)
		block[2][0].space[i][2] = 1;
    4246:	08e78323          	sb	a4,134(a5)
    424a:	08e78523          	sb	a4,138(a5)
    424e:	08e78723          	sb	a4,142(a5)
D:\Hummingbird\HBird-workspace\pico_test_1\Debug/../src/Tetris.c:112
	block[2][0].space[3][1] = 1;
    4252:	08e786a3          	sb	a4,141(a5)
D:\Hummingbird\HBird-workspace\pico_test_1\Debug/../src/Tetris.c:118

	for (int i = 0; i <= 1; i++)
	{
		//“Z”形
		block[3][0].space[1][i] = 1;
		block[3][0].space[2][i + 1] = 1;
    4256:	0ce784a3          	sb	a4,201(a5)
D:\Hummingbird\HBird-workspace\pico_test_1\Debug/../src/Tetris.c:120
		//“S”形
		block[4][0].space[1][i + 1] = 1;
    425a:	10e782a3          	sb	a4,261(a5)
D:\Hummingbird\HBird-workspace\pico_test_1\Debug/../src/Tetris.c:123
		block[4][0].space[2][i] = 1;
		//“O”形
		block[5][0].space[1][i + 1] = 1;
    425e:	14e782a3          	sb	a4,325(a5)
D:\Hummingbird\HBird-workspace\pico_test_1\Debug/../src/Tetris.c:124
		block[5][0].space[2][i + 1] = 1;
    4262:	14e784a3          	sb	a4,329(a5)
D:\Hummingbird\HBird-workspace\pico_test_1\Debug/../src/Tetris.c:117
		block[3][0].space[1][i] = 1;
    4266:	0cd79223          	sh	a3,196(a5)
D:\Hummingbird\HBird-workspace\pico_test_1\Debug/../src/Tetris.c:118
		block[3][0].space[2][i + 1] = 1;
    426a:	0ce78523          	sb	a4,202(a5)
D:\Hummingbird\HBird-workspace\pico_test_1\Debug/../src/Tetris.c:120
		block[4][0].space[1][i + 1] = 1;
    426e:	10e78323          	sb	a4,262(a5)
D:\Hummingbird\HBird-workspace\pico_test_1\Debug/../src/Tetris.c:121
		block[4][0].space[2][i] = 1;
    4272:	10d79423          	sh	a3,264(a5)
D:\Hummingbird\HBird-workspace\pico_test_1\Debug/../src/Tetris.c:123
		block[5][0].space[1][i + 1] = 1;
    4276:	14e78323          	sb	a4,326(a5)
D:\Hummingbird\HBird-workspace\pico_test_1\Debug/../src/Tetris.c:124
		block[5][0].space[2][i + 1] = 1;
    427a:	14e78523          	sb	a4,330(a5)
D:\Hummingbird\HBird-workspace\pico_test_1\Debug/../src/Tetris.c:129
	}

	//“I”形
	for (int i = 0; i <= 3; i++)
		block[6][0].space[i][1] = 1;
    427e:	18e780a3          	sb	a4,385(a5)
    4282:	18e782a3          	sb	a4,389(a5)
    4286:	18e784a3          	sb	a4,393(a5)
    428a:	18e786a3          	sb	a4,397(a5)
    428e:	1c0e8f93          	addi	t6,t4,448
    4292:	04010e13          	addi	t3,sp,64
    4296:	01010313          	addi	t1,sp,16
    429a:	030e8f13          	addi	t5,t4,48
D:\Hummingbird\HBird-workspace\pico_test_1\Debug/../src/Tetris.c:137
	for (int shape = 0; shape < 7; shape++) //7种形状
	{
		for (int form = 0; form < 3; form++) //4种形态（已经有了一种，这里每个还需增加3种）
		{
			//获取第form种形态
			for (int i = 0; i < 4; i++)
    429e:	88f6                	mv	a7,t4
    42a0:	870a                	mv	a4,sp
D:\Hummingbird\HBird-workspace\pico_test_1\Debug/../src/Tetris.c:98
{
    42a2:	878a                	mv	a5,sp
    42a4:	86c6                	mv	a3,a7
D:\Hummingbird\HBird-workspace\pico_test_1\Debug/../src/Tetris.c:141
			{
				for (int j = 0; j < 4; j++)
				{
					temp[i][j] = block[shape][form].space[i][j];
    42a6:	0006c803          	lbu	a6,0(a3)
    42aa:	0016c503          	lbu	a0,1(a3)
    42ae:	0026c583          	lbu	a1,2(a3)
    42b2:	0036c603          	lbu	a2,3(a3)
    42b6:	0107a023          	sw	a6,0(a5)
    42ba:	c3c8                	sw	a0,4(a5)
    42bc:	c78c                	sw	a1,8(a5)
    42be:	c7d0                	sw	a2,12(a5)
    42c0:	07c1                	addi	a5,a5,16
    42c2:	0691                	addi	a3,a3,4
D:\Hummingbird\HBird-workspace\pico_test_1\Debug/../src/Tetris.c:137
			for (int i = 0; i < 4; i++)
    42c4:	ffc791e3          	bne	a5,t3,42a6 <InitBlockInfo+0x8c>
    42c8:	08c1                	addi	a7,a7,16
    42ca:	87c6                	mv	a5,a7
D:\Hummingbird\HBird-workspace\pico_test_1\Debug/../src/Tetris.c:149
			//将第form种形态顺时针旋转，得到第form+1种形态
			for (int i = 0; i < 4; i++)
			{
				for (int j = 0; j < 4; j++)
				{
					block[shape][form + 1].space[i][j] = temp[3 - j][i];
    42cc:	5b08                	lw	a0,48(a4)
    42ce:	530c                	lw	a1,32(a4)
    42d0:	4b10                	lw	a2,16(a4)
    42d2:	4314                	lw	a3,0(a4)
    42d4:	00a78023          	sb	a0,0(a5)
    42d8:	00b780a3          	sb	a1,1(a5)
    42dc:	00c78123          	sb	a2,2(a5)
    42e0:	00d781a3          	sb	a3,3(a5)
    42e4:	0711                	addi	a4,a4,4
    42e6:	0791                	addi	a5,a5,4
D:\Hummingbird\HBird-workspace\pico_test_1\Debug/../src/Tetris.c:145
			for (int i = 0; i < 4; i++)
    42e8:	fee312e3          	bne	t1,a4,42cc <InitBlockInfo+0xb2>
D:\Hummingbird\HBird-workspace\pico_test_1\Debug/../src/Tetris.c:134 (discriminator 2)
		for (int form = 0; form < 3; form++) //4种形态（已经有了一种，这里每个还需增加3种）
    42ec:	fbe89ae3          	bne	a7,t5,42a0 <InitBlockInfo+0x86>
    42f0:	040e8e93          	addi	t4,t4,64
D:\Hummingbird\HBird-workspace\pico_test_1\Debug/../src/Tetris.c:132 (discriminator 2)
	for (int shape = 0; shape < 7; shape++) //7种形状
    42f4:	fbfe93e3          	bne	t4,t6,429a <InitBlockInfo+0x80>
D:\Hummingbird\HBird-workspace\pico_test_1\Debug/../src/Tetris.c:154
				}
			}
		}
	}
}
    42f8:	6121                	addi	sp,sp,64
    42fa:	8082                	ret

000042fc <color>:
color():
D:\Hummingbird\HBird-workspace\pico_test_1\Debug/../src/Tetris.c:183
		c = 7; //其他默认设置为白色
		break;
	}
//		SetConsoleTextAttribute(GetStdHandle(STD_OUTPUT_HANDLE), c); //颜色设置
		//注：SetConsoleTextAttribute是一个API（应用程序编程接口）
}
    42fc:	8082                	ret

000042fe <DrawBlock>:
DrawBlock():
D:\Hummingbird\HBird-workspace\pico_test_1\Debug/../src/Tetris.c:185
void DrawBlock(int shape, int form, int x, int y)
{
    42fe:	7179                	addi	sp,sp,-48
    4300:	d04a                	sw	s2,32(sp)
    4302:	01069913          	slli	s2,a3,0x10
    4306:	01095913          	srli	s2,s2,0x10
    430a:	050a                	slli	a0,a0,0x2
    430c:	ce4e                	sw	s3,28(sp)
    430e:	cc52                	sw	s4,24(sp)
    4310:	c266                	sw	s9,4(sp)
    4312:	95aa                	add	a1,a1,a0
    4314:	00391993          	slli	s3,s2,0x3
    4318:	00490a13          	addi	s4,s2,4
    431c:	c65e                	sw	s7,12(sp)
    431e:	0592                	slli	a1,a1,0x4
    4320:	44400c93          	li	s9,1092
    4324:	09c2                	slli	s3,s3,0x10
    4326:	0a42                	slli	s4,s4,0x10
CursorJump():
D:\Hummingbird\HBird-workspace\pico_test_1\Debug/../src/Tetris.c:52
	pos.X = x; //横坐标设置
    4328:	6b85                	lui	s7,0x1
DrawBlock():
D:\Hummingbird\HBird-workspace\pico_test_1\Debug/../src/Tetris.c:185
{
    432a:	ca56                	sw	s5,20(sp)
    432c:	c85a                	sw	s6,16(sp)
    432e:	c462                	sw	s8,8(sp)
    4330:	d606                	sw	ra,44(sp)
    4332:	d422                	sw	s0,40(sp)
    4334:	d226                	sw	s1,36(sp)
    4336:	8ab2                	mv	s5,a2
    4338:	9cae                	add	s9,s9,a1
    433a:	0109d993          	srli	s3,s3,0x10
    433e:	010a5a13          	srli	s4,s4,0x10
D:\Hummingbird\HBird-workspace\pico_test_1\Debug/../src/Tetris.c:190
	for (int i = 0; i < 4; i++)
	{
		for (int j = 0; j < 4; j++)
		{
			if (block[shape][form].space[i][j] == 1) //如果该位置有方块
    4342:	4c05                	li	s8,1
CursorJump():
D:\Hummingbird\HBird-workspace\pico_test_1\Debug/../src/Tetris.c:52
	pos.X = x; //横坐标设置
    4344:	358b8b93          	addi	s7,s7,856 # 1358 <pos>
DrawBlock():
D:\Hummingbird\HBird-workspace\pico_test_1\Debug/../src/Tetris.c:188
		for (int j = 0; j < 4; j++)
    4348:	4b11                	li	s6,4
D:\Hummingbird\HBird-workspace\pico_test_1\Debug/../src/Tetris.c:185
{
    434a:	84e6                	mv	s1,s9
D:\Hummingbird\HBird-workspace\pico_test_1\Debug/../src/Tetris.c:188
		for (int j = 0; j < 4; j++)
    434c:	4401                	li	s0,0
D:\Hummingbird\HBird-workspace\pico_test_1\Debug/../src/Tetris.c:190
			if (block[shape][form].space[i][j] == 1) //如果该位置有方块
    434e:	0004c783          	lbu	a5,0(s1)
    4352:	0485                	addi	s1,s1,1
    4354:	03878d63          	beq	a5,s8,438e <DrawBlock+0x90>
D:\Hummingbird\HBird-workspace\pico_test_1\Debug/../src/Tetris.c:188 (discriminator 2)
		for (int j = 0; j < 4; j++)
    4358:	0405                	addi	s0,s0,1
    435a:	ff641ae3          	bne	s0,s6,434e <DrawBlock+0x50>
    435e:	0905                	addi	s2,s2,1
    4360:	09a1                	addi	s3,s3,8
    4362:	0942                	slli	s2,s2,0x10
    4364:	09c2                	slli	s3,s3,0x10
    4366:	01095913          	srli	s2,s2,0x10
    436a:	0c91                	addi	s9,s9,4
    436c:	0109d993          	srli	s3,s3,0x10
D:\Hummingbird\HBird-workspace\pico_test_1\Debug/../src/Tetris.c:186 (discriminator 2)
	for (int i = 0; i < 4; i++)
    4370:	fd491de3          	bne	s2,s4,434a <DrawBlock+0x4c>
D:\Hummingbird\HBird-workspace\pico_test_1\Debug/../src/Tetris.c:199
				hdmi_draw_square_vertical(8*pos.X+1,8*pos.Y+1,6,ORANGE);
//				printf("■"); //输出方块
			}
		}
	}
}
    4374:	50b2                	lw	ra,44(sp)
    4376:	5422                	lw	s0,40(sp)
    4378:	5492                	lw	s1,36(sp)
    437a:	5902                	lw	s2,32(sp)
    437c:	49f2                	lw	s3,28(sp)
    437e:	4a62                	lw	s4,24(sp)
    4380:	4ad2                	lw	s5,20(sp)
    4382:	4b42                	lw	s6,16(sp)
    4384:	4bb2                	lw	s7,12(sp)
    4386:	4c22                	lw	s8,8(sp)
    4388:	4c92                	lw	s9,4(sp)
    438a:	6145                	addi	sp,sp,48
    438c:	8082                	ret
    438e:	008a87b3          	add	a5,s5,s0
    4392:	07c2                	slli	a5,a5,0x10
    4394:	83c1                	srli	a5,a5,0x10
D:\Hummingbird\HBird-workspace\pico_test_1\Debug/../src/Tetris.c:193
				hdmi_draw_square_vertical(8*pos.X,8*pos.Y,8,0);
    4396:	00379513          	slli	a0,a5,0x3
    439a:	0542                	slli	a0,a0,0x10
    439c:	85ce                	mv	a1,s3
    439e:	8141                	srli	a0,a0,0x10
    43a0:	4681                	li	a3,0
    43a2:	4621                	li	a2,8
CursorJump():
D:\Hummingbird\HBird-workspace\pico_test_1\Debug/../src/Tetris.c:52
	pos.X = x; //横坐标设置
    43a4:	00fb9023          	sh	a5,0(s7)
D:\Hummingbird\HBird-workspace\pico_test_1\Debug/../src/Tetris.c:53
	pos.Y = y; //纵坐标设置
    43a8:	012b9123          	sh	s2,2(s7)
DrawBlock():
D:\Hummingbird\HBird-workspace\pico_test_1\Debug/../src/Tetris.c:193
				hdmi_draw_square_vertical(8*pos.X,8*pos.Y,8,0);
    43ac:	2a8010ef          	jal	ra,5654 <hdmi_draw_square_vertical>
D:\Hummingbird\HBird-workspace\pico_test_1\Debug/../src/Tetris.c:194
				hdmi_draw_square_vertical(8*pos.X+1,8*pos.Y+1,6,ORANGE);
    43b0:	002bd583          	lhu	a1,2(s7)
    43b4:	000bd503          	lhu	a0,0(s7)
    43b8:	06500693          	li	a3,101
    43bc:	058e                	slli	a1,a1,0x3
    43be:	050e                	slli	a0,a0,0x3
    43c0:	0585                	addi	a1,a1,1
    43c2:	0505                	addi	a0,a0,1
    43c4:	05c2                	slli	a1,a1,0x10
    43c6:	0542                	slli	a0,a0,0x10
    43c8:	4619                	li	a2,6
    43ca:	81c1                	srli	a1,a1,0x10
    43cc:	8141                	srli	a0,a0,0x10
    43ce:	286010ef          	jal	ra,5654 <hdmi_draw_square_vertical>
    43d2:	b759                	j	4358 <DrawBlock+0x5a>

000043d4 <DrawSpace>:
DrawSpace():
D:\Hummingbird\HBird-workspace\pico_test_1\Debug/../src/Tetris.c:201
void DrawSpace(int shape, int form, int x, int y)
{
    43d4:	06c2                	slli	a3,a3,0x10
    43d6:	7179                	addi	sp,sp,-48
    43d8:	82c1                	srli	a3,a3,0x10
    43da:	c85a                	sw	s6,16(sp)
    43dc:	050a                	slli	a0,a0,0x2
    43de:	00468b13          	addi	s6,a3,4
    43e2:	c65e                	sw	s7,12(sp)
    43e4:	95aa                	add	a1,a1,a0
    43e6:	068e                	slli	a3,a3,0x3
    43e8:	0b0e                	slli	s6,s6,0x3
    43ea:	d04a                	sw	s2,32(sp)
    43ec:	0592                	slli	a1,a1,0x4
    43ee:	44400b93          	li	s7,1092
    43f2:	01069913          	slli	s2,a3,0x10
    43f6:	0b42                	slli	s6,s6,0x10
    43f8:	ce4e                	sw	s3,28(sp)
    43fa:	cc52                	sw	s4,24(sp)
    43fc:	ca56                	sw	s5,20(sp)
    43fe:	d606                	sw	ra,44(sp)
    4400:	d422                	sw	s0,40(sp)
    4402:	d226                	sw	s1,36(sp)
    4404:	8ab2                	mv	s5,a2
    4406:	9bae                	add	s7,s7,a1
    4408:	01095913          	srli	s2,s2,0x10
    440c:	010b5b13          	srli	s6,s6,0x10
D:\Hummingbird\HBird-workspace\pico_test_1\Debug/../src/Tetris.c:206
	for (int i = 0; i < 4; i++)
	{
		for (int j = 0; j < 4; j++)
		{
			if (block[shape][form].space[i][j] == 1) //如果该位置有方块
    4410:	4a05                	li	s4,1
D:\Hummingbird\HBird-workspace\pico_test_1\Debug/../src/Tetris.c:204
		for (int j = 0; j < 4; j++)
    4412:	4991                	li	s3,4
D:\Hummingbird\HBird-workspace\pico_test_1\Debug/../src/Tetris.c:201
{
    4414:	84de                	mv	s1,s7
D:\Hummingbird\HBird-workspace\pico_test_1\Debug/../src/Tetris.c:204
		for (int j = 0; j < 4; j++)
    4416:	4401                	li	s0,0
D:\Hummingbird\HBird-workspace\pico_test_1\Debug/../src/Tetris.c:206
			if (block[shape][form].space[i][j] == 1) //如果该位置有方块
    4418:	0004c783          	lbu	a5,0(s1)
    441c:	0485                	addi	s1,s1,1
    441e:	03478763          	beq	a5,s4,444c <DrawSpace+0x78>
D:\Hummingbird\HBird-workspace\pico_test_1\Debug/../src/Tetris.c:204 (discriminator 2)
		for (int j = 0; j < 4; j++)
    4422:	0405                	addi	s0,s0,1
    4424:	ff341ae3          	bne	s0,s3,4418 <DrawSpace+0x44>
    4428:	0921                	addi	s2,s2,8
    442a:	0942                	slli	s2,s2,0x10
    442c:	01095913          	srli	s2,s2,0x10
    4430:	0b91                	addi	s7,s7,4
D:\Hummingbird\HBird-workspace\pico_test_1\Debug/../src/Tetris.c:202 (discriminator 2)
	for (int i = 0; i < 4; i++)
    4432:	ff6911e3          	bne	s2,s6,4414 <DrawSpace+0x40>
D:\Hummingbird\HBird-workspace\pico_test_1\Debug/../src/Tetris.c:212
			{
				hdmi_draw_square_vertical(8*(x +j),8*(y+i),8,255);
			}
		}
	}
}
    4436:	50b2                	lw	ra,44(sp)
    4438:	5422                	lw	s0,40(sp)
    443a:	5492                	lw	s1,36(sp)
    443c:	5902                	lw	s2,32(sp)
    443e:	49f2                	lw	s3,28(sp)
    4440:	4a62                	lw	s4,24(sp)
    4442:	4ad2                	lw	s5,20(sp)
    4444:	4b42                	lw	s6,16(sp)
    4446:	4bb2                	lw	s7,12(sp)
    4448:	6145                	addi	sp,sp,48
    444a:	8082                	ret
D:\Hummingbird\HBird-workspace\pico_test_1\Debug/../src/Tetris.c:208
				hdmi_draw_square_vertical(8*(x +j),8*(y+i),8,255);
    444c:	008a8533          	add	a0,s5,s0
    4450:	050e                	slli	a0,a0,0x3
    4452:	0542                	slli	a0,a0,0x10
    4454:	8141                	srli	a0,a0,0x10
    4456:	0ff00693          	li	a3,255
    445a:	4621                	li	a2,8
    445c:	85ca                	mv	a1,s2
    445e:	1f6010ef          	jal	ra,5654 <hdmi_draw_square_vertical>
    4462:	b7c1                	j	4422 <DrawSpace+0x4e>

00004464 <IsLegal>:
IsLegal():
D:\Hummingbird\HBird-workspace\pico_test_1\Debug/../src/Tetris.c:214
int IsLegal(int shape, int form, int x, int y)
{
    4464:	00469793          	slli	a5,a3,0x4
    4468:	40d786b3          	sub	a3,a5,a3
    446c:	050a                	slli	a0,a0,0x2
    446e:	95aa                	add	a1,a1,a0
    4470:	0686                	slli	a3,a3,0x1
    4472:	0592                	slli	a1,a1,0x4
    4474:	9636                	add	a2,a2,a3
    4476:	60400793          	li	a5,1540
    447a:	44400513          	li	a0,1092
    447e:	952e                	add	a0,a0,a1
    4480:	963e                	add	a2,a2,a5
D:\Hummingbird\HBird-workspace\pico_test_1\Debug/../src/Tetris.c:215
	for (int i = 0; i < 4; i++)
    4482:	4881                	li	a7,0
D:\Hummingbird\HBird-workspace\pico_test_1\Debug/../src/Tetris.c:220
	{
		for (int j = 0; j < 4; j++)
		{
			//如果方块落下的位置本来就已经有方块了，则不合法
			if ((block[shape][form].space[i][j] == 1) && (face.data[y + i][x + j] == 1))
    4484:	4585                	li	a1,1
D:\Hummingbird\HBird-workspace\pico_test_1\Debug/../src/Tetris.c:217
		for (int j = 0; j < 4; j++)
    4486:	4811                	li	a6,4
D:\Hummingbird\HBird-workspace\pico_test_1\Debug/../src/Tetris.c:214
{
    4488:	872a                	mv	a4,a0
D:\Hummingbird\HBird-workspace\pico_test_1\Debug/../src/Tetris.c:217
		for (int j = 0; j < 4; j++)
    448a:	4781                	li	a5,0
D:\Hummingbird\HBird-workspace\pico_test_1\Debug/../src/Tetris.c:220
			if ((block[shape][form].space[i][j] == 1) && (face.data[y + i][x + j] == 1))
    448c:	00074683          	lbu	a3,0(a4)
    4490:	0705                	addi	a4,a4,1
    4492:	00b68c63          	beq	a3,a1,44aa <IsLegal+0x46>
D:\Hummingbird\HBird-workspace\pico_test_1\Debug/../src/Tetris.c:217 (discriminator 2)
		for (int j = 0; j < 4; j++)
    4496:	0785                	addi	a5,a5,1
    4498:	ff079ae3          	bne	a5,a6,448c <IsLegal+0x28>
D:\Hummingbird\HBird-workspace\pico_test_1\Debug/../src/Tetris.c:215 (discriminator 2)
	for (int i = 0; i < 4; i++)
    449c:	0885                	addi	a7,a7,1
    449e:	0679                	addi	a2,a2,30
    44a0:	0511                	addi	a0,a0,4
    44a2:	fef893e3          	bne	a7,a5,4488 <IsLegal+0x24>
D:\Hummingbird\HBird-workspace\pico_test_1\Debug/../src/Tetris.c:224
				return 0; //不合法
		}
	}
	return 1; //合法
    44a6:	4505                	li	a0,1
D:\Hummingbird\HBird-workspace\pico_test_1\Debug/../src/Tetris.c:225
}
    44a8:	8082                	ret
D:\Hummingbird\HBird-workspace\pico_test_1\Debug/../src/Tetris.c:220 (discriminator 1)
			if ((block[shape][form].space[i][j] == 1) && (face.data[y + i][x + j] == 1))
    44aa:	00f606b3          	add	a3,a2,a5
    44ae:	0006c683          	lbu	a3,0(a3)
    44b2:	feb692e3          	bne	a3,a1,4496 <IsLegal+0x32>
D:\Hummingbird\HBird-workspace\pico_test_1\Debug/../src/Tetris.c:221
				return 0; //不合法
    44b6:	4501                	li	a0,0
    44b8:	8082                	ret

000044ba <JudeFunc>:
JudeFunc():
D:\Hummingbird\HBird-workspace\pico_test_1\Debug/../src/Tetris.c:227
int JudeFunc()
{
    44ba:	7139                	addi	sp,sp,-64
    44bc:	d84a                	sw	s2,48(sp)
    44be:	60400913          	li	s2,1540
    44c2:	c66e                	sw	s11,12(sp)
    44c4:	6d85                	lui	s11,0x1
    44c6:	dc22                	sw	s0,56(sp)
    44c8:	da26                	sw	s1,52(sp)
    44ca:	d64e                	sw	s3,44(sp)
    44cc:	d05a                	sw	s6,32(sp)
    44ce:	ce5e                	sw	s7,28(sp)
    44d0:	de06                	sw	ra,60(sp)
    44d2:	d452                	sw	s4,40(sp)
    44d4:	d256                	sw	s5,36(sp)
    44d6:	cc62                	sw	s8,24(sp)
    44d8:	ca66                	sw	s9,20(sp)
    44da:	c86a                	sw	s10,16(sp)
    44dc:	32b90b93          	addi	s7,s2,811
D:\Hummingbird\HBird-workspace\pico_test_1\Debug/../src/Tetris.c:258
				{
					sum += face.data[m - 1][n]; //统计上一行的方块个数
					face.data[m][n] = face.data[m - 1][n]; //将上一行方块的标识移到下一行
					face.color[m][n] = face.color[m - 1][n]; //将上一行方块的颜色编号移到下一行
				}
				if (sum == 0){ //上一行移下来的全是空格，无需再将上层的方块向下移动（移动结束）
    44e0:	44ed                	li	s1,27
D:\Hummingbird\HBird-workspace\pico_test_1\Debug/../src/Tetris.c:238
		if (sum == COL - 2) //该行全是方块，可得分
    44e2:	49c9                	li	s3,18
D:\Hummingbird\HBird-workspace\pico_test_1\Debug/../src/Tetris.c:240
			sound_address=0b1101111;
    44e4:	6b61                	lui	s6,0x18
    44e6:	358d8d93          	addi	s11,s11,856 # 1358 <pos>
    44ea:	00190413          	addi	s0,s2,1
    44ee:	012b8613          	addi	a2,s7,18
D:\Hummingbird\HBird-workspace\pico_test_1\Debug/../src/Tetris.c:227
{
    44f2:	87de                	mv	a5,s7
D:\Hummingbird\HBird-workspace\pico_test_1\Debug/../src/Tetris.c:231
		int sum = 0; //记录第i行的方块个数
    44f4:	4701                	li	a4,0
D:\Hummingbird\HBird-workspace\pico_test_1\Debug/../src/Tetris.c:234 (discriminator 3)
			sum += face.data[i][j]; //统计第i行的方块个数
    44f6:	0007c683          	lbu	a3,0(a5)
    44fa:	0785                	addi	a5,a5,1
    44fc:	9736                	add	a4,a4,a3
D:\Hummingbird\HBird-workspace\pico_test_1\Debug/../src/Tetris.c:232 (discriminator 3)
		for (int j = 1; j < COL - 1; j++)
    44fe:	fec79ce3          	bne	a5,a2,44f6 <JudeFunc+0x3c>
D:\Hummingbird\HBird-workspace\pico_test_1\Debug/../src/Tetris.c:236
		if (sum == 0) //该行没有方块，无需再判断其上的层次（无需再继续判断是否得分）
    4502:	cf01                	beqz	a4,451a <JudeFunc+0x60>
    4504:	fe2b8893          	addi	a7,s7,-30
D:\Hummingbird\HBird-workspace\pico_test_1\Debug/../src/Tetris.c:238
		if (sum == COL - 2) //该行全是方块，可得分
    4508:	0b370b63          	beq	a4,s3,45be <JudeFunc+0x104>
    450c:	14fd                	addi	s1,s1,-1
    450e:	04c2                	slli	s1,s1,0x10
    4510:	80c1                	srli	s1,s1,0x10
D:\Hummingbird\HBird-workspace\pico_test_1\Debug/../src/Tetris.c:229
	for (int i = ROW - 2; i > 4; i--)//>4?
    4512:	4791                	li	a5,4
    4514:	8bc6                	mv	s7,a7
    4516:	fcf49ce3          	bne	s1,a5,44ee <JudeFunc+0x34>
    451a:	01f90793          	addi	a5,s2,31
D:\Hummingbird\HBird-workspace\pico_test_1\Debug/../src/Tetris.c:279
		}
	}//循环找得分结束
	//判断游戏是否结束
	for (int j = 1; j < COL - 1; j++)
	{
		if (face.data[1][j] == 1) //顶层有方块存在（以第1行为顶层，不是第0行）
    451e:	4685                	li	a3,1
    4520:	03190913          	addi	s2,s2,49
    4524:	a019                	j	452a <JudeFunc+0x70>
D:\Hummingbird\HBird-workspace\pico_test_1\Debug/../src/Tetris.c:277 (discriminator 2)
	for (int j = 1; j < COL - 1; j++)
    4526:	1af90963          	beq	s2,a5,46d8 <JudeFunc+0x21e>
D:\Hummingbird\HBird-workspace\pico_test_1\Debug/../src/Tetris.c:279
		if (face.data[1][j] == 1) //顶层有方块存在（以第1行为顶层，不是第0行）
    452a:	0007c703          	lbu	a4,0(a5)
    452e:	0785                	addi	a5,a5,1
    4530:	fed71be3          	bne	a4,a3,4526 <JudeFunc+0x6c>
D:\Hummingbird\HBird-workspace\pico_test_1\Debug/../src/Tetris.c:281
		{
			sound_address = 0b1011111;
    4534:	67e1                	lui	a5,0x18
    4536:	05f00713          	li	a4,95
    453a:	12e7a023          	sw	a4,288(a5) # 18120 <_etext+0xf8ec>
D:\Hummingbird\HBird-workspace\pico_test_1\Debug/../src/Tetris.c:283
			rgb_address = 0b0000100;
			hdmi_draw_string_back_verticlal(20,120,"GAME OVER",RED,255);
    453e:	00008637          	lui	a2,0x8
D:\Hummingbird\HBird-workspace\pico_test_1\Debug/../src/Tetris.c:282
			rgb_address = 0b0000100;
    4542:	4711                	li	a4,4
    4544:	10e7a823          	sw	a4,272(a5)
D:\Hummingbird\HBird-workspace\pico_test_1\Debug/../src/Tetris.c:283
			hdmi_draw_string_back_verticlal(20,120,"GAME OVER",RED,255);
    4548:	06400693          	li	a3,100
    454c:	0ff00713          	li	a4,255
    4550:	b3060613          	addi	a2,a2,-1232 # 7b30 <rand+0x64>
    4554:	07800593          	li	a1,120
    4558:	4551                	li	a0,20
    455a:	6405                	lui	s0,0x1
    455c:	72f000ef          	jal	ra,548a <hdmi_draw_string_back_verticlal>
    4560:	000089b7          	lui	s3,0x8
    4564:	00008937          	lui	s2,0x8
    4568:	35c40413          	addi	s0,s0,860 # 135c <tetriskey>
D:\Hummingbird\HBird-workspace\pico_test_1\Debug/../src/Tetris.c:289
			while (1)
			{//游戏结束等待键值返回
				hdmi_draw_string_back_verticlal(20,70,"Press'B'to restart",24,255);
				hdmi_draw_string_back_verticlal(20,160,"PRESS'X'TO QUIT",PURPLE,255);
				u8 overkey = 0;
				tetriskey = *ps2ctrl_point;
    456c:	64e1                	lui	s1,0x18
D:\Hummingbird\HBird-workspace\pico_test_1\Debug/../src/Tetris.c:291
				if(tetriskey!=0)
					switch(tetriskey){
    456e:	4a09                	li	s4,2
    4570:	4a91                	li	s5,4
D:\Hummingbird\HBird-workspace\pico_test_1\Debug/../src/Tetris.c:286
				hdmi_draw_string_back_verticlal(20,70,"Press'B'to restart",24,255);
    4572:	b3c98613          	addi	a2,s3,-1220 # 7b3c <rand+0x70>
    4576:	0ff00713          	li	a4,255
    457a:	46e1                	li	a3,24
    457c:	04600593          	li	a1,70
    4580:	4551                	li	a0,20
    4582:	709000ef          	jal	ra,548a <hdmi_draw_string_back_verticlal>
D:\Hummingbird\HBird-workspace\pico_test_1\Debug/../src/Tetris.c:287
				hdmi_draw_string_back_verticlal(20,160,"PRESS'X'TO QUIT",PURPLE,255);
    4586:	0ff00713          	li	a4,255
    458a:	06900693          	li	a3,105
    458e:	b5090613          	addi	a2,s2,-1200 # 7b50 <rand+0x84>
    4592:	0a000593          	li	a1,160
    4596:	4551                	li	a0,20
    4598:	6f3000ef          	jal	ra,548a <hdmi_draw_string_back_verticlal>
D:\Hummingbird\HBird-workspace\pico_test_1\Debug/../src/Tetris.c:289
				tetriskey = *ps2ctrl_point;
    459c:	1004a783          	lw	a5,256(s1) # 18100 <_etext+0xf8cc>
    45a0:	0ff7f793          	andi	a5,a5,255
    45a4:	00f40023          	sb	a5,0(s0)
D:\Hummingbird\HBird-workspace\pico_test_1\Debug/../src/Tetris.c:290
				if(tetriskey!=0)
    45a8:	d7e9                	beqz	a5,4572 <JudeFunc+0xb8>
D:\Hummingbird\HBird-workspace\pico_test_1\Debug/../src/Tetris.c:291
					switch(tetriskey){
    45aa:	13478963          	beq	a5,s4,46dc <JudeFunc+0x222>
    45ae:	fd5792e3          	bne	a5,s5,4572 <JudeFunc+0xb8>
D:\Hummingbird\HBird-workspace\pico_test_1\Debug/../src/Tetris.c:299
					}
				if(overkey == SPACE){
					end = 2;
					return 0;
				}else if(overkey == ESC){
					end = 1;
    45b2:	6785                	lui	a5,0x1
    45b4:	4705                	li	a4,1
    45b6:	34e78623          	sb	a4,844(a5) # 134c <end>
D:\Hummingbird\HBird-workspace\pico_test_1\Debug/../src/Tetris.c:300
					return 0;
    45ba:	4501                	li	a0,0
    45bc:	a8fd                	j	46ba <JudeFunc+0x200>
D:\Hummingbird\HBird-workspace\pico_test_1\Debug/../src/Tetris.c:240
			sound_address=0b1101111;
    45be:	06f00793          	li	a5,111
    45c2:	12fb2023          	sw	a5,288(s6) # 18120 <_etext+0xf8ec>
D:\Hummingbird\HBird-workspace\pico_test_1\Debug/../src/Tetris.c:241
			grade += 10; //满一行加10分
    45c6:	6785                	lui	a5,0x1
    45c8:	35078713          	addi	a4,a5,848 # 1350 <grade>
    45cc:	431c                	lw	a5,0(a4)
D:\Hummingbird\HBird-workspace\pico_test_1\Debug/../src/Tetris.c:246
				hdmi_draw_square_vertical(8*(pos.X +j),8*(pos.Y+i),8,255);
    45ce:	00449c93          	slli	s9,s1,0x4
    45d2:	0cc2                	slli	s9,s9,0x10
D:\Hummingbird\HBird-workspace\pico_test_1\Debug/../src/Tetris.c:241
			grade += 10; //满一行加10分
    45d4:	07a9                	addi	a5,a5,10
D:\Hummingbird\HBird-workspace\pico_test_1\Debug/../src/Tetris.c:246
				hdmi_draw_square_vertical(8*(pos.X +j),8*(pos.Y+i),8,255);
    45d6:	010cdc93          	srli	s9,s9,0x10
D:\Hummingbird\HBird-workspace\pico_test_1\Debug/../src/Tetris.c:241
			grade += 10; //满一行加10分
    45da:	c31c                	sw	a5,0(a4)
D:\Hummingbird\HBird-workspace\pico_test_1\Debug/../src/Tetris.c:246
				hdmi_draw_square_vertical(8*(pos.X +j),8*(pos.Y+i),8,255);
    45dc:	8ade                	mv	s5,s7
    45de:	4c41                	li	s8,16
D:\Hummingbird\HBird-workspace\pico_test_1\Debug/../src/Tetris.c:242
			for (int j = 1; j < COL - 1; j++) //清除得分行的方块信息
    45e0:	4a05                	li	s4,1
    45e2:	4d4d                	li	s10,19
D:\Hummingbird\HBird-workspace\pico_test_1\Debug/../src/Tetris.c:246 (discriminator 3)
				hdmi_draw_square_vertical(8*(pos.X +j),8*(pos.Y+i),8,255);
    45e4:	8562                	mv	a0,s8
    45e6:	0c41                	addi	s8,s8,16
D:\Hummingbird\HBird-workspace\pico_test_1\Debug/../src/Tetris.c:244 (discriminator 3)
				face.data[i][j] = 0; //该位置得分后被清除，标记为无方块
    45e8:	000a8023          	sb	zero,0(s5)
CursorJump():
D:\Hummingbird\HBird-workspace\pico_test_1\Debug/../src/Tetris.c:52 (discriminator 3)
	pos.X = x; //横坐标设置
    45ec:	014d9023          	sh	s4,0(s11)
JudeFunc():
D:\Hummingbird\HBird-workspace\pico_test_1\Debug/../src/Tetris.c:246 (discriminator 3)
				hdmi_draw_square_vertical(8*(pos.X +j),8*(pos.Y+i),8,255);
    45f0:	0ff00693          	li	a3,255
    45f4:	4621                	li	a2,8
    45f6:	85e6                	mv	a1,s9
    45f8:	0c42                	slli	s8,s8,0x10
D:\Hummingbird\HBird-workspace\pico_test_1\Debug/../src/Tetris.c:242 (discriminator 3)
			for (int j = 1; j < COL - 1; j++) //清除得分行的方块信息
    45fa:	0a05                	addi	s4,s4,1
CursorJump():
D:\Hummingbird\HBird-workspace\pico_test_1\Debug/../src/Tetris.c:53 (discriminator 3)
	pos.Y = y; //纵坐标设置
    45fc:	009d9123          	sh	s1,2(s11)
    4600:	0a85                	addi	s5,s5,1
JudeFunc():
D:\Hummingbird\HBird-workspace\pico_test_1\Debug/../src/Tetris.c:246 (discriminator 3)
				hdmi_draw_square_vertical(8*(pos.X +j),8*(pos.Y+i),8,255);
    4602:	052010ef          	jal	ra,5654 <hdmi_draw_square_vertical>
    4606:	010c5c13          	srli	s8,s8,0x10
D:\Hummingbird\HBird-workspace\pico_test_1\Debug/../src/Tetris.c:242 (discriminator 3)
			for (int j = 1; j < COL - 1; j++) //清除得分行的方块信息
    460a:	fdaa1de3          	bne	s4,s10,45e4 <JudeFunc+0x12a>
    460e:	fe2b8893          	addi	a7,s7,-30
    4612:	8846                	mv	a6,a7
    4614:	01e80713          	addi	a4,a6,30
    4618:	01280513          	addi	a0,a6,18
D:\Hummingbird\HBird-workspace\pico_test_1\Debug/../src/Tetris.c:242
    461c:	87c2                	mv	a5,a6
D:\Hummingbird\HBird-workspace\pico_test_1\Debug/../src/Tetris.c:251
				sum = 0; //记录上一行的方块个数
    461e:	4601                	li	a2,0
D:\Hummingbird\HBird-workspace\pico_test_1\Debug/../src/Tetris.c:254 (discriminator 3)
					sum += face.data[m - 1][n]; //统计上一行的方块个数
    4620:	0007c683          	lbu	a3,0(a5)
    4624:	0705                	addi	a4,a4,1
    4626:	0785                	addi	a5,a5,1
D:\Hummingbird\HBird-workspace\pico_test_1\Debug/../src/Tetris.c:255 (discriminator 3)
					face.data[m][n] = face.data[m - 1][n]; //将上一行方块的标识移到下一行
    4628:	fed70fa3          	sb	a3,-1(a4)
D:\Hummingbird\HBird-workspace\pico_test_1\Debug/../src/Tetris.c:256 (discriminator 3)
					face.color[m][n] = face.color[m - 1][n]; //将上一行方块的颜色编号移到下一行
    462c:	3657c583          	lbu	a1,869(a5)
D:\Hummingbird\HBird-workspace\pico_test_1\Debug/../src/Tetris.c:254 (discriminator 3)
					sum += face.data[m - 1][n]; //统计上一行的方块个数
    4630:	9636                	add	a2,a2,a3
D:\Hummingbird\HBird-workspace\pico_test_1\Debug/../src/Tetris.c:256 (discriminator 3)
					face.color[m][n] = face.color[m - 1][n]; //将上一行方块的颜色编号移到下一行
    4632:	36b702a3          	sb	a1,869(a4)
D:\Hummingbird\HBird-workspace\pico_test_1\Debug/../src/Tetris.c:252 (discriminator 3)
				for (int n = 1; n < COL - 1; n++)
    4636:	fea795e3          	bne	a5,a0,4620 <JudeFunc+0x166>
D:\Hummingbird\HBird-workspace\pico_test_1\Debug/../src/Tetris.c:258
				if (sum == 0){ //上一行移下来的全是空格，无需再将上层的方块向下移动（移动结束）
    463a:	c609                	beqz	a2,4644 <JudeFunc+0x18a>
    463c:	1809                	addi	a6,a6,-30
D:\Hummingbird\HBird-workspace\pico_test_1\Debug/../src/Tetris.c:249 (discriminator 2)
			for (int m = i; m >1; m--)
    463e:	fc881be3          	bne	a6,s0,4614 <JudeFunc+0x15a>
    4642:	b5e9                	j	450c <JudeFunc+0x52>
    4644:	8b22                	mv	s6,s0
D:\Hummingbird\HBird-workspace\pico_test_1\Debug/../src/Tetris.c:258
				if (sum == 0){ //上一行移下来的全是空格，无需再将上层的方块向下移动（移动结束）
    4646:	4901                	li	s2,0
D:\Hummingbird\HBird-workspace\pico_test_1\Debug/../src/Tetris.c:263
								if(face.data[i][j] == 1){
    4648:	4a05                	li	s4,1
D:\Hummingbird\HBird-workspace\pico_test_1\Debug/../src/Tetris.c:262
							for (int j = 1; j < COL - 1; j++){
    464a:	09800993          	li	s3,152
D:\Hummingbird\HBird-workspace\pico_test_1\Debug/../src/Tetris.c:260
					for (int i = 0; i < ROW - 1; i++)
    464e:	0e000b93          	li	s7,224
    4652:	00190a93          	addi	s5,s2,1
    4656:	0ac2                	slli	s5,s5,0x10
    4658:	010ada93          	srli	s5,s5,0x10
D:\Hummingbird\HBird-workspace\pico_test_1\Debug/../src/Tetris.c:251
				sum = 0; //记录上一行的方块个数
    465c:	84da                	mv	s1,s6
    465e:	4421                	li	s0,8
    4660:	a809                	j	4672 <JudeFunc+0x1b8>
    4662:	0421                	addi	s0,s0,8
    4664:	0442                	slli	s0,s0,0x10
    4666:	8041                	srli	s0,s0,0x10
D:\Hummingbird\HBird-workspace\pico_test_1\Debug/../src/Tetris.c:268
									hdmi_draw_square_vertical(j*8,i*8,8,255);
    4668:	7ed000ef          	jal	ra,5654 <hdmi_draw_square_vertical>
    466c:	0485                	addi	s1,s1,1
D:\Hummingbird\HBird-workspace\pico_test_1\Debug/../src/Tetris.c:262
							for (int j = 1; j < COL - 1; j++){
    466e:	03340e63          	beq	s0,s3,46aa <JudeFunc+0x1f0>
D:\Hummingbird\HBird-workspace\pico_test_1\Debug/../src/Tetris.c:263
								if(face.data[i][j] == 1){
    4672:	0004c783          	lbu	a5,0(s1)
D:\Hummingbird\HBird-workspace\pico_test_1\Debug/../src/Tetris.c:268
									hdmi_draw_square_vertical(j*8,i*8,8,255);
    4676:	8522                	mv	a0,s0
    4678:	0ff00693          	li	a3,255
    467c:	4621                	li	a2,8
    467e:	85ca                	mv	a1,s2
D:\Hummingbird\HBird-workspace\pico_test_1\Debug/../src/Tetris.c:263
								if(face.data[i][j] == 1){
    4680:	ff4791e3          	bne	a5,s4,4662 <JudeFunc+0x1a8>
D:\Hummingbird\HBird-workspace\pico_test_1\Debug/../src/Tetris.c:264
									hdmi_draw_square_vertical(j*8,i*8,8,0);
    4684:	4681                	li	a3,0
    4686:	7cf000ef          	jal	ra,5654 <hdmi_draw_square_vertical>
D:\Hummingbird\HBird-workspace\pico_test_1\Debug/../src/Tetris.c:265
									hdmi_draw_square_vertical(j*8+1,i*8+1,6,ORANGE);
    468a:	00140513          	addi	a0,s0,1
    468e:	0421                	addi	s0,s0,8
    4690:	0542                	slli	a0,a0,0x10
    4692:	0442                	slli	s0,s0,0x10
    4694:	06500693          	li	a3,101
    4698:	4619                	li	a2,6
    469a:	85d6                	mv	a1,s5
    469c:	8141                	srli	a0,a0,0x10
    469e:	8041                	srli	s0,s0,0x10
    46a0:	7b5000ef          	jal	ra,5654 <hdmi_draw_square_vertical>
    46a4:	0485                	addi	s1,s1,1
D:\Hummingbird\HBird-workspace\pico_test_1\Debug/../src/Tetris.c:262
							for (int j = 1; j < COL - 1; j++){
    46a6:	fd3416e3          	bne	s0,s3,4672 <JudeFunc+0x1b8>
    46aa:	0921                	addi	s2,s2,8
    46ac:	0942                	slli	s2,s2,0x10
    46ae:	01095913          	srli	s2,s2,0x10
    46b2:	0b79                	addi	s6,s6,30
D:\Hummingbird\HBird-workspace\pico_test_1\Debug/../src/Tetris.c:260 (discriminator 2)
					for (int i = 0; i < ROW - 1; i++)
    46b4:	f9791fe3          	bne	s2,s7,4652 <JudeFunc+0x198>
D:\Hummingbird\HBird-workspace\pico_test_1\Debug/../src/Tetris.c:271
					return 1; //返回1，表示还需调用该函数进行判断（移动下来的可能还有满行）
    46b8:	4505                	li	a0,1
D:\Hummingbird\HBird-workspace\pico_test_1\Debug/../src/Tetris.c:306
				}
			}
		}
	}
	return 0; //判断结束，无需再调用该函数进行判断
}
    46ba:	50f2                	lw	ra,60(sp)
    46bc:	5462                	lw	s0,56(sp)
    46be:	54d2                	lw	s1,52(sp)
    46c0:	5942                	lw	s2,48(sp)
    46c2:	59b2                	lw	s3,44(sp)
    46c4:	5a22                	lw	s4,40(sp)
    46c6:	5a92                	lw	s5,36(sp)
    46c8:	5b02                	lw	s6,32(sp)
    46ca:	4bf2                	lw	s7,28(sp)
    46cc:	4c62                	lw	s8,24(sp)
    46ce:	4cd2                	lw	s9,20(sp)
    46d0:	4d42                	lw	s10,16(sp)
    46d2:	4db2                	lw	s11,12(sp)
    46d4:	6121                	addi	sp,sp,64
    46d6:	8082                	ret
D:\Hummingbird\HBird-workspace\pico_test_1\Debug/../src/Tetris.c:305
	return 0; //判断结束，无需再调用该函数进行判断
    46d8:	4501                	li	a0,0
    46da:	b7c5                	j	46ba <JudeFunc+0x200>
D:\Hummingbird\HBird-workspace\pico_test_1\Debug/../src/Tetris.c:296
					end = 2;
    46dc:	6785                	lui	a5,0x1
    46de:	35478623          	sb	s4,844(a5) # 134c <end>
D:\Hummingbird\HBird-workspace\pico_test_1\Debug/../src/Tetris.c:297
					return 0;
    46e2:	4501                	li	a0,0
    46e4:	bfd9                	j	46ba <JudeFunc+0x200>

000046e6 <TetrisDelay>:
TetrisDelay():
D:\Hummingbird\HBird-workspace\pico_test_1\Debug/../src/Tetris.c:307
void TetrisDelay(){
    46e6:	1f400793          	li	a5,500
D:\Hummingbird\HBird-workspace\pico_test_1\Debug/../src/Tetris.c:310
	u32 cnt = 500;
	while(cnt--)
		led_address = 0;
    46ea:	6761                	lui	a4,0x18
    46ec:	02072023          	sw	zero,32(a4) # 18020 <_etext+0xf7ec>
    46f0:	17fd                	addi	a5,a5,-1
D:\Hummingbird\HBird-workspace\pico_test_1\Debug/../src/Tetris.c:309
	while(cnt--)
    46f2:	ffed                	bnez	a5,46ec <TetrisDelay+0x6>
D:\Hummingbird\HBird-workspace\pico_test_1\Debug/../src/Tetris.c:311
}
    46f4:	8082                	ret

000046f6 <StartGame>:
StartGame():
D:\Hummingbird\HBird-workspace\pico_test_1\Debug/../src/Tetris.c:313
void StartGame()
{
    46f6:	7159                	addi	sp,sp,-112
    46f8:	d686                	sw	ra,108(sp)
    46fa:	d4a2                	sw	s0,104(sp)
    46fc:	cece                	sw	s3,92(sp)
    46fe:	ccd2                	sw	s4,88(sp)
    4700:	c0ea                	sw	s10,64(sp)
    4702:	de6e                	sw	s11,60(sp)
    4704:	d2a6                	sw	s1,100(sp)
    4706:	d0ca                	sw	s2,96(sp)
    4708:	cad6                	sw	s5,84(sp)
    470a:	c8da                	sw	s6,80(sp)
    470c:	c6de                	sw	s7,76(sp)
    470e:	c4e2                	sw	s8,72(sp)
    4710:	c2e6                	sw	s9,68(sp)
D:\Hummingbird\HBird-workspace\pico_test_1\Debug/../src/Tetris.c:314
	int shape = rand() % 7, form = rand() % 4; //随机获取方块的形状和形态
    4712:	499d                	li	s3,7
    4714:	3b8030ef          	jal	ra,7acc <rand>
    4718:	033569b3          	rem	s3,a0,s3
    471c:	3b0030ef          	jal	ra,7acc <rand>
    4720:	41f55793          	srai	a5,a0,0x1f
    4724:	83f9                	srli	a5,a5,0x1e
    4726:	00f50433          	add	s0,a0,a5
    472a:	880d                	andi	s0,s0,3
    472c:	8c1d                	sub	s0,s0,a5
    472e:	6785                	lui	a5,0x1
    4730:	35078793          	addi	a5,a5,848 # 1350 <grade>
    4734:	ce3e                	sw	a5,28(sp)
    4736:	6785                	lui	a5,0x1
    4738:	35c78a13          	addi	s4,a5,860 # 135c <tetriskey>
    473c:	60400793          	li	a5,1540
    4740:	c63e                	sw	a5,12(sp)
    4742:	44400793          	li	a5,1092
    4746:	ca3e                	sw	a5,20(sp)
    4748:	6785                	lui	a5,0x1
    474a:	34c78793          	addi	a5,a5,844 # 134c <end>
    474e:	cc3e                	sw	a5,24(sp)
    4750:	45400793          	li	a5,1108
    4754:	d43e                	sw	a5,40(sp)
D:\Hummingbird\HBird-workspace\pico_test_1\Debug/../src/Tetris.c:328
		{
			tetriskeyval = 0;
			cnt = 700000;
			DrawBlock(shape, form, x, y); //将该方块显示在初始下落位置
			while(--cnt){
				tetriskey = *ps2ctrl_point;
    4756:	6d61                	lui	s10,0x18
D:\Hummingbird\HBird-workspace\pico_test_1\Debug/../src/Tetris.c:333
				if(tetriskey!=0)
					tetriskeyval = tetriskey;
			}
			sound_address = 0b1111111;
			switch(tetriskeyval){
    4758:	4d91                	li	s11,4
D:\Hummingbird\HBird-workspace\pico_test_1\Debug/../src/Tetris.c:317
		hdmi_draw_num_back_vertical((COL + 1)*8,180,grade,3,0,255);
    475a:	47f2                	lw	a5,28(sp)
    475c:	4701                	li	a4,0
    475e:	468d                	li	a3,3
    4760:	0007d603          	lhu	a2,0(a5)
    4764:	0b400593          	li	a1,180
    4768:	0ff00793          	li	a5,255
    476c:	0a800513          	li	a0,168
    4770:	61b000ef          	jal	ra,558a <hdmi_draw_num_back_vertical>
D:\Hummingbird\HBird-workspace\pico_test_1\Debug/../src/Tetris.c:319
		u32 nextShape = rand() % 7, nextForm = rand() % 4; //随机获取下一个方块的形状和形态
    4774:	358030ef          	jal	ra,7acc <rand>
    4778:	00299793          	slli	a5,s3,0x2
    477c:	c83e                	sw	a5,16(sp)
    477e:	479d                	li	a5,7
    4780:	02f56ab3          	rem	s5,a0,a5
D:\Hummingbird\HBird-workspace\pico_test_1\Debug/../src/Tetris.c:320
		u32 x = COL / 2 - 2, y = 0; //方块初始下落位置的横纵坐标
    4784:	4901                	li	s2,0
    4786:	44a1                	li	s1,8
D:\Hummingbird\HBird-workspace\pico_test_1\Debug/../src/Tetris.c:321
		DrawBlock(nextShape, nextForm, COL + 3, 3); //将下一个方块显示在右上角
    4788:	4b81                	li	s7,0
    478a:	4b05                	li	s6,1
D:\Hummingbird\HBird-workspace\pico_test_1\Debug/../src/Tetris.c:326
			DrawBlock(shape, form, x, y); //将该方块显示在初始下落位置
    478c:	000abcb7          	lui	s9,0xab
D:\Hummingbird\HBird-workspace\pico_test_1\Debug/../src/Tetris.c:332
			sound_address = 0b1111111;
    4790:	07f00c13          	li	s8,127
D:\Hummingbird\HBird-workspace\pico_test_1\Debug/../src/Tetris.c:319
		u32 nextShape = rand() % 7, nextForm = rand() % 4; //随机获取下一个方块的形状和形态
    4794:	d056                	sw	s5,32(sp)
    4796:	336030ef          	jal	ra,7acc <rand>
    479a:	41f55713          	srai	a4,a0,0x1f
    479e:	8379                	srli	a4,a4,0x1e
    47a0:	00e507b3          	add	a5,a0,a4
    47a4:	8b8d                	andi	a5,a5,3
    47a6:	8f99                	sub	a5,a5,a4
D:\Hummingbird\HBird-workspace\pico_test_1\Debug/../src/Tetris.c:321
		DrawBlock(nextShape, nextForm, COL + 3, 3); //将下一个方块显示在右上角
    47a8:	468d                	li	a3,3
    47aa:	465d                	li	a2,23
    47ac:	85be                	mv	a1,a5
    47ae:	8556                	mv	a0,s5
D:\Hummingbird\HBird-workspace\pico_test_1\Debug/../src/Tetris.c:319
		u32 nextShape = rand() % 7, nextForm = rand() % 4; //随机获取下一个方块的形状和形态
    47b0:	d23e                	sw	a5,36(sp)
    47b2:	c402                	sw	zero,8(sp)
D:\Hummingbird\HBird-workspace\pico_test_1\Debug/../src/Tetris.c:321
		DrawBlock(nextShape, nextForm, COL + 3, 3); //将下一个方块显示在右上角
    47b4:	36a9                	jal	42fe <DrawBlock>
D:\Hummingbird\HBird-workspace\pico_test_1\Debug/../src/Tetris.c:326
			DrawBlock(shape, form, x, y); //将该方块显示在初始下落位置
    47b6:	86ca                	mv	a3,s2
    47b8:	8626                	mv	a2,s1
    47ba:	85a2                	mv	a1,s0
    47bc:	854e                	mv	a0,s3
    47be:	3681                	jal	42fe <DrawBlock>
    47c0:	8826                	mv	a6,s1
    47c2:	8aca                	mv	s5,s2
    47c4:	e5fc8713          	addi	a4,s9,-417 # aae5f <_etext+0xa262b>
D:\Hummingbird\HBird-workspace\pico_test_1\Debug/../src/Tetris.c:324
			tetriskeyval = 0;
    47c8:	4681                	li	a3,0
D:\Hummingbird\HBird-workspace\pico_test_1\Debug/../src/Tetris.c:328
				tetriskey = *ps2ctrl_point;
    47ca:	100d2783          	lw	a5,256(s10) # 18100 <_etext+0xf8cc>
    47ce:	177d                	addi	a4,a4,-1
    47d0:	0ff7f793          	andi	a5,a5,255
D:\Hummingbird\HBird-workspace\pico_test_1\Debug/../src/Tetris.c:329
				if(tetriskey!=0)
    47d4:	c391                	beqz	a5,47d8 <StartGame+0xe2>
    47d6:	86be                	mv	a3,a5
D:\Hummingbird\HBird-workspace\pico_test_1\Debug/../src/Tetris.c:327
			while(--cnt){
    47d8:	fb6d                	bnez	a4,47ca <StartGame+0xd4>
    47da:	00fa0023          	sb	a5,0(s4)
D:\Hummingbird\HBird-workspace\pico_test_1\Debug/../src/Tetris.c:332
			sound_address = 0b1111111;
    47de:	138d2023          	sw	s8,288(s10)
    47e2:	835a                	mv	t1,s6
D:\Hummingbird\HBird-workspace\pico_test_1\Debug/../src/Tetris.c:333
			switch(tetriskeyval){
    47e4:	2db68a63          	beq	a3,s11,4ab8 <StartGame+0x3c2>
    47e8:	0addf463          	bleu	a3,s11,4890 <StartGame+0x19a>
    47ec:	04000793          	li	a5,64
    47f0:	26f68163          	beq	a3,a5,4a52 <StartGame+0x35c>
    47f4:	08000793          	li	a5,128
    47f8:	1ef68a63          	beq	a3,a5,49ec <StartGame+0x2f6>
    47fc:	02000793          	li	a5,32
    4800:	02f68263          	beq	a3,a5,4824 <StartGame+0x12e>
D:\Hummingbird\HBird-workspace\pico_test_1\Debug/../src/Tetris.c:341
				case 0b01000000:key = LEFT;break;//左
				case 0b10000000:key = RIGHT;break;//右
				case 0b00000010:key = SPACE;break;//空格  B
				case 0b00000100:key = ESC;break;//退出     X
			}
			if (key == 0) //键盘未被敲击
    4804:	120b8363          	beqz	s7,492a <StartGame+0x234>
D:\Hummingbird\HBird-workspace\pico_test_1\Debug/../src/Tetris.c:370
					y++; //纵坐标自增（下一次显示方块时就相当于下落了一格了）
				}
			}
			else //键盘被敲击
			{
				switch (key)
    4808:	04b00793          	li	a5,75
    480c:	24fb8363          	beq	s7,a5,4a52 <StartGame+0x35c>
    4810:	2b77f663          	bleu	s7,a5,4abc <StartGame+0x3c6>
    4814:	04d00793          	li	a5,77
    4818:	1cfb8a63          	beq	s7,a5,49ec <StartGame+0x2f6>
    481c:	05000793          	li	a5,80
    4820:	04fb9963          	bne	s7,a5,4872 <StartGame+0x17c>
    4824:	47a2                	lw	a5,8(sp)
IsLegal():
D:\Hummingbird\HBird-workspace\pico_test_1\Debug/../src/Tetris.c:217
		for (int j = 0; j < 4; j++)
    4826:	4301                	li	t1,0
D:\Hummingbird\HBird-workspace\pico_test_1\Debug/../src/Tetris.c:220
			if ((block[shape][form].space[i][j] == 1) && (face.data[y + i][x + j] == 1))
    4828:	4605                	li	a2,1
    482a:	412785b3          	sub	a1,a5,s2
    482e:	47c2                	lw	a5,16(sp)
    4830:	0586                	slli	a1,a1,0x1
    4832:	95a6                	add	a1,a1,s1
    4834:	00f40533          	add	a0,s0,a5
    4838:	47b2                	lw	a5,12(sp)
    483a:	0512                	slli	a0,a0,0x4
    483c:	95be                	add	a1,a1,a5
    483e:	47d2                	lw	a5,20(sp)
    4840:	953e                	add	a0,a0,a5
D:\Hummingbird\HBird-workspace\pico_test_1\Debug/../src/Tetris.c:217
		for (int j = 0; j < 4; j++)
    4842:	872a                	mv	a4,a0
    4844:	4781                	li	a5,0
D:\Hummingbird\HBird-workspace\pico_test_1\Debug/../src/Tetris.c:220
			if ((block[shape][form].space[i][j] == 1) && (face.data[y + i][x + j] == 1))
    4846:	00074683          	lbu	a3,0(a4)
    484a:	0705                	addi	a4,a4,1
    484c:	02c68963          	beq	a3,a2,487e <StartGame+0x188>
D:\Hummingbird\HBird-workspace\pico_test_1\Debug/../src/Tetris.c:217
		for (int j = 0; j < 4; j++)
    4850:	0785                	addi	a5,a5,1
    4852:	ffb79ae3          	bne	a5,s11,4846 <StartGame+0x150>
D:\Hummingbird\HBird-workspace\pico_test_1\Debug/../src/Tetris.c:215
	for (int i = 0; i < 4; i++)
    4856:	0305                	addi	t1,t1,1
    4858:	05f9                	addi	a1,a1,30
    485a:	0511                	addi	a0,a0,4
    485c:	ffb313e3          	bne	t1,s11,4842 <StartGame+0x14c>
StartGame():
D:\Hummingbird\HBird-workspace\pico_test_1\Debug/../src/Tetris.c:376
				{
				case DOWN: //方向键：下
					if (IsLegal(shape, form, x, y + 1) == 1) //判断方块向下移动一位后是否合法
					{
						//方块下落后合法才进行以下操作
						DrawSpace(shape, form, x, y); //用空格覆盖当前方块所在位置
    4860:	86ca                	mv	a3,s2
    4862:	8626                	mv	a2,s1
    4864:	85a2                	mv	a1,s0
    4866:	854e                	mv	a0,s3
    4868:	d642                	sw	a6,44(sp)
    486a:	36ad                	jal	43d4 <DrawSpace>
    486c:	5832                	lw	a6,44(sp)
    486e:	05000b93          	li	s7,80
D:\Hummingbird\HBird-workspace\pico_test_1\Debug/../src/Tetris.c:408
						form = (form + 1) % 4; //方块的形态自增（下一次显示方块时就相当于旋转了）
					}
					break;
				}
			}
			DrawBlock(shape, form, x, y);
    4872:	86d6                	mv	a3,s5
    4874:	8642                	mv	a2,a6
    4876:	85a2                	mv	a1,s0
    4878:	854e                	mv	a0,s3
    487a:	3451                	jal	42fe <DrawBlock>
D:\Hummingbird\HBird-workspace\pico_test_1\Debug/../src/Tetris.c:324
			tetriskeyval = 0;
    487c:	bf2d                	j	47b6 <StartGame+0xc0>
IsLegal():
D:\Hummingbird\HBird-workspace\pico_test_1\Debug/../src/Tetris.c:220
			if ((block[shape][form].space[i][j] == 1) && (face.data[y + i][x + j] == 1))
    487e:	00f586b3          	add	a3,a1,a5
    4882:	01e6c683          	lbu	a3,30(a3)
    4886:	fcc695e3          	bne	a3,a2,4850 <StartGame+0x15a>
    488a:	05000b93          	li	s7,80
    488e:	b7d5                	j	4872 <StartGame+0x17c>
StartGame():
D:\Hummingbird\HBird-workspace\pico_test_1\Debug/../src/Tetris.c:333
			switch(tetriskeyval){
    4890:	cec9                	beqz	a3,492a <StartGame+0x234>
    4892:	4789                	li	a5,2
    4894:	f6f698e3          	bne	a3,a5,4804 <StartGame+0x10e>
D:\Hummingbird\HBird-workspace\pico_test_1\Debug/../src/Tetris.c:397
					if (IsLegal(shape, (form + 1) % 4, x, y + 1) == 1) //判断方块旋转后是否合法
    4898:	00140793          	addi	a5,s0,1
    489c:	41f7d713          	srai	a4,a5,0x1f
    48a0:	8379                	srli	a4,a4,0x1e
    48a2:	00e78bb3          	add	s7,a5,a4
    48a6:	47a2                	lw	a5,8(sp)
    48a8:	003bfb93          	andi	s7,s7,3
    48ac:	40eb8bb3          	sub	s7,s7,a4
    48b0:	412785b3          	sub	a1,a5,s2
    48b4:	47c2                	lw	a5,16(sp)
    48b6:	0586                	slli	a1,a1,0x1
    48b8:	95a6                	add	a1,a1,s1
    48ba:	00fb8533          	add	a0,s7,a5
    48be:	47b2                	lw	a5,12(sp)
    48c0:	0512                	slli	a0,a0,0x4
IsLegal():
D:\Hummingbird\HBird-workspace\pico_test_1\Debug/../src/Tetris.c:215
	for (int i = 0; i < 4; i++)
    48c2:	4e01                	li	t3,0
    48c4:	95be                	add	a1,a1,a5
    48c6:	47d2                	lw	a5,20(sp)
D:\Hummingbird\HBird-workspace\pico_test_1\Debug/../src/Tetris.c:220
			if ((block[shape][form].space[i][j] == 1) && (face.data[y + i][x + j] == 1))
    48c8:	4605                	li	a2,1
    48ca:	953e                	add	a0,a0,a5
D:\Hummingbird\HBird-workspace\pico_test_1\Debug/../src/Tetris.c:215
	for (int i = 0; i < 4; i++)
    48cc:	872a                	mv	a4,a0
D:\Hummingbird\HBird-workspace\pico_test_1\Debug/../src/Tetris.c:217
		for (int j = 0; j < 4; j++)
    48ce:	4781                	li	a5,0
D:\Hummingbird\HBird-workspace\pico_test_1\Debug/../src/Tetris.c:220
			if ((block[shape][form].space[i][j] == 1) && (face.data[y + i][x + j] == 1))
    48d0:	00074683          	lbu	a3,0(a4)
    48d4:	0705                	addi	a4,a4,1
    48d6:	04c68163          	beq	a3,a2,4918 <StartGame+0x222>
D:\Hummingbird\HBird-workspace\pico_test_1\Debug/../src/Tetris.c:217
		for (int j = 0; j < 4; j++)
    48da:	0785                	addi	a5,a5,1
    48dc:	ffb79ae3          	bne	a5,s11,48d0 <StartGame+0x1da>
D:\Hummingbird\HBird-workspace\pico_test_1\Debug/../src/Tetris.c:215
	for (int i = 0; i < 4; i++)
    48e0:	0e05                	addi	t3,t3,1
    48e2:	05f9                	addi	a1,a1,30
    48e4:	0511                	addi	a0,a0,4
    48e6:	ffbe13e3          	bne	t3,s11,48cc <StartGame+0x1d6>
    48ea:	d642                	sw	a6,44(sp)
    48ec:	c41a                	sw	t1,8(sp)
StartGame():
D:\Hummingbird\HBird-workspace\pico_test_1\Debug/../src/Tetris.c:399
						sound_address = 0b1111101;
    48ee:	07d00793          	li	a5,125
D:\Hummingbird\HBird-workspace\pico_test_1\Debug/../src/Tetris.c:401
						DrawSpace(shape, form, x, y); //用空格覆盖当前方块所在位置
    48f2:	86ca                	mv	a3,s2
    48f4:	85a2                	mv	a1,s0
D:\Hummingbird\HBird-workspace\pico_test_1\Debug/../src/Tetris.c:399
						sound_address = 0b1111101;
    48f6:	12fd2023          	sw	a5,288(s10)
D:\Hummingbird\HBird-workspace\pico_test_1\Debug/../src/Tetris.c:401
						DrawSpace(shape, form, x, y); //用空格覆盖当前方块所在位置
    48fa:	8626                	mv	a2,s1
    48fc:	854e                	mv	a0,s3
D:\Hummingbird\HBird-workspace\pico_test_1\Debug/../src/Tetris.c:403
						form = (form + 1) % 4; //方块的形态自增（下一次显示方块时就相当于旋转了）
    48fe:	845e                	mv	s0,s7
D:\Hummingbird\HBird-workspace\pico_test_1\Debug/../src/Tetris.c:401
						DrawSpace(shape, form, x, y); //用空格覆盖当前方块所在位置
    4900:	8ada                	mv	s5,s6
D:\Hummingbird\HBird-workspace\pico_test_1\Debug/../src/Tetris.c:402
						y++; //纵坐标自增（总不能原地旋转吧）
    4902:	895a                	mv	s2,s6
D:\Hummingbird\HBird-workspace\pico_test_1\Debug/../src/Tetris.c:401
						DrawSpace(shape, form, x, y); //用空格覆盖当前方块所在位置
    4904:	3cc1                	jal	43d4 <DrawSpace>
    4906:	02000b93          	li	s7,32
    490a:	4322                	lw	t1,8(sp)
    490c:	0b05                	addi	s6,s6,1
    490e:	5832                	lw	a6,44(sp)
    4910:	00431793          	slli	a5,t1,0x4
    4914:	c43e                	sw	a5,8(sp)
    4916:	bfb1                	j	4872 <StartGame+0x17c>
IsLegal():
D:\Hummingbird\HBird-workspace\pico_test_1\Debug/../src/Tetris.c:220
			if ((block[shape][form].space[i][j] == 1) && (face.data[y + i][x + j] == 1))
    4918:	00f586b3          	add	a3,a1,a5
    491c:	01e6c683          	lbu	a3,30(a3)
    4920:	fac69de3          	bne	a3,a2,48da <StartGame+0x1e4>
    4924:	02000b93          	li	s7,32
    4928:	b7a9                	j	4872 <StartGame+0x17c>
    492a:	47a2                	lw	a5,8(sp)
D:\Hummingbird\HBird-workspace\pico_test_1\Debug/../src/Tetris.c:217
		for (int j = 0; j < 4; j++)
    492c:	4e01                	li	t3,0
D:\Hummingbird\HBird-workspace\pico_test_1\Debug/../src/Tetris.c:220
			if ((block[shape][form].space[i][j] == 1) && (face.data[y + i][x + j] == 1))
    492e:	4605                	li	a2,1
    4930:	412785b3          	sub	a1,a5,s2
    4934:	47c2                	lw	a5,16(sp)
    4936:	0586                	slli	a1,a1,0x1
    4938:	95a6                	add	a1,a1,s1
    493a:	00f40eb3          	add	t4,s0,a5
    493e:	47b2                	lw	a5,12(sp)
    4940:	0e92                	slli	t4,t4,0x4
    4942:	95be                	add	a1,a1,a5
    4944:	47d2                	lw	a5,20(sp)
D:\Hummingbird\HBird-workspace\pico_test_1\Debug/../src/Tetris.c:217
		for (int j = 0; j < 4; j++)
    4946:	852e                	mv	a0,a1
    4948:	01d78f33          	add	t5,a5,t4
    494c:	88fa                	mv	a7,t5
StartGame():
    494e:	8746                	mv	a4,a7
IsLegal():
    4950:	4781                	li	a5,0
D:\Hummingbird\HBird-workspace\pico_test_1\Debug/../src/Tetris.c:220
			if ((block[shape][form].space[i][j] == 1) && (face.data[y + i][x + j] == 1))
    4952:	00074683          	lbu	a3,0(a4)
    4956:	0705                	addi	a4,a4,1
    4958:	02c68563          	beq	a3,a2,4982 <StartGame+0x28c>
D:\Hummingbird\HBird-workspace\pico_test_1\Debug/../src/Tetris.c:217
		for (int j = 0; j < 4; j++)
    495c:	0785                	addi	a5,a5,1
    495e:	ffb79ae3          	bne	a5,s11,4952 <StartGame+0x25c>
D:\Hummingbird\HBird-workspace\pico_test_1\Debug/../src/Tetris.c:215
	for (int i = 0; i < 4; i++)
    4962:	0e05                	addi	t3,t3,1
    4964:	0579                	addi	a0,a0,30
    4966:	0891                	addi	a7,a7,4
    4968:	ffbe13e3          	bne	t3,s11,494e <StartGame+0x258>
StartGame():
D:\Hummingbird\HBird-workspace\pico_test_1\Debug/../src/Tetris.c:364
					DrawSpace(shape, form, x, y); //用空格覆盖当前方块所在位置
    496c:	86ca                	mv	a3,s2
    496e:	8626                	mv	a2,s1
    4970:	85a2                	mv	a1,s0
    4972:	854e                	mv	a0,s3
    4974:	c41a                	sw	t1,8(sp)
    4976:	d642                	sw	a6,44(sp)
    4978:	8ada                	mv	s5,s6
D:\Hummingbird\HBird-workspace\pico_test_1\Debug/../src/Tetris.c:365
					y++; //纵坐标自增（下一次显示方块时就相当于下落了一格了）
    497a:	895a                	mv	s2,s6
D:\Hummingbird\HBird-workspace\pico_test_1\Debug/../src/Tetris.c:364
					DrawSpace(shape, form, x, y); //用空格覆盖当前方块所在位置
    497c:	3ca1                	jal	43d4 <DrawSpace>
    497e:	4b81                	li	s7,0
    4980:	b769                	j	490a <StartGame+0x214>
IsLegal():
D:\Hummingbird\HBird-workspace\pico_test_1\Debug/../src/Tetris.c:220
			if ((block[shape][form].space[i][j] == 1) && (face.data[y + i][x + j] == 1))
    4982:	00f506b3          	add	a3,a0,a5
    4986:	01e6c683          	lbu	a3,30(a3)
    498a:	fcc699e3          	bne	a3,a2,495c <StartGame+0x266>
StartGame():
D:\Hummingbird\HBird-workspace\pico_test_1\Debug/../src/Tetris.c:345
					sound_address = 0b1110111;
    498e:	07700793          	li	a5,119
    4992:	12fd2023          	sw	a5,288(s10)
    4996:	57a2                	lw	a5,40(sp)
D:\Hummingbird\HBird-workspace\pico_test_1\Debug/../src/Tetris.c:352
							if (block[shape][form].space[i][j] == 1)
    4998:	4505                	li	a0,1
    499a:	9ebe                	add	t4,t4,a5
IsLegal():
D:\Hummingbird\HBird-workspace\pico_test_1\Debug/../src/Tetris.c:217
		for (int j = 0; j < 4; j++)
    499c:	86ae                	mv	a3,a1
    499e:	877a                	mv	a4,t5
    49a0:	4791                	li	a5,4
StartGame():
D:\Hummingbird\HBird-workspace\pico_test_1\Debug/../src/Tetris.c:352
							if (block[shape][form].space[i][j] == 1)
    49a2:	00074603          	lbu	a2,0(a4)
    49a6:	17fd                	addi	a5,a5,-1
    49a8:	0ff7f793          	andi	a5,a5,255
    49ac:	00a61663          	bne	a2,a0,49b8 <StartGame+0x2c2>
D:\Hummingbird\HBird-workspace\pico_test_1\Debug/../src/Tetris.c:354
								face.data[y + i][x + j] = 1; //将该位置标记为有方块
    49b0:	00a68023          	sb	a0,0(a3)
D:\Hummingbird\HBird-workspace\pico_test_1\Debug/../src/Tetris.c:355
								face.color[y + i][x + j] = shape; //记录该方块的颜色数值
    49b4:	37368323          	sb	s3,870(a3)
    49b8:	0705                	addi	a4,a4,1
    49ba:	0685                	addi	a3,a3,1
D:\Hummingbird\HBird-workspace\pico_test_1\Debug/../src/Tetris.c:350 (discriminator 2)
						for (u8 j = 0; j < 4; j++)
    49bc:	f3fd                	bnez	a5,49a2 <StartGame+0x2ac>
    49be:	0f11                	addi	t5,t5,4
    49c0:	05f9                	addi	a1,a1,30
D:\Hummingbird\HBird-workspace\pico_test_1\Debug/../src/Tetris.c:348 (discriminator 2)
					for (u8 i = 0; i < 4; i++)
    49c2:	fdee9de3          	bne	t4,t5,499c <StartGame+0x2a6>
D:\Hummingbird\HBird-workspace\pico_test_1\Debug/../src/Tetris.c:359 (discriminator 1)
					while (JudeFunc()); //判断此次方块下落是否得分以及游戏是否结束
    49c6:	3cd5                	jal	44ba <JudeFunc>
    49c8:	fd7d                	bnez	a0,49c6 <StartGame+0x2d0>
D:\Hummingbird\HBird-workspace\pico_test_1\Debug/../src/Tetris.c:410
		}
		if(end == 1){
    49ca:	47e2                	lw	a5,24(sp)
    49cc:	4705                	li	a4,1
    49ce:	0007c783          	lbu	a5,0(a5)
    49d2:	14e78363          	beq	a5,a4,4b18 <StartGame+0x422>
D:\Hummingbird\HBird-workspace\pico_test_1\Debug/../src/Tetris.c:414
					end = 0;
					break;
				}
		else if(end == 2){
    49d6:	4709                	li	a4,2
    49d8:	0ee78763          	beq	a5,a4,4ac6 <StartGame+0x3d0>
D:\Hummingbird\HBird-workspace\pico_test_1\Debug/../src/Tetris.c:427
				grade = 0;
				InitInterface();
				hdmi_draw_string_back_verticlal((COL + 1)*8,160,"SCORE:",0,255);
			}
		shape = nextShape, form = nextForm; //获取下一个方块的信息
		DrawSpace(nextShape, nextForm, COL + 3, 3); //将右上角的方块信息用空格覆盖
    49dc:	5412                	lw	s0,36(sp)
    49de:	5982                	lw	s3,32(sp)
    49e0:	468d                	li	a3,3
    49e2:	465d                	li	a2,23
    49e4:	85a2                	mv	a1,s0
    49e6:	854e                	mv	a0,s3
    49e8:	32f5                	jal	43d4 <DrawSpace>
D:\Hummingbird\HBird-workspace\pico_test_1\Debug/../src/Tetris.c:316
	{
    49ea:	bb85                	j	475a <StartGame+0x64>
    49ec:	47a2                	lw	a5,8(sp)
D:\Hummingbird\HBird-workspace\pico_test_1\Debug/../src/Tetris.c:389
					if (IsLegal(shape, form, x + 1, y) == 1) //判断方块向右移动一位后是否合法
    49ee:	00148e13          	addi	t3,s1,1
IsLegal():
D:\Hummingbird\HBird-workspace\pico_test_1\Debug/../src/Tetris.c:215
	for (int i = 0; i < 4; i++)
    49f2:	4301                	li	t1,0
    49f4:	412785b3          	sub	a1,a5,s2
    49f8:	47c2                	lw	a5,16(sp)
    49fa:	0586                	slli	a1,a1,0x1
    49fc:	95a6                	add	a1,a1,s1
    49fe:	00f40533          	add	a0,s0,a5
    4a02:	47b2                	lw	a5,12(sp)
    4a04:	0512                	slli	a0,a0,0x4
D:\Hummingbird\HBird-workspace\pico_test_1\Debug/../src/Tetris.c:220
			if ((block[shape][form].space[i][j] == 1) && (face.data[y + i][x + j] == 1))
    4a06:	4605                	li	a2,1
    4a08:	95be                	add	a1,a1,a5
    4a0a:	47d2                	lw	a5,20(sp)
    4a0c:	953e                	add	a0,a0,a5
D:\Hummingbird\HBird-workspace\pico_test_1\Debug/../src/Tetris.c:215
	for (int i = 0; i < 4; i++)
    4a0e:	872a                	mv	a4,a0
D:\Hummingbird\HBird-workspace\pico_test_1\Debug/../src/Tetris.c:217
		for (int j = 0; j < 4; j++)
    4a10:	4781                	li	a5,0
D:\Hummingbird\HBird-workspace\pico_test_1\Debug/../src/Tetris.c:220
			if ((block[shape][form].space[i][j] == 1) && (face.data[y + i][x + j] == 1))
    4a12:	00074683          	lbu	a3,0(a4)
    4a16:	0705                	addi	a4,a4,1
    4a18:	02c68463          	beq	a3,a2,4a40 <StartGame+0x34a>
D:\Hummingbird\HBird-workspace\pico_test_1\Debug/../src/Tetris.c:217
		for (int j = 0; j < 4; j++)
    4a1c:	0785                	addi	a5,a5,1
    4a1e:	ffb79ae3          	bne	a5,s11,4a12 <StartGame+0x31c>
D:\Hummingbird\HBird-workspace\pico_test_1\Debug/../src/Tetris.c:215
	for (int i = 0; i < 4; i++)
    4a22:	0305                	addi	t1,t1,1
    4a24:	05f9                	addi	a1,a1,30
    4a26:	0511                	addi	a0,a0,4
    4a28:	ffb313e3          	bne	t1,s11,4a0e <StartGame+0x318>
StartGame():
D:\Hummingbird\HBird-workspace\pico_test_1\Debug/../src/Tetris.c:392
						DrawSpace(shape, form, x, y); //用空格覆盖当前方块所在位置
    4a2c:	8626                	mv	a2,s1
    4a2e:	86ca                	mv	a3,s2
    4a30:	85a2                	mv	a1,s0
    4a32:	854e                	mv	a0,s3
    4a34:	84f2                	mv	s1,t3
    4a36:	3a79                	jal	43d4 <DrawSpace>
D:\Hummingbird\HBird-workspace\pico_test_1\Debug/../src/Tetris.c:393
						x++; //横坐标自增（下一次显示方块时就相当于右移了一格了）
    4a38:	8826                	mv	a6,s1
D:\Hummingbird\HBird-workspace\pico_test_1\Debug/../src/Tetris.c:392
						DrawSpace(shape, form, x, y); //用空格覆盖当前方块所在位置
    4a3a:	04d00b93          	li	s7,77
    4a3e:	bd15                	j	4872 <StartGame+0x17c>
IsLegal():
D:\Hummingbird\HBird-workspace\pico_test_1\Debug/../src/Tetris.c:220
			if ((block[shape][form].space[i][j] == 1) && (face.data[y + i][x + j] == 1))
    4a40:	00f586b3          	add	a3,a1,a5
    4a44:	0016c683          	lbu	a3,1(a3)
    4a48:	fcc69ae3          	bne	a3,a2,4a1c <StartGame+0x326>
StartGame():
D:\Hummingbird\HBird-workspace\pico_test_1\Debug/../src/Tetris.c:392
						DrawSpace(shape, form, x, y); //用空格覆盖当前方块所在位置
    4a4c:	04d00b93          	li	s7,77
    4a50:	b50d                	j	4872 <StartGame+0x17c>
    4a52:	47a2                	lw	a5,8(sp)
D:\Hummingbird\HBird-workspace\pico_test_1\Debug/../src/Tetris.c:381
					if (IsLegal(shape, form, x - 1, y) == 1) //判断方块向左移动一位后是否合法
    4a54:	fff48e13          	addi	t3,s1,-1
IsLegal():
D:\Hummingbird\HBird-workspace\pico_test_1\Debug/../src/Tetris.c:215
	for (int i = 0; i < 4; i++)
    4a58:	4301                	li	t1,0
    4a5a:	412785b3          	sub	a1,a5,s2
    4a5e:	47c2                	lw	a5,16(sp)
    4a60:	0586                	slli	a1,a1,0x1
    4a62:	95a6                	add	a1,a1,s1
    4a64:	00f40533          	add	a0,s0,a5
    4a68:	47b2                	lw	a5,12(sp)
    4a6a:	0512                	slli	a0,a0,0x4
D:\Hummingbird\HBird-workspace\pico_test_1\Debug/../src/Tetris.c:220
			if ((block[shape][form].space[i][j] == 1) && (face.data[y + i][x + j] == 1))
    4a6c:	4605                	li	a2,1
    4a6e:	95be                	add	a1,a1,a5
    4a70:	47d2                	lw	a5,20(sp)
    4a72:	953e                	add	a0,a0,a5
D:\Hummingbird\HBird-workspace\pico_test_1\Debug/../src/Tetris.c:217
		for (int j = 0; j < 4; j++)
    4a74:	872a                	mv	a4,a0
    4a76:	4781                	li	a5,0
D:\Hummingbird\HBird-workspace\pico_test_1\Debug/../src/Tetris.c:220
			if ((block[shape][form].space[i][j] == 1) && (face.data[y + i][x + j] == 1))
    4a78:	00074683          	lbu	a3,0(a4)
    4a7c:	0705                	addi	a4,a4,1
    4a7e:	02c68463          	beq	a3,a2,4aa6 <StartGame+0x3b0>
D:\Hummingbird\HBird-workspace\pico_test_1\Debug/../src/Tetris.c:217
		for (int j = 0; j < 4; j++)
    4a82:	0785                	addi	a5,a5,1
    4a84:	ffb79ae3          	bne	a5,s11,4a78 <StartGame+0x382>
D:\Hummingbird\HBird-workspace\pico_test_1\Debug/../src/Tetris.c:215
	for (int i = 0; i < 4; i++)
    4a88:	0305                	addi	t1,t1,1
    4a8a:	05f9                	addi	a1,a1,30
    4a8c:	0511                	addi	a0,a0,4
    4a8e:	ffb313e3          	bne	t1,s11,4a74 <StartGame+0x37e>
StartGame():
D:\Hummingbird\HBird-workspace\pico_test_1\Debug/../src/Tetris.c:384
						DrawSpace(shape, form, x, y); //用空格覆盖当前方块所在位置
    4a92:	8626                	mv	a2,s1
    4a94:	86ca                	mv	a3,s2
    4a96:	85a2                	mv	a1,s0
    4a98:	854e                	mv	a0,s3
    4a9a:	84f2                	mv	s1,t3
    4a9c:	3a25                	jal	43d4 <DrawSpace>
D:\Hummingbird\HBird-workspace\pico_test_1\Debug/../src/Tetris.c:385
						x--; //横坐标自减（下一次显示方块时就相当于左移了一格了）
    4a9e:	8826                	mv	a6,s1
D:\Hummingbird\HBird-workspace\pico_test_1\Debug/../src/Tetris.c:384
						DrawSpace(shape, form, x, y); //用空格覆盖当前方块所在位置
    4aa0:	04b00b93          	li	s7,75
    4aa4:	b3f9                	j	4872 <StartGame+0x17c>
IsLegal():
D:\Hummingbird\HBird-workspace\pico_test_1\Debug/../src/Tetris.c:220
			if ((block[shape][form].space[i][j] == 1) && (face.data[y + i][x + j] == 1))
    4aa6:	00f586b3          	add	a3,a1,a5
    4aaa:	fff6c683          	lbu	a3,-1(a3)
    4aae:	fcc69ae3          	bne	a3,a2,4a82 <StartGame+0x38c>
StartGame():
D:\Hummingbird\HBird-workspace\pico_test_1\Debug/../src/Tetris.c:384
						DrawSpace(shape, form, x, y); //用空格覆盖当前方块所在位置
    4ab2:	04b00b93          	li	s7,75
    4ab6:	bb75                	j	4872 <StartGame+0x17c>
D:\Hummingbird\HBird-workspace\pico_test_1\Debug/../src/Tetris.c:339
				case 0b00000100:key = ESC;break;//退出     X
    4ab8:	4bed                	li	s7,27
    4aba:	bb65                	j	4872 <StartGame+0x17c>
D:\Hummingbird\HBird-workspace\pico_test_1\Debug/../src/Tetris.c:370
				switch (key)
    4abc:	02000793          	li	a5,32
    4ac0:	dcfb8ce3          	beq	s7,a5,4898 <StartGame+0x1a2>
    4ac4:	b37d                	j	4872 <StartGame+0x17c>
D:\Hummingbird\HBird-workspace\pico_test_1\Debug/../src/Tetris.c:415
			end = 0;
    4ac6:	47e2                	lw	a5,24(sp)
    4ac8:	00078023          	sb	zero,0(a5)
D:\Hummingbird\HBird-workspace\pico_test_1\Debug/../src/Tetris.c:416
			rgb_address = 0b0000110;
    4acc:	4799                	li	a5,6
    4ace:	10fd2823          	sw	a5,272(s10)
    4ad2:	47b2                	lw	a5,12(sp)
    4ad4:	00178693          	addi	a3,a5,1
    4ad8:	34978613          	addi	a2,a5,841
    4adc:	01268713          	addi	a4,a3,18
D:\Hummingbird\HBird-workspace\pico_test_1\Debug/../src/Tetris.c:339
				case 0b00000100:key = ESC;break;//退出     X
    4ae0:	87b6                	mv	a5,a3
D:\Hummingbird\HBird-workspace\pico_test_1\Debug/../src/Tetris.c:419 (discriminator 3)
					face.data[i][j] = 0;
    4ae2:	00078023          	sb	zero,0(a5)
    4ae6:	0785                	addi	a5,a5,1
D:\Hummingbird\HBird-workspace\pico_test_1\Debug/../src/Tetris.c:418 (discriminator 3)
				for (int j = 1; j < COL - 1; j++){
    4ae8:	fee79de3          	bne	a5,a4,4ae2 <StartGame+0x3ec>
    4aec:	06f9                	addi	a3,a3,30
D:\Hummingbird\HBird-workspace\pico_test_1\Debug/../src/Tetris.c:417 (discriminator 2)
			for (int i = 0; i < ROW - 1; i++){
    4aee:	fec697e3          	bne	a3,a2,4adc <StartGame+0x3e6>
D:\Hummingbird\HBird-workspace\pico_test_1\Debug/../src/Tetris.c:422
				grade = 0;
    4af2:	47f2                	lw	a5,28(sp)
    4af4:	0007a023          	sw	zero,0(a5)
D:\Hummingbird\HBird-workspace\pico_test_1\Debug/../src/Tetris.c:423
				InitInterface();
    4af8:	ddcff0ef          	jal	ra,40d4 <InitInterface>
D:\Hummingbird\HBird-workspace\pico_test_1\Debug/../src/Tetris.c:424
				hdmi_draw_string_back_verticlal((COL + 1)*8,160,"SCORE:",0,255);
    4afc:	000087b7          	lui	a5,0x8
    4b00:	0ff00713          	li	a4,255
    4b04:	4681                	li	a3,0
    4b06:	b2878613          	addi	a2,a5,-1240 # 7b28 <rand+0x5c>
    4b0a:	0a000593          	li	a1,160
    4b0e:	0a800513          	li	a0,168
    4b12:	179000ef          	jal	ra,548a <hdmi_draw_string_back_verticlal>
    4b16:	b5d9                	j	49dc <StartGame+0x2e6>
D:\Hummingbird\HBird-workspace\pico_test_1\Debug/../src/Tetris.c:411
					end = 0;
    4b18:	47e2                	lw	a5,24(sp)
    4b1a:	00078023          	sb	zero,0(a5)
D:\Hummingbird\HBird-workspace\pico_test_1\Debug/../src/Tetris.c:429
	}
}
    4b1e:	50b6                	lw	ra,108(sp)
    4b20:	5426                	lw	s0,104(sp)
    4b22:	5496                	lw	s1,100(sp)
    4b24:	5906                	lw	s2,96(sp)
    4b26:	49f6                	lw	s3,92(sp)
    4b28:	4a66                	lw	s4,88(sp)
    4b2a:	4ad6                	lw	s5,84(sp)
    4b2c:	4b46                	lw	s6,80(sp)
    4b2e:	4bb6                	lw	s7,76(sp)
    4b30:	4c26                	lw	s8,72(sp)
    4b32:	4c96                	lw	s9,68(sp)
    4b34:	4d06                	lw	s10,64(sp)
    4b36:	5df2                	lw	s11,60(sp)
    4b38:	6165                	addi	sp,sp,112
    4b3a:	8082                	ret

00004b3c <Tetris>:
Tetris():
D:\Hummingbird\HBird-workspace\pico_test_1\Debug/../src/Tetris.c:41
	max = 0, grade = 0; //初始化变量
    4b3c:	6785                	lui	a5,0x1
D:\Hummingbird\HBird-workspace\pico_test_1\Debug/../src/Tetris.c:40
{
    4b3e:	1141                	addi	sp,sp,-16
D:\Hummingbird\HBird-workspace\pico_test_1\Debug/../src/Tetris.c:41
	max = 0, grade = 0; //初始化变量
    4b40:	3407aa23          	sw	zero,852(a5) # 1354 <max>
    4b44:	6785                	lui	a5,0x1
D:\Hummingbird\HBird-workspace\pico_test_1\Debug/../src/Tetris.c:40
{
    4b46:	c606                	sw	ra,12(sp)
D:\Hummingbird\HBird-workspace\pico_test_1\Debug/../src/Tetris.c:41
	max = 0, grade = 0; //初始化变量
    4b48:	3407a823          	sw	zero,848(a5) # 1350 <grade>
D:\Hummingbird\HBird-workspace\pico_test_1\Debug/../src/Tetris.c:42
	InitInterface(); //初始化界面
    4b4c:	d88ff0ef          	jal	ra,40d4 <InitInterface>
D:\Hummingbird\HBird-workspace\pico_test_1\Debug/../src/Tetris.c:43
	InitBlockInfo(); //初始化方块信息
    4b50:	ecaff0ef          	jal	ra,421a <InitBlockInfo>
D:\Hummingbird\HBird-workspace\pico_test_1\Debug/../src/Tetris.c:44
	srand(1); //设置随机数生成的起点
    4b54:	4505                	li	a0,1
    4b56:	763020ef          	jal	ra,7ab8 <srand>
D:\Hummingbird\HBird-workspace\pico_test_1\Debug/../src/Tetris.c:46
}
    4b5a:	40b2                	lw	ra,12(sp)
    4b5c:	0141                	addi	sp,sp,16
D:\Hummingbird\HBird-workspace\pico_test_1\Debug/../src/Tetris.c:45
	StartGame(); //开始游戏
    4b5e:	be61                	j	46f6 <StartGame>

00004b60 <initBall>:
initBall():
D:\Hummingbird\HBird-workspace\pico_test_1\Debug/../src/board.c:63
u16 gcolor[7]={RED,ORANGE,YELLOW,GREEN,BLUE,PURPLE,PINK};

//初始化球
void initBall()
{
	ball.radius=RADIUS;
    4b60:	6785                	lui	a5,0x1
    4b62:	cd078793          	addi	a5,a5,-816 # cd0 <ball>
    4b66:	470d                	li	a4,3
    4b68:	c798                	sw	a4,8(a5)
D:\Hummingbird\HBird-workspace\pico_test_1\Debug/../src/board.c:64
	ball.x=WINDOW_WIDTH/2+START_X;
    4b6a:	08700713          	li	a4,135
    4b6e:	c398                	sw	a4,0(a5)
D:\Hummingbird\HBird-workspace\pico_test_1\Debug/../src/board.c:65
	ball.y=WINDOW_HEIGHT-BZ_HEIGHT-RADIUS+START_Y;
    4b70:	12400713          	li	a4,292
    4b74:	c3d8                	sw	a4,4(a5)
D:\Hummingbird\HBird-workspace\pico_test_1\Debug/../src/board.c:66
	ball.color=BLUE;
    4b76:	06800713          	li	a4,104
    4b7a:	00e79623          	sh	a4,12(a5)
D:\Hummingbird\HBird-workspace\pico_test_1\Debug/../src/board.c:68

	ball.xfx=SPACE;
    4b7e:	4711                	li	a4,4
    4b80:	cb98                	sw	a4,16(a5)
D:\Hummingbird\HBird-workspace\pico_test_1\Debug/../src/board.c:69
	ball.yfx=-SPACE;
    4b82:	5771                	li	a4,-4
    4b84:	cbd8                	sw	a4,20(a5)
D:\Hummingbird\HBird-workspace\pico_test_1\Debug/../src/board.c:71

}
    4b86:	8082                	ret

00004b88 <initBz>:
initBz():
D:\Hummingbird\HBird-workspace\pico_test_1\Debug/../src/board.c:75

void initBz()
{
	bz.w=BZ_WIDTH;
    4b88:	6785                	lui	a5,0x1
    4b8a:	ce878793          	addi	a5,a5,-792 # ce8 <bz>
    4b8e:	05000713          	li	a4,80
    4b92:	c798                	sw	a4,8(a5)
D:\Hummingbird\HBird-workspace\pico_test_1\Debug/../src/board.c:76
	bz.h=BZ_HEIGHT;
    4b94:	4715                	li	a4,5
    4b96:	c7d8                	sw	a4,12(a5)
D:\Hummingbird\HBird-workspace\pico_test_1\Debug/../src/board.c:77
	bz.color=RED;
    4b98:	06400713          	li	a4,100
    4b9c:	00e79823          	sh	a4,16(a5)
D:\Hummingbird\HBird-workspace\pico_test_1\Debug/../src/board.c:78
	bz.x=(WINDOW_WIDTH-BZ_WIDTH)/2+START_X;
    4ba0:	05f00713          	li	a4,95
    4ba4:	c398                	sw	a4,0(a5)
D:\Hummingbird\HBird-workspace\pico_test_1\Debug/../src/board.c:79
	bz.y=WINDOW_HEIGHT-BZ_HEIGHT+START_Y;
    4ba6:	12700713          	li	a4,295
    4baa:	c3d8                	sw	a4,4(a5)
D:\Hummingbird\HBird-workspace\pico_test_1\Debug/../src/board.c:80
}
    4bac:	8082                	ret

00004bae <initZk>:
initZk():
D:\Hummingbird\HBird-workspace\pico_test_1\Debug/../src/board.c:83

void initZk()
{
    4bae:	7179                	addi	sp,sp,-48
    4bb0:	d04a                	sw	s2,32(sp)
    4bb2:	c462                	sw	s8,8(sp)
    4bb4:	00000937          	lui	s2,0x0
    4bb8:	6c05                	lui	s8,0x1
    4bba:	d226                	sw	s1,36(sp)
    4bbc:	ce4e                	sw	s3,28(sp)
    4bbe:	cc52                	sw	s4,24(sp)
    4bc0:	ca56                	sw	s5,20(sp)
    4bc2:	c85a                	sw	s6,16(sp)
    4bc4:	c65e                	sw	s7,12(sp)
    4bc6:	c266                	sw	s9,4(sp)
    4bc8:	d606                	sw	ra,44(sp)
    4bca:	d422                	sw	s0,40(sp)
    4bcc:	c06a                	sw	s10,0(sp)
    4bce:	cfcc0c13          	addi	s8,s8,-772 # cfc <zk>
D:\Hummingbird\HBird-workspace\pico_test_1\Debug/../src/board.c:90
	for(i=0;i<ROWS;i++)
	{
		for(j=0;j<COLS;j++)
		{
			zk[i][j].x=j*ZK_WIDTH+START_X;
			zk[i][j].y=i*ZK_HEIGHT+START_Y;
    4bd2:	03200493          	li	s1,50
    4bd6:	00090913          	mv	s2,s2
D:\Hummingbird\HBird-workspace\pico_test_1\Debug/../src/board.c:92

			zk[i][j].w=ZK_WIDTH;
    4bda:	4be5                	li	s7,25
D:\Hummingbird\HBird-workspace\pico_test_1\Debug/../src/board.c:93
			zk[i][j].h=ZK_HEIGHT;
    4bdc:	4b51                	li	s6,20
D:\Hummingbird\HBird-workspace\pico_test_1\Debug/../src/board.c:95

			zk[i][j].color=gcolor[rand()%7];
    4bde:	4a9d                	li	s5,7
D:\Hummingbird\HBird-workspace\pico_test_1\Debug/../src/board.c:96
			zk[i][j].isLive=1;//砖块存活
    4be0:	4a05                	li	s4,1
D:\Hummingbird\HBird-workspace\pico_test_1\Debug/../src/board.c:87
		for(j=0;j<COLS;j++)
    4be2:	10400993          	li	s3,260
D:\Hummingbird\HBird-workspace\pico_test_1\Debug/../src/board.c:85
	for(i=0;i<ROWS;i++)
    4be6:	09600c93          	li	s9,150
D:\Hummingbird\HBird-workspace\pico_test_1\Debug/../src/board.c:90
			zk[i][j].y=i*ZK_HEIGHT+START_Y;
    4bea:	8462                	mv	s0,s8
    4bec:	4d29                	li	s10,10
D:\Hummingbird\HBird-workspace\pico_test_1\Debug/../src/board.c:89 (discriminator 3)
			zk[i][j].x=j*ZK_WIDTH+START_X;
    4bee:	01a42023          	sw	s10,0(s0)
D:\Hummingbird\HBird-workspace\pico_test_1\Debug/../src/board.c:90 (discriminator 3)
			zk[i][j].y=i*ZK_HEIGHT+START_Y;
    4bf2:	c044                	sw	s1,4(s0)
D:\Hummingbird\HBird-workspace\pico_test_1\Debug/../src/board.c:92 (discriminator 3)
			zk[i][j].w=ZK_WIDTH;
    4bf4:	01742423          	sw	s7,8(s0)
D:\Hummingbird\HBird-workspace\pico_test_1\Debug/../src/board.c:93 (discriminator 3)
			zk[i][j].h=ZK_HEIGHT;
    4bf8:	01642623          	sw	s6,12(s0)
D:\Hummingbird\HBird-workspace\pico_test_1\Debug/../src/board.c:95 (discriminator 3)
			zk[i][j].color=gcolor[rand()%7];
    4bfc:	6d1020ef          	jal	ra,7acc <rand>
    4c00:	03556533          	rem	a0,a0,s5
D:\Hummingbird\HBird-workspace\pico_test_1\Debug/../src/board.c:96 (discriminator 3)
			zk[i][j].isLive=1;//砖块存活
    4c04:	01440923          	sb	s4,18(s0)
    4c08:	0451                	addi	s0,s0,20
    4c0a:	0d65                	addi	s10,s10,25
D:\Hummingbird\HBird-workspace\pico_test_1\Debug/../src/board.c:95 (discriminator 3)
			zk[i][j].color=gcolor[rand()%7];
    4c0c:	0506                	slli	a0,a0,0x1
    4c0e:	954a                	add	a0,a0,s2
    4c10:	00055783          	lhu	a5,0(a0)
    4c14:	fef41e23          	sh	a5,-4(s0)
D:\Hummingbird\HBird-workspace\pico_test_1\Debug/../src/board.c:87 (discriminator 3)
		for(j=0;j<COLS;j++)
    4c18:	fd3d1be3          	bne	s10,s3,4bee <initZk+0x40>
    4c1c:	04d1                	addi	s1,s1,20
    4c1e:	0c8c0c13          	addi	s8,s8,200
D:\Hummingbird\HBird-workspace\pico_test_1\Debug/../src/board.c:85 (discriminator 2)
	for(i=0;i<ROWS;i++)
    4c22:	fd9494e3          	bne	s1,s9,4bea <initZk+0x3c>
D:\Hummingbird\HBird-workspace\pico_test_1\Debug/../src/board.c:99
		}
	}
}
    4c26:	50b2                	lw	ra,44(sp)
    4c28:	5422                	lw	s0,40(sp)
    4c2a:	5492                	lw	s1,36(sp)
    4c2c:	5902                	lw	s2,32(sp)
    4c2e:	49f2                	lw	s3,28(sp)
    4c30:	4a62                	lw	s4,24(sp)
    4c32:	4ad2                	lw	s5,20(sp)
    4c34:	4b42                	lw	s6,16(sp)
    4c36:	4bb2                	lw	s7,12(sp)
    4c38:	4c22                	lw	s8,8(sp)
    4c3a:	4c92                	lw	s9,4(sp)
    4c3c:	4d02                	lw	s10,0(sp)
    4c3e:	6145                	addi	sp,sp,48
    4c40:	8082                	ret

00004c42 <delayBall>:
delayBall():
D:\Hummingbird\HBird-workspace\pico_test_1\Debug/../src/board.c:102
void delayBall(){

}
    4c42:	8082                	ret

00004c44 <drawBall>:
drawBall():
D:\Hummingbird\HBird-workspace\pico_test_1\Debug/../src/board.c:105
void drawBall()
{
	hdmi_draw_dircle_solid_vertical(ball.x,ball.y,ball.radius,ball.color);
    4c44:	6785                	lui	a5,0x1
    4c46:	cd078793          	addi	a5,a5,-816 # cd0 <ball>
    4c4a:	00c7c683          	lbu	a3,12(a5)
    4c4e:	0087c603          	lbu	a2,8(a5)
    4c52:	0047d583          	lhu	a1,4(a5)
    4c56:	0007d503          	lhu	a0,0(a5)
D:\Hummingbird\HBird-workspace\pico_test_1\Debug/../src/board.c:104
{
    4c5a:	1141                	addi	sp,sp,-16
    4c5c:	c606                	sw	ra,12(sp)
D:\Hummingbird\HBird-workspace\pico_test_1\Debug/../src/board.c:105
	hdmi_draw_dircle_solid_vertical(ball.x,ball.y,ball.radius,ball.color);
    4c5e:	377000ef          	jal	ra,57d4 <hdmi_draw_dircle_solid_vertical>
    4c62:	6505                	lui	a0,0x1
    4c64:	36850513          	addi	a0,a0,872 # 1368 <ps2key>
    4c68:	00054583          	lbu	a1,0(a0)
    4c6c:	6731                	lui	a4,0xc
    4c6e:	35070713          	addi	a4,a4,848 # c350 <_etext+0x3b1c>
    4c72:	4601                	li	a2,0
D:\Hummingbird\HBird-workspace\pico_test_1\Debug/../src/board.c:109
	//delay_ms(100);记得加延时
	u32 delaycnt = 50000;
			while(delaycnt--){
				boardps2 = *ps2ctrl_point;
    4c74:	66e1                	lui	a3,0x18
    4c76:	1006a783          	lw	a5,256(a3) # 18100 <_etext+0xf8cc>
    4c7a:	177d                	addi	a4,a4,-1
    4c7c:	0ff7f793          	andi	a5,a5,255
D:\Hummingbird\HBird-workspace\pico_test_1\Debug/../src/board.c:110
				if(boardps2 != 0) ps2key = (boardps2>>4);
    4c80:	c781                	beqz	a5,4c88 <drawBall+0x44>
D:\Hummingbird\HBird-workspace\pico_test_1\Debug/../src/board.c:110 (discriminator 1)
    4c82:	0047d593          	srli	a1,a5,0x4
    4c86:	4605                	li	a2,1
D:\Hummingbird\HBird-workspace\pico_test_1\Debug/../src/board.c:108
			while(delaycnt--){
    4c88:	f77d                	bnez	a4,4c76 <drawBall+0x32>
    4c8a:	e619                	bnez	a2,4c98 <drawBall+0x54>
D:\Hummingbird\HBird-workspace\pico_test_1\Debug/../src/board.c:112
			}
}
    4c8c:	40b2                	lw	ra,12(sp)
    4c8e:	6705                	lui	a4,0x1
    4c90:	34f70ea3          	sb	a5,861(a4) # 135d <boardps2>
    4c94:	0141                	addi	sp,sp,16
    4c96:	8082                	ret
    4c98:	00b50023          	sb	a1,0(a0)
    4c9c:	bfc5                	j	4c8c <drawBall+0x48>

00004c9e <drawBz>:
drawBz():
D:\Hummingbird\HBird-workspace\pico_test_1\Debug/../src/board.c:115

void drawBz()
{
    4c9e:	1141                	addi	sp,sp,-16
    4ca0:	c422                	sw	s0,8(sp)
D:\Hummingbird\HBird-workspace\pico_test_1\Debug/../src/board.c:116
	hdmi_draw_fill_vertical(bz.x,bz.y,bz.x+BZ_WIDTH,bz.y+BZ_HEIGHT,bz.color);
    4ca2:	6405                	lui	s0,0x1
    4ca4:	ce840413          	addi	s0,s0,-792 # ce8 <bz>
    4ca8:	00045503          	lhu	a0,0(s0)
    4cac:	00445583          	lhu	a1,4(s0)
    4cb0:	01045703          	lhu	a4,16(s0)
    4cb4:	05050613          	addi	a2,a0,80
    4cb8:	00558693          	addi	a3,a1,5 # 20080005 <_etext+0x200777d1>
    4cbc:	06c2                	slli	a3,a3,0x10
    4cbe:	0642                	slli	a2,a2,0x10
    4cc0:	82c1                	srli	a3,a3,0x10
    4cc2:	8241                	srli	a2,a2,0x10
D:\Hummingbird\HBird-workspace\pico_test_1\Debug/../src/board.c:115
{
    4cc4:	c606                	sw	ra,12(sp)
D:\Hummingbird\HBird-workspace\pico_test_1\Debug/../src/board.c:116
	hdmi_draw_fill_vertical(bz.x,bz.y,bz.x+BZ_WIDTH,bz.y+BZ_HEIGHT,bz.color);
    4cc6:	74f000ef          	jal	ra,5c14 <hdmi_draw_fill_vertical>
D:\Hummingbird\HBird-workspace\pico_test_1\Debug/../src/board.c:117
	hdmi_drawrectangle_vertical(bz.x,bz.y,bz.x+BZ_WIDTH,bz.y+BZ_HEIGHT,WHITE);
    4cca:	00045503          	lhu	a0,0(s0)
    4cce:	00445583          	lhu	a1,4(s0)
D:\Hummingbird\HBird-workspace\pico_test_1\Debug/../src/board.c:118
}
    4cd2:	4422                	lw	s0,8(sp)
    4cd4:	40b2                	lw	ra,12(sp)
D:\Hummingbird\HBird-workspace\pico_test_1\Debug/../src/board.c:117
	hdmi_drawrectangle_vertical(bz.x,bz.y,bz.x+BZ_WIDTH,bz.y+BZ_HEIGHT,WHITE);
    4cd6:	05050613          	addi	a2,a0,80
    4cda:	00558693          	addi	a3,a1,5
    4cde:	06c2                	slli	a3,a3,0x10
    4ce0:	0642                	slli	a2,a2,0x10
    4ce2:	0ff00713          	li	a4,255
    4ce6:	82c1                	srli	a3,a3,0x10
    4ce8:	8241                	srli	a2,a2,0x10
D:\Hummingbird\HBird-workspace\pico_test_1\Debug/../src/board.c:118
}
    4cea:	0141                	addi	sp,sp,16
D:\Hummingbird\HBird-workspace\pico_test_1\Debug/../src/board.c:117
	hdmi_drawrectangle_vertical(bz.x,bz.y,bz.x+BZ_WIDTH,bz.y+BZ_HEIGHT,WHITE);
    4cec:	6db0006f          	j	5bc6 <hdmi_drawrectangle_vertical>

00004cf0 <drawZK>:
drawZK():
D:\Hummingbird\HBird-workspace\pico_test_1\Debug/../src/board.c:121

void drawZK(int i,int j)
{
    4cf0:	1141                	addi	sp,sp,-16
    4cf2:	c422                	sw	s0,8(sp)
D:\Hummingbird\HBird-workspace\pico_test_1\Debug/../src/board.c:122
	hdmi_draw_fill_vertical(zk[i][j].x,zk[i][j].y,zk[i][j].x+ZK_WIDTH,zk[i][j].y+ZK_HEIGHT,zk[i][j].color);
    4cf4:	0c800413          	li	s0,200
    4cf8:	02850533          	mul	a0,a0,s0
    4cfc:	00259793          	slli	a5,a1,0x2
    4d00:	95be                	add	a1,a1,a5
    4d02:	00259413          	slli	s0,a1,0x2
D:\Hummingbird\HBird-workspace\pico_test_1\Debug/../src/board.c:121
{
    4d06:	c606                	sw	ra,12(sp)
D:\Hummingbird\HBird-workspace\pico_test_1\Debug/../src/board.c:122
	hdmi_draw_fill_vertical(zk[i][j].x,zk[i][j].y,zk[i][j].x+ZK_WIDTH,zk[i][j].y+ZK_HEIGHT,zk[i][j].color);
    4d08:	9522                	add	a0,a0,s0
    4d0a:	6405                	lui	s0,0x1
    4d0c:	cfc40413          	addi	s0,s0,-772 # cfc <zk>
    4d10:	942a                	add	s0,s0,a0
    4d12:	00045503          	lhu	a0,0(s0)
    4d16:	00445583          	lhu	a1,4(s0)
    4d1a:	01045703          	lhu	a4,16(s0)
    4d1e:	01950613          	addi	a2,a0,25
    4d22:	01458693          	addi	a3,a1,20
    4d26:	06c2                	slli	a3,a3,0x10
    4d28:	0642                	slli	a2,a2,0x10
    4d2a:	82c1                	srli	a3,a3,0x10
    4d2c:	8241                	srli	a2,a2,0x10
    4d2e:	6e7000ef          	jal	ra,5c14 <hdmi_draw_fill_vertical>
D:\Hummingbird\HBird-workspace\pico_test_1\Debug/../src/board.c:123
	hdmi_drawrectangle_vertical(zk[i][j].x,zk[i][j].y,zk[i][j].x+ZK_WIDTH,zk[i][j].y+ZK_HEIGHT,WHITE);
    4d32:	00045503          	lhu	a0,0(s0)
    4d36:	00445583          	lhu	a1,4(s0)
D:\Hummingbird\HBird-workspace\pico_test_1\Debug/../src/board.c:124
}
    4d3a:	4422                	lw	s0,8(sp)
    4d3c:	40b2                	lw	ra,12(sp)
D:\Hummingbird\HBird-workspace\pico_test_1\Debug/../src/board.c:123
	hdmi_drawrectangle_vertical(zk[i][j].x,zk[i][j].y,zk[i][j].x+ZK_WIDTH,zk[i][j].y+ZK_HEIGHT,WHITE);
    4d3e:	01950613          	addi	a2,a0,25
    4d42:	01458693          	addi	a3,a1,20
    4d46:	06c2                	slli	a3,a3,0x10
    4d48:	0642                	slli	a2,a2,0x10
    4d4a:	0ff00713          	li	a4,255
    4d4e:	82c1                	srli	a3,a3,0x10
    4d50:	8241                	srli	a2,a2,0x10
D:\Hummingbird\HBird-workspace\pico_test_1\Debug/../src/board.c:124
}
    4d52:	0141                	addi	sp,sp,16
D:\Hummingbird\HBird-workspace\pico_test_1\Debug/../src/board.c:123
	hdmi_drawrectangle_vertical(zk[i][j].x,zk[i][j].y,zk[i][j].x+ZK_WIDTH,zk[i][j].y+ZK_HEIGHT,WHITE);
    4d54:	6730006f          	j	5bc6 <hdmi_drawrectangle_vertical>

00004d58 <drawAllZk>:
drawAllZk():
D:\Hummingbird\HBird-workspace\pico_test_1\Debug/../src/board.c:127

void drawAllZk()
{
    4d58:	1101                	addi	sp,sp,-32
    4d5a:	c452                	sw	s4,8(sp)
    4d5c:	6a05                	lui	s4,0x1
    4d5e:	c84a                	sw	s2,16(sp)
    4d60:	c64e                	sw	s3,12(sp)
    4d62:	c256                	sw	s5,4(sp)
    4d64:	ce06                	sw	ra,28(sp)
    4d66:	cc22                	sw	s0,24(sp)
    4d68:	ca26                	sw	s1,20(sp)
    4d6a:	d0ea0a13          	addi	s4,s4,-754 # d0e <zk+0x12>
D:\Hummingbird\HBird-workspace\pico_test_1\Debug/../src/board.c:129
	int i,j;
	for(i=0;i<ROWS;i++)
    4d6e:	4981                	li	s3,0
D:\Hummingbird\HBird-workspace\pico_test_1\Debug/../src/board.c:131
	{
		for(j=0;j<COLS;j++)
    4d70:	4929                	li	s2,10
D:\Hummingbird\HBird-workspace\pico_test_1\Debug/../src/board.c:129
	for(i=0;i<ROWS;i++)
    4d72:	4a95                	li	s5,5
D:\Hummingbird\HBird-workspace\pico_test_1\Debug/../src/board.c:127
{
    4d74:	84d2                	mv	s1,s4
D:\Hummingbird\HBird-workspace\pico_test_1\Debug/../src/board.c:131
		for(j=0;j<COLS;j++)
    4d76:	4401                	li	s0,0
    4d78:	a021                	j	4d80 <drawAllZk+0x28>
D:\Hummingbird\HBird-workspace\pico_test_1\Debug/../src/board.c:131 (discriminator 2)
    4d7a:	0405                	addi	s0,s0,1
    4d7c:	01240c63          	beq	s0,s2,4d94 <drawAllZk+0x3c>
D:\Hummingbird\HBird-workspace\pico_test_1\Debug/../src/board.c:133
		{
			if(zk[i][j].isLive)
    4d80:	0004c783          	lbu	a5,0(s1)
    4d84:	04d1                	addi	s1,s1,20
    4d86:	dbf5                	beqz	a5,4d7a <drawAllZk+0x22>
D:\Hummingbird\HBird-workspace\pico_test_1\Debug/../src/board.c:134
				drawZK(i,j);
    4d88:	85a2                	mv	a1,s0
    4d8a:	854e                	mv	a0,s3
D:\Hummingbird\HBird-workspace\pico_test_1\Debug/../src/board.c:131
		for(j=0;j<COLS;j++)
    4d8c:	0405                	addi	s0,s0,1
D:\Hummingbird\HBird-workspace\pico_test_1\Debug/../src/board.c:134
				drawZK(i,j);
    4d8e:	378d                	jal	4cf0 <drawZK>
D:\Hummingbird\HBird-workspace\pico_test_1\Debug/../src/board.c:131
		for(j=0;j<COLS;j++)
    4d90:	ff2418e3          	bne	s0,s2,4d80 <drawAllZk+0x28>
D:\Hummingbird\HBird-workspace\pico_test_1\Debug/../src/board.c:129 (discriminator 2)
	for(i=0;i<ROWS;i++)
    4d94:	0985                	addi	s3,s3,1
    4d96:	0c8a0a13          	addi	s4,s4,200
    4d9a:	fd599de3          	bne	s3,s5,4d74 <drawAllZk+0x1c>
D:\Hummingbird\HBird-workspace\pico_test_1\Debug/../src/board.c:137
		}
	}
}
    4d9e:	40f2                	lw	ra,28(sp)
    4da0:	4462                	lw	s0,24(sp)
    4da2:	44d2                	lw	s1,20(sp)
    4da4:	4942                	lw	s2,16(sp)
    4da6:	49b2                	lw	s3,12(sp)
    4da8:	4a22                	lw	s4,8(sp)
    4daa:	4a92                	lw	s5,4(sp)
    4dac:	6105                	addi	sp,sp,32
    4dae:	8082                	ret

00004db0 <ball_move>:
ball_move():
D:\Hummingbird\HBird-workspace\pico_test_1\Debug/../src/board.c:140

void ball_move()
{
    4db0:	1141                	addi	sp,sp,-16
    4db2:	c422                	sw	s0,8(sp)
D:\Hummingbird\HBird-workspace\pico_test_1\Debug/../src/board.c:141
	hdmi_draw_dircle_solid_vertical(ball.x,ball.y,ball.radius,GRAY);
    4db4:	6405                	lui	s0,0x1
    4db6:	cd040413          	addi	s0,s0,-816 # cd0 <ball>
    4dba:	00844603          	lbu	a2,8(s0)
    4dbe:	00445583          	lhu	a1,4(s0)
    4dc2:	00045503          	lhu	a0,0(s0)
    4dc6:	06b00693          	li	a3,107
D:\Hummingbird\HBird-workspace\pico_test_1\Debug/../src/board.c:140
{
    4dca:	c606                	sw	ra,12(sp)
D:\Hummingbird\HBird-workspace\pico_test_1\Debug/../src/board.c:141
	hdmi_draw_dircle_solid_vertical(ball.x,ball.y,ball.radius,GRAY);
    4dcc:	209000ef          	jal	ra,57d4 <hdmi_draw_dircle_solid_vertical>
D:\Hummingbird\HBird-workspace\pico_test_1\Debug/../src/board.c:143

	ball.x+=ball.xfx;
    4dd0:	4018                	lw	a4,0(s0)
D:\Hummingbird\HBird-workspace\pico_test_1\Debug/../src/board.c:144
	ball.y+=ball.yfx;
    4dd2:	405c                	lw	a5,4(s0)
D:\Hummingbird\HBird-workspace\pico_test_1\Debug/../src/board.c:143
	ball.x+=ball.xfx;
    4dd4:	4810                	lw	a2,16(s0)
D:\Hummingbird\HBird-workspace\pico_test_1\Debug/../src/board.c:144
	ball.y+=ball.yfx;
    4dd6:	4854                	lw	a3,20(s0)
D:\Hummingbird\HBird-workspace\pico_test_1\Debug/../src/board.c:145
}
    4dd8:	40b2                	lw	ra,12(sp)
D:\Hummingbird\HBird-workspace\pico_test_1\Debug/../src/board.c:143
	ball.x+=ball.xfx;
    4dda:	9732                	add	a4,a4,a2
D:\Hummingbird\HBird-workspace\pico_test_1\Debug/../src/board.c:144
	ball.y+=ball.yfx;
    4ddc:	97b6                	add	a5,a5,a3
D:\Hummingbird\HBird-workspace\pico_test_1\Debug/../src/board.c:143
	ball.x+=ball.xfx;
    4dde:	c018                	sw	a4,0(s0)
D:\Hummingbird\HBird-workspace\pico_test_1\Debug/../src/board.c:144
	ball.y+=ball.yfx;
    4de0:	c05c                	sw	a5,4(s0)
D:\Hummingbird\HBird-workspace\pico_test_1\Debug/../src/board.c:145
}
    4de2:	4422                	lw	s0,8(sp)
    4de4:	0141                	addi	sp,sp,16
    4de6:	8082                	ret

00004de8 <check>:
check():
D:\Hummingbird\HBird-workspace\pico_test_1\Debug/../src/board.c:148

void check()
{
    4de8:	1101                	addi	sp,sp,-32
    4dea:	c84a                	sw	s2,16(sp)
D:\Hummingbird\HBird-workspace\pico_test_1\Debug/../src/board.c:151
	int i,j;
	//撞上右边墙壁
	if(ball.x>=(WINDOW_WIDTH-RADIUS+START_X))
    4dec:	6905                	lui	s2,0x1
    4dee:	cd090913          	addi	s2,s2,-816 # cd0 <ball>
    4df2:	00092783          	lw	a5,0(s2)
D:\Hummingbird\HBird-workspace\pico_test_1\Debug/../src/board.c:148
{
    4df6:	ce06                	sw	ra,28(sp)
    4df8:	cc22                	sw	s0,24(sp)
    4dfa:	ca26                	sw	s1,20(sp)
    4dfc:	c64e                	sw	s3,12(sp)
    4dfe:	c452                	sw	s4,8(sp)
    4e00:	c256                	sw	s5,4(sp)
D:\Hummingbird\HBird-workspace\pico_test_1\Debug/../src/board.c:151
	if(ball.x>=(WINDOW_WIDTH-RADIUS+START_X))
    4e02:	10000713          	li	a4,256
    4e06:	0ef75a63          	ble	a5,a4,4efa <check+0x112>
D:\Hummingbird\HBird-workspace\pico_test_1\Debug/../src/board.c:153
	{
		sound_address = 0b1111011;
    4e0a:	6761                	lui	a4,0x18
    4e0c:	07b00693          	li	a3,123
    4e10:	12d72023          	sw	a3,288(a4) # 18120 <_etext+0xf8ec>
D:\Hummingbird\HBird-workspace\pico_test_1\Debug/../src/board.c:154
		ball.xfx=-SPACE;
    4e14:	5771                	li	a4,-4
    4e16:	00e92823          	sw	a4,16(s2)
D:\Hummingbird\HBird-workspace\pico_test_1\Debug/../src/board.c:163
	{
		sound_address = 0b1111011;
		ball.xfx=SPACE;
	}
	//撞上上边墙壁
	if(ball.y<=RADIUS+START_Y)
    4e1a:	00492703          	lw	a4,4(s2)
    4e1e:	03500693          	li	a3,53
    4e22:	0ae6c263          	blt	a3,a4,4ec6 <check+0xde>
D:\Hummingbird\HBird-workspace\pico_test_1\Debug/../src/board.c:165
	{
		sound_address = 0b1111011;
    4e26:	67e1                	lui	a5,0x18
    4e28:	07b00713          	li	a4,123
    4e2c:	12e7a023          	sw	a4,288(a5) # 18120 <_etext+0xf8ec>
D:\Hummingbird\HBird-workspace\pico_test_1\Debug/../src/board.c:166
		ball.yfx=SPACE;
    4e30:	4791                	li	a5,4
    4e32:	00f92a23          	sw	a5,20(s2)
    4e36:	6a85                	lui	s5,0x1
    4e38:	cfca8a93          	addi	s5,s5,-772 # cfc <zk>
    4e3c:	0c8a8493          	addi	s1,s5,200
D:\Hummingbird\HBird-workspace\pico_test_1\Debug/../src/board.c:193
				ball.y<=(zk[i][j].y+ZK_HEIGHT+RADIUS)&&
				ball.x>=zk[i][j].x &&
				ball.x<=(zk[i][j].x+ZK_WIDTH))
			{
				zk[i][j].isLive=0;//砖块变为不存活
				ball.yfx=SPACE;//球方向改变
    4e40:	4a11                	li	s4,4
    4e42:	4b0a8a93          	addi	s5,s5,1200
D:\Hummingbird\HBird-workspace\pico_test_1\Debug/../src/board.c:195
				hdmi_draw_fill_vertical(zk[i][j].x,zk[i][j].y,zk[i][j].x+ZK_WIDTH,zk[i][j].y+ZK_HEIGHT,GRAY);
				gscore+=10;//得分
    4e46:	6985                	lui	s3,0x1
    4e48:	f3848413          	addi	s0,s1,-200
D:\Hummingbird\HBird-workspace\pico_test_1\Debug/../src/board.c:187
			if(zk[i][j].isLive&&
    4e4c:	01244783          	lbu	a5,18(s0)
    4e50:	c38d                	beqz	a5,4e72 <check+0x8a>
D:\Hummingbird\HBird-workspace\pico_test_1\Debug/../src/board.c:188 (discriminator 1)
				ball.y<=(zk[i][j].y+ZK_HEIGHT+RADIUS)&&
    4e52:	404c                	lw	a1,4(s0)
D:\Hummingbird\HBird-workspace\pico_test_1\Debug/../src/board.c:187 (discriminator 1)
			if(zk[i][j].isLive&&
    4e54:	00492703          	lw	a4,4(s2)
D:\Hummingbird\HBird-workspace\pico_test_1\Debug/../src/board.c:188 (discriminator 1)
				ball.y<=(zk[i][j].y+ZK_HEIGHT+RADIUS)&&
    4e58:	01758793          	addi	a5,a1,23
D:\Hummingbird\HBird-workspace\pico_test_1\Debug/../src/board.c:187 (discriminator 1)
			if(zk[i][j].isLive&&
    4e5c:	00e7cb63          	blt	a5,a4,4e72 <check+0x8a>
D:\Hummingbird\HBird-workspace\pico_test_1\Debug/../src/board.c:189
				ball.x>=zk[i][j].x &&
    4e60:	4008                	lw	a0,0(s0)
    4e62:	00092783          	lw	a5,0(s2)
D:\Hummingbird\HBird-workspace\pico_test_1\Debug/../src/board.c:190
				ball.x<=(zk[i][j].x+ZK_WIDTH))
    4e66:	01950713          	addi	a4,a0,25
D:\Hummingbird\HBird-workspace\pico_test_1\Debug/../src/board.c:188
				ball.y<=(zk[i][j].y+ZK_HEIGHT+RADIUS)&&
    4e6a:	00a7c463          	blt	a5,a0,4e72 <check+0x8a>
D:\Hummingbird\HBird-workspace\pico_test_1\Debug/../src/board.c:189
				ball.x>=zk[i][j].x &&
    4e6e:	02f75263          	ble	a5,a4,4e92 <check+0xaa>
    4e72:	0451                	addi	s0,s0,20
D:\Hummingbird\HBird-workspace\pico_test_1\Debug/../src/board.c:185 (discriminator 2)
		for(j=0;j<COLS;j++)
    4e74:	fc849ce3          	bne	s1,s0,4e4c <check+0x64>
    4e78:	0c848493          	addi	s1,s1,200
D:\Hummingbird\HBird-workspace\pico_test_1\Debug/../src/board.c:183 (discriminator 2)
	for(i=0;i<ROWS;i++)
    4e7c:	fc9a96e3          	bne	s5,s1,4e48 <check+0x60>
D:\Hummingbird\HBird-workspace\pico_test_1\Debug/../src/board.c:199
			}
		}
	}
}
    4e80:	40f2                	lw	ra,28(sp)
    4e82:	4462                	lw	s0,24(sp)
    4e84:	44d2                	lw	s1,20(sp)
    4e86:	4942                	lw	s2,16(sp)
    4e88:	49b2                	lw	s3,12(sp)
    4e8a:	4a22                	lw	s4,8(sp)
    4e8c:	4a92                	lw	s5,4(sp)
    4e8e:	6105                	addi	sp,sp,32
    4e90:	8082                	ret
D:\Hummingbird\HBird-workspace\pico_test_1\Debug/../src/board.c:194
				hdmi_draw_fill_vertical(zk[i][j].x,zk[i][j].y,zk[i][j].x+ZK_WIDTH,zk[i][j].y+ZK_HEIGHT,GRAY);
    4e92:	0542                	slli	a0,a0,0x10
    4e94:	05c2                	slli	a1,a1,0x10
    4e96:	8141                	srli	a0,a0,0x10
    4e98:	81c1                	srli	a1,a1,0x10
    4e9a:	01458693          	addi	a3,a1,20
    4e9e:	01950613          	addi	a2,a0,25
    4ea2:	06c2                	slli	a3,a3,0x10
    4ea4:	0642                	slli	a2,a2,0x10
    4ea6:	06b00713          	li	a4,107
    4eaa:	82c1                	srli	a3,a3,0x10
    4eac:	8241                	srli	a2,a2,0x10
D:\Hummingbird\HBird-workspace\pico_test_1\Debug/../src/board.c:192
				zk[i][j].isLive=0;//砖块变为不存活
    4eae:	00040923          	sb	zero,18(s0)
D:\Hummingbird\HBird-workspace\pico_test_1\Debug/../src/board.c:193
				ball.yfx=SPACE;//球方向改变
    4eb2:	01492a23          	sw	s4,20(s2)
D:\Hummingbird\HBird-workspace\pico_test_1\Debug/../src/board.c:194
				hdmi_draw_fill_vertical(zk[i][j].x,zk[i][j].y,zk[i][j].x+ZK_WIDTH,zk[i][j].y+ZK_HEIGHT,GRAY);
    4eb6:	55f000ef          	jal	ra,5c14 <hdmi_draw_fill_vertical>
D:\Hummingbird\HBird-workspace\pico_test_1\Debug/../src/board.c:195
				gscore+=10;//得分
    4eba:	36098713          	addi	a4,s3,864 # 1360 <gscore>
    4ebe:	431c                	lw	a5,0(a4)
    4ec0:	07a9                	addi	a5,a5,10
    4ec2:	c31c                	sw	a5,0(a4)
    4ec4:	b77d                	j	4e72 <check+0x8a>
D:\Hummingbird\HBird-workspace\pico_test_1\Debug/../src/board.c:169
	if(ball.y>=(WINDOW_HEIGHT-RADIUS+START_Y))
    4ec6:	12800693          	li	a3,296
    4eca:	04e6d463          	ble	a4,a3,4f12 <check+0x12a>
D:\Hummingbird\HBird-workspace\pico_test_1\Debug/../src/board.c:171
		isContinue=0;
    4ece:	42000ca3          	sb	zero,1081(zero) # 439 <isContinue>
D:\Hummingbird\HBird-workspace\pico_test_1\Debug/../src/board.c:176 (discriminator 1)
		ball.x>=bz.x+START_X &&
    4ed2:	6705                	lui	a4,0x1
    4ed4:	ce872703          	lw	a4,-792(a4) # ce8 <bz>
    4ed8:	00970693          	addi	a3,a4,9
D:\Hummingbird\HBird-workspace\pico_test_1\Debug/../src/board.c:175 (discriminator 1)
	if(ball.y>=(WINDOW_HEIGHT-RADIUS-BZ_HEIGHT+START_Y)&&
    4edc:	f4f6dde3          	ble	a5,a3,4e36 <check+0x4e>
D:\Hummingbird\HBird-workspace\pico_test_1\Debug/../src/board.c:177
		ball.x<=(bz.x+BZ_WIDTH+START_X))
    4ee0:	05a70713          	addi	a4,a4,90
D:\Hummingbird\HBird-workspace\pico_test_1\Debug/../src/board.c:176
		ball.x>=bz.x+START_X &&
    4ee4:	f4f749e3          	blt	a4,a5,4e36 <check+0x4e>
D:\Hummingbird\HBird-workspace\pico_test_1\Debug/../src/board.c:179
		sound_address = 0b1111011;
    4ee8:	67e1                	lui	a5,0x18
    4eea:	07b00713          	li	a4,123
    4eee:	12e7a023          	sw	a4,288(a5) # 18120 <_etext+0xf8ec>
D:\Hummingbird\HBird-workspace\pico_test_1\Debug/../src/board.c:180
		ball.yfx=-SPACE;
    4ef2:	57f1                	li	a5,-4
    4ef4:	00f92a23          	sw	a5,20(s2)
    4ef8:	bf3d                	j	4e36 <check+0x4e>
D:\Hummingbird\HBird-workspace\pico_test_1\Debug/../src/board.c:157
	if(ball.x<=RADIUS+START_X)
    4efa:	4735                	li	a4,13
    4efc:	f0f74fe3          	blt	a4,a5,4e1a <check+0x32>
D:\Hummingbird\HBird-workspace\pico_test_1\Debug/../src/board.c:159
		sound_address = 0b1111011;
    4f00:	6761                	lui	a4,0x18
    4f02:	07b00693          	li	a3,123
    4f06:	12d72023          	sw	a3,288(a4) # 18120 <_etext+0xf8ec>
D:\Hummingbird\HBird-workspace\pico_test_1\Debug/../src/board.c:160
		ball.xfx=SPACE;
    4f0a:	4711                	li	a4,4
    4f0c:	00e92823          	sw	a4,16(s2)
    4f10:	b729                	j	4e1a <check+0x32>
D:\Hummingbird\HBird-workspace\pico_test_1\Debug/../src/board.c:175
	if(ball.y>=(WINDOW_HEIGHT-RADIUS-BZ_HEIGHT+START_Y)&&
    4f12:	12300693          	li	a3,291
    4f16:	f2e6d0e3          	ble	a4,a3,4e36 <check+0x4e>
    4f1a:	bf65                	j	4ed2 <check+0xea>

00004f1c <bz_moveLeft>:
bz_moveLeft():
D:\Hummingbird\HBird-workspace\pico_test_1\Debug/../src/board.c:202

void bz_moveLeft()
{
    4f1c:	1141                	addi	sp,sp,-16
    4f1e:	c422                	sw	s0,8(sp)
D:\Hummingbird\HBird-workspace\pico_test_1\Debug/../src/board.c:203
	hdmi_draw_fill_vertical(bz.x,bz.y,bz.x+BZ_WIDTH,bz.y+BZ_HEIGHT,GRAY);
    4f20:	6405                	lui	s0,0x1
    4f22:	ce840413          	addi	s0,s0,-792 # ce8 <bz>
    4f26:	00045503          	lhu	a0,0(s0)
    4f2a:	00445583          	lhu	a1,4(s0)
    4f2e:	06b00713          	li	a4,107
    4f32:	05050613          	addi	a2,a0,80
    4f36:	00558693          	addi	a3,a1,5
    4f3a:	06c2                	slli	a3,a3,0x10
    4f3c:	0642                	slli	a2,a2,0x10
    4f3e:	82c1                	srli	a3,a3,0x10
    4f40:	8241                	srli	a2,a2,0x10
D:\Hummingbird\HBird-workspace\pico_test_1\Debug/../src/board.c:202
{
    4f42:	c606                	sw	ra,12(sp)
D:\Hummingbird\HBird-workspace\pico_test_1\Debug/../src/board.c:203
	hdmi_draw_fill_vertical(bz.x,bz.y,bz.x+BZ_WIDTH,bz.y+BZ_HEIGHT,GRAY);
    4f44:	4d1000ef          	jal	ra,5c14 <hdmi_draw_fill_vertical>
D:\Hummingbird\HBird-workspace\pico_test_1\Debug/../src/board.c:204
	if(bz.x>=BZ_SPACE+START_X-5)
    4f48:	401c                	lw	a5,0(s0)
    4f4a:	4739                	li	a4,14
    4f4c:	00f75463          	ble	a5,a4,4f54 <bz_moveLeft+0x38>
D:\Hummingbird\HBird-workspace\pico_test_1\Debug/../src/board.c:205
		bz.x-=BZ_SPACE;
    4f50:	17d9                	addi	a5,a5,-10
    4f52:	c01c                	sw	a5,0(s0)
D:\Hummingbird\HBird-workspace\pico_test_1\Debug/../src/board.c:206
}
    4f54:	40b2                	lw	ra,12(sp)
    4f56:	4422                	lw	s0,8(sp)
    4f58:	0141                	addi	sp,sp,16
    4f5a:	8082                	ret

00004f5c <bz_moveRight>:
bz_moveRight():
D:\Hummingbird\HBird-workspace\pico_test_1\Debug/../src/board.c:209

void bz_moveRight()
{
    4f5c:	1141                	addi	sp,sp,-16
    4f5e:	c422                	sw	s0,8(sp)
D:\Hummingbird\HBird-workspace\pico_test_1\Debug/../src/board.c:210
	hdmi_draw_fill_vertical(bz.x,bz.y,bz.x+BZ_WIDTH,bz.y+BZ_HEIGHT,GRAY);
    4f60:	6405                	lui	s0,0x1
    4f62:	ce840413          	addi	s0,s0,-792 # ce8 <bz>
    4f66:	00045503          	lhu	a0,0(s0)
    4f6a:	00445583          	lhu	a1,4(s0)
    4f6e:	06b00713          	li	a4,107
    4f72:	05050613          	addi	a2,a0,80
    4f76:	00558693          	addi	a3,a1,5
    4f7a:	06c2                	slli	a3,a3,0x10
    4f7c:	0642                	slli	a2,a2,0x10
    4f7e:	82c1                	srli	a3,a3,0x10
    4f80:	8241                	srli	a2,a2,0x10
D:\Hummingbird\HBird-workspace\pico_test_1\Debug/../src/board.c:209
{
    4f82:	c606                	sw	ra,12(sp)
D:\Hummingbird\HBird-workspace\pico_test_1\Debug/../src/board.c:210
	hdmi_draw_fill_vertical(bz.x,bz.y,bz.x+BZ_WIDTH,bz.y+BZ_HEIGHT,GRAY);
    4f84:	491000ef          	jal	ra,5c14 <hdmi_draw_fill_vertical>
D:\Hummingbird\HBird-workspace\pico_test_1\Debug/../src/board.c:211
	if(bz.x<=WINDOW_WIDTH-BZ_WIDTH-BZ_SPACE+START_X+5)
    4f88:	401c                	lw	a5,0(s0)
    4f8a:	0af00713          	li	a4,175
    4f8e:	00f74463          	blt	a4,a5,4f96 <bz_moveRight+0x3a>
D:\Hummingbird\HBird-workspace\pico_test_1\Debug/../src/board.c:212
		bz.x+=BZ_SPACE;
    4f92:	07a9                	addi	a5,a5,10
    4f94:	c01c                	sw	a5,0(s0)
D:\Hummingbird\HBird-workspace\pico_test_1\Debug/../src/board.c:213
}
    4f96:	40b2                	lw	ra,12(sp)
    4f98:	4422                	lw	s0,8(sp)
    4f9a:	0141                	addi	sp,sp,16
    4f9c:	8082                	ret

00004f9e <keyCtol>:
keyCtol():
D:\Hummingbird\HBird-workspace\pico_test_1\Debug/../src/board.c:217

void keyCtol()
{
	switch(ps2key)
    4f9e:	6785                	lui	a5,0x1
    4fa0:	3687c783          	lbu	a5,872(a5) # 1368 <ps2key>
    4fa4:	4711                	li	a4,4
    4fa6:	00e78763          	beq	a5,a4,4fb4 <keyCtol+0x16>
    4faa:	4721                	li	a4,8
    4fac:	00e79363          	bne	a5,a4,4fb2 <keyCtol+0x14>
D:\Hummingbird\HBird-workspace\pico_test_1\Debug/../src/board.c:223
	{
		case 4:
			bz_moveLeft();
			break;
		case 8:
			bz_moveRight();
    4fb0:	b775                	j	4f5c <bz_moveRight>
    4fb2:	8082                	ret
D:\Hummingbird\HBird-workspace\pico_test_1\Debug/../src/board.c:220
			bz_moveLeft();
    4fb4:	b7a5                	j	4f1c <bz_moveLeft>

00004fb6 <initGame>:
initGame():
D:\Hummingbird\HBird-workspace\pico_test_1\Debug/../src/board.c:230
	}
}

void initGame()
{
	srand(gtime_cnt);//设置随机算子
    4fb6:	6785                	lui	a5,0x1
    4fb8:	3647a503          	lw	a0,868(a5) # 1364 <gtime_cnt>
D:\Hummingbird\HBird-workspace\pico_test_1\Debug/../src/board.c:229
{
    4fbc:	1141                	addi	sp,sp,-16
    4fbe:	c606                	sw	ra,12(sp)
D:\Hummingbird\HBird-workspace\pico_test_1\Debug/../src/board.c:230
	srand(gtime_cnt);//设置随机算子
    4fc0:	2f9020ef          	jal	ra,7ab8 <srand>
D:\Hummingbird\HBird-workspace\pico_test_1\Debug/../src/board.c:232
	//1、做窗口
	hdmi_drawrectangle_vertical(START_X,START_Y,START_X+WINDOW_WIDTH,START_Y+WINDOW_HEIGHT,WHITE);
    4fc4:	10400613          	li	a2,260
    4fc8:	03200593          	li	a1,50
    4fcc:	4529                	li	a0,10
    4fce:	0ff00713          	li	a4,255
    4fd2:	12c00693          	li	a3,300
    4fd6:	3f1000ef          	jal	ra,5bc6 <hdmi_drawrectangle_vertical>
D:\Hummingbird\HBird-workspace\pico_test_1\Debug/../src/board.c:233
	initZk();
    4fda:	3ed1                	jal	4bae <initZk>
initBz():
D:\Hummingbird\HBird-workspace\pico_test_1\Debug/../src/board.c:75
	bz.w=BZ_WIDTH;
    4fdc:	6705                	lui	a4,0x1
    4fde:	ce870713          	addi	a4,a4,-792 # ce8 <bz>
    4fe2:	05000693          	li	a3,80
    4fe6:	c714                	sw	a3,8(a4)
D:\Hummingbird\HBird-workspace\pico_test_1\Debug/../src/board.c:76
	bz.h=BZ_HEIGHT;
    4fe8:	4695                	li	a3,5
    4fea:	c754                	sw	a3,12(a4)
D:\Hummingbird\HBird-workspace\pico_test_1\Debug/../src/board.c:77
	bz.color=RED;
    4fec:	06400693          	li	a3,100
    4ff0:	00d71823          	sh	a3,16(a4)
D:\Hummingbird\HBird-workspace\pico_test_1\Debug/../src/board.c:78
	bz.x=(WINDOW_WIDTH-BZ_WIDTH)/2+START_X;
    4ff4:	05f00693          	li	a3,95
    4ff8:	c314                	sw	a3,0(a4)
initBall():
D:\Hummingbird\HBird-workspace\pico_test_1\Debug/../src/board.c:63
	ball.radius=RADIUS;
    4ffa:	6785                	lui	a5,0x1
initBz():
D:\Hummingbird\HBird-workspace\pico_test_1\Debug/../src/board.c:79
	bz.y=WINDOW_HEIGHT-BZ_HEIGHT+START_Y;
    4ffc:	12700693          	li	a3,295
initBall():
D:\Hummingbird\HBird-workspace\pico_test_1\Debug/../src/board.c:63
	ball.radius=RADIUS;
    5000:	cd078793          	addi	a5,a5,-816 # cd0 <ball>
initBz():
D:\Hummingbird\HBird-workspace\pico_test_1\Debug/../src/board.c:79
	bz.y=WINDOW_HEIGHT-BZ_HEIGHT+START_Y;
    5004:	c354                	sw	a3,4(a4)
initBall():
D:\Hummingbird\HBird-workspace\pico_test_1\Debug/../src/board.c:63
	ball.radius=RADIUS;
    5006:	470d                	li	a4,3
    5008:	c798                	sw	a4,8(a5)
D:\Hummingbird\HBird-workspace\pico_test_1\Debug/../src/board.c:64
	ball.x=WINDOW_WIDTH/2+START_X;
    500a:	08700713          	li	a4,135
    500e:	c398                	sw	a4,0(a5)
D:\Hummingbird\HBird-workspace\pico_test_1\Debug/../src/board.c:65
	ball.y=WINDOW_HEIGHT-BZ_HEIGHT-RADIUS+START_Y;
    5010:	12400713          	li	a4,292
    5014:	c3d8                	sw	a4,4(a5)
D:\Hummingbird\HBird-workspace\pico_test_1\Debug/../src/board.c:66
	ball.color=BLUE;
    5016:	06800713          	li	a4,104
    501a:	00e79623          	sh	a4,12(a5)
D:\Hummingbird\HBird-workspace\pico_test_1\Debug/../src/board.c:68
	ball.xfx=SPACE;
    501e:	4711                	li	a4,4
    5020:	cb98                	sw	a4,16(a5)
D:\Hummingbird\HBird-workspace\pico_test_1\Debug/../src/board.c:69
	ball.yfx=-SPACE;
    5022:	5771                	li	a4,-4
    5024:	cbd8                	sw	a4,20(a5)
initGame():
D:\Hummingbird\HBird-workspace\pico_test_1\Debug/../src/board.c:236
	initBz();
	initBall();
	isContinue=1;
    5026:	4705                	li	a4,1
    5028:	42e00ca3          	sb	a4,1081(zero) # 439 <isContinue>
D:\Hummingbird\HBird-workspace\pico_test_1\Debug/../src/board.c:238

	drawAllZk();
    502c:	3335                	jal	4d58 <drawAllZk>
D:\Hummingbird\HBird-workspace\pico_test_1\Debug/../src/board.c:239
	drawBz();
    502e:	3985                	jal	4c9e <drawBz>
D:\Hummingbird\HBird-workspace\pico_test_1\Debug/../src/board.c:241
	drawBall();
}
    5030:	40b2                	lw	ra,12(sp)
    5032:	0141                	addi	sp,sp,16
D:\Hummingbird\HBird-workspace\pico_test_1\Debug/../src/board.c:240
	drawBall();
    5034:	b901                	j	4c44 <drawBall>

00005036 <showGame>:
showGame():
D:\Hummingbird\HBird-workspace\pico_test_1\Debug/../src/board.c:244

void showGame()
{
    5036:	1141                	addi	sp,sp,-16
D:\Hummingbird\HBird-workspace\pico_test_1\Debug/../src/board.c:245
	hdmi_drawrectangle_vertical(START_X,START_Y,START_X+WINDOW_WIDTH,START_Y+WINDOW_HEIGHT,WHITE);
    5038:	0ff00713          	li	a4,255
    503c:	12c00693          	li	a3,300
    5040:	10400613          	li	a2,260
    5044:	03200593          	li	a1,50
    5048:	4529                	li	a0,10
D:\Hummingbird\HBird-workspace\pico_test_1\Debug/../src/board.c:244
{
    504a:	c606                	sw	ra,12(sp)
D:\Hummingbird\HBird-workspace\pico_test_1\Debug/../src/board.c:245
	hdmi_drawrectangle_vertical(START_X,START_Y,START_X+WINDOW_WIDTH,START_Y+WINDOW_HEIGHT,WHITE);
    504c:	37b000ef          	jal	ra,5bc6 <hdmi_drawrectangle_vertical>
D:\Hummingbird\HBird-workspace\pico_test_1\Debug/../src/board.c:246
	drawBz();
    5050:	31b9                	jal	4c9e <drawBz>
D:\Hummingbird\HBird-workspace\pico_test_1\Debug/../src/board.c:247
	drawBall();
    5052:	3ecd                	jal	4c44 <drawBall>
D:\Hummingbird\HBird-workspace\pico_test_1\Debug/../src/board.c:248
	hdmi_draw_num_back_vertical(START_X+32*3,WINDOW_HEIGHT+START_Y+20,gscore,5,WHITE,GRAY);
    5054:	6785                	lui	a5,0x1
    5056:	3607d603          	lhu	a2,864(a5) # 1360 <gscore>
D:\Hummingbird\HBird-workspace\pico_test_1\Debug/../src/board.c:249
}
    505a:	40b2                	lw	ra,12(sp)
D:\Hummingbird\HBird-workspace\pico_test_1\Debug/../src/board.c:248
	hdmi_draw_num_back_vertical(START_X+32*3,WINDOW_HEIGHT+START_Y+20,gscore,5,WHITE,GRAY);
    505c:	06b00793          	li	a5,107
    5060:	0ff00713          	li	a4,255
    5064:	4695                	li	a3,5
    5066:	14000593          	li	a1,320
    506a:	06a00513          	li	a0,106
D:\Hummingbird\HBird-workspace\pico_test_1\Debug/../src/board.c:249
}
    506e:	0141                	addi	sp,sp,16
D:\Hummingbird\HBird-workspace\pico_test_1\Debug/../src/board.c:248
	hdmi_draw_num_back_vertical(START_X+32*3,WINDOW_HEIGHT+START_Y+20,gscore,5,WHITE,GRAY);
    5070:	ab29                	j	558a <hdmi_draw_num_back_vertical>

00005072 <ctolGame>:
ctolGame():
D:\Hummingbird\HBird-workspace\pico_test_1\Debug/../src/board.c:252

void ctolGame()
{
    5072:	1141                	addi	sp,sp,-16
    5074:	c606                	sw	ra,12(sp)
D:\Hummingbird\HBird-workspace\pico_test_1\Debug/../src/board.c:253
	ball_move();
    5076:	3b2d                	jal	4db0 <ball_move>
D:\Hummingbird\HBird-workspace\pico_test_1\Debug/../src/board.c:254
	check();
    5078:	3b85                	jal	4de8 <check>
D:\Hummingbird\HBird-workspace\pico_test_1\Debug/../src/board.c:256
	keyCtol();
}
    507a:	40b2                	lw	ra,12(sp)
    507c:	0141                	addi	sp,sp,16
D:\Hummingbird\HBird-workspace\pico_test_1\Debug/../src/board.c:255
	keyCtol();
    507e:	b705                	j	4f9e <keyCtol>

00005080 <app_demo>:
app_demo():
D:\Hummingbird\HBird-workspace\pico_test_1\Debug/../src/board.c:259

void app_demo(void)
{
    5080:	1141                	addi	sp,sp,-16
    5082:	c606                	sw	ra,12(sp)
    5084:	c422                	sw	s0,8(sp)
    5086:	c226                	sw	s1,4(sp)
    5088:	c04a                	sw	s2,0(sp)
D:\Hummingbird\HBird-workspace\pico_test_1\Debug/../src/board.c:260
	rgb_address = 0b0000000;
    508a:	67e1                	lui	a5,0x18
    508c:	1007a823          	sw	zero,272(a5) # 18110 <_etext+0xf8dc>
D:\Hummingbird\HBird-workspace\pico_test_1\Debug/../src/board.c:262
	gscore=0;
	hdmi_draw_clear(GRAY);
    5090:	06b00513          	li	a0,107
D:\Hummingbird\HBird-workspace\pico_test_1\Debug/../src/board.c:261
	gscore=0;
    5094:	6785                	lui	a5,0x1
    5096:	3607a023          	sw	zero,864(a5) # 1360 <gscore>
D:\Hummingbird\HBird-workspace\pico_test_1\Debug/../src/board.c:264
	initGame();
	while(isContinue)
    509a:	43900413          	li	s0,1081
D:\Hummingbird\HBird-workspace\pico_test_1\Debug/../src/board.c:262
	hdmi_draw_clear(GRAY);
    509e:	2185                	jal	54fe <hdmi_draw_clear>
D:\Hummingbird\HBird-workspace\pico_test_1\Debug/../src/board.c:263
	initGame();
    50a0:	3f19                	jal	4fb6 <initGame>
D:\Hummingbird\HBird-workspace\pico_test_1\Debug/../src/board.c:264
	while(isContinue)
    50a2:	00044783          	lbu	a5,0(s0)
    50a6:	cf89                	beqz	a5,50c0 <app_demo+0x40>
D:\Hummingbird\HBird-workspace\pico_test_1\Debug/../src/board.c:267
	{
		showGame();
		sound_address = 0b1111111;
    50a8:	6961                	lui	s2,0x18
    50aa:	07f00493          	li	s1,127
D:\Hummingbird\HBird-workspace\pico_test_1\Debug/../src/board.c:266
		showGame();
    50ae:	3761                	jal	5036 <showGame>
D:\Hummingbird\HBird-workspace\pico_test_1\Debug/../src/board.c:267
		sound_address = 0b1111111;
    50b0:	12992023          	sw	s1,288(s2) # 18120 <_etext+0xf8ec>
ctolGame():
D:\Hummingbird\HBird-workspace\pico_test_1\Debug/../src/board.c:253
	ball_move();
    50b4:	39f5                	jal	4db0 <ball_move>
D:\Hummingbird\HBird-workspace\pico_test_1\Debug/../src/board.c:254
	check();
    50b6:	3b0d                	jal	4de8 <check>
D:\Hummingbird\HBird-workspace\pico_test_1\Debug/../src/board.c:255
	keyCtol();
    50b8:	35dd                	jal	4f9e <keyCtol>
app_demo():
D:\Hummingbird\HBird-workspace\pico_test_1\Debug/../src/board.c:264
	while(isContinue)
    50ba:	00044783          	lbu	a5,0(s0)
    50be:	fbe5                	bnez	a5,50ae <app_demo+0x2e>
D:\Hummingbird\HBird-workspace\pico_test_1\Debug/../src/board.c:271
		ctolGame();
	}
	if(!isContinue){
		rgb_address = 0b0000110;
    50c0:	67e1                	lui	a5,0x18
    50c2:	4719                	li	a4,6
    50c4:	10e7a823          	sw	a4,272(a5) # 18110 <_etext+0xf8dc>
D:\Hummingbird\HBird-workspace\pico_test_1\Debug/../src/board.c:272
		sound_address = 0b1011111;
    50c8:	05f00713          	li	a4,95
    50cc:	12e7a023          	sw	a4,288(a5)
D:\Hummingbird\HBird-workspace\pico_test_1\Debug/../src/board.c:273
		drawBz();
    50d0:	36f9                	jal	4c9e <drawBz>
D:\Hummingbird\HBird-workspace\pico_test_1\Debug/../src/board.c:274
		hdmi_draw_string_back_verticlal(50,100,"GAME OVER",RED,WHITE);
    50d2:	00008637          	lui	a2,0x8
    50d6:	0ff00713          	li	a4,255
    50da:	06400693          	li	a3,100
    50de:	b3060613          	addi	a2,a2,-1232 # 7b30 <rand+0x64>
    50e2:	06400593          	li	a1,100
    50e6:	03200513          	li	a0,50
    50ea:	2645                	jal	548a <hdmi_draw_string_back_verticlal>
D:\Hummingbird\HBird-workspace\pico_test_1\Debug/../src/board.c:275
		hdmi_draw_string_back_verticlal(50,120,"PRESS ANY KEY TO QUIT",RED,WHITE);
    50ec:	00008637          	lui	a2,0x8
    50f0:	0ff00713          	li	a4,255
    50f4:	06400693          	li	a3,100
    50f8:	b6060613          	addi	a2,a2,-1184 # 7b60 <rand+0x94>
    50fc:	07800593          	li	a1,120
    5100:	03200513          	li	a0,50
    5104:	2659                	jal	548a <hdmi_draw_string_back_verticlal>
D:\Hummingbird\HBird-workspace\pico_test_1\Debug/../src/board.c:276
		boardps2 = 0;
    5106:	6605                	lui	a2,0x1
    5108:	35d60613          	addi	a2,a2,861 # 135d <boardps2>
    510c:	00060023          	sb	zero,0(a2)
D:\Hummingbird\HBird-workspace\pico_test_1\Debug/../src/board.c:278
		while(boardps2 == 0){
			boardps2 = *ps2ctrl_point;
    5110:	6761                	lui	a4,0x18
D:\Hummingbird\HBird-workspace\pico_test_1\Debug/../src/board.c:279
			if(boardps2 == 0B00000010){
    5112:	4689                	li	a3,2
D:\Hummingbird\HBird-workspace\pico_test_1\Debug/../src/board.c:278
			boardps2 = *ps2ctrl_point;
    5114:	10072783          	lw	a5,256(a4) # 18100 <_etext+0xf8cc>
    5118:	0ff7f793          	andi	a5,a5,255
D:\Hummingbird\HBird-workspace\pico_test_1\Debug/../src/board.c:279
			if(boardps2 == 0B00000010){
    511c:	00d78663          	beq	a5,a3,5128 <app_demo+0xa8>
D:\Hummingbird\HBird-workspace\pico_test_1\Debug/../src/board.c:277
		while(boardps2 == 0){
    5120:	dbf5                	beqz	a5,5114 <app_demo+0x94>
    5122:	00f60023          	sb	a5,0(a2)
D:\Hummingbird\HBird-workspace\pico_test_1\Debug/../src/board.c:285
				sound_address = 0b1111111;
				break;
			}
		}
	}
}
    5126:	a039                	j	5134 <app_demo+0xb4>
    5128:	00d60023          	sb	a3,0(a2)
D:\Hummingbird\HBird-workspace\pico_test_1\Debug/../src/board.c:280
				sound_address = 0b1111111;
    512c:	07f00793          	li	a5,127
    5130:	12f72023          	sw	a5,288(a4)
D:\Hummingbird\HBird-workspace\pico_test_1\Debug/../src/board.c:285
}
    5134:	40b2                	lw	ra,12(sp)
    5136:	4422                	lw	s0,8(sp)
    5138:	4492                	lw	s1,4(sp)
    513a:	4902                	lw	s2,0(sp)
    513c:	0141                	addi	sp,sp,16
    513e:	8082                	ret

00005140 <hdmi_draw_test>:
hdmi_draw_test():
D:\Hummingbird\HBird-workspace\pico_test_1\Debug/../src/hdmidraw.c:14
/***************************************************************************
 ** 作用：显示春日影
 ** 参数：x:屏幕x坐标,y:屏幕y坐标
 ** 注:仅用作测试
****************************************************************************/
void hdmi_draw_test(u32 x,u32 y){
    5140:	1141                	addi	sp,sp,-16
    5142:	c622                	sw	s0,12(sp)
D:\Hummingbird\HBird-workspace\pico_test_1\Debug/../src/hdmidraw.c:17
	u8 i;u8 j;
	u64 cursor;
	u16 x0 = x; u16 y0 = y;
    5144:	01051e93          	slli	t4,a0,0x10
    5148:	6421                	lui	s0,0x8
    514a:	16840413          	addi	s0,s0,360 # 8168 <bitmap_bytes>
    514e:	010ede93          	srli	t4,t4,0x10
hdmi_draw_point():
D:\Hummingbird\HBird-workspace\pico_test_1\Debug/../src/hdmidraw.c:45
//color硬件上自行设定
void hdmi_draw_point(u16 x, u16 y, u8 color){
	u64 temp_ramaddress= 0;
	temp_ramaddress = 320*y+x;
	ram_address = temp_ramaddress;
	ram_data_address = color+(0b1<<31);
    5152:	80000fb7          	lui	t6,0x80000
hdmi_draw_test():
D:\Hummingbird\HBird-workspace\pico_test_1\Debug/../src/hdmidraw.c:17
	u16 x0 = x; u16 y0 = y;
    5156:	05c2                	slli	a1,a1,0x10
    5158:	00140393          	addi	t2,s0,1
    515c:	81c1                	srli	a1,a1,0x10
    515e:	06040413          	addi	s0,s0,96
    5162:	8776                	mv	a4,t4
    5164:	4885                	li	a7,1
hdmi_draw_point():
D:\Hummingbird\HBird-workspace\pico_test_1\Debug/../src/hdmidraw.c:44
	ram_address = temp_ramaddress;
    5166:	6861                	lui	a6,0x18
    5168:	007f8293          	addi	t0,t6,7 # 80000007 <_etext+0x7fff77d3>
hdmi_draw_test():
D:\Hummingbird\HBird-workspace\pico_test_1\Debug/../src/hdmidraw.c:27
			if(x0>319 || x0>47+x){
    516c:	13f00e13          	li	t3,319
    5170:	02f50f13          	addi	t5,a0,47
D:\Hummingbird\HBird-workspace\pico_test_1\Debug/../src/hdmidraw.c:20
		for(j = 0; j< 8; j++){
    5174:	537d                	li	t1,-1
D:\Hummingbird\HBird-workspace\pico_test_1\Debug/../src/hdmidraw.c:19
		cursor = bitmap_bytes[i];//春日影
    5176:	469d                	li	a3,7
    5178:	00259793          	slli	a5,a1,0x2
    517c:	97ae                	add	a5,a5,a1
    517e:	079a                	slli	a5,a5,0x6
    5180:	97ba                	add	a5,a5,a4
D:\Hummingbird\HBird-workspace\pico_test_1\Debug/../src/hdmidraw.c:21
			if(((cursor>>(7-j))&0x01)){
    5182:	00d8d633          	srl	a2,a7,a3
    5186:	0206f513          	andi	a0,a3,32
hdmi_draw_point():
D:\Hummingbird\HBird-workspace\pico_test_1\Debug/../src/hdmidraw.c:44
	ram_address = temp_ramaddress;
    518a:	06f82023          	sw	a5,96(a6) # 18060 <_etext+0xf82c>
hdmi_draw_test():
D:\Hummingbird\HBird-workspace\pico_test_1\Debug/../src/hdmidraw.c:21
			if(((cursor>>(7-j))&0x01)){
    518e:	8a05                	andi	a2,a2,1
    5190:	ed05                	bnez	a0,51c8 <hdmi_draw_test+0x88>
    5192:	40d28533          	sub	a0,t0,a3
    5196:	ca0d                	beqz	a2,51c8 <hdmi_draw_test+0x88>
hdmi_draw_point():
D:\Hummingbird\HBird-workspace\pico_test_1\Debug/../src/hdmidraw.c:45
	ram_data_address = color+(0b1<<31);
    5198:	06a82823          	sw	a0,112(a6)
hdmi_draw_test():
D:\Hummingbird\HBird-workspace\pico_test_1\Debug/../src/hdmidraw.c:26
			x0++;
    519c:	0705                	addi	a4,a4,1
    519e:	0742                	slli	a4,a4,0x10
    51a0:	8341                	srli	a4,a4,0x10
    51a2:	16fd                	addi	a3,a3,-1
D:\Hummingbird\HBird-workspace\pico_test_1\Debug/../src/hdmidraw.c:28
				x0 = x;y0++;
    51a4:	00158793          	addi	a5,a1,1
D:\Hummingbird\HBird-workspace\pico_test_1\Debug/../src/hdmidraw.c:27
			if(x0>319 || x0>47+x){
    51a8:	00ee6463          	bltu	t3,a4,51b0 <hdmi_draw_test+0x70>
D:\Hummingbird\HBird-workspace\pico_test_1\Debug/../src/hdmidraw.c:27 (discriminator 1)
    51ac:	00ef7663          	bleu	a4,t5,51b8 <hdmi_draw_test+0x78>
D:\Hummingbird\HBird-workspace\pico_test_1\Debug/../src/hdmidraw.c:28
				x0 = x;y0++;
    51b0:	01079593          	slli	a1,a5,0x10
    51b4:	81c1                	srli	a1,a1,0x10
    51b6:	8776                	mv	a4,t4
D:\Hummingbird\HBird-workspace\pico_test_1\Debug/../src/hdmidraw.c:20 (discriminator 2)
		for(j = 0; j< 8; j++){
    51b8:	fc6690e3          	bne	a3,t1,5178 <hdmi_draw_test+0x38>
D:\Hummingbird\HBird-workspace\pico_test_1\Debug/../src/hdmidraw.c:18 (discriminator 2)
	for(i = 0;i< 96; i++){
    51bc:	00740963          	beq	s0,t2,51ce <hdmi_draw_test+0x8e>
    51c0:	0003c883          	lbu	a7,0(t2)
    51c4:	0385                	addi	t2,t2,1
    51c6:	bf45                	j	5176 <hdmi_draw_test+0x36>
hdmi_draw_point():
D:\Hummingbird\HBird-workspace\pico_test_1\Debug/../src/hdmidraw.c:45
	ram_data_address = color+(0b1<<31);
    51c8:	07f82823          	sw	t6,112(a6)
    51cc:	bfc1                	j	519c <hdmi_draw_test+0x5c>
hdmi_draw_test():
D:\Hummingbird\HBird-workspace\pico_test_1\Debug/../src/hdmidraw.c:32
}
    51ce:	4432                	lw	s0,12(sp)
    51d0:	0141                	addi	sp,sp,16
    51d2:	8082                	ret

000051d4 <hdmi_draw_point>:
hdmi_draw_point():
D:\Hummingbird\HBird-workspace\pico_test_1\Debug/../src/hdmidraw.c:43
	temp_ramaddress = 320*y+x;
    51d4:	00259793          	slli	a5,a1,0x2
    51d8:	95be                	add	a1,a1,a5
    51da:	059a                	slli	a1,a1,0x6
D:\Hummingbird\HBird-workspace\pico_test_1\Debug/../src/hdmidraw.c:44
	ram_address = temp_ramaddress;
    51dc:	6761                	lui	a4,0x18
D:\Hummingbird\HBird-workspace\pico_test_1\Debug/../src/hdmidraw.c:43
	temp_ramaddress = 320*y+x;
    51de:	95aa                	add	a1,a1,a0
D:\Hummingbird\HBird-workspace\pico_test_1\Debug/../src/hdmidraw.c:45
	ram_data_address = color+(0b1<<31);
    51e0:	800007b7          	lui	a5,0x80000
D:\Hummingbird\HBird-workspace\pico_test_1\Debug/../src/hdmidraw.c:44
	ram_address = temp_ramaddress;
    51e4:	d32c                	sw	a1,96(a4)
D:\Hummingbird\HBird-workspace\pico_test_1\Debug/../src/hdmidraw.c:45
	ram_data_address = color+(0b1<<31);
    51e6:	963e                	add	a2,a2,a5
    51e8:	db30                	sw	a2,112(a4)
D:\Hummingbird\HBird-workspace\pico_test_1\Debug/../src/hdmidraw.c:46
}
    51ea:	8082                	ret

000051ec <hdmi_draw_point_vertical>:
hdmi_draw_point_vertical():
D:\Hummingbird\HBird-workspace\pico_test_1\Debug/../src/hdmidraw.c:54
 ** 参数：x:屏幕x坐标,y:屏幕y坐标,color:颜色索引值，取0~255共256位
 ** 注:用于垂直显示,此时(0,0)位于屏幕左上角
****************************************************************************/
void hdmi_draw_point_vertical(u16 x, u16 y, u8 color){
	u64 temp_ramaddress= 0;
	temp_ramaddress = 320*x+(319-y);
    51ec:	00251793          	slli	a5,a0,0x2
    51f0:	953e                	add	a0,a0,a5
    51f2:	051a                	slli	a0,a0,0x6
    51f4:	8d0d                	sub	a0,a0,a1
D:\Hummingbird\HBird-workspace\pico_test_1\Debug/../src/hdmidraw.c:55
	ram_address = temp_ramaddress;
    51f6:	6761                	lui	a4,0x18
D:\Hummingbird\HBird-workspace\pico_test_1\Debug/../src/hdmidraw.c:54
	temp_ramaddress = 320*x+(319-y);
    51f8:	13f50513          	addi	a0,a0,319
D:\Hummingbird\HBird-workspace\pico_test_1\Debug/../src/hdmidraw.c:56
	ram_data_address = color+(0b1<<31);
    51fc:	800007b7          	lui	a5,0x80000
D:\Hummingbird\HBird-workspace\pico_test_1\Debug/../src/hdmidraw.c:55
	ram_address = temp_ramaddress;
    5200:	d328                	sw	a0,96(a4)
D:\Hummingbird\HBird-workspace\pico_test_1\Debug/../src/hdmidraw.c:56
	ram_data_address = color+(0b1<<31);
    5202:	963e                	add	a2,a2,a5
    5204:	db30                	sw	a2,112(a4)
D:\Hummingbird\HBird-workspace\pico_test_1\Debug/../src/hdmidraw.c:57
}
    5206:	8082                	ret

00005208 <hdmi_draw_char>:
hdmi_draw_char():
D:\Hummingbird\HBird-workspace\pico_test_1\Debug/../src/hdmidraw.c:65
 ** 参数：x:屏幕x坐标,y:屏幕y坐标,c:要显示的字母或符号,color:颜色索引
 ** 注:c仅出现ascii码里的
****************************************************************************/
void hdmi_draw_char(u16 x, u16 y, u8 c, u8 color){
	u8 i;u8 j;
	u8 ch = c - 32;
    5208:	fe060793          	addi	a5,a2,-32
    520c:	6f21                	lui	t5,0x8
    520e:	b78f0f13          	addi	t5,t5,-1160 # 7b78 <F8X16>
D:\Hummingbird\HBird-workspace\pico_test_1\Debug/../src/hdmidraw.c:69
	u8 cursor;
	u16 x0 = x; u16 y0 = y;
	for(i = 0; i < 16; i++){
		cursor = F8X16[16*ch+i];
    5212:	0ff7f793          	andi	a5,a5,255
    5216:	0792                	slli	a5,a5,0x4
    5218:	010f0393          	addi	t2,t5,16
hdmi_draw_point():
D:\Hummingbird\HBird-workspace\pico_test_1\Debug/../src/hdmidraw.c:45
	ram_data_address = color+(0b1<<31);
    521c:	80000fb7          	lui	t6,0x80000
    5220:	9f3e                	add	t5,t5,a5
    5222:	93be                	add	t2,t2,a5
hdmi_draw_char():
D:\Hummingbird\HBird-workspace\pico_test_1\Debug/../src/hdmidraw.c:67
	u16 x0 = x; u16 y0 = y;
    5224:	872a                	mv	a4,a0
hdmi_draw_point():
D:\Hummingbird\HBird-workspace\pico_test_1\Debug/../src/hdmidraw.c:44
	ram_address = temp_ramaddress;
    5226:	68e1                	lui	a7,0x18
D:\Hummingbird\HBird-workspace\pico_test_1\Debug/../src/hdmidraw.c:45
	ram_data_address = color+(0b1<<31);
    5228:	96fe                	add	a3,a3,t6
hdmi_draw_char():
D:\Hummingbird\HBird-workspace\pico_test_1\Debug/../src/hdmidraw.c:78
			}else{
				hdmi_draw_point(x0,y0,0);
			}
//			printk("x0:%d,y0:%d\n",x0,y0);
			x0++;
			if(x0>319 || x0>7+x){
    522a:	13f00e93          	li	t4,319
    522e:	00750293          	addi	t0,a0,7
D:\Hummingbird\HBird-workspace\pico_test_1\Debug/../src/hdmidraw.c:70
		for(j = 0; j< 8; j++){
    5232:	5e7d                	li	t3,-1
    5234:	000f4303          	lbu	t1,0(t5)
D:\Hummingbird\HBird-workspace\pico_test_1\Debug/../src/hdmidraw.c:69
		cursor = F8X16[16*ch+i];
    5238:	481d                	li	a6,7
    523a:	00259793          	slli	a5,a1,0x2
    523e:	97ae                	add	a5,a5,a1
    5240:	079a                	slli	a5,a5,0x6
D:\Hummingbird\HBird-workspace\pico_test_1\Debug/../src/hdmidraw.c:71
			if(((cursor>>(7-j))&0x01)){
    5242:	41035633          	sra	a2,t1,a6
    5246:	97ba                	add	a5,a5,a4
    5248:	8a05                	andi	a2,a2,1
hdmi_draw_point():
D:\Hummingbird\HBird-workspace\pico_test_1\Debug/../src/hdmidraw.c:44
	ram_address = temp_ramaddress;
    524a:	06f8a023          	sw	a5,96(a7) # 18060 <_etext+0xf82c>
hdmi_draw_char():
D:\Hummingbird\HBird-workspace\pico_test_1\Debug/../src/hdmidraw.c:71
			if(((cursor>>(7-j))&0x01)){
    524e:	c61d                	beqz	a2,527c <hdmi_draw_char+0x74>
hdmi_draw_point():
D:\Hummingbird\HBird-workspace\pico_test_1\Debug/../src/hdmidraw.c:45
	ram_data_address = color+(0b1<<31);
    5250:	06d8a823          	sw	a3,112(a7)
hdmi_draw_char():
D:\Hummingbird\HBird-workspace\pico_test_1\Debug/../src/hdmidraw.c:77
			x0++;
    5254:	0705                	addi	a4,a4,1
    5256:	0742                	slli	a4,a4,0x10
    5258:	8341                	srli	a4,a4,0x10
    525a:	187d                	addi	a6,a6,-1
D:\Hummingbird\HBird-workspace\pico_test_1\Debug/../src/hdmidraw.c:79
				x0 = x;y0++;
    525c:	00158793          	addi	a5,a1,1
D:\Hummingbird\HBird-workspace\pico_test_1\Debug/../src/hdmidraw.c:78
			if(x0>319 || x0>7+x){
    5260:	00eee463          	bltu	t4,a4,5268 <hdmi_draw_char+0x60>
D:\Hummingbird\HBird-workspace\pico_test_1\Debug/../src/hdmidraw.c:78 (discriminator 1)
    5264:	00e2d663          	ble	a4,t0,5270 <hdmi_draw_char+0x68>
D:\Hummingbird\HBird-workspace\pico_test_1\Debug/../src/hdmidraw.c:79
				x0 = x;y0++;
    5268:	01079593          	slli	a1,a5,0x10
    526c:	81c1                	srli	a1,a1,0x10
    526e:	872a                	mv	a4,a0
D:\Hummingbird\HBird-workspace\pico_test_1\Debug/../src/hdmidraw.c:70 (discriminator 2)
		for(j = 0; j< 8; j++){
    5270:	fdc815e3          	bne	a6,t3,523a <hdmi_draw_char+0x32>
    5274:	0f05                	addi	t5,t5,1
D:\Hummingbird\HBird-workspace\pico_test_1\Debug/../src/hdmidraw.c:68 (discriminator 2)
	for(i = 0; i < 16; i++){
    5276:	fbe39fe3          	bne	t2,t5,5234 <hdmi_draw_char+0x2c>
D:\Hummingbird\HBird-workspace\pico_test_1\Debug/../src/hdmidraw.c:83
			}
		}
	}
}
    527a:	8082                	ret
hdmi_draw_point():
D:\Hummingbird\HBird-workspace\pico_test_1\Debug/../src/hdmidraw.c:45
	ram_data_address = color+(0b1<<31);
    527c:	07f8a823          	sw	t6,112(a7)
    5280:	bfd1                	j	5254 <hdmi_draw_char+0x4c>

00005282 <hdmi_draw_char_back>:
hdmi_draw_char_back():
D:\Hummingbird\HBird-workspace\pico_test_1\Debug/../src/hdmidraw.c:91
 ** 参数：x:屏幕x坐标,y:屏幕y坐标,c:要显示的字母或符号,color:颜色索引
 ** 注:c仅出现ascii码里的
****************************************************************************/
void hdmi_draw_char_back(u16 x, u16 y, u8 c, u8 color,u8 back){
	u8 i;u8 j;
	u8 ch = c - 32;
    5282:	1601                	addi	a2,a2,-32
    5284:	6fa1                	lui	t6,0x8
    5286:	b78f8f93          	addi	t6,t6,-1160 # 7b78 <F8X16>
D:\Hummingbird\HBird-workspace\pico_test_1\Debug/../src/hdmidraw.c:95
	u8 cursor;
	u16 x0 = x; u16 y0 = y;
	for(i = 0; i < 16; i++){
		cursor = F8X16[16*ch+i];
    528a:	0ff67613          	andi	a2,a2,255
    528e:	0612                	slli	a2,a2,0x4
hdmi_draw_point():
D:\Hummingbird\HBird-workspace\pico_test_1\Debug/../src/hdmidraw.c:45
	ram_data_address = color+(0b1<<31);
    5290:	800007b7          	lui	a5,0x80000
    5294:	010f8393          	addi	t2,t6,16
    5298:	93b2                	add	t2,t2,a2
    529a:	9fb2                	add	t6,t6,a2
D:\Hummingbird\HBird-workspace\pico_test_1\Debug/../src/hdmidraw.c:44
	ram_address = temp_ramaddress;
    529c:	6361                	lui	t1,0x18
hdmi_draw_char_back():
D:\Hummingbird\HBird-workspace\pico_test_1\Debug/../src/hdmidraw.c:93
	u16 x0 = x; u16 y0 = y;
    529e:	862a                	mv	a2,a0
hdmi_draw_point():
D:\Hummingbird\HBird-workspace\pico_test_1\Debug/../src/hdmidraw.c:45
	ram_data_address = color+(0b1<<31);
    52a0:	973e                	add	a4,a4,a5
    52a2:	96be                	add	a3,a3,a5
hdmi_draw_char_back():
D:\Hummingbird\HBird-workspace\pico_test_1\Debug/../src/hdmidraw.c:104
			}else{
				hdmi_draw_point(x0,y0,back);
			}
//			printk("x0:%d,y0:%d\n",x0,y0);
			x0++;
			if(x0>319 || x0>7+x){
    52a4:	13f00f13          	li	t5,319
    52a8:	00750293          	addi	t0,a0,7
D:\Hummingbird\HBird-workspace\pico_test_1\Debug/../src/hdmidraw.c:96
		for(j = 0; j< 8; j++){
    52ac:	5efd                	li	t4,-1
    52ae:	000fce03          	lbu	t3,0(t6)
D:\Hummingbird\HBird-workspace\pico_test_1\Debug/../src/hdmidraw.c:95
		cursor = F8X16[16*ch+i];
    52b2:	489d                	li	a7,7
    52b4:	00259793          	slli	a5,a1,0x2
    52b8:	97ae                	add	a5,a5,a1
    52ba:	079a                	slli	a5,a5,0x6
D:\Hummingbird\HBird-workspace\pico_test_1\Debug/../src/hdmidraw.c:97
			if(((cursor>>(7-j))&0x01)){
    52bc:	411e5833          	sra	a6,t3,a7
    52c0:	97b2                	add	a5,a5,a2
    52c2:	00187813          	andi	a6,a6,1
hdmi_draw_point():
D:\Hummingbird\HBird-workspace\pico_test_1\Debug/../src/hdmidraw.c:44
	ram_address = temp_ramaddress;
    52c6:	06f32023          	sw	a5,96(t1) # 18060 <_etext+0xf82c>
hdmi_draw_char_back():
D:\Hummingbird\HBird-workspace\pico_test_1\Debug/../src/hdmidraw.c:97
			if(((cursor>>(7-j))&0x01)){
    52ca:	02080863          	beqz	a6,52fa <hdmi_draw_char_back+0x78>
hdmi_draw_point():
D:\Hummingbird\HBird-workspace\pico_test_1\Debug/../src/hdmidraw.c:45
	ram_data_address = color+(0b1<<31);
    52ce:	06d32823          	sw	a3,112(t1)
hdmi_draw_char_back():
D:\Hummingbird\HBird-workspace\pico_test_1\Debug/../src/hdmidraw.c:103
			x0++;
    52d2:	0605                	addi	a2,a2,1
    52d4:	0642                	slli	a2,a2,0x10
    52d6:	8241                	srli	a2,a2,0x10
    52d8:	18fd                	addi	a7,a7,-1
D:\Hummingbird\HBird-workspace\pico_test_1\Debug/../src/hdmidraw.c:105
				x0 = x;y0++;
    52da:	00158793          	addi	a5,a1,1
D:\Hummingbird\HBird-workspace\pico_test_1\Debug/../src/hdmidraw.c:104
			if(x0>319 || x0>7+x){
    52de:	00cf6463          	bltu	t5,a2,52e6 <hdmi_draw_char_back+0x64>
D:\Hummingbird\HBird-workspace\pico_test_1\Debug/../src/hdmidraw.c:104 (discriminator 1)
    52e2:	00c2d663          	ble	a2,t0,52ee <hdmi_draw_char_back+0x6c>
D:\Hummingbird\HBird-workspace\pico_test_1\Debug/../src/hdmidraw.c:105
				x0 = x;y0++;
    52e6:	01079593          	slli	a1,a5,0x10
    52ea:	81c1                	srli	a1,a1,0x10
    52ec:	862a                	mv	a2,a0
D:\Hummingbird\HBird-workspace\pico_test_1\Debug/../src/hdmidraw.c:96 (discriminator 2)
		for(j = 0; j< 8; j++){
    52ee:	fdd893e3          	bne	a7,t4,52b4 <hdmi_draw_char_back+0x32>
    52f2:	0f85                	addi	t6,t6,1
D:\Hummingbird\HBird-workspace\pico_test_1\Debug/../src/hdmidraw.c:94 (discriminator 2)
	for(i = 0; i < 16; i++){
    52f4:	fbf39de3          	bne	t2,t6,52ae <hdmi_draw_char_back+0x2c>
D:\Hummingbird\HBird-workspace\pico_test_1\Debug/../src/hdmidraw.c:109
			}
		}
	}
}
    52f8:	8082                	ret
hdmi_draw_point():
D:\Hummingbird\HBird-workspace\pico_test_1\Debug/../src/hdmidraw.c:45
	ram_data_address = color+(0b1<<31);
    52fa:	06e32823          	sw	a4,112(t1)
    52fe:	bfd1                	j	52d2 <hdmi_draw_char_back+0x50>

00005300 <hdmi_draw_char_back_vertical>:
hdmi_draw_char_back_vertical():
D:\Hummingbird\HBird-workspace\pico_test_1\Debug/../src/hdmidraw.c:117
 ** 参数：x:屏幕x坐标,y:屏幕y坐标,c:要显示的字母或符号,color:颜色索引,back:背景颜色索引
 ** 注:用于垂直显示
****************************************************************************/
void hdmi_draw_char_back_vertical(u16 x, u16 y, u8 c, u8 color,u8 back){
	u8 i;u8 j;
	u8 ch = c - 32;
    5300:	fe060793          	addi	a5,a2,-32
    5304:	63a1                	lui	t2,0x8
D:\Hummingbird\HBird-workspace\pico_test_1\Debug/../src/hdmidraw.c:115
void hdmi_draw_char_back_vertical(u16 x, u16 y, u8 c, u8 color,u8 back){
    5306:	1141                	addi	sp,sp,-16
    5308:	b7838393          	addi	t2,t2,-1160 # 7b78 <F8X16>
D:\Hummingbird\HBird-workspace\pico_test_1\Debug/../src/hdmidraw.c:121
	u8 cursor;
	u16 x0 = x; u16 y0 = y;
	for(i = 0; i < 16; i++){
		cursor = F8X16[16*ch+i];
    530c:	0ff7f793          	andi	a5,a5,255
    5310:	0792                	slli	a5,a5,0x4
hdmi_draw_point_vertical():
D:\Hummingbird\HBird-workspace\pico_test_1\Debug/../src/hdmidraw.c:56
	ram_data_address = color+(0b1<<31);
    5312:	80000637          	lui	a2,0x80000
hdmi_draw_char_back_vertical():
D:\Hummingbird\HBird-workspace\pico_test_1\Debug/../src/hdmidraw.c:115
void hdmi_draw_char_back_vertical(u16 x, u16 y, u8 c, u8 color,u8 back){
    5316:	c622                	sw	s0,12(sp)
    5318:	01038413          	addi	s0,t2,16
    531c:	c426                	sw	s1,8(sp)
    531e:	93be                	add	t2,t2,a5
    5320:	943e                	add	s0,s0,a5
hdmi_draw_point_vertical():
D:\Hummingbird\HBird-workspace\pico_test_1\Debug/../src/hdmidraw.c:56
	ram_data_address = color+(0b1<<31);
    5322:	00c704b3          	add	s1,a4,a2
hdmi_draw_char_back_vertical():
D:\Hummingbird\HBird-workspace\pico_test_1\Debug/../src/hdmidraw.c:119
	u16 x0 = x; u16 y0 = y;
    5326:	87aa                	mv	a5,a0
    5328:	13f00293          	li	t0,319
hdmi_draw_point_vertical():
D:\Hummingbird\HBird-workspace\pico_test_1\Debug/../src/hdmidraw.c:55
	ram_address = temp_ramaddress;
    532c:	6e61                	lui	t3,0x18
D:\Hummingbird\HBird-workspace\pico_test_1\Debug/../src/hdmidraw.c:56
	ram_data_address = color+(0b1<<31);
    532e:	96b2                	add	a3,a3,a2
hdmi_draw_char_back_vertical():
D:\Hummingbird\HBird-workspace\pico_test_1\Debug/../src/hdmidraw.c:129
				hdmi_draw_point_vertical(x0,y0,color);
			}else{
				hdmi_draw_point_vertical(x0,y0,back);
			}
			x0++;
			if(x0>269 || x0>7+x){
    5330:	10d00f93          	li	t6,269
    5334:	00750713          	addi	a4,a0,7
D:\Hummingbird\HBird-workspace\pico_test_1\Debug/../src/hdmidraw.c:122
		for(j = 0; j< 8; j++){
    5338:	5f7d                	li	t5,-1
    533a:	0003ce83          	lbu	t4,0(t2)
D:\Hummingbird\HBird-workspace\pico_test_1\Debug/../src/hdmidraw.c:121
		cursor = F8X16[16*ch+i];
    533e:	431d                	li	t1,7
    5340:	00279813          	slli	a6,a5,0x2
    5344:	983e                	add	a6,a6,a5
    5346:	40b28633          	sub	a2,t0,a1
    534a:	081a                	slli	a6,a6,0x6
D:\Hummingbird\HBird-workspace\pico_test_1\Debug/../src/hdmidraw.c:123
			if(((cursor>>(7-j))&0x01)){
    534c:	406ed8b3          	sra	a7,t4,t1
    5350:	9642                	add	a2,a2,a6
    5352:	0018f893          	andi	a7,a7,1
hdmi_draw_point_vertical():
D:\Hummingbird\HBird-workspace\pico_test_1\Debug/../src/hdmidraw.c:55
	ram_address = temp_ramaddress;
    5356:	06ce2023          	sw	a2,96(t3) # 18060 <_etext+0xf82c>
hdmi_draw_char_back_vertical():
D:\Hummingbird\HBird-workspace\pico_test_1\Debug/../src/hdmidraw.c:123
			if(((cursor>>(7-j))&0x01)){
    535a:	02088b63          	beqz	a7,5390 <hdmi_draw_char_back_vertical+0x90>
hdmi_draw_point_vertical():
D:\Hummingbird\HBird-workspace\pico_test_1\Debug/../src/hdmidraw.c:56
	ram_data_address = color+(0b1<<31);
    535e:	06de2823          	sw	a3,112(t3)
hdmi_draw_char_back_vertical():
D:\Hummingbird\HBird-workspace\pico_test_1\Debug/../src/hdmidraw.c:128
			x0++;
    5362:	0785                	addi	a5,a5,1
    5364:	07c2                	slli	a5,a5,0x10
    5366:	83c1                	srli	a5,a5,0x10
    5368:	137d                	addi	t1,t1,-1
D:\Hummingbird\HBird-workspace\pico_test_1\Debug/../src/hdmidraw.c:130
				x0 = x;y0++;
    536a:	00158613          	addi	a2,a1,1
D:\Hummingbird\HBird-workspace\pico_test_1\Debug/../src/hdmidraw.c:129
			if(x0>269 || x0>7+x){
    536e:	00ffe463          	bltu	t6,a5,5376 <hdmi_draw_char_back_vertical+0x76>
D:\Hummingbird\HBird-workspace\pico_test_1\Debug/../src/hdmidraw.c:129 (discriminator 1)
    5372:	00f75663          	ble	a5,a4,537e <hdmi_draw_char_back_vertical+0x7e>
D:\Hummingbird\HBird-workspace\pico_test_1\Debug/../src/hdmidraw.c:130
				x0 = x;y0++;
    5376:	01061593          	slli	a1,a2,0x10
    537a:	81c1                	srli	a1,a1,0x10
    537c:	87aa                	mv	a5,a0
D:\Hummingbird\HBird-workspace\pico_test_1\Debug/../src/hdmidraw.c:122 (discriminator 2)
		for(j = 0; j< 8; j++){
    537e:	fde311e3          	bne	t1,t5,5340 <hdmi_draw_char_back_vertical+0x40>
    5382:	0385                	addi	t2,t2,1
D:\Hummingbird\HBird-workspace\pico_test_1\Debug/../src/hdmidraw.c:120 (discriminator 2)
	for(i = 0; i < 16; i++){
    5384:	fa741be3          	bne	s0,t2,533a <hdmi_draw_char_back_vertical+0x3a>
D:\Hummingbird\HBird-workspace\pico_test_1\Debug/../src/hdmidraw.c:134
			}
		}
	}
}
    5388:	4432                	lw	s0,12(sp)
    538a:	44a2                	lw	s1,8(sp)
    538c:	0141                	addi	sp,sp,16
    538e:	8082                	ret
hdmi_draw_point_vertical():
D:\Hummingbird\HBird-workspace\pico_test_1\Debug/../src/hdmidraw.c:56
	ram_data_address = color+(0b1<<31);
    5390:	069e2823          	sw	s1,112(t3)
    5394:	b7f9                	j	5362 <hdmi_draw_char_back_vertical+0x62>

00005396 <hdmi_draw_string>:
hdmi_draw_string():
D:\Hummingbird\HBird-workspace\pico_test_1\Debug/../src/hdmidraw.c:140
/***************************************************************************
 ** 作用：显示字符串
 ** 参数：x:屏幕x坐标,y:屏幕y坐标,*str:要显示的字母或符号,color:颜色索引,back:背景颜色索引
 ** 注:str仅出现ascii码里的
****************************************************************************/
void hdmi_draw_string(u16 x, u16 y, u8 *str, u8 color){
    5396:	1101                	addi	sp,sp,-32
    5398:	cc22                	sw	s0,24(sp)
    539a:	ca26                	sw	s1,20(sp)
    539c:	c84a                	sw	s2,16(sp)
    539e:	c64e                	sw	s3,12(sp)
    53a0:	c452                	sw	s4,8(sp)
    53a2:	c256                	sw	s5,4(sp)
    53a4:	c05a                	sw	s6,0(sp)
    53a6:	ce06                	sw	ra,28(sp)
    53a8:	8b2a                	mv	s6,a0
    53aa:	892e                	mv	s2,a1
    53ac:	84b2                	mv	s1,a2
    53ae:	8a36                	mv	s4,a3
D:\Hummingbird\HBird-workspace\pico_test_1\Debug/../src/hdmidraw.c:142
	u8 i;u8 j;
	u16 x0 = x;u16 y0 = y;
    53b0:	842a                	mv	s0,a0
D:\Hummingbird\HBird-workspace\pico_test_1\Debug/../src/hdmidraw.c:143
	while((*str<='~')&&(*str>=' ')){
    53b2:	05e00993          	li	s3,94
D:\Hummingbird\HBird-workspace\pico_test_1\Debug/../src/hdmidraw.c:147
		hdmi_draw_char(x0,y0,*str,color);
		str = str + 1;
		x0 = x0 + 8;
		if(x0>319){
    53b6:	13f00a93          	li	s5,319
D:\Hummingbird\HBird-workspace\pico_test_1\Debug/../src/hdmidraw.c:143
	while((*str<='~')&&(*str>=' ')){
    53ba:	0004c783          	lbu	a5,0(s1)
D:\Hummingbird\HBird-workspace\pico_test_1\Debug/../src/hdmidraw.c:144
		hdmi_draw_char(x0,y0,*str,color);
    53be:	85ca                	mv	a1,s2
    53c0:	8522                	mv	a0,s0
    53c2:	863e                	mv	a2,a5
D:\Hummingbird\HBird-workspace\pico_test_1\Debug/../src/hdmidraw.c:143
	while((*str<='~')&&(*str>=' ')){
    53c4:	1781                	addi	a5,a5,-32
    53c6:	0ff7f793          	andi	a5,a5,255
D:\Hummingbird\HBird-workspace\pico_test_1\Debug/../src/hdmidraw.c:144
		hdmi_draw_char(x0,y0,*str,color);
    53ca:	86d2                	mv	a3,s4
D:\Hummingbird\HBird-workspace\pico_test_1\Debug/../src/hdmidraw.c:143
	while((*str<='~')&&(*str>=' ')){
    53cc:	02f9eb63          	bltu	s3,a5,5402 <hdmi_draw_string+0x6c>
D:\Hummingbird\HBird-workspace\pico_test_1\Debug/../src/hdmidraw.c:146
		x0 = x0 + 8;
    53d0:	0421                	addi	s0,s0,8
    53d2:	0442                	slli	s0,s0,0x10
D:\Hummingbird\HBird-workspace\pico_test_1\Debug/../src/hdmidraw.c:144
		hdmi_draw_char(x0,y0,*str,color);
    53d4:	3d15                	jal	5208 <hdmi_draw_char>
D:\Hummingbird\HBird-workspace\pico_test_1\Debug/../src/hdmidraw.c:146
		x0 = x0 + 8;
    53d6:	8041                	srli	s0,s0,0x10
D:\Hummingbird\HBird-workspace\pico_test_1\Debug/../src/hdmidraw.c:149
			x0 = x;
			y0 = y0+16;
    53d8:	01090793          	addi	a5,s2,16
D:\Hummingbird\HBird-workspace\pico_test_1\Debug/../src/hdmidraw.c:145
		str = str + 1;
    53dc:	0485                	addi	s1,s1,1
D:\Hummingbird\HBird-workspace\pico_test_1\Debug/../src/hdmidraw.c:147
		if(x0>319){
    53de:	fc8afee3          	bleu	s0,s5,53ba <hdmi_draw_string+0x24>
D:\Hummingbird\HBird-workspace\pico_test_1\Debug/../src/hdmidraw.c:149
			y0 = y0+16;
    53e2:	01079913          	slli	s2,a5,0x10
D:\Hummingbird\HBird-workspace\pico_test_1\Debug/../src/hdmidraw.c:143
	while((*str<='~')&&(*str>=' ')){
    53e6:	0004c783          	lbu	a5,0(s1)
D:\Hummingbird\HBird-workspace\pico_test_1\Debug/../src/hdmidraw.c:149
			y0 = y0+16;
    53ea:	01095913          	srli	s2,s2,0x10
D:\Hummingbird\HBird-workspace\pico_test_1\Debug/../src/hdmidraw.c:148
			x0 = x;
    53ee:	845a                	mv	s0,s6
D:\Hummingbird\HBird-workspace\pico_test_1\Debug/../src/hdmidraw.c:144
		hdmi_draw_char(x0,y0,*str,color);
    53f0:	863e                	mv	a2,a5
D:\Hummingbird\HBird-workspace\pico_test_1\Debug/../src/hdmidraw.c:143
	while((*str<='~')&&(*str>=' ')){
    53f2:	1781                	addi	a5,a5,-32
    53f4:	0ff7f793          	andi	a5,a5,255
D:\Hummingbird\HBird-workspace\pico_test_1\Debug/../src/hdmidraw.c:144
		hdmi_draw_char(x0,y0,*str,color);
    53f8:	85ca                	mv	a1,s2
    53fa:	8522                	mv	a0,s0
    53fc:	86d2                	mv	a3,s4
D:\Hummingbird\HBird-workspace\pico_test_1\Debug/../src/hdmidraw.c:143
	while((*str<='~')&&(*str>=' ')){
    53fe:	fcf9f9e3          	bleu	a5,s3,53d0 <hdmi_draw_string+0x3a>
D:\Hummingbird\HBird-workspace\pico_test_1\Debug/../src/hdmidraw.c:152
		}
	}
}
    5402:	40f2                	lw	ra,28(sp)
    5404:	4462                	lw	s0,24(sp)
    5406:	44d2                	lw	s1,20(sp)
    5408:	4942                	lw	s2,16(sp)
    540a:	49b2                	lw	s3,12(sp)
    540c:	4a22                	lw	s4,8(sp)
    540e:	4a92                	lw	s5,4(sp)
    5410:	4b02                	lw	s6,0(sp)
    5412:	6105                	addi	sp,sp,32
    5414:	8082                	ret

00005416 <hdmi_draw_string_back>:
hdmi_draw_string_back():
D:\Hummingbird\HBird-workspace\pico_test_1\Debug/../src/hdmidraw.c:158
/***************************************************************************
 ** 作用：显示字符串
 ** 参数：x:屏幕x坐标,y:屏幕y坐标,*str:要显示的字母或符号,color:颜色索引,back:背景颜色索引
 ** 注:str仅出现ascii码里的
****************************************************************************/
void hdmi_draw_string_back(u16 x, u16 y, u8 *str, u8 color,u8 back){
    5416:	7179                	addi	sp,sp,-48
    5418:	d422                	sw	s0,40(sp)
    541a:	d226                	sw	s1,36(sp)
    541c:	d04a                	sw	s2,32(sp)
    541e:	ce4e                	sw	s3,28(sp)
    5420:	cc52                	sw	s4,24(sp)
    5422:	ca56                	sw	s5,20(sp)
    5424:	c85a                	sw	s6,16(sp)
    5426:	c65e                	sw	s7,12(sp)
    5428:	d606                	sw	ra,44(sp)
    542a:	8baa                	mv	s7,a0
    542c:	892e                	mv	s2,a1
    542e:	84b2                	mv	s1,a2
    5430:	8ab6                	mv	s5,a3
    5432:	8a3a                	mv	s4,a4
D:\Hummingbird\HBird-workspace\pico_test_1\Debug/../src/hdmidraw.c:160
	u8 i;u8 j;
	u16 x0 = x;u16 y0 = y;
    5434:	842a                	mv	s0,a0
D:\Hummingbird\HBird-workspace\pico_test_1\Debug/../src/hdmidraw.c:161
	while((*str<='~')&&(*str>=' ')){
    5436:	05e00993          	li	s3,94
D:\Hummingbird\HBird-workspace\pico_test_1\Debug/../src/hdmidraw.c:165
		hdmi_draw_char_back(x0,y0,*str,color,back);
		str = str + 1;
		x0 = x0 + 8;
		if(x0>319){
    543a:	13f00b13          	li	s6,319
D:\Hummingbird\HBird-workspace\pico_test_1\Debug/../src/hdmidraw.c:161
	while((*str<='~')&&(*str>=' ')){
    543e:	0004c783          	lbu	a5,0(s1)
D:\Hummingbird\HBird-workspace\pico_test_1\Debug/../src/hdmidraw.c:162
		hdmi_draw_char_back(x0,y0,*str,color,back);
    5442:	85ca                	mv	a1,s2
    5444:	8522                	mv	a0,s0
    5446:	863e                	mv	a2,a5
D:\Hummingbird\HBird-workspace\pico_test_1\Debug/../src/hdmidraw.c:161
	while((*str<='~')&&(*str>=' ')){
    5448:	1781                	addi	a5,a5,-32
    544a:	0ff7f793          	andi	a5,a5,255
D:\Hummingbird\HBird-workspace\pico_test_1\Debug/../src/hdmidraw.c:162
		hdmi_draw_char_back(x0,y0,*str,color,back);
    544e:	8752                	mv	a4,s4
    5450:	86d6                	mv	a3,s5
D:\Hummingbird\HBird-workspace\pico_test_1\Debug/../src/hdmidraw.c:161
	while((*str<='~')&&(*str>=' ')){
    5452:	02f9e163          	bltu	s3,a5,5474 <hdmi_draw_string_back+0x5e>
D:\Hummingbird\HBird-workspace\pico_test_1\Debug/../src/hdmidraw.c:164
		x0 = x0 + 8;
    5456:	0421                	addi	s0,s0,8
    5458:	0442                	slli	s0,s0,0x10
D:\Hummingbird\HBird-workspace\pico_test_1\Debug/../src/hdmidraw.c:162
		hdmi_draw_char_back(x0,y0,*str,color,back);
    545a:	3525                	jal	5282 <hdmi_draw_char_back>
D:\Hummingbird\HBird-workspace\pico_test_1\Debug/../src/hdmidraw.c:164
		x0 = x0 + 8;
    545c:	8041                	srli	s0,s0,0x10
D:\Hummingbird\HBird-workspace\pico_test_1\Debug/../src/hdmidraw.c:167
			x0 = x;
			y0 = y0+16;
    545e:	01090793          	addi	a5,s2,16
D:\Hummingbird\HBird-workspace\pico_test_1\Debug/../src/hdmidraw.c:163
		str = str + 1;
    5462:	0485                	addi	s1,s1,1
D:\Hummingbird\HBird-workspace\pico_test_1\Debug/../src/hdmidraw.c:165
		if(x0>319){
    5464:	fc8b7de3          	bleu	s0,s6,543e <hdmi_draw_string_back+0x28>
D:\Hummingbird\HBird-workspace\pico_test_1\Debug/../src/hdmidraw.c:167
			y0 = y0+16;
    5468:	01079913          	slli	s2,a5,0x10
    546c:	01095913          	srli	s2,s2,0x10
D:\Hummingbird\HBird-workspace\pico_test_1\Debug/../src/hdmidraw.c:166
			x0 = x;
    5470:	845e                	mv	s0,s7
    5472:	b7f1                	j	543e <hdmi_draw_string_back+0x28>
D:\Hummingbird\HBird-workspace\pico_test_1\Debug/../src/hdmidraw.c:170
		}
	}
}
    5474:	50b2                	lw	ra,44(sp)
    5476:	5422                	lw	s0,40(sp)
    5478:	5492                	lw	s1,36(sp)
    547a:	5902                	lw	s2,32(sp)
    547c:	49f2                	lw	s3,28(sp)
    547e:	4a62                	lw	s4,24(sp)
    5480:	4ad2                	lw	s5,20(sp)
    5482:	4b42                	lw	s6,16(sp)
    5484:	4bb2                	lw	s7,12(sp)
    5486:	6145                	addi	sp,sp,48
    5488:	8082                	ret

0000548a <hdmi_draw_string_back_verticlal>:
hdmi_draw_string_back_verticlal():
D:\Hummingbird\HBird-workspace\pico_test_1\Debug/../src/hdmidraw.c:176
/***************************************************************************
 ** 作用：显示字符串
 ** 参数：x:屏幕x坐标,y:屏幕y坐标,*str:要显示的字母或符号,color:颜色索引
 ** 注:用于垂直坐标
****************************************************************************/
void hdmi_draw_string_back_verticlal(u16 x, u16 y, u8 *str, u8 color,u8 back){
    548a:	7179                	addi	sp,sp,-48
    548c:	d422                	sw	s0,40(sp)
    548e:	d226                	sw	s1,36(sp)
    5490:	d04a                	sw	s2,32(sp)
    5492:	ce4e                	sw	s3,28(sp)
    5494:	cc52                	sw	s4,24(sp)
    5496:	ca56                	sw	s5,20(sp)
    5498:	c85a                	sw	s6,16(sp)
    549a:	c65e                	sw	s7,12(sp)
    549c:	d606                	sw	ra,44(sp)
    549e:	8baa                	mv	s7,a0
    54a0:	892e                	mv	s2,a1
    54a2:	84b2                	mv	s1,a2
    54a4:	8ab6                	mv	s5,a3
    54a6:	8a3a                	mv	s4,a4
D:\Hummingbird\HBird-workspace\pico_test_1\Debug/../src/hdmidraw.c:178
	u8 i;u8 j;
	u16 x0 = x;u16 y0 = y;
    54a8:	842a                	mv	s0,a0
D:\Hummingbird\HBird-workspace\pico_test_1\Debug/../src/hdmidraw.c:179
	while((*str<='~')&&(*str>=' ')){
    54aa:	05e00993          	li	s3,94
D:\Hummingbird\HBird-workspace\pico_test_1\Debug/../src/hdmidraw.c:183
		hdmi_draw_char_back_vertical(x0,y0,*str,color,back);
		str = str + 1;
		x0 = x0 + 8;
		if(x0>269){
    54ae:	10d00b13          	li	s6,269
D:\Hummingbird\HBird-workspace\pico_test_1\Debug/../src/hdmidraw.c:179
	while((*str<='~')&&(*str>=' ')){
    54b2:	0004c783          	lbu	a5,0(s1)
D:\Hummingbird\HBird-workspace\pico_test_1\Debug/../src/hdmidraw.c:180
		hdmi_draw_char_back_vertical(x0,y0,*str,color,back);
    54b6:	85ca                	mv	a1,s2
    54b8:	8522                	mv	a0,s0
    54ba:	863e                	mv	a2,a5
D:\Hummingbird\HBird-workspace\pico_test_1\Debug/../src/hdmidraw.c:179
	while((*str<='~')&&(*str>=' ')){
    54bc:	1781                	addi	a5,a5,-32
    54be:	0ff7f793          	andi	a5,a5,255
D:\Hummingbird\HBird-workspace\pico_test_1\Debug/../src/hdmidraw.c:180
		hdmi_draw_char_back_vertical(x0,y0,*str,color,back);
    54c2:	8752                	mv	a4,s4
    54c4:	86d6                	mv	a3,s5
D:\Hummingbird\HBird-workspace\pico_test_1\Debug/../src/hdmidraw.c:179
	while((*str<='~')&&(*str>=' ')){
    54c6:	02f9e163          	bltu	s3,a5,54e8 <hdmi_draw_string_back_verticlal+0x5e>
D:\Hummingbird\HBird-workspace\pico_test_1\Debug/../src/hdmidraw.c:182
		x0 = x0 + 8;
    54ca:	0421                	addi	s0,s0,8
    54cc:	0442                	slli	s0,s0,0x10
D:\Hummingbird\HBird-workspace\pico_test_1\Debug/../src/hdmidraw.c:180
		hdmi_draw_char_back_vertical(x0,y0,*str,color,back);
    54ce:	3d0d                	jal	5300 <hdmi_draw_char_back_vertical>
D:\Hummingbird\HBird-workspace\pico_test_1\Debug/../src/hdmidraw.c:182
		x0 = x0 + 8;
    54d0:	8041                	srli	s0,s0,0x10
D:\Hummingbird\HBird-workspace\pico_test_1\Debug/../src/hdmidraw.c:185
			x0 = x;
			y0 = y0+16;
    54d2:	01090793          	addi	a5,s2,16
D:\Hummingbird\HBird-workspace\pico_test_1\Debug/../src/hdmidraw.c:181
		str = str + 1;
    54d6:	0485                	addi	s1,s1,1
D:\Hummingbird\HBird-workspace\pico_test_1\Debug/../src/hdmidraw.c:183
		if(x0>269){
    54d8:	fc8b7de3          	bleu	s0,s6,54b2 <hdmi_draw_string_back_verticlal+0x28>
D:\Hummingbird\HBird-workspace\pico_test_1\Debug/../src/hdmidraw.c:185
			y0 = y0+16;
    54dc:	01079913          	slli	s2,a5,0x10
    54e0:	01095913          	srli	s2,s2,0x10
D:\Hummingbird\HBird-workspace\pico_test_1\Debug/../src/hdmidraw.c:184
			x0 = x;
    54e4:	845e                	mv	s0,s7
    54e6:	b7f1                	j	54b2 <hdmi_draw_string_back_verticlal+0x28>
D:\Hummingbird\HBird-workspace\pico_test_1\Debug/../src/hdmidraw.c:188
		}
	}
}
    54e8:	50b2                	lw	ra,44(sp)
    54ea:	5422                	lw	s0,40(sp)
    54ec:	5492                	lw	s1,36(sp)
    54ee:	5902                	lw	s2,32(sp)
    54f0:	49f2                	lw	s3,28(sp)
    54f2:	4a62                	lw	s4,24(sp)
    54f4:	4ad2                	lw	s5,20(sp)
    54f6:	4b42                	lw	s6,16(sp)
    54f8:	4bb2                	lw	s7,12(sp)
    54fa:	6145                	addi	sp,sp,48
    54fc:	8082                	ret

000054fe <hdmi_draw_clear>:
hdmi_draw_clear():
D:\Hummingbird\HBird-workspace\pico_test_1\Debug/../src/hdmidraw.c:194
/***************************************************************************
 ** 作用：用单一颜色清屏
 ** color:颜色索引
 ** 注:
****************************************************************************/
void hdmi_draw_clear(u8 color){
    54fe:	800007b7          	lui	a5,0x80000
D:\Hummingbird\HBird-workspace\pico_test_1\Debug/../src/hdmidraw.c:196
	u32 x=0;
	for(x=0;x<86400;x++){
    5502:	66d5                	lui	a3,0x15
    5504:	953e                	add	a0,a0,a5
D:\Hummingbird\HBird-workspace\pico_test_1\Debug/../src/hdmidraw.c:197
		ram_address = x;
    5506:	6761                	lui	a4,0x18
D:\Hummingbird\HBird-workspace\pico_test_1\Debug/../src/hdmidraw.c:196
	for(x=0;x<86400;x++){
    5508:	4781                	li	a5,0
    550a:	18068693          	addi	a3,a3,384 # 15180 <_etext+0xc94c>
D:\Hummingbird\HBird-workspace\pico_test_1\Debug/../src/hdmidraw.c:197 (discriminator 3)
		ram_address = x;
    550e:	d33c                	sw	a5,96(a4)
D:\Hummingbird\HBird-workspace\pico_test_1\Debug/../src/hdmidraw.c:198 (discriminator 3)
		ram_data_address = color + (0b1<<31);
    5510:	db28                	sw	a0,112(a4)
D:\Hummingbird\HBird-workspace\pico_test_1\Debug/../src/hdmidraw.c:196 (discriminator 3)
	for(x=0;x<86400;x++){
    5512:	0785                	addi	a5,a5,1
    5514:	fed79de3          	bne	a5,a3,550e <hdmi_draw_clear+0x10>
D:\Hummingbird\HBird-workspace\pico_test_1\Debug/../src/hdmidraw.c:200
	}
}
    5518:	8082                	ret

0000551a <hdmi_draw_num>:
hdmi_draw_num():
D:\Hummingbird\HBird-workspace\pico_test_1\Debug/../src/hdmidraw.c:206
/***************************************************************************
 ** 作用：显示数字
 ** 参数：x:x坐标,y:y坐标,num要显示的数,len:数的位数,color:颜色索引
 ** 注:
****************************************************************************/
void hdmi_draw_num(u16 x, u16 y, u16 num,u8 len ,u8 color){
    551a:	1101                	addi	sp,sp,-32
D:\Hummingbird\HBird-workspace\pico_test_1\Debug/../src/hdmidraw.c:207
	u16 x0 = x+8*(len-1);u16 y0 = y;
    551c:	fff68793          	addi	a5,a3,-1
D:\Hummingbird\HBird-workspace\pico_test_1\Debug/../src/hdmidraw.c:206
void hdmi_draw_num(u16 x, u16 y, u16 num,u8 len ,u8 color){
    5520:	cc22                	sw	s0,24(sp)
    5522:	ca26                	sw	s1,20(sp)
D:\Hummingbird\HBird-workspace\pico_test_1\Debug/../src/hdmidraw.c:207
	u16 x0 = x+8*(len-1);u16 y0 = y;
    5524:	00379413          	slli	s0,a5,0x3
D:\Hummingbird\HBird-workspace\pico_test_1\Debug/../src/hdmidraw.c:206
void hdmi_draw_num(u16 x, u16 y, u16 num,u8 len ,u8 color){
    5528:	84b2                	mv	s1,a2
    552a:	ce06                	sw	ra,28(sp)
D:\Hummingbird\HBird-workspace\pico_test_1\Debug/../src/hdmidraw.c:208
	u8 cnt = len;u8 numget = num%10;u16 num2 = num;
    552c:	4629                	li	a2,10
D:\Hummingbird\HBird-workspace\pico_test_1\Debug/../src/hdmidraw.c:206
void hdmi_draw_num(u16 x, u16 y, u16 num,u8 len ,u8 color){
    552e:	c84a                	sw	s2,16(sp)
    5530:	c64e                	sw	s3,12(sp)
    5532:	c452                	sw	s4,8(sp)
    5534:	c256                	sw	s5,4(sp)
D:\Hummingbird\HBird-workspace\pico_test_1\Debug/../src/hdmidraw.c:207
	u16 x0 = x+8*(len-1);u16 y0 = y;
    5536:	942a                	add	s0,s0,a0
D:\Hummingbird\HBird-workspace\pico_test_1\Debug/../src/hdmidraw.c:208
	u8 cnt = len;u8 numget = num%10;u16 num2 = num;
    5538:	02c4f633          	remu	a2,s1,a2
D:\Hummingbird\HBird-workspace\pico_test_1\Debug/../src/hdmidraw.c:209
	while(cnt--){
    553c:	ce95                	beqz	a3,5578 <hdmi_draw_num+0x5e>
    553e:	0442                	slli	s0,s0,0x10
    5540:	0ff7f793          	andi	a5,a5,255
    5544:	8041                	srli	s0,s0,0x10
    5546:	078e                	slli	a5,a5,0x3
    5548:	40f40933          	sub	s2,s0,a5
    554c:	1961                	addi	s2,s2,-8
    554e:	0942                	slli	s2,s2,0x10
    5550:	89ae                	mv	s3,a1
    5552:	8a3a                	mv	s4,a4
    5554:	01095913          	srli	s2,s2,0x10
D:\Hummingbird\HBird-workspace\pico_test_1\Debug/../src/hdmidraw.c:216
		x0 = x0-8;
		if(x0 < 0){
			x0 = 319;
			y0++;
		}
		num2 = num2/10;
    5558:	4aa9                	li	s5,10
D:\Hummingbird\HBird-workspace\pico_test_1\Debug/../src/hdmidraw.c:210
		hdmi_draw_char(x0,y0, numget+48,color);
    555a:	03060613          	addi	a2,a2,48 # 80000030 <_etext+0x7fff77fc>
    555e:	8522                	mv	a0,s0
    5560:	86d2                	mv	a3,s4
    5562:	85ce                	mv	a1,s3
    5564:	3155                	jal	5208 <hdmi_draw_char>
D:\Hummingbird\HBird-workspace\pico_test_1\Debug/../src/hdmidraw.c:211
		x0 = x0-8;
    5566:	1461                	addi	s0,s0,-8
    5568:	0442                	slli	s0,s0,0x10
    556a:	8041                	srli	s0,s0,0x10
D:\Hummingbird\HBird-workspace\pico_test_1\Debug/../src/hdmidraw.c:216
		num2 = num2/10;
    556c:	0354d4b3          	divu	s1,s1,s5
D:\Hummingbird\HBird-workspace\pico_test_1\Debug/../src/hdmidraw.c:217
		numget = num2%10;
    5570:	0354f633          	remu	a2,s1,s5
D:\Hummingbird\HBird-workspace\pico_test_1\Debug/../src/hdmidraw.c:209
	while(cnt--){
    5574:	fe8913e3          	bne	s2,s0,555a <hdmi_draw_num+0x40>
D:\Hummingbird\HBird-workspace\pico_test_1\Debug/../src/hdmidraw.c:219
	}
}
    5578:	40f2                	lw	ra,28(sp)
    557a:	4462                	lw	s0,24(sp)
    557c:	44d2                	lw	s1,20(sp)
    557e:	4942                	lw	s2,16(sp)
    5580:	49b2                	lw	s3,12(sp)
    5582:	4a22                	lw	s4,8(sp)
    5584:	4a92                	lw	s5,4(sp)
    5586:	6105                	addi	sp,sp,32
    5588:	8082                	ret

0000558a <hdmi_draw_num_back_vertical>:
hdmi_draw_num_back_vertical():
D:\Hummingbird\HBird-workspace\pico_test_1\Debug/../src/hdmidraw.c:225
/***************************************************************************
 ** 作用：显示数字
 ** 参数：x:x坐标,y:y坐标,num要显示的数,len:数的位数,color:颜色索引
 ** 注:用于垂直垂直坐标
****************************************************************************/
void hdmi_draw_num_back_vertical(u16 x, u16 y, u16 num,u8 len ,u8 color,u8 back){
    558a:	1101                	addi	sp,sp,-32
D:\Hummingbird\HBird-workspace\pico_test_1\Debug/../src/hdmidraw.c:226
	u16 x0 = x+8*(len-1);u16 y0 = y;
    558c:	fff68813          	addi	a6,a3,-1
D:\Hummingbird\HBird-workspace\pico_test_1\Debug/../src/hdmidraw.c:225
void hdmi_draw_num_back_vertical(u16 x, u16 y, u16 num,u8 len ,u8 color,u8 back){
    5590:	cc22                	sw	s0,24(sp)
    5592:	ca26                	sw	s1,20(sp)
D:\Hummingbird\HBird-workspace\pico_test_1\Debug/../src/hdmidraw.c:226
	u16 x0 = x+8*(len-1);u16 y0 = y;
    5594:	00381413          	slli	s0,a6,0x3
D:\Hummingbird\HBird-workspace\pico_test_1\Debug/../src/hdmidraw.c:225
void hdmi_draw_num_back_vertical(u16 x, u16 y, u16 num,u8 len ,u8 color,u8 back){
    5598:	84b2                	mv	s1,a2
    559a:	ce06                	sw	ra,28(sp)
D:\Hummingbird\HBird-workspace\pico_test_1\Debug/../src/hdmidraw.c:227
	u8 cnt = len;u8 numget = num%10;u16 num2 = num;
    559c:	4629                	li	a2,10
D:\Hummingbird\HBird-workspace\pico_test_1\Debug/../src/hdmidraw.c:225
void hdmi_draw_num_back_vertical(u16 x, u16 y, u16 num,u8 len ,u8 color,u8 back){
    559e:	c84a                	sw	s2,16(sp)
    55a0:	c64e                	sw	s3,12(sp)
    55a2:	c452                	sw	s4,8(sp)
    55a4:	c256                	sw	s5,4(sp)
    55a6:	c05a                	sw	s6,0(sp)
D:\Hummingbird\HBird-workspace\pico_test_1\Debug/../src/hdmidraw.c:226
	u16 x0 = x+8*(len-1);u16 y0 = y;
    55a8:	942a                	add	s0,s0,a0
D:\Hummingbird\HBird-workspace\pico_test_1\Debug/../src/hdmidraw.c:227
	u8 cnt = len;u8 numget = num%10;u16 num2 = num;
    55aa:	02c4f633          	remu	a2,s1,a2
D:\Hummingbird\HBird-workspace\pico_test_1\Debug/../src/hdmidraw.c:228
	while(cnt--){
    55ae:	c2a1                	beqz	a3,55ee <hdmi_draw_num_back_vertical+0x64>
    55b0:	0442                	slli	s0,s0,0x10
    55b2:	0ff87813          	andi	a6,a6,255
    55b6:	8041                	srli	s0,s0,0x10
    55b8:	080e                	slli	a6,a6,0x3
    55ba:	41040933          	sub	s2,s0,a6
    55be:	1961                	addi	s2,s2,-8
    55c0:	0942                	slli	s2,s2,0x10
    55c2:	89ae                	mv	s3,a1
    55c4:	8a3a                	mv	s4,a4
    55c6:	8abe                	mv	s5,a5
    55c8:	01095913          	srli	s2,s2,0x10
D:\Hummingbird\HBird-workspace\pico_test_1\Debug/../src/hdmidraw.c:235
		x0 = x0-8;
		if(x0 < 0){
			x0 = 269;
			y0++;
		}
		num2 = num2/10;
    55cc:	4b29                	li	s6,10
D:\Hummingbird\HBird-workspace\pico_test_1\Debug/../src/hdmidraw.c:229
		hdmi_draw_char_back_vertical(x0,y0, numget+48,color,back);
    55ce:	03060613          	addi	a2,a2,48
    55d2:	8522                	mv	a0,s0
    55d4:	8756                	mv	a4,s5
    55d6:	86d2                	mv	a3,s4
    55d8:	85ce                	mv	a1,s3
    55da:	331d                	jal	5300 <hdmi_draw_char_back_vertical>
D:\Hummingbird\HBird-workspace\pico_test_1\Debug/../src/hdmidraw.c:230
		x0 = x0-8;
    55dc:	1461                	addi	s0,s0,-8
    55de:	0442                	slli	s0,s0,0x10
    55e0:	8041                	srli	s0,s0,0x10
D:\Hummingbird\HBird-workspace\pico_test_1\Debug/../src/hdmidraw.c:235
		num2 = num2/10;
    55e2:	0364d4b3          	divu	s1,s1,s6
D:\Hummingbird\HBird-workspace\pico_test_1\Debug/../src/hdmidraw.c:236
		numget = num2%10;
    55e6:	0364f633          	remu	a2,s1,s6
D:\Hummingbird\HBird-workspace\pico_test_1\Debug/../src/hdmidraw.c:228
	while(cnt--){
    55ea:	fe8912e3          	bne	s2,s0,55ce <hdmi_draw_num_back_vertical+0x44>
D:\Hummingbird\HBird-workspace\pico_test_1\Debug/../src/hdmidraw.c:238
	}
}
    55ee:	40f2                	lw	ra,28(sp)
    55f0:	4462                	lw	s0,24(sp)
    55f2:	44d2                	lw	s1,20(sp)
    55f4:	4942                	lw	s2,16(sp)
    55f6:	49b2                	lw	s3,12(sp)
    55f8:	4a22                	lw	s4,8(sp)
    55fa:	4a92                	lw	s5,4(sp)
    55fc:	4b02                	lw	s6,0(sp)
    55fe:	6105                	addi	sp,sp,32
    5600:	8082                	ret

00005602 <hdmi_draw_fill>:
hdmi_draw_fill():
D:\Hummingbird\HBird-workspace\pico_test_1\Debug/../src/hdmidraw.c:246
 ** 参数：sx:屏幕左上角x坐标,sy:屏幕左上角y坐标,ex:屏幕右下角x坐标,ey:屏幕右下角y坐标,
 ** 	color:颜色索引
 ** 注:
****************************************************************************/
void hdmi_draw_fill(u16 sx,u16 sy,u16 ex,u16 ey,u16 color)
{
    5602:	0605                	addi	a2,a2,1
    5604:	01061313          	slli	t1,a2,0x10
    5608:	01035313          	srli	t1,t1,0x10
D:\Hummingbird\HBird-workspace\pico_test_1\Debug/../src/hdmidraw.c:250
	u16 i,j;
	u16 x0 = sx;u16 y0 = sy;
	u16 xlen=0;
	xlen=ex-sx+1;
    560c:	40a30e33          	sub	t3,t1,a0
    5610:	0e42                	slli	t3,t3,0x10
    5612:	010e5e13          	srli	t3,t3,0x10
D:\Hummingbird\HBird-workspace\pico_test_1\Debug/../src/hdmidraw.c:251
	for(i=sy;i<=ey;i++)
    5616:	02b6ee63          	bltu	a3,a1,5652 <hdmi_draw_fill+0x50>
    561a:	0ff77713          	andi	a4,a4,255
    561e:	800008b7          	lui	a7,0x80000
    5622:	98ba                	add	a7,a7,a4
hdmi_draw_point():
D:\Hummingbird\HBird-workspace\pico_test_1\Debug/../src/hdmidraw.c:44
	ram_address = temp_ramaddress;
    5624:	6761                	lui	a4,0x18
hdmi_draw_fill():
D:\Hummingbird\HBird-workspace\pico_test_1\Debug/../src/hdmidraw.c:253
	{
		for(j=0;j<xlen;j++){
    5626:	020e0163          	beqz	t3,5648 <hdmi_draw_fill+0x46>
hdmi_draw_point():
D:\Hummingbird\HBird-workspace\pico_test_1\Debug/../src/hdmidraw.c:43
	temp_ramaddress = 320*y+x;
    562a:	00259813          	slli	a6,a1,0x2
    562e:	982e                	add	a6,a6,a1
    5630:	081a                	slli	a6,a6,0x6
    5632:	87aa                	mv	a5,a0
D:\Hummingbird\HBird-workspace\pico_test_1\Debug/../src/hdmidraw.c:43 (discriminator 3)
    5634:	01078633          	add	a2,a5,a6
hdmi_draw_fill():
D:\Hummingbird\HBird-workspace\pico_test_1\Debug/../src/hdmidraw.c:255 (discriminator 3)
			hdmi_draw_point(x0,y0,color);
			x0++;
    5638:	0785                	addi	a5,a5,1
hdmi_draw_point():
D:\Hummingbird\HBird-workspace\pico_test_1\Debug/../src/hdmidraw.c:44 (discriminator 3)
	ram_address = temp_ramaddress;
    563a:	d330                	sw	a2,96(a4)
hdmi_draw_fill():
D:\Hummingbird\HBird-workspace\pico_test_1\Debug/../src/hdmidraw.c:255 (discriminator 3)
			x0++;
    563c:	07c2                	slli	a5,a5,0x10
hdmi_draw_point():
D:\Hummingbird\HBird-workspace\pico_test_1\Debug/../src/hdmidraw.c:45 (discriminator 3)
	ram_data_address = color+(0b1<<31);
    563e:	07172823          	sw	a7,112(a4) # 18070 <_etext+0xf83c>
hdmi_draw_fill():
D:\Hummingbird\HBird-workspace\pico_test_1\Debug/../src/hdmidraw.c:255 (discriminator 3)
			x0++;
    5642:	83c1                	srli	a5,a5,0x10
D:\Hummingbird\HBird-workspace\pico_test_1\Debug/../src/hdmidraw.c:253 (discriminator 3)
		for(j=0;j<xlen;j++){
    5644:	fe6798e3          	bne	a5,t1,5634 <hdmi_draw_fill+0x32>
D:\Hummingbird\HBird-workspace\pico_test_1\Debug/../src/hdmidraw.c:258
		}
		x0 = sx;
		y0++;
    5648:	0585                	addi	a1,a1,1
    564a:	05c2                	slli	a1,a1,0x10
    564c:	81c1                	srli	a1,a1,0x10
D:\Hummingbird\HBird-workspace\pico_test_1\Debug/../src/hdmidraw.c:251
	for(i=sy;i<=ey;i++)
    564e:	fcb6fce3          	bleu	a1,a3,5626 <hdmi_draw_fill+0x24>
D:\Hummingbird\HBird-workspace\pico_test_1\Debug/../src/hdmidraw.c:260
	}
}
    5652:	8082                	ret

00005654 <hdmi_draw_square_vertical>:
hdmi_draw_square_vertical():
D:\Hummingbird\HBird-workspace\pico_test_1\Debug/../src/hdmidraw.c:270
 ** 注:垂直坐标
****************************************************************************/
void hdmi_draw_square_vertical(u16 x,u16 y,u16 len,u8 color){
	u16 x0=x;u16 y0=y;
	u16 i,j;
	for(i=0;i<len;i++)
    5654:	c629                	beqz	a2,569e <hdmi_draw_square_vertical+0x4a>
    5656:	00c58333          	add	t1,a1,a2
    565a:	962a                	add	a2,a2,a0
    565c:	01061813          	slli	a6,a2,0x10
    5660:	800007b7          	lui	a5,0x80000
    5664:	0342                	slli	t1,t1,0x10
    5666:	96be                	add	a3,a3,a5
    5668:	01035313          	srli	t1,t1,0x10
    566c:	13f00e13          	li	t3,319
    5670:	01085813          	srli	a6,a6,0x10
hdmi_draw_point_vertical():
D:\Hummingbird\HBird-workspace\pico_test_1\Debug/../src/hdmidraw.c:55
	ram_address = temp_ramaddress;
    5674:	6661                	lui	a2,0x18
    5676:	40be08b3          	sub	a7,t3,a1
hdmi_draw_square_vertical():
D:\Hummingbird\HBird-workspace\pico_test_1\Debug/../src/hdmidraw.c:267
void hdmi_draw_square_vertical(u16 x,u16 y,u16 len,u8 color){
    567a:	872a                	mv	a4,a0
hdmi_draw_point_vertical():
D:\Hummingbird\HBird-workspace\pico_test_1\Debug/../src/hdmidraw.c:54
	temp_ramaddress = 320*x+(319-y);
    567c:	00271793          	slli	a5,a4,0x2
    5680:	97ba                	add	a5,a5,a4
    5682:	079a                	slli	a5,a5,0x6
    5684:	97c6                	add	a5,a5,a7
hdmi_draw_square_vertical():
D:\Hummingbird\HBird-workspace\pico_test_1\Debug/../src/hdmidraw.c:274
	{
		for(j=0;j<len;j++){
			hdmi_draw_point_vertical(x0,y0,color);
			x0++;
    5686:	0705                	addi	a4,a4,1
hdmi_draw_point_vertical():
D:\Hummingbird\HBird-workspace\pico_test_1\Debug/../src/hdmidraw.c:55
	ram_address = temp_ramaddress;
    5688:	d23c                	sw	a5,96(a2)
hdmi_draw_square_vertical():
D:\Hummingbird\HBird-workspace\pico_test_1\Debug/../src/hdmidraw.c:274
			x0++;
    568a:	0742                	slli	a4,a4,0x10
hdmi_draw_point_vertical():
D:\Hummingbird\HBird-workspace\pico_test_1\Debug/../src/hdmidraw.c:56
	ram_data_address = color+(0b1<<31);
    568c:	da34                	sw	a3,112(a2)
hdmi_draw_square_vertical():
D:\Hummingbird\HBird-workspace\pico_test_1\Debug/../src/hdmidraw.c:274
			x0++;
    568e:	8341                	srli	a4,a4,0x10
D:\Hummingbird\HBird-workspace\pico_test_1\Debug/../src/hdmidraw.c:272
		for(j=0;j<len;j++){
    5690:	ff0716e3          	bne	a4,a6,567c <hdmi_draw_square_vertical+0x28>
D:\Hummingbird\HBird-workspace\pico_test_1\Debug/../src/hdmidraw.c:277 (discriminator 2)
		}
		x0 = x;
		y0++;
    5694:	0585                	addi	a1,a1,1
    5696:	05c2                	slli	a1,a1,0x10
    5698:	81c1                	srli	a1,a1,0x10
D:\Hummingbird\HBird-workspace\pico_test_1\Debug/../src/hdmidraw.c:270 (discriminator 2)
	for(i=0;i<len;i++)
    569a:	fc659ee3          	bne	a1,t1,5676 <hdmi_draw_square_vertical+0x22>
D:\Hummingbird\HBird-workspace\pico_test_1\Debug/../src/hdmidraw.c:279
	}
}
    569e:	8082                	ret

000056a0 <hdmi_drawLine>:
hdmi_drawLine():
D:\Hummingbird\HBird-workspace\pico_test_1\Debug/../src/hdmidraw.c:286
 ** 作用：线
 ** 参数：x1:x起始坐标,y1:y起始坐标,color:颜色索引
 ** 注:
****************************************************************************/
void hdmi_drawLine(u16 x1, u16 y1, u16 x2, u16 y2,u8 color)
{
    56a0:	1141                	addi	sp,sp,-16
    56a2:	c622                	sw	s0,12(sp)
D:\Hummingbird\HBird-workspace\pico_test_1\Debug/../src/hdmidraw.c:290
	u16 t;
	int xerr=0,yerr=0,delta_x,delta_y,distance;
	int incx,incy,uRow,uCol;
	delta_x=x2-x1;
    56a4:	8e09                	sub	a2,a2,a0
D:\Hummingbird\HBird-workspace\pico_test_1\Debug/../src/hdmidraw.c:291
	delta_y=y2-y1;
    56a6:	8e8d                	sub	a3,a3,a1
D:\Hummingbird\HBird-workspace\pico_test_1\Debug/../src/hdmidraw.c:294
	uRow=x1;
	uCol=y1;
	if(delta_x>0)incx=1;
    56a8:	4385                	li	t2,1
    56aa:	06c05663          	blez	a2,5716 <hdmi_drawLine+0x76>
D:\Hummingbird\HBird-workspace\pico_test_1\Debug/../src/hdmidraw.c:297
	else if(delta_x==0)incx=0;
	else {incx=-1;delta_x=-delta_x;}
	if(delta_y>0)incy=1;
    56ae:	4405                	li	s0,1
    56b0:	06d05b63          	blez	a3,5726 <hdmi_drawLine+0x86>
    56b4:	8eb2                	mv	t4,a2
    56b6:	00d65363          	ble	a3,a2,56bc <hdmi_drawLine+0x1c>
    56ba:	8eb6                	mv	t4,a3
    56bc:	800007b7          	lui	a5,0x80000
hdmi_draw_point():
D:\Hummingbird\HBird-workspace\pico_test_1\Debug/../src/hdmidraw.c:43
	temp_ramaddress = 320*y+x;
    56c0:	6f41                	lui	t5,0x10
hdmi_drawLine():
D:\Hummingbird\HBird-workspace\pico_test_1\Debug/../src/hdmidraw.c:302
	else if(delta_y==0)incy=0;
	else{incy=-1;delta_y=-delta_y;}
	if( delta_x>delta_y)distance=delta_x;
	else distance=delta_y;
	for(t=0;t<=distance+1;t++ )
    56c2:	001e8293          	addi	t0,t4,1
    56c6:	973e                	add	a4,a4,a5
D:\Hummingbird\HBird-workspace\pico_test_1\Debug/../src/hdmidraw.c:288
	int xerr=0,yerr=0,delta_x,delta_y,distance;
    56c8:	4e01                	li	t3,0
    56ca:	4301                	li	t1,0
D:\Hummingbird\HBird-workspace\pico_test_1\Debug/../src/hdmidraw.c:302
	for(t=0;t<=distance+1;t++ )
    56cc:	4881                	li	a7,0
hdmi_draw_point():
D:\Hummingbird\HBird-workspace\pico_test_1\Debug/../src/hdmidraw.c:43
	temp_ramaddress = 320*y+x;
    56ce:	1f7d                	addi	t5,t5,-1
D:\Hummingbird\HBird-workspace\pico_test_1\Debug/../src/hdmidraw.c:44
	ram_address = temp_ramaddress;
    56d0:	6fe1                	lui	t6,0x18
D:\Hummingbird\HBird-workspace\pico_test_1\Debug/../src/hdmidraw.c:43
	temp_ramaddress = 320*y+x;
    56d2:	01e5f7b3          	and	a5,a1,t5
    56d6:	00279813          	slli	a6,a5,0x2
    56da:	983e                	add	a6,a6,a5
    56dc:	081a                	slli	a6,a6,0x6
    56de:	01e577b3          	and	a5,a0,t5
    56e2:	97c2                	add	a5,a5,a6
D:\Hummingbird\HBird-workspace\pico_test_1\Debug/../src/hdmidraw.c:44
	ram_address = temp_ramaddress;
    56e4:	06ffa023          	sw	a5,96(t6) # 18060 <_etext+0xf82c>
hdmi_drawLine():
D:\Hummingbird\HBird-workspace\pico_test_1\Debug/../src/hdmidraw.c:302
	for(t=0;t<=distance+1;t++ )
    56e8:	0885                	addi	a7,a7,1
    56ea:	08c2                	slli	a7,a7,0x10
hdmi_draw_point():
D:\Hummingbird\HBird-workspace\pico_test_1\Debug/../src/hdmidraw.c:45
	ram_data_address = color+(0b1<<31);
    56ec:	06efa823          	sw	a4,112(t6)
hdmi_drawLine():
D:\Hummingbird\HBird-workspace\pico_test_1\Debug/../src/hdmidraw.c:305
	{
		hdmi_draw_point(uRow,uCol,color);
		xerr+=delta_x ;
    56f0:	9332                	add	t1,t1,a2
D:\Hummingbird\HBird-workspace\pico_test_1\Debug/../src/hdmidraw.c:302
	for(t=0;t<=distance+1;t++ )
    56f2:	0108d893          	srli	a7,a7,0x10
D:\Hummingbird\HBird-workspace\pico_test_1\Debug/../src/hdmidraw.c:306
		yerr+=delta_y ;
    56f6:	9e36                	add	t3,t3,a3
D:\Hummingbird\HBird-workspace\pico_test_1\Debug/../src/hdmidraw.c:307
		if(xerr>distance)
    56f8:	006ed563          	ble	t1,t4,5702 <hdmi_drawLine+0x62>
D:\Hummingbird\HBird-workspace\pico_test_1\Debug/../src/hdmidraw.c:309
		{
			xerr-=distance;
    56fc:	41d30333          	sub	t1,t1,t4
D:\Hummingbird\HBird-workspace\pico_test_1\Debug/../src/hdmidraw.c:310
			uRow+=incx;
    5700:	951e                	add	a0,a0,t2
D:\Hummingbird\HBird-workspace\pico_test_1\Debug/../src/hdmidraw.c:312
		}
		if(yerr>distance)
    5702:	01ced563          	ble	t3,t4,570c <hdmi_drawLine+0x6c>
D:\Hummingbird\HBird-workspace\pico_test_1\Debug/../src/hdmidraw.c:314
		{
			yerr-=distance;
    5706:	41de0e33          	sub	t3,t3,t4
D:\Hummingbird\HBird-workspace\pico_test_1\Debug/../src/hdmidraw.c:315
			uCol+=incy;
    570a:	95a2                	add	a1,a1,s0
D:\Hummingbird\HBird-workspace\pico_test_1\Debug/../src/hdmidraw.c:302 (discriminator 2)
	for(t=0;t<=distance+1;t++ )
    570c:	fd12d3e3          	ble	a7,t0,56d2 <hdmi_drawLine+0x32>
D:\Hummingbird\HBird-workspace\pico_test_1\Debug/../src/hdmidraw.c:318
		}
	}
}
    5710:	4432                	lw	s0,12(sp)
    5712:	0141                	addi	sp,sp,16
    5714:	8082                	ret
D:\Hummingbird\HBird-workspace\pico_test_1\Debug/../src/hdmidraw.c:295
	else if(delta_x==0)incx=0;
    5716:	4381                	li	t2,0
    5718:	da59                	beqz	a2,56ae <hdmi_drawLine+0xe>
D:\Hummingbird\HBird-workspace\pico_test_1\Debug/../src/hdmidraw.c:296
	else {incx=-1;delta_x=-delta_x;}
    571a:	40c00633          	neg	a2,a2
    571e:	53fd                	li	t2,-1
D:\Hummingbird\HBird-workspace\pico_test_1\Debug/../src/hdmidraw.c:297
	if(delta_y>0)incy=1;
    5720:	4405                	li	s0,1
    5722:	f8d049e3          	bgtz	a3,56b4 <hdmi_drawLine+0x14>
D:\Hummingbird\HBird-workspace\pico_test_1\Debug/../src/hdmidraw.c:298
	else if(delta_y==0)incy=0;
    5726:	4401                	li	s0,0
    5728:	d6d1                	beqz	a3,56b4 <hdmi_drawLine+0x14>
D:\Hummingbird\HBird-workspace\pico_test_1\Debug/../src/hdmidraw.c:299
	else{incy=-1;delta_y=-delta_y;}
    572a:	40d006b3          	neg	a3,a3
    572e:	547d                	li	s0,-1
    5730:	b751                	j	56b4 <hdmi_drawLine+0x14>

00005732 <hdmi_drawLine_vertical>:
hdmi_drawLine_vertical():
D:\Hummingbird\HBird-workspace\pico_test_1\Debug/../src/hdmidraw.c:324
/***************************************************************************
 ** 作用：线
 ** 参数：x3:x起始坐标,y3:y起始坐标,color:颜色索引
 ** 注:用于垂直坐标的划线
****************************************************************************/
void hdmi_drawLine_vertical(u16 x1, u16 y1, u16 x2, u16 y2,u8 color){
    5732:	1141                	addi	sp,sp,-16
    5734:	c426                	sw	s1,8(sp)
    5736:	c622                	sw	s0,12(sp)
    5738:	c24a                	sw	s2,4(sp)
D:\Hummingbird\HBird-workspace\pico_test_1\Debug/../src/hdmidraw.c:328
	u16 t;
	int xerr=0,yerr=0,delta_x,delta_y,distance;
	int incx,incy,uRow,uCol;
	delta_x=x2-x1;
    573a:	8e09                	sub	a2,a2,a0
D:\Hummingbird\HBird-workspace\pico_test_1\Debug/../src/hdmidraw.c:329
	delta_y=y2-y1;
    573c:	8e8d                	sub	a3,a3,a1
D:\Hummingbird\HBird-workspace\pico_test_1\Debug/../src/hdmidraw.c:332
	uRow=x1;
	uCol=y1;
	if(delta_x>0)incx=1;
    573e:	4485                	li	s1,1
    5740:	06c05c63          	blez	a2,57b8 <hdmi_drawLine_vertical+0x86>
D:\Hummingbird\HBird-workspace\pico_test_1\Debug/../src/hdmidraw.c:335
	else if(delta_x==0)incx=0;
	else {incx=-1;delta_x=-delta_x;}
	if(delta_y>0)incy=1;
    5744:	4905                	li	s2,1
    5746:	08d05163          	blez	a3,57c8 <hdmi_drawLine_vertical+0x96>
    574a:	8eb2                	mv	t4,a2
    574c:	00d65363          	ble	a3,a2,5752 <hdmi_drawLine_vertical+0x20>
    5750:	8eb6                	mv	t4,a3
    5752:	800007b7          	lui	a5,0x80000
hdmi_draw_point_vertical():
D:\Hummingbird\HBird-workspace\pico_test_1\Debug/../src/hdmidraw.c:54
	temp_ramaddress = 320*x+(319-y);
    5756:	6fc1                	lui	t6,0x10
hdmi_drawLine_vertical():
D:\Hummingbird\HBird-workspace\pico_test_1\Debug/../src/hdmidraw.c:340
	else if(delta_y==0)incy=0;
	else{incy=-1;delta_y=-delta_y;}
	if( delta_x>delta_y)distance=delta_x;
	else distance=delta_y;
	for(t=0;t<=distance+1;t++ )
    5758:	001e8413          	addi	s0,t4,1
    575c:	973e                	add	a4,a4,a5
D:\Hummingbird\HBird-workspace\pico_test_1\Debug/../src/hdmidraw.c:326
	int xerr=0,yerr=0,delta_x,delta_y,distance;
    575e:	4301                	li	t1,0
    5760:	4881                	li	a7,0
D:\Hummingbird\HBird-workspace\pico_test_1\Debug/../src/hdmidraw.c:340
	for(t=0;t<=distance+1;t++ )
    5762:	4801                	li	a6,0
hdmi_draw_point_vertical():
D:\Hummingbird\HBird-workspace\pico_test_1\Debug/../src/hdmidraw.c:54
	temp_ramaddress = 320*x+(319-y);
    5764:	1ffd                	addi	t6,t6,-1
    5766:	13f00393          	li	t2,319
D:\Hummingbird\HBird-workspace\pico_test_1\Debug/../src/hdmidraw.c:55
	ram_address = temp_ramaddress;
    576a:	62e1                	lui	t0,0x18
D:\Hummingbird\HBird-workspace\pico_test_1\Debug/../src/hdmidraw.c:54
	temp_ramaddress = 320*x+(319-y);
    576c:	01f57f33          	and	t5,a0,t6
    5770:	002f1793          	slli	a5,t5,0x2
    5774:	01f5fe33          	and	t3,a1,t6
    5778:	97fa                	add	a5,a5,t5
    577a:	079a                	slli	a5,a5,0x6
    577c:	41c38e33          	sub	t3,t2,t3
    5780:	97f2                	add	a5,a5,t3
D:\Hummingbird\HBird-workspace\pico_test_1\Debug/../src/hdmidraw.c:55
	ram_address = temp_ramaddress;
    5782:	06f2a023          	sw	a5,96(t0) # 18060 <_etext+0xf82c>
hdmi_drawLine_vertical():
D:\Hummingbird\HBird-workspace\pico_test_1\Debug/../src/hdmidraw.c:340
	for(t=0;t<=distance+1;t++ )
    5786:	0805                	addi	a6,a6,1
    5788:	0842                	slli	a6,a6,0x10
hdmi_draw_point_vertical():
D:\Hummingbird\HBird-workspace\pico_test_1\Debug/../src/hdmidraw.c:56
	ram_data_address = color+(0b1<<31);
    578a:	06e2a823          	sw	a4,112(t0)
hdmi_drawLine_vertical():
D:\Hummingbird\HBird-workspace\pico_test_1\Debug/../src/hdmidraw.c:343
	{
		hdmi_draw_point_vertical(uRow,uCol,color);
		xerr+=delta_x ;
    578e:	98b2                	add	a7,a7,a2
D:\Hummingbird\HBird-workspace\pico_test_1\Debug/../src/hdmidraw.c:340
	for(t=0;t<=distance+1;t++ )
    5790:	01085813          	srli	a6,a6,0x10
D:\Hummingbird\HBird-workspace\pico_test_1\Debug/../src/hdmidraw.c:344
		yerr+=delta_y ;
    5794:	9336                	add	t1,t1,a3
D:\Hummingbird\HBird-workspace\pico_test_1\Debug/../src/hdmidraw.c:345
		if(xerr>distance)
    5796:	011ed563          	ble	a7,t4,57a0 <hdmi_drawLine_vertical+0x6e>
D:\Hummingbird\HBird-workspace\pico_test_1\Debug/../src/hdmidraw.c:347
		{
			xerr-=distance;
    579a:	41d888b3          	sub	a7,a7,t4
D:\Hummingbird\HBird-workspace\pico_test_1\Debug/../src/hdmidraw.c:348
			uRow+=incx;
    579e:	9526                	add	a0,a0,s1
D:\Hummingbird\HBird-workspace\pico_test_1\Debug/../src/hdmidraw.c:350
		}
		if(yerr>distance)
    57a0:	006ed563          	ble	t1,t4,57aa <hdmi_drawLine_vertical+0x78>
D:\Hummingbird\HBird-workspace\pico_test_1\Debug/../src/hdmidraw.c:352
		{
			yerr-=distance;
    57a4:	41d30333          	sub	t1,t1,t4
D:\Hummingbird\HBird-workspace\pico_test_1\Debug/../src/hdmidraw.c:353
			uCol+=incy;
    57a8:	95ca                	add	a1,a1,s2
D:\Hummingbird\HBird-workspace\pico_test_1\Debug/../src/hdmidraw.c:340 (discriminator 2)
	for(t=0;t<=distance+1;t++ )
    57aa:	fd0451e3          	ble	a6,s0,576c <hdmi_drawLine_vertical+0x3a>
D:\Hummingbird\HBird-workspace\pico_test_1\Debug/../src/hdmidraw.c:356
		}
	}
}
    57ae:	4432                	lw	s0,12(sp)
    57b0:	44a2                	lw	s1,8(sp)
    57b2:	4912                	lw	s2,4(sp)
    57b4:	0141                	addi	sp,sp,16
    57b6:	8082                	ret
D:\Hummingbird\HBird-workspace\pico_test_1\Debug/../src/hdmidraw.c:333
	else if(delta_x==0)incx=0;
    57b8:	4481                	li	s1,0
    57ba:	d649                	beqz	a2,5744 <hdmi_drawLine_vertical+0x12>
D:\Hummingbird\HBird-workspace\pico_test_1\Debug/../src/hdmidraw.c:334
	else {incx=-1;delta_x=-delta_x;}
    57bc:	40c00633          	neg	a2,a2
    57c0:	54fd                	li	s1,-1
D:\Hummingbird\HBird-workspace\pico_test_1\Debug/../src/hdmidraw.c:335
	if(delta_y>0)incy=1;
    57c2:	4905                	li	s2,1
    57c4:	f8d043e3          	bgtz	a3,574a <hdmi_drawLine_vertical+0x18>
D:\Hummingbird\HBird-workspace\pico_test_1\Debug/../src/hdmidraw.c:336
	else if(delta_y==0)incy=0;
    57c8:	4901                	li	s2,0
    57ca:	d2c1                	beqz	a3,574a <hdmi_drawLine_vertical+0x18>
D:\Hummingbird\HBird-workspace\pico_test_1\Debug/../src/hdmidraw.c:337
	else{incy=-1;delta_y=-delta_y;}
    57cc:	40d006b3          	neg	a3,a3
    57d0:	597d                	li	s2,-1
    57d2:	bfa5                	j	574a <hdmi_drawLine_vertical+0x18>

000057d4 <hdmi_draw_dircle_solid_vertical>:
hdmi_draw_dircle_solid_vertical():
D:\Hummingbird\HBird-workspace\pico_test_1\Debug/../src/hdmidraw.c:363
 ** 作用：画圆
 ** 参数：x0:x坐标,y0:y坐标,r:半径
 ** 注:
****************************************************************************/
void hdmi_draw_dircle_solid_vertical(u16 x0,u16 y0,u8 r,u8 color)
{
    57d4:	715d                	addi	sp,sp,-80
D:\Hummingbird\HBird-workspace\pico_test_1\Debug/../src/hdmidraw.c:367
	int a,b;
	int di;
	a=0;b=r;
	di=3-(r<<1);
    57d6:	00161793          	slli	a5,a2,0x1
D:\Hummingbird\HBird-workspace\pico_test_1\Debug/../src/hdmidraw.c:363
{
    57da:	d06a                	sw	s10,32(sp)
D:\Hummingbird\HBird-workspace\pico_test_1\Debug/../src/hdmidraw.c:367
	di=3-(r<<1);
    57dc:	4d0d                	li	s10,3
    57de:	40fd0d33          	sub	s10,s10,a5
    57e2:	40b507b3          	sub	a5,a0,a1
    57e6:	c43e                	sw	a5,8(sp)
    57e8:	40a587b3          	sub	a5,a1,a0
D:\Hummingbird\HBird-workspace\pico_test_1\Debug/../src/hdmidraw.c:363
{
    57ec:	c2a6                	sw	s1,68(sp)
    57ee:	c0ca                	sw	s2,64(sp)
    57f0:	dc52                	sw	s4,56(sp)
    57f2:	da56                	sw	s5,52(sp)
    57f4:	d462                	sw	s8,40(sp)
    57f6:	d266                	sw	s9,36(sp)
    57f8:	ce6e                	sw	s11,28(sp)
    57fa:	c686                	sw	ra,76(sp)
    57fc:	c4a2                	sw	s0,72(sp)
    57fe:	de4e                	sw	s3,60(sp)
    5800:	d85a                	sw	s6,48(sp)
    5802:	d65e                	sw	s7,44(sp)
D:\Hummingbird\HBird-workspace\pico_test_1\Debug/../src/hdmidraw.c:366
	a=0;b=r;
    5804:	8c32                	mv	s8,a2
D:\Hummingbird\HBird-workspace\pico_test_1\Debug/../src/hdmidraw.c:363
{
    5806:	8aaa                	mv	s5,a0
    5808:	8dae                	mv	s11,a1
    580a:	8a36                	mv	s4,a3
D:\Hummingbird\HBird-workspace\pico_test_1\Debug/../src/hdmidraw.c:367
	di=3-(r<<1);
    580c:	892a                	mv	s2,a0
    580e:	84ae                	mv	s1,a1
D:\Hummingbird\HBird-workspace\pico_test_1\Debug/../src/hdmidraw.c:366
	a=0;b=r;
    5810:	4c81                	li	s9,0
    5812:	c63e                	sw	a5,12(sp)
    5814:	a821                	j	582c <hdmi_draw_dircle_solid_vertical+0x58>
    5816:	0485                	addi	s1,s1,1
    5818:	197d                	addi	s2,s2,-1
    581a:	04c2                	slli	s1,s1,0x10
    581c:	0942                	slli	s2,s2,0x10
D:\Hummingbird\HBird-workspace\pico_test_1\Debug/../src/hdmidraw.c:380

		if(di<0)di +=4*a+6;
		else
		{
			di+=10+4*(a-b);
			b--;
    581e:	1c7d                	addi	s8,s8,-1
D:\Hummingbird\HBird-workspace\pico_test_1\Debug/../src/hdmidraw.c:379
			di+=10+4*(a-b);
    5820:	9d3e                	add	s10,s10,a5
    5822:	80c1                	srli	s1,s1,0x10
    5824:	01095913          	srli	s2,s2,0x10
D:\Hummingbird\HBird-workspace\pico_test_1\Debug/../src/hdmidraw.c:368
	while(a<=b)
    5828:	099c4d63          	blt	s8,s9,58c2 <hdmi_draw_dircle_solid_vertical+0xee>
    582c:	47a2                	lw	a5,8(sp)
D:\Hummingbird\HBird-workspace\pico_test_1\Debug/../src/hdmidraw.c:370
		hdmi_drawLine_vertical(x0+a,y0-b,x0+a,y0+b,color);             //5
    582e:	010c1413          	slli	s0,s8,0x10
    5832:	8041                	srli	s0,s0,0x10
    5834:	01b40833          	add	a6,s0,s11
    5838:	00f48633          	add	a2,s1,a5
    583c:	408d87b3          	sub	a5,s11,s0
    5840:	01081b93          	slli	s7,a6,0x10
    5844:	01079b13          	slli	s6,a5,0x10
    5848:	0642                	slli	a2,a2,0x10
    584a:	8241                	srli	a2,a2,0x10
    584c:	010b5b13          	srli	s6,s6,0x10
    5850:	010bdb93          	srli	s7,s7,0x10
    5854:	8532                	mv	a0,a2
    5856:	8752                	mv	a4,s4
    5858:	86de                	mv	a3,s7
    585a:	85da                	mv	a1,s6
    585c:	3dd9                	jal	5732 <hdmi_drawLine_vertical>
    585e:	47b2                	lw	a5,12(sp)
D:\Hummingbird\HBird-workspace\pico_test_1\Debug/../src/hdmidraw.c:371
		hdmi_drawLine_vertical(x0+b,y0-a,x0+b,y0+a,color);             //0
    5860:	01540633          	add	a2,s0,s5
    5864:	0642                	slli	a2,a2,0x10
    5866:	00f909b3          	add	s3,s2,a5
    586a:	09c2                	slli	s3,s3,0x10
    586c:	8241                	srli	a2,a2,0x10
    586e:	0109d993          	srli	s3,s3,0x10
    5872:	8532                	mv	a0,a2
    5874:	86a6                	mv	a3,s1
    5876:	8752                	mv	a4,s4
    5878:	85ce                	mv	a1,s3
    587a:	3d65                	jal	5732 <hdmi_drawLine_vertical>
D:\Hummingbird\HBird-workspace\pico_test_1\Debug/../src/hdmidraw.c:372
		hdmi_drawLine_vertical(x0-a,y0-b,x0-a,y0+b,color);             //4
    587c:	8752                	mv	a4,s4
    587e:	86de                	mv	a3,s7
    5880:	864a                	mv	a2,s2
    5882:	85da                	mv	a1,s6
    5884:	854a                	mv	a0,s2
    5886:	3575                	jal	5732 <hdmi_drawLine_vertical>
D:\Hummingbird\HBird-workspace\pico_test_1\Debug/../src/hdmidraw.c:373
		hdmi_drawLine_vertical(x0-b,y0-a,x0-b,y0+a,color);             //6
    5888:	408a8633          	sub	a2,s5,s0
    588c:	0642                	slli	a2,a2,0x10
    588e:	8241                	srli	a2,a2,0x10
    5890:	86a6                	mv	a3,s1
    5892:	8752                	mv	a4,s4
    5894:	85ce                	mv	a1,s3
    5896:	8532                	mv	a0,a2
    5898:	3d69                	jal	5732 <hdmi_drawLine_vertical>
D:\Hummingbird\HBird-workspace\pico_test_1\Debug/../src/hdmidraw.c:374
		a++;
    589a:	0c85                	addi	s9,s9,1
D:\Hummingbird\HBird-workspace\pico_test_1\Debug/../src/hdmidraw.c:379
			di+=10+4*(a-b);
    589c:	418c87b3          	sub	a5,s9,s8
    58a0:	078a                	slli	a5,a5,0x2
    58a2:	07a9                	addi	a5,a5,10
D:\Hummingbird\HBird-workspace\pico_test_1\Debug/../src/hdmidraw.c:376
		if(di<0)di +=4*a+6;
    58a4:	f60d59e3          	bgez	s10,5816 <hdmi_draw_dircle_solid_vertical+0x42>
D:\Hummingbird\HBird-workspace\pico_test_1\Debug/../src/hdmidraw.c:376 (discriminator 1)
    58a8:	002c9793          	slli	a5,s9,0x2
    58ac:	0485                	addi	s1,s1,1
    58ae:	197d                	addi	s2,s2,-1
    58b0:	0799                	addi	a5,a5,6
    58b2:	04c2                	slli	s1,s1,0x10
    58b4:	0942                	slli	s2,s2,0x10
    58b6:	9d3e                	add	s10,s10,a5
    58b8:	80c1                	srli	s1,s1,0x10
    58ba:	01095913          	srli	s2,s2,0x10
D:\Hummingbird\HBird-workspace\pico_test_1\Debug/../src/hdmidraw.c:368 (discriminator 1)
	while(a<=b)
    58be:	f79c57e3          	ble	s9,s8,582c <hdmi_draw_dircle_solid_vertical+0x58>
D:\Hummingbird\HBird-workspace\pico_test_1\Debug/../src/hdmidraw.c:384
		}
	}

}
    58c2:	40b6                	lw	ra,76(sp)
    58c4:	4426                	lw	s0,72(sp)
    58c6:	4496                	lw	s1,68(sp)
    58c8:	4906                	lw	s2,64(sp)
    58ca:	59f2                	lw	s3,60(sp)
    58cc:	5a62                	lw	s4,56(sp)
    58ce:	5ad2                	lw	s5,52(sp)
    58d0:	5b42                	lw	s6,48(sp)
    58d2:	5bb2                	lw	s7,44(sp)
    58d4:	5c22                	lw	s8,40(sp)
    58d6:	5c92                	lw	s9,36(sp)
    58d8:	5d02                	lw	s10,32(sp)
    58da:	4df2                	lw	s11,28(sp)
    58dc:	6161                	addi	sp,sp,80
    58de:	8082                	ret

000058e0 <hdmi_draw_dircle_solid>:
hdmi_draw_dircle_solid():
D:\Hummingbird\HBird-workspace\pico_test_1\Debug/../src/hdmidraw.c:391
 ** 作用：画圆
 ** 参数：x0:x坐标,y0:y坐标,r:半径
 ** 注:
****************************************************************************/
void hdmi_draw_dircle_solid(u16 x0,u16 y0,u8 r,u8 color)
{
    58e0:	715d                	addi	sp,sp,-80
D:\Hummingbird\HBird-workspace\pico_test_1\Debug/../src/hdmidraw.c:395
	int a,b;
	int di;
	a=0;b=r;
	di=3-(r<<1);
    58e2:	00161793          	slli	a5,a2,0x1
D:\Hummingbird\HBird-workspace\pico_test_1\Debug/../src/hdmidraw.c:391
{
    58e6:	d06a                	sw	s10,32(sp)
D:\Hummingbird\HBird-workspace\pico_test_1\Debug/../src/hdmidraw.c:395
	di=3-(r<<1);
    58e8:	4d0d                	li	s10,3
    58ea:	40fd0d33          	sub	s10,s10,a5
    58ee:	40b507b3          	sub	a5,a0,a1
    58f2:	c43e                	sw	a5,8(sp)
    58f4:	40a587b3          	sub	a5,a1,a0
D:\Hummingbird\HBird-workspace\pico_test_1\Debug/../src/hdmidraw.c:391
{
    58f8:	c2a6                	sw	s1,68(sp)
    58fa:	c0ca                	sw	s2,64(sp)
    58fc:	dc52                	sw	s4,56(sp)
    58fe:	da56                	sw	s5,52(sp)
    5900:	d462                	sw	s8,40(sp)
    5902:	d266                	sw	s9,36(sp)
    5904:	ce6e                	sw	s11,28(sp)
    5906:	c686                	sw	ra,76(sp)
    5908:	c4a2                	sw	s0,72(sp)
    590a:	de4e                	sw	s3,60(sp)
    590c:	d85a                	sw	s6,48(sp)
    590e:	d65e                	sw	s7,44(sp)
D:\Hummingbird\HBird-workspace\pico_test_1\Debug/../src/hdmidraw.c:394
	a=0;b=r;
    5910:	8c32                	mv	s8,a2
D:\Hummingbird\HBird-workspace\pico_test_1\Debug/../src/hdmidraw.c:391
{
    5912:	8aaa                	mv	s5,a0
    5914:	8dae                	mv	s11,a1
    5916:	8a36                	mv	s4,a3
D:\Hummingbird\HBird-workspace\pico_test_1\Debug/../src/hdmidraw.c:395
	di=3-(r<<1);
    5918:	892a                	mv	s2,a0
    591a:	84ae                	mv	s1,a1
D:\Hummingbird\HBird-workspace\pico_test_1\Debug/../src/hdmidraw.c:394
	a=0;b=r;
    591c:	4c81                	li	s9,0
    591e:	c63e                	sw	a5,12(sp)
    5920:	a821                	j	5938 <hdmi_draw_dircle_solid+0x58>
    5922:	0485                	addi	s1,s1,1
    5924:	197d                	addi	s2,s2,-1
    5926:	04c2                	slli	s1,s1,0x10
    5928:	0942                	slli	s2,s2,0x10
D:\Hummingbird\HBird-workspace\pico_test_1\Debug/../src/hdmidraw.c:408

		if(di<0)di +=4*a+6;
		else
		{
			di+=10+4*(a-b);
			b--;
    592a:	1c7d                	addi	s8,s8,-1
D:\Hummingbird\HBird-workspace\pico_test_1\Debug/../src/hdmidraw.c:407
			di+=10+4*(a-b);
    592c:	9d3e                	add	s10,s10,a5
    592e:	80c1                	srli	s1,s1,0x10
    5930:	01095913          	srli	s2,s2,0x10
D:\Hummingbird\HBird-workspace\pico_test_1\Debug/../src/hdmidraw.c:396
	while(a<=b)
    5934:	099c4d63          	blt	s8,s9,59ce <hdmi_draw_dircle_solid+0xee>
    5938:	47a2                	lw	a5,8(sp)
D:\Hummingbird\HBird-workspace\pico_test_1\Debug/../src/hdmidraw.c:398
		hdmi_drawLine(x0+a,y0-b,x0+a,y0+b,color);             //5
    593a:	010c1413          	slli	s0,s8,0x10
    593e:	8041                	srli	s0,s0,0x10
    5940:	01b40833          	add	a6,s0,s11
    5944:	00f48633          	add	a2,s1,a5
    5948:	408d87b3          	sub	a5,s11,s0
    594c:	01081b93          	slli	s7,a6,0x10
    5950:	01079b13          	slli	s6,a5,0x10
    5954:	0642                	slli	a2,a2,0x10
    5956:	8241                	srli	a2,a2,0x10
    5958:	010b5b13          	srli	s6,s6,0x10
    595c:	010bdb93          	srli	s7,s7,0x10
    5960:	8532                	mv	a0,a2
    5962:	8752                	mv	a4,s4
    5964:	86de                	mv	a3,s7
    5966:	85da                	mv	a1,s6
    5968:	3b25                	jal	56a0 <hdmi_drawLine>
    596a:	47b2                	lw	a5,12(sp)
D:\Hummingbird\HBird-workspace\pico_test_1\Debug/../src/hdmidraw.c:399
		hdmi_drawLine(x0+b,y0-a,x0+b,y0+a,color);             //0
    596c:	01540633          	add	a2,s0,s5
    5970:	0642                	slli	a2,a2,0x10
    5972:	00f909b3          	add	s3,s2,a5
    5976:	09c2                	slli	s3,s3,0x10
    5978:	8241                	srli	a2,a2,0x10
    597a:	0109d993          	srli	s3,s3,0x10
    597e:	8532                	mv	a0,a2
    5980:	86a6                	mv	a3,s1
    5982:	8752                	mv	a4,s4
    5984:	85ce                	mv	a1,s3
    5986:	3b29                	jal	56a0 <hdmi_drawLine>
D:\Hummingbird\HBird-workspace\pico_test_1\Debug/../src/hdmidraw.c:400
		hdmi_drawLine(x0-a,y0-b,x0-a,y0+b,color);             //4
    5988:	8752                	mv	a4,s4
    598a:	86de                	mv	a3,s7
    598c:	864a                	mv	a2,s2
    598e:	85da                	mv	a1,s6
    5990:	854a                	mv	a0,s2
    5992:	3339                	jal	56a0 <hdmi_drawLine>
D:\Hummingbird\HBird-workspace\pico_test_1\Debug/../src/hdmidraw.c:401
		hdmi_drawLine(x0-b,y0-a,x0-b,y0+a,color);             //6
    5994:	408a8633          	sub	a2,s5,s0
    5998:	0642                	slli	a2,a2,0x10
    599a:	8241                	srli	a2,a2,0x10
    599c:	86a6                	mv	a3,s1
    599e:	8752                	mv	a4,s4
    59a0:	85ce                	mv	a1,s3
    59a2:	8532                	mv	a0,a2
    59a4:	39f5                	jal	56a0 <hdmi_drawLine>
D:\Hummingbird\HBird-workspace\pico_test_1\Debug/../src/hdmidraw.c:402
		a++;
    59a6:	0c85                	addi	s9,s9,1
D:\Hummingbird\HBird-workspace\pico_test_1\Debug/../src/hdmidraw.c:407
			di+=10+4*(a-b);
    59a8:	418c87b3          	sub	a5,s9,s8
    59ac:	078a                	slli	a5,a5,0x2
    59ae:	07a9                	addi	a5,a5,10
D:\Hummingbird\HBird-workspace\pico_test_1\Debug/../src/hdmidraw.c:404
		if(di<0)di +=4*a+6;
    59b0:	f60d59e3          	bgez	s10,5922 <hdmi_draw_dircle_solid+0x42>
D:\Hummingbird\HBird-workspace\pico_test_1\Debug/../src/hdmidraw.c:404 (discriminator 1)
    59b4:	002c9793          	slli	a5,s9,0x2
    59b8:	0485                	addi	s1,s1,1
    59ba:	197d                	addi	s2,s2,-1
    59bc:	0799                	addi	a5,a5,6
    59be:	04c2                	slli	s1,s1,0x10
    59c0:	0942                	slli	s2,s2,0x10
    59c2:	9d3e                	add	s10,s10,a5
    59c4:	80c1                	srli	s1,s1,0x10
    59c6:	01095913          	srli	s2,s2,0x10
D:\Hummingbird\HBird-workspace\pico_test_1\Debug/../src/hdmidraw.c:396 (discriminator 1)
	while(a<=b)
    59ca:	f79c57e3          	ble	s9,s8,5938 <hdmi_draw_dircle_solid+0x58>
D:\Hummingbird\HBird-workspace\pico_test_1\Debug/../src/hdmidraw.c:412
		}
	}

}
    59ce:	40b6                	lw	ra,76(sp)
    59d0:	4426                	lw	s0,72(sp)
    59d2:	4496                	lw	s1,68(sp)
    59d4:	4906                	lw	s2,64(sp)
    59d6:	59f2                	lw	s3,60(sp)
    59d8:	5a62                	lw	s4,56(sp)
    59da:	5ad2                	lw	s5,52(sp)
    59dc:	5b42                	lw	s6,48(sp)
    59de:	5bb2                	lw	s7,44(sp)
    59e0:	5c22                	lw	s8,40(sp)
    59e2:	5c92                	lw	s9,36(sp)
    59e4:	5d02                	lw	s10,32(sp)
    59e6:	4df2                	lw	s11,28(sp)
    59e8:	6161                	addi	sp,sp,80
    59ea:	8082                	ret

000059ec <hdmi_drawrectangle>:
hdmi_drawrectangle():
D:\Hummingbird\HBird-workspace\pico_test_1\Debug/../src/hdmidraw.c:419
 ** 作用：画矩形
 ** 参数：x1:x坐标,y1:y坐标
 ** 注:
****************************************************************************/
void hdmi_drawrectangle(u16 x1, u16 y1, u16 x2, u16 y2,u8 color)
{
    59ec:	1101                	addi	sp,sp,-32
    59ee:	cc22                	sw	s0,24(sp)
    59f0:	8436                	mv	s0,a3
D:\Hummingbird\HBird-workspace\pico_test_1\Debug/../src/hdmidraw.c:420
	hdmi_drawLine(x1,y1,x2,y1,color);
    59f2:	86ae                	mv	a3,a1
D:\Hummingbird\HBird-workspace\pico_test_1\Debug/../src/hdmidraw.c:419
{
    59f4:	ce06                	sw	ra,28(sp)
    59f6:	ca26                	sw	s1,20(sp)
    59f8:	c84a                	sw	s2,16(sp)
    59fa:	c64e                	sw	s3,12(sp)
    59fc:	c452                	sw	s4,8(sp)
    59fe:	893a                	mv	s2,a4
    5a00:	8a32                	mv	s4,a2
    5a02:	89aa                	mv	s3,a0
    5a04:	84ae                	mv	s1,a1
D:\Hummingbird\HBird-workspace\pico_test_1\Debug/../src/hdmidraw.c:420
	hdmi_drawLine(x1,y1,x2,y1,color);
    5a06:	3969                	jal	56a0 <hdmi_drawLine>
D:\Hummingbird\HBird-workspace\pico_test_1\Debug/../src/hdmidraw.c:421
	hdmi_drawLine(x1,y1,x1,y2,color);
    5a08:	874a                	mv	a4,s2
    5a0a:	86a2                	mv	a3,s0
    5a0c:	864e                	mv	a2,s3
    5a0e:	85a6                	mv	a1,s1
    5a10:	854e                	mv	a0,s3
    5a12:	3179                	jal	56a0 <hdmi_drawLine>
D:\Hummingbird\HBird-workspace\pico_test_1\Debug/../src/hdmidraw.c:422
	hdmi_drawLine(x1,y2,x2,y2,color);
    5a14:	874a                	mv	a4,s2
    5a16:	86a2                	mv	a3,s0
    5a18:	8652                	mv	a2,s4
    5a1a:	85a2                	mv	a1,s0
    5a1c:	854e                	mv	a0,s3
    5a1e:	3149                	jal	56a0 <hdmi_drawLine>
D:\Hummingbird\HBird-workspace\pico_test_1\Debug/../src/hdmidraw.c:423
	hdmi_drawLine(x2,y1,x2,y2,color);
    5a20:	86a2                	mv	a3,s0
D:\Hummingbird\HBird-workspace\pico_test_1\Debug/../src/hdmidraw.c:424
}
    5a22:	4462                	lw	s0,24(sp)
    5a24:	40f2                	lw	ra,28(sp)
    5a26:	49b2                	lw	s3,12(sp)
D:\Hummingbird\HBird-workspace\pico_test_1\Debug/../src/hdmidraw.c:423
	hdmi_drawLine(x2,y1,x2,y2,color);
    5a28:	874a                	mv	a4,s2
    5a2a:	8652                	mv	a2,s4
D:\Hummingbird\HBird-workspace\pico_test_1\Debug/../src/hdmidraw.c:424
}
    5a2c:	4942                	lw	s2,16(sp)
D:\Hummingbird\HBird-workspace\pico_test_1\Debug/../src/hdmidraw.c:423
	hdmi_drawLine(x2,y1,x2,y2,color);
    5a2e:	85a6                	mv	a1,s1
    5a30:	8552                	mv	a0,s4
D:\Hummingbird\HBird-workspace\pico_test_1\Debug/../src/hdmidraw.c:424
}
    5a32:	44d2                	lw	s1,20(sp)
    5a34:	4a22                	lw	s4,8(sp)
    5a36:	6105                	addi	sp,sp,32
D:\Hummingbird\HBird-workspace\pico_test_1\Debug/../src/hdmidraw.c:423
	hdmi_drawLine(x2,y1,x2,y2,color);
    5a38:	b1a5                	j	56a0 <hdmi_drawLine>

00005a3a <hdmi_drawtriangle>:
hdmi_drawtriangle():
D:\Hummingbird\HBird-workspace\pico_test_1\Debug/../src/hdmidraw.c:430
/***************************************************************************
 ** 作用：画矩形
 ** 参数：x1:x坐标,y1:y坐标
 ** 注:
****************************************************************************/
void hdmi_drawtriangle(u16 x, u16 y,u8 color,u8 back){
    5a3a:	63a1                	lui	t2,0x8
    5a3c:	28838393          	addi	t2,t2,648 # 8288 <triangle>
hdmi_draw_point():
D:\Hummingbird\HBird-workspace\pico_test_1\Debug/../src/hdmidraw.c:45
	ram_data_address = color+(0b1<<31);
    5a40:	800007b7          	lui	a5,0x80000
    5a44:	00138293          	addi	t0,t2,1
hdmi_drawtriangle():
D:\Hummingbird\HBird-workspace\pico_test_1\Debug/../src/hdmidraw.c:433
	u8 i;u8 j;
	u8 cursor;
	u16 x0 = x; u16 y0 = y;
    5a48:	872a                	mv	a4,a0
    5a4a:	03c1                	addi	t2,t2,16
    5a4c:	4e01                	li	t3,0
hdmi_draw_point():
D:\Hummingbird\HBird-workspace\pico_test_1\Debug/../src/hdmidraw.c:44
	ram_address = temp_ramaddress;
    5a4e:	6361                	lui	t1,0x18
D:\Hummingbird\HBird-workspace\pico_test_1\Debug/../src/hdmidraw.c:45
	ram_data_address = color+(0b1<<31);
    5a50:	96be                	add	a3,a3,a5
    5a52:	963e                	add	a2,a2,a5
hdmi_drawtriangle():
D:\Hummingbird\HBird-workspace\pico_test_1\Debug/../src/hdmidraw.c:443
				hdmi_draw_point(x0,y0,color);
			}else{
				hdmi_draw_point(x0,y0,back);
			}
			x0++;
			if(x0>319 || x0>7+x){
    5a54:	13f00f13          	li	t5,319
    5a58:	00750f93          	addi	t6,a0,7
D:\Hummingbird\HBird-workspace\pico_test_1\Debug/../src/hdmidraw.c:436
		for(j = 0; j< 8; j++){
    5a5c:	5efd                	li	t4,-1
D:\Hummingbird\HBird-workspace\pico_test_1\Debug/../src/hdmidraw.c:433
	u16 x0 = x; u16 y0 = y;
    5a5e:	489d                	li	a7,7
    5a60:	00259793          	slli	a5,a1,0x2
    5a64:	97ae                	add	a5,a5,a1
    5a66:	079a                	slli	a5,a5,0x6
D:\Hummingbird\HBird-workspace\pico_test_1\Debug/../src/hdmidraw.c:437
			if(((cursor>>(7-j))&0x01)){
    5a68:	411e5833          	sra	a6,t3,a7
    5a6c:	97ba                	add	a5,a5,a4
    5a6e:	00187813          	andi	a6,a6,1
hdmi_draw_point():
D:\Hummingbird\HBird-workspace\pico_test_1\Debug/../src/hdmidraw.c:44
	ram_address = temp_ramaddress;
    5a72:	06f32023          	sw	a5,96(t1) # 18060 <_etext+0xf82c>
hdmi_drawtriangle():
D:\Hummingbird\HBird-workspace\pico_test_1\Debug/../src/hdmidraw.c:437
			if(((cursor>>(7-j))&0x01)){
    5a76:	02080a63          	beqz	a6,5aaa <hdmi_drawtriangle+0x70>
hdmi_draw_point():
D:\Hummingbird\HBird-workspace\pico_test_1\Debug/../src/hdmidraw.c:45
	ram_data_address = color+(0b1<<31);
    5a7a:	06c32823          	sw	a2,112(t1)
hdmi_drawtriangle():
D:\Hummingbird\HBird-workspace\pico_test_1\Debug/../src/hdmidraw.c:442
			x0++;
    5a7e:	0705                	addi	a4,a4,1
    5a80:	0742                	slli	a4,a4,0x10
    5a82:	8341                	srli	a4,a4,0x10
    5a84:	18fd                	addi	a7,a7,-1
D:\Hummingbird\HBird-workspace\pico_test_1\Debug/../src/hdmidraw.c:444
				x0 = x;y0++;
    5a86:	00158793          	addi	a5,a1,1
D:\Hummingbird\HBird-workspace\pico_test_1\Debug/../src/hdmidraw.c:443
			if(x0>319 || x0>7+x){
    5a8a:	00ef6463          	bltu	t5,a4,5a92 <hdmi_drawtriangle+0x58>
D:\Hummingbird\HBird-workspace\pico_test_1\Debug/../src/hdmidraw.c:443 (discriminator 1)
    5a8e:	00efd663          	ble	a4,t6,5a9a <hdmi_drawtriangle+0x60>
D:\Hummingbird\HBird-workspace\pico_test_1\Debug/../src/hdmidraw.c:444
				x0 = x;y0++;
    5a92:	01079593          	slli	a1,a5,0x10
    5a96:	81c1                	srli	a1,a1,0x10
    5a98:	872a                	mv	a4,a0
D:\Hummingbird\HBird-workspace\pico_test_1\Debug/../src/hdmidraw.c:436 (discriminator 2)
		for(j = 0; j< 8; j++){
    5a9a:	fdd893e3          	bne	a7,t4,5a60 <hdmi_drawtriangle+0x26>
D:\Hummingbird\HBird-workspace\pico_test_1\Debug/../src/hdmidraw.c:434 (discriminator 2)
	for(i = 0; i < 16; i++){
    5a9e:	00538963          	beq	t2,t0,5ab0 <hdmi_drawtriangle+0x76>
    5aa2:	0002ce03          	lbu	t3,0(t0)
    5aa6:	0285                	addi	t0,t0,1
    5aa8:	bf5d                	j	5a5e <hdmi_drawtriangle+0x24>
hdmi_draw_point():
D:\Hummingbird\HBird-workspace\pico_test_1\Debug/../src/hdmidraw.c:45
	ram_data_address = color+(0b1<<31);
    5aaa:	06d32823          	sw	a3,112(t1)
    5aae:	bfc1                	j	5a7e <hdmi_drawtriangle+0x44>
hdmi_drawtriangle():
D:\Hummingbird\HBird-workspace\pico_test_1\Debug/../src/hdmidraw.c:448
			}
		}
	}
}
    5ab0:	8082                	ret

00005ab2 <hdmi_drawziguang>:
hdmi_drawziguang():
D:\Hummingbird\HBird-workspace\pico_test_1\Debug/../src/hdmidraw.c:454
/***************************************************************************
 ** 作用：画紫光
 ** 参数：x1:x坐标,y1:y坐标
 ** 注:
****************************************************************************/
void hdmi_drawziguang(u16 x,u16 y,u8 color,u8 back){
    5ab2:	1141                	addi	sp,sp,-16
    5ab4:	c622                	sw	s0,12(sp)
    5ab6:	6421                	lui	s0,0x8
    5ab8:	29840413          	addi	s0,s0,664 # 8298 <ziguang>
hdmi_draw_point():
D:\Hummingbird\HBird-workspace\pico_test_1\Debug/../src/hdmidraw.c:45
	ram_data_address = color+(0b1<<31);
    5abc:	800007b7          	lui	a5,0x80000
    5ac0:	00140393          	addi	t2,s0,1
hdmi_drawziguang():
D:\Hummingbird\HBird-workspace\pico_test_1\Debug/../src/hdmidraw.c:457
	u16 i;u8 j;
	u64 cursor;
	u16 x0 = x; u16 y0 = y;
    5ac4:	872a                	mv	a4,a0
    5ac6:	20040413          	addi	s0,s0,512
    5aca:	4e81                	li	t4,0
hdmi_draw_point():
D:\Hummingbird\HBird-workspace\pico_test_1\Debug/../src/hdmidraw.c:44
	ram_address = temp_ramaddress;
    5acc:	6e61                	lui	t3,0x18
D:\Hummingbird\HBird-workspace\pico_test_1\Debug/../src/hdmidraw.c:45
	ram_data_address = color+(0b1<<31);
    5ace:	96be                	add	a3,a3,a5
    5ad0:	963e                	add	a2,a2,a5
hdmi_drawziguang():
D:\Hummingbird\HBird-workspace\pico_test_1\Debug/../src/hdmidraw.c:467
				hdmi_draw_point(x0,y0,color);
			}else{
				hdmi_draw_point(x0,y0,back);
			}
			x0++;
			if(x0>319 || x0>63+x){
    5ad2:	13f00f93          	li	t6,319
    5ad6:	03f50293          	addi	t0,a0,63
D:\Hummingbird\HBird-workspace\pico_test_1\Debug/../src/hdmidraw.c:460
		for(j = 0; j< 8; j++){
    5ada:	5f7d                	li	t5,-1
D:\Hummingbird\HBird-workspace\pico_test_1\Debug/../src/hdmidraw.c:459
		cursor = ziguang[i];//春日影
    5adc:	489d                	li	a7,7
    5ade:	00259793          	slli	a5,a1,0x2
    5ae2:	97ae                	add	a5,a5,a1
    5ae4:	079a                	slli	a5,a5,0x6
    5ae6:	97ba                	add	a5,a5,a4
D:\Hummingbird\HBird-workspace\pico_test_1\Debug/../src/hdmidraw.c:461
			if(((cursor>>(7-j))&0x01)){
    5ae8:	011ed833          	srl	a6,t4,a7
    5aec:	0208f313          	andi	t1,a7,32
hdmi_draw_point():
D:\Hummingbird\HBird-workspace\pico_test_1\Debug/../src/hdmidraw.c:44
	ram_address = temp_ramaddress;
    5af0:	06fe2023          	sw	a5,96(t3) # 18060 <_etext+0xf82c>
hdmi_drawziguang():
D:\Hummingbird\HBird-workspace\pico_test_1\Debug/../src/hdmidraw.c:461
			if(((cursor>>(7-j))&0x01)){
    5af4:	00187813          	andi	a6,a6,1
    5af8:	02031c63          	bnez	t1,5b30 <hdmi_drawziguang+0x7e>
    5afc:	02080a63          	beqz	a6,5b30 <hdmi_drawziguang+0x7e>
hdmi_draw_point():
D:\Hummingbird\HBird-workspace\pico_test_1\Debug/../src/hdmidraw.c:45
	ram_data_address = color+(0b1<<31);
    5b00:	06ce2823          	sw	a2,112(t3)
hdmi_drawziguang():
D:\Hummingbird\HBird-workspace\pico_test_1\Debug/../src/hdmidraw.c:466
			x0++;
    5b04:	0705                	addi	a4,a4,1
    5b06:	0742                	slli	a4,a4,0x10
    5b08:	8341                	srli	a4,a4,0x10
    5b0a:	18fd                	addi	a7,a7,-1
D:\Hummingbird\HBird-workspace\pico_test_1\Debug/../src/hdmidraw.c:468
				x0 = x;y0++;
    5b0c:	00158793          	addi	a5,a1,1
D:\Hummingbird\HBird-workspace\pico_test_1\Debug/../src/hdmidraw.c:467
			if(x0>319 || x0>63+x){
    5b10:	00efe463          	bltu	t6,a4,5b18 <hdmi_drawziguang+0x66>
D:\Hummingbird\HBird-workspace\pico_test_1\Debug/../src/hdmidraw.c:467 (discriminator 1)
    5b14:	00e2d663          	ble	a4,t0,5b20 <hdmi_drawziguang+0x6e>
D:\Hummingbird\HBird-workspace\pico_test_1\Debug/../src/hdmidraw.c:468
				x0 = x;y0++;
    5b18:	01079593          	slli	a1,a5,0x10
    5b1c:	81c1                	srli	a1,a1,0x10
    5b1e:	872a                	mv	a4,a0
D:\Hummingbird\HBird-workspace\pico_test_1\Debug/../src/hdmidraw.c:460 (discriminator 2)
		for(j = 0; j< 8; j++){
    5b20:	fbe89fe3          	bne	a7,t5,5ade <hdmi_drawziguang+0x2c>
D:\Hummingbird\HBird-workspace\pico_test_1\Debug/../src/hdmidraw.c:458 (discriminator 2)
	for(i = 0;i< 512; i++){
    5b24:	00740963          	beq	s0,t2,5b36 <hdmi_drawziguang+0x84>
    5b28:	0003ce83          	lbu	t4,0(t2)
    5b2c:	0385                	addi	t2,t2,1
    5b2e:	b77d                	j	5adc <hdmi_drawziguang+0x2a>
hdmi_draw_point():
D:\Hummingbird\HBird-workspace\pico_test_1\Debug/../src/hdmidraw.c:45
	ram_data_address = color+(0b1<<31);
    5b30:	06de2823          	sw	a3,112(t3)
    5b34:	bfc1                	j	5b04 <hdmi_drawziguang+0x52>
hdmi_drawziguang():
D:\Hummingbird\HBird-workspace\pico_test_1\Debug/../src/hdmidraw.c:472
			}
		}
	}
}
    5b36:	4432                	lw	s0,12(sp)
    5b38:	0141                	addi	sp,sp,16
    5b3a:	8082                	ret

00005b3c <hdmi_drawquwei>:
hdmi_drawquwei():
D:\Hummingbird\HBird-workspace\pico_test_1\Debug/../src/hdmidraw.c:478
/***************************************************************************
 ** 作用：画趣味游戏
 ** 参数：x1:x坐标,y1:y坐标
 ** 注:
****************************************************************************/
void hdmi_drawquwei(u16 x,u16 y,u8 color,u8 back){
    5b3c:	1141                	addi	sp,sp,-16
    5b3e:	c622                	sw	s0,12(sp)
    5b40:	6421                	lui	s0,0x8
    5b42:	1c840413          	addi	s0,s0,456 # 81c8 <quwei>
hdmi_draw_point():
D:\Hummingbird\HBird-workspace\pico_test_1\Debug/../src/hdmidraw.c:45
	ram_data_address = color+(0b1<<31);
    5b46:	800007b7          	lui	a5,0x80000
    5b4a:	00140393          	addi	t2,s0,1
hdmi_drawquwei():
D:\Hummingbird\HBird-workspace\pico_test_1\Debug/../src/hdmidraw.c:481
	u16 i;u8 j;
	u64 cursor;
	u16 x0 = x; u16 y0 = y;
    5b4e:	872a                	mv	a4,a0
    5b50:	0c040413          	addi	s0,s0,192
    5b54:	4e81                	li	t4,0
hdmi_draw_point():
D:\Hummingbird\HBird-workspace\pico_test_1\Debug/../src/hdmidraw.c:44
	ram_address = temp_ramaddress;
    5b56:	6e61                	lui	t3,0x18
D:\Hummingbird\HBird-workspace\pico_test_1\Debug/../src/hdmidraw.c:45
	ram_data_address = color+(0b1<<31);
    5b58:	96be                	add	a3,a3,a5
    5b5a:	963e                	add	a2,a2,a5
hdmi_drawquwei():
D:\Hummingbird\HBird-workspace\pico_test_1\Debug/../src/hdmidraw.c:491
				hdmi_draw_point(x0,y0,color);
			}else{
				hdmi_draw_point(x0,y0,back);
			}
			x0++;
			if(x0>319 || x0>95+x){
    5b5c:	13f00f93          	li	t6,319
    5b60:	05f50293          	addi	t0,a0,95
D:\Hummingbird\HBird-workspace\pico_test_1\Debug/../src/hdmidraw.c:484
		for(j = 0; j< 8; j++){
    5b64:	5f7d                	li	t5,-1
D:\Hummingbird\HBird-workspace\pico_test_1\Debug/../src/hdmidraw.c:483
		cursor = quwei[i];
    5b66:	489d                	li	a7,7
    5b68:	00259793          	slli	a5,a1,0x2
    5b6c:	97ae                	add	a5,a5,a1
    5b6e:	079a                	slli	a5,a5,0x6
    5b70:	97ba                	add	a5,a5,a4
D:\Hummingbird\HBird-workspace\pico_test_1\Debug/../src/hdmidraw.c:485
			if(((cursor>>(7-j))&0x01)){
    5b72:	011ed833          	srl	a6,t4,a7
    5b76:	0208f313          	andi	t1,a7,32
hdmi_draw_point():
D:\Hummingbird\HBird-workspace\pico_test_1\Debug/../src/hdmidraw.c:44
	ram_address = temp_ramaddress;
    5b7a:	06fe2023          	sw	a5,96(t3) # 18060 <_etext+0xf82c>
hdmi_drawquwei():
D:\Hummingbird\HBird-workspace\pico_test_1\Debug/../src/hdmidraw.c:485
			if(((cursor>>(7-j))&0x01)){
    5b7e:	00187813          	andi	a6,a6,1
    5b82:	02031c63          	bnez	t1,5bba <hdmi_drawquwei+0x7e>
    5b86:	02080a63          	beqz	a6,5bba <hdmi_drawquwei+0x7e>
hdmi_draw_point():
D:\Hummingbird\HBird-workspace\pico_test_1\Debug/../src/hdmidraw.c:45
	ram_data_address = color+(0b1<<31);
    5b8a:	06ce2823          	sw	a2,112(t3)
hdmi_drawquwei():
D:\Hummingbird\HBird-workspace\pico_test_1\Debug/../src/hdmidraw.c:490
			x0++;
    5b8e:	0705                	addi	a4,a4,1
    5b90:	0742                	slli	a4,a4,0x10
    5b92:	8341                	srli	a4,a4,0x10
    5b94:	18fd                	addi	a7,a7,-1
D:\Hummingbird\HBird-workspace\pico_test_1\Debug/../src/hdmidraw.c:492
				x0 = x;y0++;
    5b96:	00158793          	addi	a5,a1,1
D:\Hummingbird\HBird-workspace\pico_test_1\Debug/../src/hdmidraw.c:491
			if(x0>319 || x0>95+x){
    5b9a:	00efe463          	bltu	t6,a4,5ba2 <hdmi_drawquwei+0x66>
D:\Hummingbird\HBird-workspace\pico_test_1\Debug/../src/hdmidraw.c:491 (discriminator 1)
    5b9e:	00e2d663          	ble	a4,t0,5baa <hdmi_drawquwei+0x6e>
D:\Hummingbird\HBird-workspace\pico_test_1\Debug/../src/hdmidraw.c:492
				x0 = x;y0++;
    5ba2:	01079593          	slli	a1,a5,0x10
    5ba6:	81c1                	srli	a1,a1,0x10
    5ba8:	872a                	mv	a4,a0
D:\Hummingbird\HBird-workspace\pico_test_1\Debug/../src/hdmidraw.c:484 (discriminator 2)
		for(j = 0; j< 8; j++){
    5baa:	fbe89fe3          	bne	a7,t5,5b68 <hdmi_drawquwei+0x2c>
D:\Hummingbird\HBird-workspace\pico_test_1\Debug/../src/hdmidraw.c:482 (discriminator 2)
	for(i = 0;i< 192; i++){
    5bae:	00740963          	beq	s0,t2,5bc0 <hdmi_drawquwei+0x84>
    5bb2:	0003ce83          	lbu	t4,0(t2)
    5bb6:	0385                	addi	t2,t2,1
    5bb8:	b77d                	j	5b66 <hdmi_drawquwei+0x2a>
hdmi_draw_point():
D:\Hummingbird\HBird-workspace\pico_test_1\Debug/../src/hdmidraw.c:45
	ram_data_address = color+(0b1<<31);
    5bba:	06de2823          	sw	a3,112(t3)
    5bbe:	bfc1                	j	5b8e <hdmi_drawquwei+0x52>
hdmi_drawquwei():
D:\Hummingbird\HBird-workspace\pico_test_1\Debug/../src/hdmidraw.c:496
			}
		}
	}
}
    5bc0:	4432                	lw	s0,12(sp)
    5bc2:	0141                	addi	sp,sp,16
    5bc4:	8082                	ret

00005bc6 <hdmi_drawrectangle_vertical>:
hdmi_drawrectangle_vertical():
D:\Hummingbird\HBird-workspace\pico_test_1\Debug/../src/hdmidraw.c:500


void hdmi_drawrectangle_vertical(u16 x1, u16 y1, u16 x2, u16 y2,u8 color)
{
    5bc6:	1101                	addi	sp,sp,-32
    5bc8:	cc22                	sw	s0,24(sp)
    5bca:	8436                	mv	s0,a3
D:\Hummingbird\HBird-workspace\pico_test_1\Debug/../src/hdmidraw.c:501
	hdmi_drawLine_vertical(x1,y1,x2,y1,color);
    5bcc:	86ae                	mv	a3,a1
D:\Hummingbird\HBird-workspace\pico_test_1\Debug/../src/hdmidraw.c:500
{
    5bce:	ce06                	sw	ra,28(sp)
    5bd0:	ca26                	sw	s1,20(sp)
    5bd2:	c84a                	sw	s2,16(sp)
    5bd4:	c64e                	sw	s3,12(sp)
    5bd6:	c452                	sw	s4,8(sp)
    5bd8:	893a                	mv	s2,a4
    5bda:	8a32                	mv	s4,a2
    5bdc:	89aa                	mv	s3,a0
    5bde:	84ae                	mv	s1,a1
D:\Hummingbird\HBird-workspace\pico_test_1\Debug/../src/hdmidraw.c:501
	hdmi_drawLine_vertical(x1,y1,x2,y1,color);
    5be0:	3e89                	jal	5732 <hdmi_drawLine_vertical>
D:\Hummingbird\HBird-workspace\pico_test_1\Debug/../src/hdmidraw.c:502
	hdmi_drawLine_vertical(x1,y1,x1,y2,color);
    5be2:	874a                	mv	a4,s2
    5be4:	86a2                	mv	a3,s0
    5be6:	864e                	mv	a2,s3
    5be8:	85a6                	mv	a1,s1
    5bea:	854e                	mv	a0,s3
    5bec:	3699                	jal	5732 <hdmi_drawLine_vertical>
D:\Hummingbird\HBird-workspace\pico_test_1\Debug/../src/hdmidraw.c:503
	hdmi_drawLine_vertical(x1,y2,x2,y2,color);
    5bee:	874a                	mv	a4,s2
    5bf0:	86a2                	mv	a3,s0
    5bf2:	8652                	mv	a2,s4
    5bf4:	85a2                	mv	a1,s0
    5bf6:	854e                	mv	a0,s3
    5bf8:	3e2d                	jal	5732 <hdmi_drawLine_vertical>
D:\Hummingbird\HBird-workspace\pico_test_1\Debug/../src/hdmidraw.c:504
	hdmi_drawLine_vertical(x2,y1,x2,y2,color);
    5bfa:	86a2                	mv	a3,s0
D:\Hummingbird\HBird-workspace\pico_test_1\Debug/../src/hdmidraw.c:505
}
    5bfc:	4462                	lw	s0,24(sp)
    5bfe:	40f2                	lw	ra,28(sp)
    5c00:	49b2                	lw	s3,12(sp)
D:\Hummingbird\HBird-workspace\pico_test_1\Debug/../src/hdmidraw.c:504
	hdmi_drawLine_vertical(x2,y1,x2,y2,color);
    5c02:	874a                	mv	a4,s2
    5c04:	8652                	mv	a2,s4
D:\Hummingbird\HBird-workspace\pico_test_1\Debug/../src/hdmidraw.c:505
}
    5c06:	4942                	lw	s2,16(sp)
D:\Hummingbird\HBird-workspace\pico_test_1\Debug/../src/hdmidraw.c:504
	hdmi_drawLine_vertical(x2,y1,x2,y2,color);
    5c08:	85a6                	mv	a1,s1
    5c0a:	8552                	mv	a0,s4
D:\Hummingbird\HBird-workspace\pico_test_1\Debug/../src/hdmidraw.c:505
}
    5c0c:	44d2                	lw	s1,20(sp)
    5c0e:	4a22                	lw	s4,8(sp)
    5c10:	6105                	addi	sp,sp,32
D:\Hummingbird\HBird-workspace\pico_test_1\Debug/../src/hdmidraw.c:504
	hdmi_drawLine_vertical(x2,y1,x2,y2,color);
    5c12:	b605                	j	5732 <hdmi_drawLine_vertical>

00005c14 <hdmi_draw_fill_vertical>:
hdmi_draw_fill_vertical():
D:\Hummingbird\HBird-workspace\pico_test_1\Debug/../src/hdmidraw.c:508

void hdmi_draw_fill_vertical(u16 sx,u16 sy,u16 ex,u16 ey,u16 color)
{
    5c14:	0605                	addi	a2,a2,1
    5c16:	01061313          	slli	t1,a2,0x10
    5c1a:	01035313          	srli	t1,t1,0x10
D:\Hummingbird\HBird-workspace\pico_test_1\Debug/../src/hdmidraw.c:512
	u16 i,j;
	u16 x0 = sx;u16 y0 = sy;
	u16 xlen=0;
	xlen=ex-sx+1;
    5c1e:	40a30e33          	sub	t3,t1,a0
    5c22:	0e42                	slli	t3,t3,0x10
    5c24:	010e5e13          	srli	t3,t3,0x10
D:\Hummingbird\HBird-workspace\pico_test_1\Debug/../src/hdmidraw.c:513
	for(i=sy;i<=ey;i++)
    5c28:	04b6e163          	bltu	a3,a1,5c6a <hdmi_draw_fill_vertical+0x56>
    5c2c:	0ff77713          	andi	a4,a4,255
    5c30:	800008b7          	lui	a7,0x80000
    5c34:	13f00e93          	li	t4,319
    5c38:	98ba                	add	a7,a7,a4
hdmi_draw_point_vertical():
D:\Hummingbird\HBird-workspace\pico_test_1\Debug/../src/hdmidraw.c:55
	ram_address = temp_ramaddress;
    5c3a:	6661                	lui	a2,0x18
    5c3c:	40be8833          	sub	a6,t4,a1
hdmi_draw_fill_vertical():
D:\Hummingbird\HBird-workspace\pico_test_1\Debug/../src/hdmidraw.c:515
	{
		for(j=0;j<xlen;j++){
    5c40:	872a                	mv	a4,a0
    5c42:	000e0f63          	beqz	t3,5c60 <hdmi_draw_fill_vertical+0x4c>
hdmi_draw_point_vertical():
D:\Hummingbird\HBird-workspace\pico_test_1\Debug/../src/hdmidraw.c:54 (discriminator 3)
	temp_ramaddress = 320*x+(319-y);
    5c46:	00271793          	slli	a5,a4,0x2
    5c4a:	97ba                	add	a5,a5,a4
    5c4c:	079a                	slli	a5,a5,0x6
    5c4e:	97c2                	add	a5,a5,a6
hdmi_draw_fill_vertical():
D:\Hummingbird\HBird-workspace\pico_test_1\Debug/../src/hdmidraw.c:517 (discriminator 3)
			hdmi_draw_point_vertical(x0,y0,color);
			x0++;
    5c50:	0705                	addi	a4,a4,1
hdmi_draw_point_vertical():
D:\Hummingbird\HBird-workspace\pico_test_1\Debug/../src/hdmidraw.c:55 (discriminator 3)
	ram_address = temp_ramaddress;
    5c52:	d23c                	sw	a5,96(a2)
hdmi_draw_fill_vertical():
D:\Hummingbird\HBird-workspace\pico_test_1\Debug/../src/hdmidraw.c:517 (discriminator 3)
			x0++;
    5c54:	0742                	slli	a4,a4,0x10
hdmi_draw_point_vertical():
D:\Hummingbird\HBird-workspace\pico_test_1\Debug/../src/hdmidraw.c:56 (discriminator 3)
	ram_data_address = color+(0b1<<31);
    5c56:	07162823          	sw	a7,112(a2) # 18070 <_etext+0xf83c>
hdmi_draw_fill_vertical():
D:\Hummingbird\HBird-workspace\pico_test_1\Debug/../src/hdmidraw.c:517 (discriminator 3)
			x0++;
    5c5a:	8341                	srli	a4,a4,0x10
D:\Hummingbird\HBird-workspace\pico_test_1\Debug/../src/hdmidraw.c:515 (discriminator 3)
		for(j=0;j<xlen;j++){
    5c5c:	fe6715e3          	bne	a4,t1,5c46 <hdmi_draw_fill_vertical+0x32>
D:\Hummingbird\HBird-workspace\pico_test_1\Debug/../src/hdmidraw.c:520
		}
		x0 = sx;
		y0++;
    5c60:	0585                	addi	a1,a1,1
    5c62:	05c2                	slli	a1,a1,0x10
    5c64:	81c1                	srli	a1,a1,0x10
D:\Hummingbird\HBird-workspace\pico_test_1\Debug/../src/hdmidraw.c:513
	for(i=sy;i<=ey;i++)
    5c66:	fcb6fbe3          	bleu	a1,a3,5c3c <hdmi_draw_fill_vertical+0x28>
D:\Hummingbird\HBird-workspace\pico_test_1\Debug/../src/hdmidraw.c:522
	}
}
    5c6a:	8082                	ret

00005c6c <delay>:
delay():
D:\Hummingbird\HBird-workspace\pico_test_1\Debug/../src/main.c:7
#include <stdlib.h>
#include "sys.h"

int uart_data = 0;
int delaycnt = 0;
void delay(){
    5c6c:	3e800793          	li	a5,1000
D:\Hummingbird\HBird-workspace\pico_test_1\Debug/../src/main.c:10
	u16 cnt=1000;
	while(cnt--){
		led_address=0;
    5c70:	6761                	lui	a4,0x18
    5c72:	17fd                	addi	a5,a5,-1
    5c74:	07c2                	slli	a5,a5,0x10
    5c76:	02072023          	sw	zero,32(a4) # 18020 <_etext+0xf7ec>
    5c7a:	83c1                	srli	a5,a5,0x10
D:\Hummingbird\HBird-workspace\pico_test_1\Debug/../src/main.c:9
	while(cnt--){
    5c7c:	fbfd                	bnez	a5,5c72 <delay+0x6>
D:\Hummingbird\HBird-workspace\pico_test_1\Debug/../src/main.c:12
	}
}
    5c7e:	8082                	ret

00005c80 <main>:
main():
D:\Hummingbird\HBird-workspace\pico_test_1\Debug/../src/main.c:14
int main(void)
{
    5c80:	7139                	addi	sp,sp,-64
D:\Hummingbird\HBird-workspace\pico_test_1\Debug/../src/main.c:15
	reg_uart_clkdiv = BAUND_9600;
    5c82:	6785                	lui	a5,0x1
D:\Hummingbird\HBird-workspace\pico_test_1\Debug/../src/main.c:14
{
    5c84:	de06                	sw	ra,60(sp)
    5c86:	dc22                	sw	s0,56(sp)
    5c88:	da26                	sw	s1,52(sp)
    5c8a:	d84a                	sw	s2,48(sp)
    5c8c:	d64e                	sw	s3,44(sp)
    5c8e:	d256                	sw	s5,36(sp)
    5c90:	d05a                	sw	s6,32(sp)
    5c92:	ce5e                	sw	s7,28(sp)
    5c94:	cc62                	sw	s8,24(sp)
    5c96:	ca66                	sw	s9,20(sp)
    5c98:	c86a                	sw	s10,16(sp)
    5c9a:	c66e                	sw	s11,12(sp)
D:\Hummingbird\HBird-workspace\pico_test_1\Debug/../src/main.c:15
	reg_uart_clkdiv = BAUND_9600;
    5c9c:	6461                	lui	s0,0x18
    5c9e:	45878793          	addi	a5,a5,1112 # 1458 <_ebss+0xdc>
D:\Hummingbird\HBird-workspace\pico_test_1\Debug/../src/main.c:14
{
    5ca2:	d452                	sw	s4,40(sp)
D:\Hummingbird\HBird-workspace\pico_test_1\Debug/../src/main.c:16
	printk("Hello Risc-V Pango 2019\n");
    5ca4:	00008537          	lui	a0,0x8
    5ca8:	4a850513          	addi	a0,a0,1192 # 84a8 <ziguang+0x210>
D:\Hummingbird\HBird-workspace\pico_test_1\Debug/../src/main.c:15
	reg_uart_clkdiv = BAUND_9600;
    5cac:	c01c                	sw	a5,0(s0)
D:\Hummingbird\HBird-workspace\pico_test_1\Debug/../src/main.c:16
	printk("Hello Risc-V Pango 2019\n");
    5cae:	343000ef          	jal	ra,67f0 <printk>
D:\Hummingbird\HBird-workspace\pico_test_1\Debug/../src/main.c:17
	printk("test data = %d,%f,%s,0x = %x\n", 100,33.456,"2019",100);
    5cb2:	000087b7          	lui	a5,0x8
    5cb6:	4987a603          	lw	a2,1176(a5) # 8498 <ziguang+0x200>
    5cba:	49c7a683          	lw	a3,1180(a5)
    5cbe:	00008737          	lui	a4,0x8
    5cc2:	00008537          	lui	a0,0x8
    5cc6:	06400793          	li	a5,100
    5cca:	4c470713          	addi	a4,a4,1220 # 84c4 <ziguang+0x22c>
    5cce:	06400593          	li	a1,100
    5cd2:	4cc50513          	addi	a0,a0,1228 # 84cc <ziguang+0x234>
    5cd6:	31b000ef          	jal	ra,67f0 <printk>
D:\Hummingbird\HBird-workspace\pico_test_1\Debug/../src/main.c:18
	printk("simple compute : 50*10 = %d,100/3 = %f,100%3 = %d\n", 50*10,(double)100/3,(int)100%3);
    5cda:	000087b7          	lui	a5,0x8
    5cde:	4a07a603          	lw	a2,1184(a5) # 84a0 <ziguang+0x208>
    5ce2:	4a47a683          	lw	a3,1188(a5)
    5ce6:	00008537          	lui	a0,0x8
    5cea:	4705                	li	a4,1
    5cec:	1f400593          	li	a1,500
    5cf0:	4ec50513          	addi	a0,a0,1260 # 84ec <ziguang+0x254>
    5cf4:	2fd000ef          	jal	ra,67f0 <printk>
D:\Hummingbird\HBird-workspace\pico_test_1\Debug/../src/main.c:19
	printk("test\n");
    5cf8:	00008537          	lui	a0,0x8
    5cfc:	52050513          	addi	a0,a0,1312 # 8520 <ziguang+0x288>
    5d00:	2f1000ef          	jal	ra,67f0 <printk>
D:\Hummingbird\HBird-workspace\pico_test_1\Debug/../src/main.c:20
	hdmi_draw_clear(255);
    5d04:	0ff00513          	li	a0,255
    5d08:	ff6ff0ef          	jal	ra,54fe <hdmi_draw_clear>
D:\Hummingbird\HBird-workspace\pico_test_1\Debug/../src/main.c:21
	hdmi_drawziguang(120,20,PURPLE,255);
    5d0c:	0ff00693          	li	a3,255
    5d10:	06900613          	li	a2,105
    5d14:	45d1                	li	a1,20
    5d16:	07800513          	li	a0,120
    5d1a:	3b61                	jal	5ab2 <hdmi_drawziguang>
D:\Hummingbird\HBird-workspace\pico_test_1\Debug/../src/main.c:23
	u8 temp;
	temp = sound_address;
    5d1c:	12042583          	lw	a1,288(s0) # 18120 <_etext+0xf8ec>
D:\Hummingbird\HBird-workspace\pico_test_1\Debug/../src/main.c:24
	printk("%d",temp);
    5d20:	00008537          	lui	a0,0x8
    5d24:	52850513          	addi	a0,a0,1320 # 8528 <ziguang+0x290>
    5d28:	0ff5f593          	andi	a1,a1,255
    5d2c:	2c5000ef          	jal	ra,67f0 <printk>
D:\Hummingbird\HBird-workspace\pico_test_1\Debug/../src/main.c:25
	hdmi_draw_string_back(60,180,"Snake Go!",ORANGE,255);
    5d30:	00008d37          	lui	s10,0x8
    5d34:	0ff00713          	li	a4,255
    5d38:	06500693          	li	a3,101
    5d3c:	52cd0613          	addi	a2,s10,1324 # 852c <ziguang+0x294>
    5d40:	0b400593          	li	a1,180
    5d44:	03c00513          	li	a0,60
    5d48:	eceff0ef          	jal	ra,5416 <hdmi_draw_string_back>
D:\Hummingbird\HBird-workspace\pico_test_1\Debug/../src/main.c:26
	hdmi_draw_string_back(60,196,"Tetris Go!",ORANGE,255);
    5d4c:	00008cb7          	lui	s9,0x8
    5d50:	0ff00713          	li	a4,255
    5d54:	06500693          	li	a3,101
    5d58:	538c8613          	addi	a2,s9,1336 # 8538 <ziguang+0x2a0>
    5d5c:	0c400593          	li	a1,196
    5d60:	03c00513          	li	a0,60
    5d64:	eb2ff0ef          	jal	ra,5416 <hdmi_draw_string_back>
D:\Hummingbird\HBird-workspace\pico_test_1\Debug/../src/main.c:27
	hdmi_draw_string_back(60,212,"Board Go!",ORANGE,255);
    5d68:	00008c37          	lui	s8,0x8
    5d6c:	0ff00713          	li	a4,255
    5d70:	06500693          	li	a3,101
    5d74:	544c0613          	addi	a2,s8,1348 # 8544 <ziguang+0x2ac>
    5d78:	0d400593          	li	a1,212
    5d7c:	03c00513          	li	a0,60
    5d80:	e96ff0ef          	jal	ra,5416 <hdmi_draw_string_back>
D:\Hummingbird\HBird-workspace\pico_test_1\Debug/../src/main.c:28
	hdmi_drawtriangle(49,180,PURPLE,255);
    5d84:	0ff00693          	li	a3,255
    5d88:	06900613          	li	a2,105
    5d8c:	0b400593          	li	a1,180
    5d90:	03100513          	li	a0,49
    5d94:	315d                	jal	5a3a <hdmi_drawtriangle>
D:\Hummingbird\HBird-workspace\pico_test_1\Debug/../src/main.c:29
	hdmi_drawquwei(100,100,PINK,255);
    5d96:	0ff00693          	li	a3,255
    5d9a:	06a00613          	li	a2,106
    5d9e:	06400593          	li	a1,100
    5da2:	06400513          	li	a0,100
    5da6:	3b59                	jal	5b3c <hdmi_drawquwei>
D:\Hummingbird\HBird-workspace\pico_test_1\Debug/../src/main.c:33
	u8 Oldkey,Newkey =0;
	u16 Oldy,Newy =180;
	u8 choose_val=0;
	sound_address = 0b1111111;
    5da8:	07f00793          	li	a5,127
    5dac:	12f42023          	sw	a5,288(s0)
D:\Hummingbird\HBird-workspace\pico_test_1\Debug/../src/main.c:32
	u8 choose_val=0;
    5db0:	4481                	li	s1,0
D:\Hummingbird\HBird-workspace\pico_test_1\Debug/../src/main.c:31
	u16 Oldy,Newy =180;
    5db2:	0b400993          	li	s3,180
D:\Hummingbird\HBird-workspace\pico_test_1\Debug/../src/main.c:30
	u8 Oldkey,Newkey =0;
    5db6:	4781                	li	a5,0
D:\Hummingbird\HBird-workspace\pico_test_1\Debug/../src/main.c:36
	while(1){
		Oldkey=Newkey;
		Newkey = *ps2ctrl_point;
    5db8:	6de1                	lui	s11,0x18
D:\Hummingbird\HBird-workspace\pico_test_1\Debug/../src/main.c:38
		if(Newkey != Oldkey){
			if(Newkey == 0b00010000){//上
    5dba:	4ac1                	li	s5,16
D:\Hummingbird\HBird-workspace\pico_test_1\Debug/../src/main.c:45
					Oldy = Newy;
					Newy = Newy-16;
					choose_val--;
					}
				}
				else if(Newkey == 0b00100000){
    5dbc:	02000b93          	li	s7,32
D:\Hummingbird\HBird-workspace\pico_test_1\Debug/../src/main.c:46
					if(choose_val<2){//修改1来增加选择项
    5dc0:	4b05                	li	s6,1
D:\Hummingbird\HBird-workspace\pico_test_1\Debug/../src/main.c:57
				hdmi_drawtriangle(49,Newy,PURPLE,255);
				hdmi_drawtriangle(49,Oldy,255,255);
			}
		if(choose_val == 0) rgb_address = 0b0000010;
		else if(choose_val == 1)  rgb_address = 0b0000001;
		else if(choose_val == 2)  rgb_address = 0b0000000;
    5dc2:	4909                	li	s2,2
D:\Hummingbird\HBird-workspace\pico_test_1\Debug/../src/main.c:36
		Newkey = *ps2ctrl_point;
    5dc4:	100da403          	lw	s0,256(s11) # 18100 <_etext+0xf8cc>
    5dc8:	0ff47413          	andi	s0,s0,255
D:\Hummingbird\HBird-workspace\pico_test_1\Debug/../src/main.c:37
		if(Newkey != Oldkey){
    5dcc:	02878663          	beq	a5,s0,5df8 <main+0x178>
D:\Hummingbird\HBird-workspace\pico_test_1\Debug/../src/main.c:38
			if(Newkey == 0b00010000){//上
    5dd0:	17540063          	beq	s0,s5,5f30 <main+0x2b0>
D:\Hummingbird\HBird-workspace\pico_test_1\Debug/../src/main.c:45
				else if(Newkey == 0b00100000){
    5dd4:	1f740063          	beq	s0,s7,5fb4 <main+0x334>
D:\Hummingbird\HBird-workspace\pico_test_1\Debug/../src/main.c:52
				hdmi_drawtriangle(49,Newy,PURPLE,255);
    5dd8:	0ff00693          	li	a3,255
    5ddc:	06900613          	li	a2,105
    5de0:	85ce                	mv	a1,s3
    5de2:	03100513          	li	a0,49
    5de6:	3991                	jal	5a3a <hdmi_drawtriangle>
D:\Hummingbird\HBird-workspace\pico_test_1\Debug/../src/main.c:53
				hdmi_drawtriangle(49,Oldy,255,255);
    5de8:	0ff00693          	li	a3,255
    5dec:	0ff00613          	li	a2,255
    5df0:	85d2                	mv	a1,s4
    5df2:	03100513          	li	a0,49
    5df6:	3191                	jal	5a3a <hdmi_drawtriangle>
D:\Hummingbird\HBird-workspace\pico_test_1\Debug/../src/main.c:55
		if(choose_val == 0) rgb_address = 0b0000010;
    5df8:	ecc9                	bnez	s1,5e92 <main+0x212>
D:\Hummingbird\HBird-workspace\pico_test_1\Debug/../src/main.c:55 (discriminator 1)
    5dfa:	112da823          	sw	s2,272(s11)
D:\Hummingbird\HBird-workspace\pico_test_1\Debug/../src/main.c:59 (discriminator 1)

		if(Newkey == 0b00000010){
    5dfe:	01240463          	beq	s0,s2,5e06 <main+0x186>
D:\Hummingbird\HBird-workspace\pico_test_1\Debug/../src/main.c:87
				hdmi_draw_string_back(60,180,"Snake Go!",ORANGE,255);
				hdmi_draw_string_back(60,196,"Tetris Go!",ORANGE,255);
				hdmi_draw_string_back(60,212,"Board Go!",ORANGE,255);
				hdmi_drawtriangle(49,212,PURPLE,255);
				hdmi_drawziguang(120,20,PURPLE,255);
				hdmi_drawquwei(100,100,PINK,255);
    5e02:	87a2                	mv	a5,s0
    5e04:	b7c1                	j	5dc4 <main+0x144>
D:\Hummingbird\HBird-workspace\pico_test_1\Debug/../src/main.c:61
				GameStart();
    5e06:	738000ef          	jal	ra,653e <GameStart>
D:\Hummingbird\HBird-workspace\pico_test_1\Debug/../src/main.c:62
				hdmi_draw_clear(255);
    5e0a:	0ff00513          	li	a0,255
    5e0e:	ef0ff0ef          	jal	ra,54fe <hdmi_draw_clear>
D:\Hummingbird\HBird-workspace\pico_test_1\Debug/../src/main.c:63
				hdmi_draw_string_back(60,180,"Snake Go!",ORANGE,255);
    5e12:	52cd0613          	addi	a2,s10,1324
    5e16:	0ff00713          	li	a4,255
    5e1a:	06500693          	li	a3,101
    5e1e:	0b400593          	li	a1,180
    5e22:	03c00513          	li	a0,60
    5e26:	df0ff0ef          	jal	ra,5416 <hdmi_draw_string_back>
D:\Hummingbird\HBird-workspace\pico_test_1\Debug/../src/main.c:64
				hdmi_draw_string_back(60,196,"Tetris Go!",ORANGE,255);
    5e2a:	538c8613          	addi	a2,s9,1336
    5e2e:	0ff00713          	li	a4,255
    5e32:	06500693          	li	a3,101
    5e36:	0c400593          	li	a1,196
    5e3a:	03c00513          	li	a0,60
    5e3e:	dd8ff0ef          	jal	ra,5416 <hdmi_draw_string_back>
D:\Hummingbird\HBird-workspace\pico_test_1\Debug/../src/main.c:65
				hdmi_draw_string_back(60,212,"Board Go!",ORANGE,255);
    5e42:	544c0613          	addi	a2,s8,1348
    5e46:	06500693          	li	a3,101
    5e4a:	0d400593          	li	a1,212
    5e4e:	0ff00713          	li	a4,255
    5e52:	03c00513          	li	a0,60
    5e56:	dc0ff0ef          	jal	ra,5416 <hdmi_draw_string_back>
D:\Hummingbird\HBird-workspace\pico_test_1\Debug/../src/main.c:66
				hdmi_drawtriangle(49,180,PURPLE,255);
    5e5a:	0ff00693          	li	a3,255
    5e5e:	06900613          	li	a2,105
    5e62:	0b400593          	li	a1,180
D:\Hummingbird\HBird-workspace\pico_test_1\Debug/../src/main.c:75
				hdmi_drawtriangle(49,196,PURPLE,255);
    5e66:	03100513          	li	a0,49
    5e6a:	3ec1                	jal	5a3a <hdmi_drawtriangle>
D:\Hummingbird\HBird-workspace\pico_test_1\Debug/../src/main.c:76
				hdmi_drawziguang(120,20,PURPLE,255);
    5e6c:	0ff00693          	li	a3,255
    5e70:	06900613          	li	a2,105
    5e74:	45d1                	li	a1,20
    5e76:	07800513          	li	a0,120
    5e7a:	3925                	jal	5ab2 <hdmi_drawziguang>
D:\Hummingbird\HBird-workspace\pico_test_1\Debug/../src/main.c:77
				hdmi_drawquwei(100,100,PINK,255);
    5e7c:	0ff00693          	li	a3,255
    5e80:	06a00613          	li	a2,106
    5e84:	06400593          	li	a1,100
    5e88:	06400513          	li	a0,100
    5e8c:	3945                	jal	5b3c <hdmi_drawquwei>
D:\Hummingbird\HBird-workspace\pico_test_1\Debug/../src/main.c:87
				hdmi_drawquwei(100,100,PINK,255);
    5e8e:	87a2                	mv	a5,s0
    5e90:	bf15                	j	5dc4 <main+0x144>
D:\Hummingbird\HBird-workspace\pico_test_1\Debug/../src/main.c:56
		else if(choose_val == 1)  rgb_address = 0b0000001;
    5e92:	0b648c63          	beq	s1,s6,5f4a <main+0x2ca>
D:\Hummingbird\HBird-workspace\pico_test_1\Debug/../src/main.c:57
		else if(choose_val == 2)  rgb_address = 0b0000000;
    5e96:	f72496e3          	bne	s1,s2,5e02 <main+0x182>
D:\Hummingbird\HBird-workspace\pico_test_1\Debug/../src/main.c:57 (discriminator 1)
    5e9a:	100da823          	sw	zero,272(s11)
D:\Hummingbird\HBird-workspace\pico_test_1\Debug/../src/main.c:59 (discriminator 1)
		if(Newkey == 0b00000010){
    5e9e:	f69412e3          	bne	s0,s1,5e02 <main+0x182>
D:\Hummingbird\HBird-workspace\pico_test_1\Debug/../src/main.c:80
				app_demo();
    5ea2:	9deff0ef          	jal	ra,5080 <app_demo>
D:\Hummingbird\HBird-workspace\pico_test_1\Debug/../src/main.c:81
				hdmi_draw_clear(255);
    5ea6:	0ff00513          	li	a0,255
    5eaa:	e54ff0ef          	jal	ra,54fe <hdmi_draw_clear>
D:\Hummingbird\HBird-workspace\pico_test_1\Debug/../src/main.c:82
				hdmi_draw_string_back(60,180,"Snake Go!",ORANGE,255);
    5eae:	0ff00713          	li	a4,255
    5eb2:	06500693          	li	a3,101
    5eb6:	52cd0613          	addi	a2,s10,1324
    5eba:	0b400593          	li	a1,180
    5ebe:	03c00513          	li	a0,60
    5ec2:	d54ff0ef          	jal	ra,5416 <hdmi_draw_string_back>
D:\Hummingbird\HBird-workspace\pico_test_1\Debug/../src/main.c:83
				hdmi_draw_string_back(60,196,"Tetris Go!",ORANGE,255);
    5ec6:	0ff00713          	li	a4,255
    5eca:	06500693          	li	a3,101
    5ece:	538c8613          	addi	a2,s9,1336
    5ed2:	0c400593          	li	a1,196
    5ed6:	03c00513          	li	a0,60
    5eda:	d3cff0ef          	jal	ra,5416 <hdmi_draw_string_back>
D:\Hummingbird\HBird-workspace\pico_test_1\Debug/../src/main.c:84
				hdmi_draw_string_back(60,212,"Board Go!",ORANGE,255);
    5ede:	0ff00713          	li	a4,255
    5ee2:	06500693          	li	a3,101
    5ee6:	544c0613          	addi	a2,s8,1348
    5eea:	0d400593          	li	a1,212
    5eee:	03c00513          	li	a0,60
    5ef2:	d24ff0ef          	jal	ra,5416 <hdmi_draw_string_back>
D:\Hummingbird\HBird-workspace\pico_test_1\Debug/../src/main.c:85
				hdmi_drawtriangle(49,212,PURPLE,255);
    5ef6:	0ff00693          	li	a3,255
    5efa:	06900613          	li	a2,105
    5efe:	0d400593          	li	a1,212
    5f02:	03100513          	li	a0,49
    5f06:	3e15                	jal	5a3a <hdmi_drawtriangle>
D:\Hummingbird\HBird-workspace\pico_test_1\Debug/../src/main.c:86
				hdmi_drawziguang(120,20,PURPLE,255);
    5f08:	0ff00693          	li	a3,255
    5f0c:	06900613          	li	a2,105
    5f10:	45d1                	li	a1,20
    5f12:	07800513          	li	a0,120
    5f16:	3e71                	jal	5ab2 <hdmi_drawziguang>
D:\Hummingbird\HBird-workspace\pico_test_1\Debug/../src/main.c:87
				hdmi_drawquwei(100,100,PINK,255);
    5f18:	0ff00693          	li	a3,255
    5f1c:	06a00613          	li	a2,106
    5f20:	06400593          	li	a1,100
    5f24:	06400513          	li	a0,100
    5f28:	3911                	jal	5b3c <hdmi_drawquwei>
    5f2a:	4489                	li	s1,2
    5f2c:	87a2                	mv	a5,s0
    5f2e:	bd59                	j	5dc4 <main+0x144>
D:\Hummingbird\HBird-workspace\pico_test_1\Debug/../src/main.c:39
				if(choose_val!=0){
    5f30:	ea0484e3          	beqz	s1,5dd8 <main+0x158>
D:\Hummingbird\HBird-workspace\pico_test_1\Debug/../src/main.c:41
					Newy = Newy-16;
    5f34:	ff098793          	addi	a5,s3,-16
D:\Hummingbird\HBird-workspace\pico_test_1\Debug/../src/main.c:42
					choose_val--;
    5f38:	14fd                	addi	s1,s1,-1
D:\Hummingbird\HBird-workspace\pico_test_1\Debug/../src/main.c:40
					Oldy = Newy;
    5f3a:	8a4e                	mv	s4,s3
D:\Hummingbird\HBird-workspace\pico_test_1\Debug/../src/main.c:41
					Newy = Newy-16;
    5f3c:	01079993          	slli	s3,a5,0x10
D:\Hummingbird\HBird-workspace\pico_test_1\Debug/../src/main.c:42
					choose_val--;
    5f40:	0ff4f493          	andi	s1,s1,255
D:\Hummingbird\HBird-workspace\pico_test_1\Debug/../src/main.c:41
					Newy = Newy-16;
    5f44:	0109d993          	srli	s3,s3,0x10
    5f48:	bd41                	j	5dd8 <main+0x158>
D:\Hummingbird\HBird-workspace\pico_test_1\Debug/../src/main.c:56 (discriminator 1)
		else if(choose_val == 1)  rgb_address = 0b0000001;
    5f4a:	109da823          	sw	s1,272(s11)
D:\Hummingbird\HBird-workspace\pico_test_1\Debug/../src/main.c:59 (discriminator 1)
		if(Newkey == 0b00000010){
    5f4e:	eb241ae3          	bne	s0,s2,5e02 <main+0x182>
D:\Hummingbird\HBird-workspace\pico_test_1\Debug/../src/main.c:70
				Tetris();
    5f52:	bebfe0ef          	jal	ra,4b3c <Tetris>
D:\Hummingbird\HBird-workspace\pico_test_1\Debug/../src/main.c:71
				hdmi_draw_clear(255);
    5f56:	0ff00513          	li	a0,255
    5f5a:	da4ff0ef          	jal	ra,54fe <hdmi_draw_clear>
D:\Hummingbird\HBird-workspace\pico_test_1\Debug/../src/main.c:72
				hdmi_draw_string_back(60,180,"Snake Go!",ORANGE,255);
    5f5e:	52cd0613          	addi	a2,s10,1324
    5f62:	0ff00713          	li	a4,255
    5f66:	06500693          	li	a3,101
    5f6a:	0b400593          	li	a1,180
    5f6e:	03c00513          	li	a0,60
    5f72:	ca4ff0ef          	jal	ra,5416 <hdmi_draw_string_back>
D:\Hummingbird\HBird-workspace\pico_test_1\Debug/../src/main.c:73
				hdmi_draw_string_back(60,196,"Tetris Go!",ORANGE,255);
    5f76:	538c8613          	addi	a2,s9,1336
    5f7a:	0ff00713          	li	a4,255
    5f7e:	06500693          	li	a3,101
    5f82:	0c400593          	li	a1,196
    5f86:	03c00513          	li	a0,60
    5f8a:	c8cff0ef          	jal	ra,5416 <hdmi_draw_string_back>
D:\Hummingbird\HBird-workspace\pico_test_1\Debug/../src/main.c:74
				hdmi_draw_string_back(60,212,"Board Go!",ORANGE,255);
    5f8e:	544c0613          	addi	a2,s8,1348
    5f92:	06500693          	li	a3,101
    5f96:	0d400593          	li	a1,212
    5f9a:	0ff00713          	li	a4,255
    5f9e:	03c00513          	li	a0,60
    5fa2:	c74ff0ef          	jal	ra,5416 <hdmi_draw_string_back>
D:\Hummingbird\HBird-workspace\pico_test_1\Debug/../src/main.c:75
				hdmi_drawtriangle(49,196,PURPLE,255);
    5fa6:	0ff00693          	li	a3,255
    5faa:	06900613          	li	a2,105
    5fae:	0c400593          	li	a1,196
    5fb2:	bd55                	j	5e66 <main+0x1e6>
D:\Hummingbird\HBird-workspace\pico_test_1\Debug/../src/main.c:46
					if(choose_val<2){//修改1来增加选择项
    5fb4:	e29b62e3          	bltu	s6,s1,5dd8 <main+0x158>
D:\Hummingbird\HBird-workspace\pico_test_1\Debug/../src/main.c:48
						Newy = Newy+16;
    5fb8:	01098793          	addi	a5,s3,16
D:\Hummingbird\HBird-workspace\pico_test_1\Debug/../src/main.c:49
						choose_val++;
    5fbc:	0485                	addi	s1,s1,1
D:\Hummingbird\HBird-workspace\pico_test_1\Debug/../src/main.c:47
						Oldy = Newy;
    5fbe:	8a4e                	mv	s4,s3
D:\Hummingbird\HBird-workspace\pico_test_1\Debug/../src/main.c:48
						Newy = Newy+16;
    5fc0:	01079993          	slli	s3,a5,0x10
D:\Hummingbird\HBird-workspace\pico_test_1\Debug/../src/main.c:49
						choose_val++;
    5fc4:	0ff4f493          	andi	s1,s1,255
D:\Hummingbird\HBird-workspace\pico_test_1\Debug/../src/main.c:48
						Newy = Newy+16;
    5fc8:	0109d993          	srli	s3,s3,0x10
    5fcc:	b531                	j	5dd8 <main+0x158>

00005fce <refresh.part.0>:
refresh():
D:\Hummingbird\HBird-workspace\pico_test_1\Debug/../src/newsnake.c:112
}
/*
刷新屏幕上蛇和食物的位置
*/

void refresh(){
    5fce:	1141                	addi	sp,sp,-16
    5fd0:	c226                	sw	s1,4(sp)
D:\Hummingbird\HBird-workspace\pico_test_1\Debug/../src/newsnake.c:115
	if(snake.life==1){
		u8 i;
		hdmi_draw_fill(11,11,229,229,255);
    5fd2:	0ff00713          	li	a4,255
    5fd6:	0e500693          	li	a3,229
    5fda:	0e500613          	li	a2,229
    5fde:	45ad                	li	a1,11
    5fe0:	452d                	li	a0,11
D:\Hummingbird\HBird-workspace\pico_test_1\Debug/../src/newsnake.c:116
		for(i=0;i<snake.length;i++){//画蛇
    5fe2:	6485                	lui	s1,0x1
D:\Hummingbird\HBird-workspace\pico_test_1\Debug/../src/newsnake.c:112
void refresh(){
    5fe4:	c606                	sw	ra,12(sp)
    5fe6:	c422                	sw	s0,8(sp)
D:\Hummingbird\HBird-workspace\pico_test_1\Debug/../src/newsnake.c:116
		for(i=0;i<snake.length;i++){//画蛇
    5fe8:	0e448493          	addi	s1,s1,228 # 10e4 <snake>
D:\Hummingbird\HBird-workspace\pico_test_1\Debug/../src/newsnake.c:115
		hdmi_draw_fill(11,11,229,229,255);
    5fec:	e16ff0ef          	jal	ra,5602 <hdmi_draw_fill>
D:\Hummingbird\HBird-workspace\pico_test_1\Debug/../src/newsnake.c:116
		for(i=0;i<snake.length;i++){//画蛇
    5ff0:	25b4c783          	lbu	a5,603(s1)
    5ff4:	c39d                	beqz	a5,601a <refresh.part.0+0x4c>
    5ff6:	4401                	li	s0,0
D:\Hummingbird\HBird-workspace\pico_test_1\Debug/../src/newsnake.c:117
			hdmi_draw_dircle_solid(snake.snakeX[i],snake.snakeY[i],5,snakecolor);  //以算的蛇的坐标画半径为5的实心圆
    5ff8:	008487b3          	add	a5,s1,s0
    5ffc:	12f7c583          	lbu	a1,303(a5)
    6000:	0037c503          	lbu	a0,3(a5)
    6004:	46a9                	li	a3,10
    6006:	4615                	li	a2,5
    6008:	8d9ff0ef          	jal	ra,58e0 <hdmi_draw_dircle_solid>
D:\Hummingbird\HBird-workspace\pico_test_1\Debug/../src/newsnake.c:116
		for(i=0;i<snake.length;i++){//画蛇
    600c:	25b4c783          	lbu	a5,603(s1)
    6010:	0405                	addi	s0,s0,1
    6012:	0ff47413          	andi	s0,s0,255
    6016:	fef461e3          	bltu	s0,a5,5ff8 <refresh.part.0+0x2a>
D:\Hummingbird\HBird-workspace\pico_test_1\Debug/../src/newsnake.c:119
		}
		hdmi_draw_dircle_solid(snake.foodX,snake.foodY,5,36);//画食物
    601a:	2654c583          	lbu	a1,613(s1)
    601e:	2644c503          	lbu	a0,612(s1)
    6022:	02400693          	li	a3,36
    6026:	4615                	li	a2,5
    6028:	8b9ff0ef          	jal	ra,58e0 <hdmi_draw_dircle_solid>
D:\Hummingbird\HBird-workspace\pico_test_1\Debug/../src/newsnake.c:120
		hdmi_draw_string(250,70,"Score:",17);
    602c:	00008637          	lui	a2,0x8
    6030:	46c5                	li	a3,17
    6032:	56c60613          	addi	a2,a2,1388 # 856c <ziguang+0x2d4>
    6036:	04600593          	li	a1,70
    603a:	0fa00513          	li	a0,250
    603e:	b58ff0ef          	jal	ra,5396 <hdmi_draw_string>
D:\Hummingbird\HBird-workspace\pico_test_1\Debug/../src/newsnake.c:121
		hdmi_draw_num(260,90,score,2,23);
    6042:	6785                	lui	a5,0x1
    6044:	3787d603          	lhu	a2,888(a5) # 1378 <score>
    6048:	475d                	li	a4,23
    604a:	4689                	li	a3,2
    604c:	05a00593          	li	a1,90
    6050:	10400513          	li	a0,260
    6054:	cc6ff0ef          	jal	ra,551a <hdmi_draw_num>
D:\Hummingbird\HBird-workspace\pico_test_1\Debug/../src/newsnake.c:124
		hdmi_drawrectangle(10,10,230,230,25);
	}
}
    6058:	4422                	lw	s0,8(sp)
    605a:	40b2                	lw	ra,12(sp)
    605c:	4492                	lw	s1,4(sp)
D:\Hummingbird\HBird-workspace\pico_test_1\Debug/../src/newsnake.c:122
		hdmi_drawrectangle(10,10,230,230,25);
    605e:	4765                	li	a4,25
    6060:	0e600693          	li	a3,230
    6064:	0e600613          	li	a2,230
    6068:	45a9                	li	a1,10
    606a:	4529                	li	a0,10
D:\Hummingbird\HBird-workspace\pico_test_1\Debug/../src/newsnake.c:124
}
    606c:	0141                	addi	sp,sp,16
D:\Hummingbird\HBird-workspace\pico_test_1\Debug/../src/newsnake.c:122
		hdmi_drawrectangle(10,10,230,230,25);
    606e:	97fff06f          	j	59ec <hdmi_drawrectangle>

00006072 <soundDelay>:
soundDelay():
D:\Hummingbird\HBird-workspace\pico_test_1\Debug/../src/newsnake.c:16
	while(count--)
    6072:	fff50793          	addi	a5,a0,-1
    6076:	07c2                	slli	a5,a5,0x10
    6078:	83c1                	srli	a5,a5,0x10
    607a:	c919                	beqz	a0,6090 <soundDelay+0x1e>
    607c:	6741                	lui	a4,0x10
D:\Hummingbird\HBird-workspace\pico_test_1\Debug/../src/newsnake.c:17
		led_address = 0;
    607e:	66e1                	lui	a3,0x18
D:\Hummingbird\HBird-workspace\pico_test_1\Debug/../src/newsnake.c:16
	while(count--)
    6080:	177d                	addi	a4,a4,-1
    6082:	17fd                	addi	a5,a5,-1
    6084:	07c2                	slli	a5,a5,0x10
D:\Hummingbird\HBird-workspace\pico_test_1\Debug/../src/newsnake.c:17
		led_address = 0;
    6086:	0206a023          	sw	zero,32(a3) # 18020 <_etext+0xf7ec>
D:\Hummingbird\HBird-workspace\pico_test_1\Debug/../src/newsnake.c:16
	while(count--)
    608a:	83c1                	srli	a5,a5,0x10
    608c:	fee79be3          	bne	a5,a4,6082 <soundDelay+0x10>
D:\Hummingbird\HBird-workspace\pico_test_1\Debug/../src/newsnake.c:18
}
    6090:	8082                	ret

00006092 <snakeDelay>:
snakeDelay():
D:\Hummingbird\HBird-workspace\pico_test_1\Debug/../src/newsnake.c:19
void snakeDelay(){
    6092:	6505                	lui	a0,0x1
    6094:	37550513          	addi	a0,a0,885 # 1375 <key_val>
    6098:	00054583          	lbu	a1,0(a0)
    609c:	0007a737          	lui	a4,0x7a
    60a0:	12070713          	addi	a4,a4,288 # 7a120 <_etext+0x718ec>
    60a4:	4601                	li	a2,0
D:\Hummingbird\HBird-workspace\pico_test_1\Debug/../src/newsnake.c:22
		getps2 = *ps2ctrl_point;
    60a6:	66e1                	lui	a3,0x18
    60a8:	1006a783          	lw	a5,256(a3) # 18100 <_etext+0xf8cc>
    60ac:	177d                	addi	a4,a4,-1
    60ae:	0ff7f793          	andi	a5,a5,255
D:\Hummingbird\HBird-workspace\pico_test_1\Debug/../src/newsnake.c:23
		if(getps2 != 0) key_val = (getps2>>4);
    60b2:	c781                	beqz	a5,60ba <snakeDelay+0x28>
D:\Hummingbird\HBird-workspace\pico_test_1\Debug/../src/newsnake.c:23 (discriminator 1)
    60b4:	0047d593          	srli	a1,a5,0x4
    60b8:	4605                	li	a2,1
D:\Hummingbird\HBird-workspace\pico_test_1\Debug/../src/newsnake.c:21
	while(delaycnt--){
    60ba:	f77d                	bnez	a4,60a8 <snakeDelay+0x16>
    60bc:	e609                	bnez	a2,60c6 <snakeDelay+0x34>
    60be:	6705                	lui	a4,0x1
    60c0:	36f70a23          	sb	a5,884(a4) # 1374 <getps2>
D:\Hummingbird\HBird-workspace\pico_test_1\Debug/../src/newsnake.c:25
}
    60c4:	8082                	ret
    60c6:	00b50023          	sb	a1,0(a0)
    60ca:	bfd5                	j	60be <snakeDelay+0x2c>

000060cc <refresh>:
refresh():
D:\Hummingbird\HBird-workspace\pico_test_1\Debug/../src/newsnake.c:113
	if(snake.life==1){
    60cc:	6785                	lui	a5,0x1
    60ce:	0e47c703          	lbu	a4,228(a5) # 10e4 <snake>
    60d2:	4785                	li	a5,1
    60d4:	00f70363          	beq	a4,a5,60da <refresh+0xe>
D:\Hummingbird\HBird-workspace\pico_test_1\Debug/../src/newsnake.c:124
}
    60d8:	8082                	ret
    60da:	bdd5                	j	5fce <refresh.part.0>

000060dc <isCover>:
isCover():
D:\Hummingbird\HBird-workspace\pico_test_1\Debug/../src/newsnake.c:164
/*
判断随机产生的食物是否处于蛇体内
*/
u8 isCover(u8 snakeX[],u8 snakeY[],u8 foodX,u8 foodY){
	u8 i;
	for(i=0;i<snake.length;i++){
    60dc:	6785                	lui	a5,0x1
    60de:	33f7c783          	lbu	a5,831(a5) # 133f <snake+0x25b>
    60e2:	c785                	beqz	a5,610a <isCover+0x2e>
    60e4:	17fd                	addi	a5,a5,-1
    60e6:	0ff7f793          	andi	a5,a5,255
    60ea:	0785                	addi	a5,a5,1
    60ec:	97aa                	add	a5,a5,a0
    60ee:	a021                	j	60f6 <isCover+0x1a>
    60f0:	0585                	addi	a1,a1,1
D:\Hummingbird\HBird-workspace\pico_test_1\Debug/../src/newsnake.c:164 (discriminator 2)
    60f2:	00f50e63          	beq	a0,a5,610e <isCover+0x32>
D:\Hummingbird\HBird-workspace\pico_test_1\Debug/../src/newsnake.c:165
		if(snakeX[i]==foodX&&snakeY[i]==foodY)
    60f6:	00054703          	lbu	a4,0(a0)
    60fa:	0505                	addi	a0,a0,1
    60fc:	fec71ae3          	bne	a4,a2,60f0 <isCover+0x14>
D:\Hummingbird\HBird-workspace\pico_test_1\Debug/../src/newsnake.c:165 (discriminator 1)
    6100:	0005c703          	lbu	a4,0(a1)
    6104:	fed716e3          	bne	a4,a3,60f0 <isCover+0x14>
D:\Hummingbird\HBird-workspace\pico_test_1\Debug/../src/newsnake.c:167
		{
		return 1;
    6108:	4785                	li	a5,1
D:\Hummingbird\HBird-workspace\pico_test_1\Debug/../src/newsnake.c:171
		}
	}
	return 0;
}
    610a:	853e                	mv	a0,a5
    610c:	8082                	ret
D:\Hummingbird\HBird-workspace\pico_test_1\Debug/../src/newsnake.c:170
	return 0;
    610e:	4781                	li	a5,0
D:\Hummingbird\HBird-workspace\pico_test_1\Debug/../src/newsnake.c:171
}
    6110:	853e                	mv	a0,a5
    6112:	8082                	ret

00006114 <isNearSelf>:
isNearSelf():
D:\Hummingbird\HBird-workspace\pico_test_1\Debug/../src/newsnake.c:178
/*
判断是否头部是否触碰到自己
*/
u8 isNearSelf(){
	u8 i;
	for(i=1;i<snake.length;i++){
    6114:	6785                	lui	a5,0x1
    6116:	0e478793          	addi	a5,a5,228 # 10e4 <snake>
    611a:	25b7c683          	lbu	a3,603(a5)
    611e:	4705                	li	a4,1
    6120:	02d77b63          	bleu	a3,a4,6156 <isNearSelf+0x42>
    6124:	16f9                	addi	a3,a3,-2
    6126:	00578713          	addi	a4,a5,5
    612a:	0ff6f693          	andi	a3,a3,255
D:\Hummingbird\HBird-workspace\pico_test_1\Debug/../src/newsnake.c:179
		if(snake.snakeX[i]==snake.headX&&snake.snakeY[i]==snake.headY)
    612e:	0017c603          	lbu	a2,1(a5)
    6132:	0027c583          	lbu	a1,2(a5)
    6136:	96ba                	add	a3,a3,a4
    6138:	0791                	addi	a5,a5,4
    613a:	a021                	j	6142 <isNearSelf+0x2e>
    613c:	0785                	addi	a5,a5,1
D:\Hummingbird\HBird-workspace\pico_test_1\Debug/../src/newsnake.c:178 (discriminator 2)
	for(i=1;i<snake.length;i++){
    613e:	00d78c63          	beq	a5,a3,6156 <isNearSelf+0x42>
D:\Hummingbird\HBird-workspace\pico_test_1\Debug/../src/newsnake.c:179
		if(snake.snakeX[i]==snake.headX&&snake.snakeY[i]==snake.headY)
    6142:	0007c703          	lbu	a4,0(a5)
    6146:	fec71be3          	bne	a4,a2,613c <isNearSelf+0x28>
D:\Hummingbird\HBird-workspace\pico_test_1\Debug/../src/newsnake.c:179 (discriminator 1)
    614a:	12c7c703          	lbu	a4,300(a5)
    614e:	feb717e3          	bne	a4,a1,613c <isNearSelf+0x28>
D:\Hummingbird\HBird-workspace\pico_test_1\Debug/../src/newsnake.c:181
		{
		return 0;
    6152:	4501                	li	a0,0
D:\Hummingbird\HBird-workspace\pico_test_1\Debug/../src/newsnake.c:185
		}
	}
	return 1;
}
    6154:	8082                	ret
D:\Hummingbird\HBird-workspace\pico_test_1\Debug/../src/newsnake.c:184
	return 1;
    6156:	4505                	li	a0,1
    6158:	8082                	ret

0000615a <generateFood>:
generateFood():
D:\Hummingbird\HBird-workspace\pico_test_1\Debug/../src/newsnake.c:189
/*
产生随机的食物坐标
*/
void generateFood(){
    615a:	1101                	addi	sp,sp,-32
    615c:	ce06                	sw	ra,28(sp)
    615e:	cc22                	sw	s0,24(sp)
    6160:	ca26                	sw	s1,20(sp)
    6162:	c84a                	sw	s2,16(sp)
    6164:	c64e                	sw	s3,12(sp)
D:\Hummingbird\HBird-workspace\pico_test_1\Debug/../src/newsnake.c:190
		unsigned int ran=rand()%22+1; //因为贪吃蛇运动区域为10<x<230，10<y<230，取得1到22的随机数
    6166:	4959                	li	s2,22
    6168:	165010ef          	jal	ra,7acc <rand>
    616c:	032567b3          	rem	a5,a0,s2
D:\Hummingbird\HBird-workspace\pico_test_1\Debug/../src/newsnake.c:191
		snake.foodX=(ran*2+1)*5;  //随机数取奇数再乘以5
    6170:	6985                	lui	s3,0x1
    6172:	0e498993          	addi	s3,s3,228 # 10e4 <snake>
    6176:	00498493          	addi	s1,s3,4
D:\Hummingbird\HBird-workspace\pico_test_1\Debug/../src/newsnake.c:195
		ran=rand()%22+1;
		snake.foodY=(ran*2+1)*5;
	while(isCover(snake.snakeX,snake.snakeY,snake.foodX,snake.foodY)){
		ran=rand()%22+1; //因为贪吃蛇运动区域为10<x<230，10<y<230，取得1到22的随机数
    617a:	4459                	li	s0,22
D:\Hummingbird\HBird-workspace\pico_test_1\Debug/../src/newsnake.c:190
		unsigned int ran=rand()%22+1; //因为贪吃蛇运动区域为10<x<230，10<y<230，取得1到22的随机数
    617c:	0785                	addi	a5,a5,1
D:\Hummingbird\HBird-workspace\pico_test_1\Debug/../src/newsnake.c:191
		snake.foodX=(ran*2+1)*5;  //随机数取奇数再乘以5
    617e:	00279713          	slli	a4,a5,0x2
    6182:	97ba                	add	a5,a5,a4
    6184:	0786                	slli	a5,a5,0x1
    6186:	0795                	addi	a5,a5,5
    6188:	26f98223          	sb	a5,612(s3)
D:\Hummingbird\HBird-workspace\pico_test_1\Debug/../src/newsnake.c:192
		ran=rand()%22+1;
    618c:	141010ef          	jal	ra,7acc <rand>
    6190:	032567b3          	rem	a5,a0,s2
isCover():
D:\Hummingbird\HBird-workspace\pico_test_1\Debug/../src/newsnake.c:164
	for(i=0;i<snake.length;i++){
    6194:	25b9c683          	lbu	a3,603(s3)
generateFood():
D:\Hummingbird\HBird-workspace\pico_test_1\Debug/../src/newsnake.c:194
	while(isCover(snake.snakeX,snake.snakeY,snake.foodX,snake.foodY)){
    6198:	2649c583          	lbu	a1,612(s3)
D:\Hummingbird\HBird-workspace\pico_test_1\Debug/../src/newsnake.c:192
		ran=rand()%22+1;
    619c:	0785                	addi	a5,a5,1
D:\Hummingbird\HBird-workspace\pico_test_1\Debug/../src/newsnake.c:193
		snake.foodY=(ran*2+1)*5;
    619e:	00279613          	slli	a2,a5,0x2
    61a2:	963e                	add	a2,a2,a5
    61a4:	0606                	slli	a2,a2,0x1
    61a6:	0615                	addi	a2,a2,5
    61a8:	0ff67613          	andi	a2,a2,255
    61ac:	26c982a3          	sb	a2,613(s3)
isCover():
D:\Hummingbird\HBird-workspace\pico_test_1\Debug/../src/newsnake.c:164
	for(i=0;i<snake.length;i++){
    61b0:	c2b5                	beqz	a3,6214 <generateFood+0xba>
    61b2:	16fd                	addi	a3,a3,-1
    61b4:	0ff6f693          	andi	a3,a3,255
    61b8:	00398793          	addi	a5,s3,3
    61bc:	96a6                	add	a3,a3,s1
    61be:	a021                	j	61c6 <generateFood+0x6c>
    61c0:	0785                	addi	a5,a5,1
    61c2:	04d78963          	beq	a5,a3,6214 <generateFood+0xba>
D:\Hummingbird\HBird-workspace\pico_test_1\Debug/../src/newsnake.c:165
		if(snakeX[i]==foodX&&snakeY[i]==foodY)
    61c6:	0007c703          	lbu	a4,0(a5)
    61ca:	feb71be3          	bne	a4,a1,61c0 <generateFood+0x66>
    61ce:	12c7c703          	lbu	a4,300(a5)
    61d2:	fec717e3          	bne	a4,a2,61c0 <generateFood+0x66>
generateFood():
D:\Hummingbird\HBird-workspace\pico_test_1\Debug/../src/newsnake.c:195
		ran=rand()%22+1; //因为贪吃蛇运动区域为10<x<230，10<y<230，取得1到22的随机数
    61d6:	0f7010ef          	jal	ra,7acc <rand>
    61da:	02856533          	rem	a0,a0,s0
    61de:	0505                	addi	a0,a0,1
D:\Hummingbird\HBird-workspace\pico_test_1\Debug/../src/newsnake.c:196
		snake.foodX=(ran*2+1)*5;  //随机数取奇数再乘以5
    61e0:	00251793          	slli	a5,a0,0x2
    61e4:	953e                	add	a0,a0,a5
    61e6:	0506                	slli	a0,a0,0x1
    61e8:	0515                	addi	a0,a0,5
    61ea:	26a98223          	sb	a0,612(s3)
D:\Hummingbird\HBird-workspace\pico_test_1\Debug/../src/newsnake.c:197
		ran=rand()%22+1;
    61ee:	0df010ef          	jal	ra,7acc <rand>
    61f2:	02856533          	rem	a0,a0,s0
isCover():
D:\Hummingbird\HBird-workspace\pico_test_1\Debug/../src/newsnake.c:164
	for(i=0;i<snake.length;i++){
    61f6:	25b9c683          	lbu	a3,603(s3)
generateFood():
D:\Hummingbird\HBird-workspace\pico_test_1\Debug/../src/newsnake.c:194
	while(isCover(snake.snakeX,snake.snakeY,snake.foodX,snake.foodY)){
    61fa:	2649c583          	lbu	a1,612(s3)
D:\Hummingbird\HBird-workspace\pico_test_1\Debug/../src/newsnake.c:197
		ran=rand()%22+1;
    61fe:	0505                	addi	a0,a0,1
D:\Hummingbird\HBird-workspace\pico_test_1\Debug/../src/newsnake.c:198
		snake.foodY=(ran*2+1)*5;
    6200:	00251613          	slli	a2,a0,0x2
    6204:	962a                	add	a2,a2,a0
    6206:	0606                	slli	a2,a2,0x1
    6208:	0615                	addi	a2,a2,5
    620a:	0ff67613          	andi	a2,a2,255
    620e:	26c982a3          	sb	a2,613(s3)
isCover():
D:\Hummingbird\HBird-workspace\pico_test_1\Debug/../src/newsnake.c:164
	for(i=0;i<snake.length;i++){
    6212:	f2c5                	bnez	a3,61b2 <generateFood+0x58>
generateFood():
D:\Hummingbird\HBird-workspace\pico_test_1\Debug/../src/newsnake.c:201
	}

}
    6214:	40f2                	lw	ra,28(sp)
    6216:	4462                	lw	s0,24(sp)
    6218:	44d2                	lw	s1,20(sp)
    621a:	4942                	lw	s2,16(sp)
    621c:	49b2                	lw	s3,12(sp)
    621e:	6105                	addi	sp,sp,32
    6220:	8082                	ret

00006222 <snakeInit>:
snakeInit():
D:\Hummingbird\HBird-workspace\pico_test_1\Debug/../src/newsnake.c:31
void snakeInit(){
    6222:	1141                	addi	sp,sp,-16
    6224:	c422                	sw	s0,8(sp)
D:\Hummingbird\HBird-workspace\pico_test_1\Debug/../src/newsnake.c:32
	score=0;
    6226:	6785                	lui	a5,0x1
D:\Hummingbird\HBird-workspace\pico_test_1\Debug/../src/newsnake.c:33
	snake.length=3;           //初始长度为3
    6228:	6405                	lui	s0,0x1
D:\Hummingbird\HBird-workspace\pico_test_1\Debug/../src/newsnake.c:31
void snakeInit(){
    622a:	c226                	sw	s1,4(sp)
    622c:	c606                	sw	ra,12(sp)
D:\Hummingbird\HBird-workspace\pico_test_1\Debug/../src/newsnake.c:33
	snake.length=3;           //初始长度为3
    622e:	0e440413          	addi	s0,s0,228 # 10e4 <snake>
D:\Hummingbird\HBird-workspace\pico_test_1\Debug/../src/newsnake.c:32
	score=0;
    6232:	36079c23          	sh	zero,888(a5) # 1378 <score>
D:\Hummingbird\HBird-workspace\pico_test_1\Debug/../src/newsnake.c:33
	snake.length=3;           //初始长度为3
    6236:	478d                	li	a5,3
    6238:	24f40da3          	sb	a5,603(s0)
D:\Hummingbird\HBird-workspace\pico_test_1\Debug/../src/newsnake.c:39
	snake.snakeY[0]=55;
    623c:	03700793          	li	a5,55
    6240:	12f407a3          	sb	a5,303(s0)
D:\Hummingbird\HBird-workspace\pico_test_1\Debug/../src/newsnake.c:40
	snake.snakeY[1]=65;
    6244:	04100793          	li	a5,65
    6248:	12f40823          	sb	a5,304(s0)
D:\Hummingbird\HBird-workspace\pico_test_1\Debug/../src/newsnake.c:41
	snake.snakeY[2]=75;
    624c:	04b00793          	li	a5,75
    6250:	12f408a3          	sb	a5,305(s0)
D:\Hummingbird\HBird-workspace\pico_test_1\Debug/../src/newsnake.c:48
	snake.life=1; //1：蛇还活着；0：蛇死亡
    6254:	373737b7          	lui	a5,0x37373
    6258:	70178793          	addi	a5,a5,1793 # 37373701 <_etext+0x3736aecd>
    625c:	c01c                	sw	a5,0(s0)
D:\Hummingbird\HBird-workspace\pico_test_1\Debug/../src/newsnake.c:35
	snake.snakeX[0]=55;
    625e:	678d                	lui	a5,0x3
    6260:	73778793          	addi	a5,a5,1847 # 3737 <_ebss+0x23bb>
D:\Hummingbird\HBird-workspace\pico_test_1\Debug/../src/newsnake.c:45
	snake.dir=1;  //设置运动方向
    6264:	4485                	li	s1,1
D:\Hummingbird\HBird-workspace\pico_test_1\Debug/../src/newsnake.c:35
	snake.snakeX[0]=55;
    6266:	00f41223          	sh	a5,4(s0)
D:\Hummingbird\HBird-workspace\pico_test_1\Debug/../src/newsnake.c:45
	snake.dir=1;  //设置运动方向
    626a:	24942e23          	sw	s1,604(s0)
D:\Hummingbird\HBird-workspace\pico_test_1\Debug/../src/newsnake.c:46
	snake.tpdir=1;//设置初始按键方向
    626e:	26942023          	sw	s1,608(s0)
D:\Hummingbird\HBird-workspace\pico_test_1\Debug/../src/newsnake.c:50
	generateFood();//生成食物
    6272:	35e5                	jal	615a <generateFood>
refresh():
D:\Hummingbird\HBird-workspace\pico_test_1\Debug/../src/newsnake.c:113
	if(snake.life==1){
    6274:	00044783          	lbu	a5,0(s0)
    6278:	00978763          	beq	a5,s1,6286 <snakeInit+0x64>
snakeInit():
D:\Hummingbird\HBird-workspace\pico_test_1\Debug/../src/newsnake.c:53
}
    627c:	40b2                	lw	ra,12(sp)
    627e:	4422                	lw	s0,8(sp)
    6280:	4492                	lw	s1,4(sp)
    6282:	0141                	addi	sp,sp,16
    6284:	8082                	ret
    6286:	4422                	lw	s0,8(sp)
    6288:	40b2                	lw	ra,12(sp)
    628a:	4492                	lw	s1,4(sp)
    628c:	0141                	addi	sp,sp,16
refresh():
    628e:	b381                	j	5fce <refresh.part.0>

00006290 <dead>:
dead():
D:\Hummingbird\HBird-workspace\pico_test_1\Debug/../src/newsnake.c:206

/*
在头部撞到墙之后执行死亡程序
*/
void dead(){
    6290:	1141                	addi	sp,sp,-16
    6292:	c606                	sw	ra,12(sp)
    6294:	c422                	sw	s0,8(sp)
D:\Hummingbird\HBird-workspace\pico_test_1\Debug/../src/newsnake.c:207
	rgb_address = 0b0000101;
    6296:	6761                	lui	a4,0x18
    6298:	4795                	li	a5,5
    629a:	10f72823          	sw	a5,272(a4) # 18110 <_etext+0xf8dc>
D:\Hummingbird\HBird-workspace\pico_test_1\Debug/../src/newsnake.c:208
	sound_address = 0b1011111;
    629e:	05f00693          	li	a3,95
D:\Hummingbird\HBird-workspace\pico_test_1\Debug/../src/newsnake.c:209
	snake.length=0;
    62a2:	6785                	lui	a5,0x1
D:\Hummingbird\HBird-workspace\pico_test_1\Debug/../src/newsnake.c:208
	sound_address = 0b1011111;
    62a4:	12d72023          	sw	a3,288(a4)
D:\Hummingbird\HBird-workspace\pico_test_1\Debug/../src/newsnake.c:209
	snake.length=0;
    62a8:	0e478793          	addi	a5,a5,228 # 10e4 <snake>
D:\Hummingbird\HBird-workspace\pico_test_1\Debug/../src/newsnake.c:224
	snake.headX=snake.snakeX[0];
	snake.headY=snake.snakeY[0];
	snake.dir=0;

	snake.life=0;
	hdmi_draw_string(80,50,"You dead!!!",20);
    62ac:	00008637          	lui	a2,0x8
D:\Hummingbird\HBird-workspace\pico_test_1\Debug/../src/newsnake.c:223
	snake.life=0;
    62b0:	0007a023          	sw	zero,0(a5)
D:\Hummingbird\HBird-workspace\pico_test_1\Debug/../src/newsnake.c:211
	snake.snakeX[0]=0;
    62b4:	00079223          	sh	zero,4(a5)
D:\Hummingbird\HBird-workspace\pico_test_1\Debug/../src/newsnake.c:224
	hdmi_draw_string(80,50,"You dead!!!",20);
    62b8:	46d1                	li	a3,20
    62ba:	55060613          	addi	a2,a2,1360 # 8550 <ziguang+0x2b8>
    62be:	03200593          	li	a1,50
    62c2:	05000513          	li	a0,80
D:\Hummingbird\HBird-workspace\pico_test_1\Debug/../src/newsnake.c:209
	snake.length=0;
    62c6:	24078da3          	sb	zero,603(a5)
D:\Hummingbird\HBird-workspace\pico_test_1\Debug/../src/newsnake.c:215
	snake.snakeY[0]=0;
    62ca:	120787a3          	sb	zero,303(a5)
D:\Hummingbird\HBird-workspace\pico_test_1\Debug/../src/newsnake.c:216
	snake.snakeY[1]=0;
    62ce:	12078823          	sb	zero,304(a5)
D:\Hummingbird\HBird-workspace\pico_test_1\Debug/../src/newsnake.c:217
	snake.snakeY[2]=0;
    62d2:	120788a3          	sb	zero,305(a5)
D:\Hummingbird\HBird-workspace\pico_test_1\Debug/../src/newsnake.c:221
	snake.dir=0;
    62d6:	2407ae23          	sw	zero,604(a5)
D:\Hummingbird\HBird-workspace\pico_test_1\Debug/../src/newsnake.c:224
	hdmi_draw_string(80,50,"You dead!!!",20);
    62da:	8bcff0ef          	jal	ra,5396 <hdmi_draw_string>
D:\Hummingbird\HBird-workspace\pico_test_1\Debug/../src/newsnake.c:225
	hdmi_draw_string(50,70,"Press'B'to restart",24);
    62de:	00008637          	lui	a2,0x8
    62e2:	46e1                	li	a3,24
    62e4:	b3c60613          	addi	a2,a2,-1220 # 7b3c <rand+0x70>
    62e8:	04600593          	li	a1,70
    62ec:	03200513          	li	a0,50
    62f0:	8a6ff0ef          	jal	ra,5396 <hdmi_draw_string>
D:\Hummingbird\HBird-workspace\pico_test_1\Debug/../src/newsnake.c:226
	hdmi_draw_string(50,90,"Press'X'to quit",24);
    62f4:	00008637          	lui	a2,0x8
    62f8:	46e1                	li	a3,24
    62fa:	55c60613          	addi	a2,a2,1372 # 855c <ziguang+0x2c4>
    62fe:	05a00593          	li	a1,90
    6302:	03200513          	li	a0,50
    6306:	890ff0ef          	jal	ra,5396 <hdmi_draw_string>
D:\Hummingbird\HBird-workspace\pico_test_1\Debug/../src/newsnake.c:227
	hdmi_draw_string(250,70,"Score:",17);
    630a:	00008637          	lui	a2,0x8
    630e:	46c5                	li	a3,17
    6310:	56c60613          	addi	a2,a2,1388 # 856c <ziguang+0x2d4>
    6314:	04600593          	li	a1,70
    6318:	0fa00513          	li	a0,250
D:\Hummingbird\HBird-workspace\pico_test_1\Debug/../src/newsnake.c:228
	hdmi_draw_num(260,90,score,2,23);
    631c:	6405                	lui	s0,0x1
D:\Hummingbird\HBird-workspace\pico_test_1\Debug/../src/newsnake.c:227
	hdmi_draw_string(250,70,"Score:",17);
    631e:	878ff0ef          	jal	ra,5396 <hdmi_draw_string>
D:\Hummingbird\HBird-workspace\pico_test_1\Debug/../src/newsnake.c:228
	hdmi_draw_num(260,90,score,2,23);
    6322:	37840413          	addi	s0,s0,888 # 1378 <score>
    6326:	00045603          	lhu	a2,0(s0)
    632a:	475d                	li	a4,23
    632c:	4689                	li	a3,2
    632e:	05a00593          	li	a1,90
    6332:	10400513          	li	a0,260
    6336:	9e4ff0ef          	jal	ra,551a <hdmi_draw_num>
D:\Hummingbird\HBird-workspace\pico_test_1\Debug/../src/newsnake.c:229
	getps2 = 0;
    633a:	6685                	lui	a3,0x1
    633c:	37468693          	addi	a3,a3,884 # 1374 <getps2>
    6340:	00068023          	sb	zero,0(a3)
D:\Hummingbird\HBird-workspace\pico_test_1\Debug/../src/newsnake.c:230
	score = 0;
    6344:	00041023          	sh	zero,0(s0)
D:\Hummingbird\HBird-workspace\pico_test_1\Debug/../src/newsnake.c:232
	while(getps2 == 0){
		getps2 = *ps2ctrl_point;
    6348:	6761                	lui	a4,0x18
    634a:	10072783          	lw	a5,256(a4) # 18100 <_etext+0xf8cc>
    634e:	0ff7f793          	andi	a5,a5,255
D:\Hummingbird\HBird-workspace\pico_test_1\Debug/../src/newsnake.c:233
		if(getps2!=0){
    6352:	dfe5                	beqz	a5,634a <dead+0xba>
    6354:	00f68023          	sb	a5,0(a3)
    6358:	4705                	li	a4,1
    635a:	6785                	lui	a5,0x1
D:\Hummingbird\HBird-workspace\pico_test_1\Debug/../src/newsnake.c:238
			quit =1;
		}
	}
	sound_address = 0b1111111;
}
    635c:	40b2                	lw	ra,12(sp)
    635e:	4422                	lw	s0,8(sp)
    6360:	36e78b23          	sb	a4,886(a5) # 1376 <quit>
D:\Hummingbird\HBird-workspace\pico_test_1\Debug/../src/newsnake.c:237
	sound_address = 0b1111111;
    6364:	67e1                	lui	a5,0x18
    6366:	07f00713          	li	a4,127
    636a:	12e7a023          	sw	a4,288(a5) # 18120 <_etext+0xf8ec>
D:\Hummingbird\HBird-workspace\pico_test_1\Debug/../src/newsnake.c:238
}
    636e:	0141                	addi	sp,sp,16
    6370:	8082                	ret

00006372 <snakeGo>:
snakeGo():
D:\Hummingbird\HBird-workspace\pico_test_1\Debug/../src/newsnake.c:57
void snakeGo(int direct){
    6372:	1141                	addi	sp,sp,-16
    6374:	c422                	sw	s0,8(sp)
D:\Hummingbird\HBird-workspace\pico_test_1\Debug/../src/newsnake.c:59
	printk("snake.life:%d",snake.life);
    6376:	6405                	lui	s0,0x1
D:\Hummingbird\HBird-workspace\pico_test_1\Debug/../src/newsnake.c:57
void snakeGo(int direct){
    6378:	c226                	sw	s1,4(sp)
    637a:	c606                	sw	ra,12(sp)
D:\Hummingbird\HBird-workspace\pico_test_1\Debug/../src/newsnake.c:59
	printk("snake.life:%d",snake.life);
    637c:	0e440413          	addi	s0,s0,228 # 10e4 <snake>
    6380:	00044583          	lbu	a1,0(s0)
D:\Hummingbird\HBird-workspace\pico_test_1\Debug/../src/newsnake.c:57
void snakeGo(int direct){
    6384:	84aa                	mv	s1,a0
D:\Hummingbird\HBird-workspace\pico_test_1\Debug/../src/newsnake.c:59
	printk("snake.life:%d",snake.life);
    6386:	00008537          	lui	a0,0x8
    638a:	57450513          	addi	a0,a0,1396 # 8574 <ziguang+0x2dc>
    638e:	218d                	jal	67f0 <printk>
D:\Hummingbird\HBird-workspace\pico_test_1\Debug/../src/newsnake.c:60
	if(snake.life==1){
    6390:	00044703          	lbu	a4,0(s0)
    6394:	4785                	li	a5,1
    6396:	06f70363          	beq	a4,a5,63fc <snakeGo+0x8a>
    639a:	00244603          	lbu	a2,2(s0)
D:\Hummingbird\HBird-workspace\pico_test_1\Debug/../src/newsnake.c:101
	if(snake.headY<230&&snake.headY>10&&snake.headX<230&&snake.headX>10&&isNearSelf()){
    639e:	ff560793          	addi	a5,a2,-11
    63a2:	0ff7f793          	andi	a5,a5,255
    63a6:	0da00713          	li	a4,218
    63aa:	04f76463          	bltu	a4,a5,63f2 <snakeGo+0x80>
D:\Hummingbird\HBird-workspace\pico_test_1\Debug/../src/newsnake.c:101 (discriminator 1)
    63ae:	00144683          	lbu	a3,1(s0)
    63b2:	ff568793          	addi	a5,a3,-11
    63b6:	0ff7f793          	andi	a5,a5,255
    63ba:	02f76c63          	bltu	a4,a5,63f2 <snakeGo+0x80>
isNearSelf():
D:\Hummingbird\HBird-workspace\pico_test_1\Debug/../src/newsnake.c:178
	for(i=1;i<snake.length;i++){
    63be:	25b44583          	lbu	a1,603(s0)
    63c2:	4785                	li	a5,1
    63c4:	0eb7f563          	bleu	a1,a5,64ae <snakeGo+0x13c>
    63c8:	ffe58713          	addi	a4,a1,-2
    63cc:	0ff77713          	andi	a4,a4,255
    63d0:	00540593          	addi	a1,s0,5
    63d4:	00440793          	addi	a5,s0,4
    63d8:	95ba                	add	a1,a1,a4
    63da:	a021                	j	63e2 <snakeGo+0x70>
    63dc:	0785                	addi	a5,a5,1
    63de:	0cb78863          	beq	a5,a1,64ae <snakeGo+0x13c>
D:\Hummingbird\HBird-workspace\pico_test_1\Debug/../src/newsnake.c:179
		if(snake.snakeX[i]==snake.headX&&snake.snakeY[i]==snake.headY)
    63e2:	0007c703          	lbu	a4,0(a5)
    63e6:	fed71be3          	bne	a4,a3,63dc <snakeGo+0x6a>
    63ea:	12c7c703          	lbu	a4,300(a5)
    63ee:	fec717e3          	bne	a4,a2,63dc <snakeGo+0x6a>
snakeGo():
D:\Hummingbird\HBird-workspace\pico_test_1\Debug/../src/newsnake.c:107
}
    63f2:	4422                	lw	s0,8(sp)
    63f4:	40b2                	lw	ra,12(sp)
    63f6:	4492                	lw	s1,4(sp)
    63f8:	0141                	addi	sp,sp,16
D:\Hummingbird\HBird-workspace\pico_test_1\Debug/../src/newsnake.c:105
		dead();
    63fa:	bd59                	j	6290 <dead>
D:\Hummingbird\HBird-workspace\pico_test_1\Debug/../src/newsnake.c:61
		if(abs(direct)!=abs(snake.dir) && direct != 0){	//如果按下的方向不是和运动的方向相同或相反
    63fc:	25c42783          	lw	a5,604(s0)
    6400:	41f4d593          	srai	a1,s1,0x1f
    6404:	0095c6b3          	xor	a3,a1,s1
    6408:	41f7d613          	srai	a2,a5,0x1f
    640c:	00f64733          	xor	a4,a2,a5
    6410:	8e8d                	sub	a3,a3,a1
    6412:	8f11                	sub	a4,a4,a2
    6414:	00e68363          	beq	a3,a4,641a <snakeGo+0xa8>
D:\Hummingbird\HBird-workspace\pico_test_1\Debug/../src/newsnake.c:61 (discriminator 1)
    6418:	ecb5                	bnez	s1,6494 <snakeGo+0x122>
D:\Hummingbird\HBird-workspace\pico_test_1\Debug/../src/newsnake.c:66
		switch(direct){
    641a:	577d                	li	a4,-1
    641c:	10e78563          	beq	a5,a4,6526 <snakeGo+0x1b4>
    6420:	0607ce63          	bltz	a5,649c <snakeGo+0x12a>
    6424:	4705                	li	a4,1
    6426:	10e78663          	beq	a5,a4,6532 <snakeGo+0x1c0>
    642a:	4709                	li	a4,2
    642c:	00e79763          	bne	a5,a4,643a <snakeGo+0xc8>
D:\Hummingbird\HBird-workspace\pico_test_1\Debug/../src/newsnake.c:74
				snake.headX-=10;  //左：蛇的身体是有半径为5的圆组成，每运动一格的单位为10
    6430:	00144783          	lbu	a5,1(s0)
    6434:	17d9                	addi	a5,a5,-10
    6436:	00f400a3          	sb	a5,1(s0)
D:\Hummingbird\HBird-workspace\pico_test_1\Debug/../src/newsnake.c:80
		if(snake.headX==snake.foodX&&snake.headY==snake.foodY){ //如果吃到了食物
    643a:	401c                	lw	a5,0(s0)
    643c:	26441683          	lh	a3,612(s0)
    6440:	6741                	lui	a4,0x10
    6442:	07a2                	slli	a5,a5,0x8
    6444:	177d                	addi	a4,a4,-1
    6446:	87c1                	srai	a5,a5,0x10
    6448:	8ff9                	and	a5,a5,a4
    644a:	8ef9                	and	a3,a3,a4
    644c:	25b44703          	lbu	a4,603(s0)
    6450:	06d78763          	beq	a5,a3,64be <snakeGo+0x14c>
D:\Hummingbird\HBird-workspace\pico_test_1\Debug/../src/newsnake.c:92
			for(i=1;i<snake.length;i++){
    6454:	4785                	li	a5,1
    6456:	02e7f663          	bleu	a4,a5,6482 <snakeGo+0x110>
    645a:	ffe70693          	addi	a3,a4,-2 # fffe <_etext+0x77ca>
    645e:	00170793          	addi	a5,a4,1
    6462:	0ff6f693          	andi	a3,a3,255
    6466:	9722                	add	a4,a4,s0
    6468:	97a2                	add	a5,a5,s0
    646a:	8f15                	sub	a4,a4,a3
D:\Hummingbird\HBird-workspace\pico_test_1\Debug/../src/newsnake.c:93 (discriminator 3)
				snake.snakeX[snake.length-i]=snake.snakeX[snake.length-i-1];
    646c:	0007c603          	lbu	a2,0(a5)
D:\Hummingbird\HBird-workspace\pico_test_1\Debug/../src/newsnake.c:94 (discriminator 3)
				snake.snakeY[snake.length-i]=snake.snakeY[snake.length-i-1];
    6470:	12c7c683          	lbu	a3,300(a5)
    6474:	17fd                	addi	a5,a5,-1
D:\Hummingbird\HBird-workspace\pico_test_1\Debug/../src/newsnake.c:93 (discriminator 3)
				snake.snakeX[snake.length-i]=snake.snakeX[snake.length-i-1];
    6476:	00c78123          	sb	a2,2(a5)
D:\Hummingbird\HBird-workspace\pico_test_1\Debug/../src/newsnake.c:94 (discriminator 3)
				snake.snakeY[snake.length-i]=snake.snakeY[snake.length-i-1];
    647a:	12d78723          	sb	a3,302(a5)
D:\Hummingbird\HBird-workspace\pico_test_1\Debug/../src/newsnake.c:92 (discriminator 3)
			for(i=1;i<snake.length;i++){
    647e:	fee797e3          	bne	a5,a4,646c <snakeGo+0xfa>
D:\Hummingbird\HBird-workspace\pico_test_1\Debug/../src/newsnake.c:96
			snake.snakeX[0]=snake.headX;
    6482:	00144783          	lbu	a5,1(s0)
D:\Hummingbird\HBird-workspace\pico_test_1\Debug/../src/newsnake.c:97
			snake.snakeY[0]=snake.headY;
    6486:	00244603          	lbu	a2,2(s0)
D:\Hummingbird\HBird-workspace\pico_test_1\Debug/../src/newsnake.c:96
			snake.snakeX[0]=snake.headX;
    648a:	00f401a3          	sb	a5,3(s0)
D:\Hummingbird\HBird-workspace\pico_test_1\Debug/../src/newsnake.c:97
			snake.snakeY[0]=snake.headY;
    648e:	12c407a3          	sb	a2,303(s0)
    6492:	b731                	j	639e <snakeGo+0x2c>
D:\Hummingbird\HBird-workspace\pico_test_1\Debug/../src/newsnake.c:62
			snake.dir=direct; //将蛇运动的方向改变为按下的方向
    6494:	24942e23          	sw	s1,604(s0)
    6498:	87a6                	mv	a5,s1
    649a:	b741                	j	641a <snakeGo+0xa8>
D:\Hummingbird\HBird-workspace\pico_test_1\Debug/../src/newsnake.c:66
		switch(direct){
    649c:	5779                	li	a4,-2
    649e:	f8e79ee3          	bne	a5,a4,643a <snakeGo+0xc8>
D:\Hummingbird\HBird-workspace\pico_test_1\Debug/../src/newsnake.c:77
				snake.headX+=10;  //右：蛇的身体是有半径为5的圆组成，每运动一格的单位为10
    64a2:	00144783          	lbu	a5,1(s0)
    64a6:	07a9                	addi	a5,a5,10
    64a8:	00f400a3          	sb	a5,1(s0)
D:\Hummingbird\HBird-workspace\pico_test_1\Debug/../src/newsnake.c:78
			break;
    64ac:	b779                	j	643a <snakeGo+0xc8>
D:\Hummingbird\HBird-workspace\pico_test_1\Debug/../src/newsnake.c:102
		snake.life=1;
    64ae:	4785                	li	a5,1
    64b0:	00f40023          	sb	a5,0(s0)
D:\Hummingbird\HBird-workspace\pico_test_1\Debug/../src/newsnake.c:107
}
    64b4:	40b2                	lw	ra,12(sp)
    64b6:	4422                	lw	s0,8(sp)
    64b8:	4492                	lw	s1,4(sp)
    64ba:	0141                	addi	sp,sp,16
    64bc:	8082                	ret
D:\Hummingbird\HBird-workspace\pico_test_1\Debug/../src/newsnake.c:81
			sound_address = 0b1111011;
    64be:	67e1                	lui	a5,0x18
    64c0:	07b00693          	li	a3,123
    64c4:	12d7a023          	sw	a3,288(a5) # 18120 <_etext+0xf8ec>
D:\Hummingbird\HBird-workspace\pico_test_1\Debug/../src/newsnake.c:83
			score++;
    64c8:	6785                	lui	a5,0x1
    64ca:	37878793          	addi	a5,a5,888 # 1378 <score>
    64ce:	0007d603          	lhu	a2,0(a5)
D:\Hummingbird\HBird-workspace\pico_test_1\Debug/../src/newsnake.c:82
			snake.length++;  //长度加1
    64d2:	00170693          	addi	a3,a4,1
    64d6:	0ff6f693          	andi	a3,a3,255
D:\Hummingbird\HBird-workspace\pico_test_1\Debug/../src/newsnake.c:83
			score++;
    64da:	0605                	addi	a2,a2,1
    64dc:	00c79023          	sh	a2,0(a5)
D:\Hummingbird\HBird-workspace\pico_test_1\Debug/../src/newsnake.c:82
			snake.length++;  //长度加1
    64e0:	24d40da3          	sb	a3,603(s0)
D:\Hummingbird\HBird-workspace\pico_test_1\Debug/../src/newsnake.c:84
			for(i=1;i<snake.length;i++){ //除头部以外的坐标前移
    64e4:	4785                	li	a5,1
    64e6:	02d7f663          	bleu	a3,a5,6512 <snakeGo+0x1a0>
    64ea:	177d                	addi	a4,a4,-1
    64ec:	00168793          	addi	a5,a3,1
    64f0:	0ff77713          	andi	a4,a4,255
    64f4:	96a2                	add	a3,a3,s0
    64f6:	97a2                	add	a5,a5,s0
    64f8:	40e68733          	sub	a4,a3,a4
D:\Hummingbird\HBird-workspace\pico_test_1\Debug/../src/newsnake.c:85 (discriminator 3)
				snake.snakeX[snake.length-i]=snake.snakeX[snake.length-i-1];
    64fc:	0007c603          	lbu	a2,0(a5)
D:\Hummingbird\HBird-workspace\pico_test_1\Debug/../src/newsnake.c:86 (discriminator 3)
				snake.snakeY[snake.length-i]=snake.snakeY[snake.length-i-1];
    6500:	12c7c683          	lbu	a3,300(a5)
    6504:	17fd                	addi	a5,a5,-1
D:\Hummingbird\HBird-workspace\pico_test_1\Debug/../src/newsnake.c:85 (discriminator 3)
				snake.snakeX[snake.length-i]=snake.snakeX[snake.length-i-1];
    6506:	00c78123          	sb	a2,2(a5)
D:\Hummingbird\HBird-workspace\pico_test_1\Debug/../src/newsnake.c:86 (discriminator 3)
				snake.snakeY[snake.length-i]=snake.snakeY[snake.length-i-1];
    650a:	12d78723          	sb	a3,302(a5)
D:\Hummingbird\HBird-workspace\pico_test_1\Debug/../src/newsnake.c:84 (discriminator 3)
			for(i=1;i<snake.length;i++){ //除头部以外的坐标前移
    650e:	fee797e3          	bne	a5,a4,64fc <snakeGo+0x18a>
D:\Hummingbird\HBird-workspace\pico_test_1\Debug/../src/newsnake.c:88
			snake.snakeX[0]=snake.foodX; //头部坐标等于食物的坐标
    6512:	26444703          	lbu	a4,612(s0)
D:\Hummingbird\HBird-workspace\pico_test_1\Debug/../src/newsnake.c:89
			snake.snakeY[0]=snake.foodY;
    6516:	26544783          	lbu	a5,613(s0)
D:\Hummingbird\HBird-workspace\pico_test_1\Debug/../src/newsnake.c:88
			snake.snakeX[0]=snake.foodX; //头部坐标等于食物的坐标
    651a:	00e401a3          	sb	a4,3(s0)
D:\Hummingbird\HBird-workspace\pico_test_1\Debug/../src/newsnake.c:89
			snake.snakeY[0]=snake.foodY;
    651e:	12f407a3          	sb	a5,303(s0)
D:\Hummingbird\HBird-workspace\pico_test_1\Debug/../src/newsnake.c:90
			generateFood();  //再生成一个食物
    6522:	3925                	jal	615a <generateFood>
    6524:	bd9d                	j	639a <snakeGo+0x28>
D:\Hummingbird\HBird-workspace\pico_test_1\Debug/../src/newsnake.c:71
				snake.headY+=10;  //下：蛇的身体是有半径为5的圆组成，每运动一格的单位为10
    6526:	00244783          	lbu	a5,2(s0)
    652a:	07a9                	addi	a5,a5,10
    652c:	00f40123          	sb	a5,2(s0)
D:\Hummingbird\HBird-workspace\pico_test_1\Debug/../src/newsnake.c:72
			break;
    6530:	b729                	j	643a <snakeGo+0xc8>
D:\Hummingbird\HBird-workspace\pico_test_1\Debug/../src/newsnake.c:68
				snake.headY-=10;  //上：蛇的身体是有半径为5的圆组成，每运动一格的单位为10
    6532:	00244783          	lbu	a5,2(s0)
    6536:	17d9                	addi	a5,a5,-10
    6538:	00f40123          	sb	a5,2(s0)
D:\Hummingbird\HBird-workspace\pico_test_1\Debug/../src/newsnake.c:69
			break;
    653c:	bdfd                	j	643a <snakeGo+0xc8>

0000653e <GameStart>:
GameStart():
D:\Hummingbird\HBird-workspace\pico_test_1\Debug/../src/newsnake.c:134
void GameStart(){
    653e:	7179                	addi	sp,sp,-48
D:\Hummingbird\HBird-workspace\pico_test_1\Debug/../src/newsnake.c:135
	hdmi_drawrectangle(10,10,230,230,25);
    6540:	4765                	li	a4,25
    6542:	0e600693          	li	a3,230
    6546:	0e600613          	li	a2,230
    654a:	45a9                	li	a1,10
    654c:	4529                	li	a0,10
D:\Hummingbird\HBird-workspace\pico_test_1\Debug/../src/newsnake.c:134
void GameStart(){
    654e:	d606                	sw	ra,44(sp)
    6550:	d422                	sw	s0,40(sp)
    6552:	d226                	sw	s1,36(sp)
    6554:	d04a                	sw	s2,32(sp)
    6556:	ce4e                	sw	s3,28(sp)
    6558:	cc52                	sw	s4,24(sp)
    655a:	c65e                	sw	s7,12(sp)
    655c:	c462                	sw	s8,8(sp)
    655e:	c266                	sw	s9,4(sp)
    6560:	ca56                	sw	s5,20(sp)
    6562:	c85a                	sw	s6,16(sp)
    6564:	c06a                	sw	s10,0(sp)
D:\Hummingbird\HBird-workspace\pico_test_1\Debug/../src/newsnake.c:135
	hdmi_drawrectangle(10,10,230,230,25);
    6566:	c86ff0ef          	jal	ra,59ec <hdmi_drawrectangle>
D:\Hummingbird\HBird-workspace\pico_test_1\Debug/../src/newsnake.c:136
	hdmi_draw_string(250,70,"Score:",17);
    656a:	00008637          	lui	a2,0x8
    656e:	46c5                	li	a3,17
    6570:	56c60613          	addi	a2,a2,1388 # 856c <ziguang+0x2d4>
    6574:	04600593          	li	a1,70
    6578:	0fa00513          	li	a0,250
    657c:	e1bfe0ef          	jal	ra,5396 <hdmi_draw_string>
D:\Hummingbird\HBird-workspace\pico_test_1\Debug/../src/newsnake.c:137
	hdmi_draw_num(260,90,score,2,23);
    6580:	6785                	lui	a5,0x1
    6582:	3787d603          	lhu	a2,888(a5) # 1378 <score>
    6586:	475d                	li	a4,23
    6588:	4689                	li	a3,2
    658a:	05a00593          	li	a1,90
    658e:	10400513          	li	a0,260
    6592:	f89fe0ef          	jal	ra,551a <hdmi_draw_num>
D:\Hummingbird\HBird-workspace\pico_test_1\Debug/../src/newsnake.c:138
	rgb_address = 0b0000010;
    6596:	67e1                	lui	a5,0x18
    6598:	4709                	li	a4,2
    659a:	10e7a823          	sw	a4,272(a5) # 18110 <_etext+0xf8dc>
    659e:	6c85                	lui	s9,0x1
    65a0:	6b85                	lui	s7,0x1
    65a2:	6485                	lui	s1,0x1
    65a4:	6985                	lui	s3,0x1
D:\Hummingbird\HBird-workspace\pico_test_1\Debug/../src/newsnake.c:139
	snakeInit();
    65a6:	39b5                	jal	6222 <snakeInit>
    65a8:	375c8c93          	addi	s9,s9,885 # 1375 <key_val>
    65ac:	374b8b93          	addi	s7,s7,884 # 1374 <getps2>
    65b0:	0e448493          	addi	s1,s1,228 # 10e4 <snake>
    65b4:	37698993          	addi	s3,s3,886 # 1376 <quit>
D:\Hummingbird\HBird-workspace\pico_test_1\Debug/../src/newsnake.c:134
void GameStart(){
    65b8:	0007aa37          	lui	s4,0x7a
snakeDelay():
D:\Hummingbird\HBird-workspace\pico_test_1\Debug/../src/newsnake.c:22
		getps2 = *ps2ctrl_point;
    65bc:	6461                	lui	s0,0x18
D:\Hummingbird\HBird-workspace\pico_test_1\Debug/../src/newsnake.c:23
		if(getps2 != 0) key_val = (getps2>>4);
    65be:	4905                	li	s2,1
GameStart():
D:\Hummingbird\HBird-workspace\pico_test_1\Debug/../src/newsnake.c:147
			case 2:snake.tpdir = -1;break;//下
    65c0:	5c7d                	li	s8,-1
D:\Hummingbird\HBird-workspace\pico_test_1\Debug/../src/newsnake.c:144
		sound_address = 0b1111111;
    65c2:	07f00a93          	li	s5,127
D:\Hummingbird\HBird-workspace\pico_test_1\Debug/../src/newsnake.c:145
		switch(key_val){
    65c6:	4d09                	li	s10,2
    65c8:	4b11                	li	s6,4
    65ca:	000cc683          	lbu	a3,0(s9)
D:\Hummingbird\HBird-workspace\pico_test_1\Debug/../src/newsnake.c:134
void GameStart(){
    65ce:	120a0713          	addi	a4,s4,288 # 7a120 <_etext+0x718ec>
    65d2:	4601                	li	a2,0
snakeDelay():
D:\Hummingbird\HBird-workspace\pico_test_1\Debug/../src/newsnake.c:22
		getps2 = *ps2ctrl_point;
    65d4:	10042783          	lw	a5,256(s0) # 18100 <_etext+0xf8cc>
    65d8:	177d                	addi	a4,a4,-1
    65da:	0ff7f793          	andi	a5,a5,255
D:\Hummingbird\HBird-workspace\pico_test_1\Debug/../src/newsnake.c:23
		if(getps2 != 0) key_val = (getps2>>4);
    65de:	c781                	beqz	a5,65e6 <GameStart+0xa8>
    65e0:	0047d693          	srli	a3,a5,0x4
    65e4:	4605                	li	a2,1
D:\Hummingbird\HBird-workspace\pico_test_1\Debug/../src/newsnake.c:21
	while(delaycnt--){
    65e6:	f77d                	bnez	a4,65d4 <GameStart+0x96>
    65e8:	00fb8023          	sb	a5,0(s7)
    65ec:	c219                	beqz	a2,65f2 <GameStart+0xb4>
    65ee:	00dc8023          	sb	a3,0(s9)
GameStart():
D:\Hummingbird\HBird-workspace\pico_test_1\Debug/../src/newsnake.c:144
		sound_address = 0b1111111;
    65f2:	13542023          	sw	s5,288(s0)
D:\Hummingbird\HBird-workspace\pico_test_1\Debug/../src/newsnake.c:145
		switch(key_val){
    65f6:	000cc783          	lbu	a5,0(s9)
    65fa:	07a78163          	beq	a5,s10,665c <GameStart+0x11e>
    65fe:	02fd7663          	bleu	a5,s10,662a <GameStart+0xec>
    6602:	07678463          	beq	a5,s6,666a <GameStart+0x12c>
    6606:	4721                	li	a4,8
    6608:	04e79e63          	bne	a5,a4,6664 <GameStart+0x126>
D:\Hummingbird\HBird-workspace\pico_test_1\Debug/../src/newsnake.c:149
			case 8:snake.tpdir = -2;break;//右
    660c:	57f9                	li	a5,-2
    660e:	26f4a023          	sw	a5,608(s1)
    6612:	5579                	li	a0,-2
D:\Hummingbird\HBird-workspace\pico_test_1\Debug/../src/newsnake.c:151
		snakeGo(snake.tpdir);
    6614:	3bb9                	jal	6372 <snakeGo>
D:\Hummingbird\HBird-workspace\pico_test_1\Debug/../src/newsnake.c:152
		if(quit){
    6616:	0009c783          	lbu	a5,0(s3)
    661a:	e38d                	bnez	a5,663c <GameStart+0xfe>
refresh():
D:\Hummingbird\HBird-workspace\pico_test_1\Debug/../src/newsnake.c:113
	if(snake.life==1){
    661c:	0004c783          	lbu	a5,0(s1)
    6620:	fb2795e3          	bne	a5,s2,65ca <GameStart+0x8c>
    6624:	9abff0ef          	jal	ra,5fce <refresh.part.0>
    6628:	bf69                	j	65c2 <GameStart+0x84>
GameStart():
D:\Hummingbird\HBird-workspace\pico_test_1\Debug/../src/newsnake.c:145
		switch(key_val){
    662a:	03279d63          	bne	a5,s2,6664 <GameStart+0x126>
D:\Hummingbird\HBird-workspace\pico_test_1\Debug/../src/newsnake.c:146
			case 1:snake.tpdir = 1;break;//上
    662e:	4505                	li	a0,1
    6630:	2724a023          	sw	s2,608(s1)
D:\Hummingbird\HBird-workspace\pico_test_1\Debug/../src/newsnake.c:151
		snakeGo(snake.tpdir);
    6634:	3b3d                	jal	6372 <snakeGo>
D:\Hummingbird\HBird-workspace\pico_test_1\Debug/../src/newsnake.c:152
		if(quit){
    6636:	0009c783          	lbu	a5,0(s3)
    663a:	d3ed                	beqz	a5,661c <GameStart+0xde>
D:\Hummingbird\HBird-workspace\pico_test_1\Debug/../src/newsnake.c:158
}
    663c:	50b2                	lw	ra,44(sp)
    663e:	5422                	lw	s0,40(sp)
D:\Hummingbird\HBird-workspace\pico_test_1\Debug/../src/newsnake.c:153
			quit = 0;
    6640:	00098023          	sb	zero,0(s3)
D:\Hummingbird\HBird-workspace\pico_test_1\Debug/../src/newsnake.c:158
}
    6644:	5492                	lw	s1,36(sp)
    6646:	5902                	lw	s2,32(sp)
    6648:	49f2                	lw	s3,28(sp)
    664a:	4a62                	lw	s4,24(sp)
    664c:	4ad2                	lw	s5,20(sp)
    664e:	4b42                	lw	s6,16(sp)
    6650:	4bb2                	lw	s7,12(sp)
    6652:	4c22                	lw	s8,8(sp)
    6654:	4c92                	lw	s9,4(sp)
    6656:	4d02                	lw	s10,0(sp)
    6658:	6145                	addi	sp,sp,48
    665a:	8082                	ret
D:\Hummingbird\HBird-workspace\pico_test_1\Debug/../src/newsnake.c:147
			case 2:snake.tpdir = -1;break;//下
    665c:	2784a023          	sw	s8,608(s1)
    6660:	557d                	li	a0,-1
    6662:	bf4d                	j	6614 <GameStart+0xd6>
    6664:	2604a503          	lw	a0,608(s1)
    6668:	b775                	j	6614 <GameStart+0xd6>
D:\Hummingbird\HBird-workspace\pico_test_1\Debug/../src/newsnake.c:148
			case 4:snake.tpdir = 2;break;//左
    666a:	27a4a023          	sw	s10,608(s1)
    666e:	4509                	li	a0,2
    6670:	b755                	j	6614 <GameStart+0xd6>

00006672 <print_num>:
print_num():
D:\Hummingbird\HBird-workspace\pico_test_1\Debug/../src/uart.c:14
 ** 输出参数：无
 ** 返回参数：无
 ********************************************************************/
void print_num(uint32_t num, int base)
{
	if(num == 0)
    6672:	e111                	bnez	a0,6676 <print_num+0x4>
D:\Hummingbird\HBird-workspace\pico_test_1\Debug/../src/uart.c:20
	{
		return;
	}
	print_num(num/base, base);
	put_char("0123456789abcdef"[num%base]);							//逆序打印结果
}
    6674:	8082                	ret
    6676:	a009                	j	6678 <print_num.part.0>

00006678 <print_num.part.0>:
D:\Hummingbird\HBird-workspace\pico_test_1\Debug/../src/uart.c:12
void print_num(uint32_t num, int base)
    6678:	1141                	addi	sp,sp,-16
    667a:	c422                	sw	s0,8(sp)
    667c:	842a                	mv	s0,a0
D:\Hummingbird\HBird-workspace\pico_test_1\Debug/../src/uart.c:18
	print_num(num/base, base);
    667e:	02b55533          	divu	a0,a0,a1
D:\Hummingbird\HBird-workspace\pico_test_1\Debug/../src/uart.c:12
void print_num(uint32_t num, int base)
    6682:	c226                	sw	s1,4(sp)
    6684:	84ae                	mv	s1,a1
    6686:	c606                	sw	ra,12(sp)
D:\Hummingbird\HBird-workspace\pico_test_1\Debug/../src/uart.c:18
	print_num(num/base, base);
    6688:	37ed                	jal	6672 <print_num>
D:\Hummingbird\HBird-workspace\pico_test_1\Debug/../src/uart.c:19
	put_char("0123456789abcdef"[num%base]);							//逆序打印结果
    668a:	02947433          	remu	s0,s0,s1
    668e:	000087b7          	lui	a5,0x8
    6692:	6e078793          	addi	a5,a5,1760 # 86e0 <ziguang+0x448>
put_char():
D:\Hummingbird\HBird-workspace\pico_test_1\Debug/../src/uart.c:31
 ** 输出参数：无
 ** 返回参数：无
 ********************************************************************/
void put_char(char c)
{
	if (c == '\n')
    6696:	4729                	li	a4,10
print_num():
D:\Hummingbird\HBird-workspace\pico_test_1\Debug/../src/uart.c:19
	put_char("0123456789abcdef"[num%base]);							//逆序打印结果
    6698:	943e                	add	s0,s0,a5
    669a:	00040783          	lb	a5,0(s0)
put_char():
D:\Hummingbird\HBird-workspace\pico_test_1\Debug/../src/uart.c:31
	if (c == '\n')
    669e:	00e78963          	beq	a5,a4,66b0 <print_num.part.0+0x38>
print_num():
D:\Hummingbird\HBird-workspace\pico_test_1\Debug/../src/uart.c:20
}
    66a2:	40b2                	lw	ra,12(sp)
    66a4:	4422                	lw	s0,8(sp)
put_char():
D:\Hummingbird\HBird-workspace\pico_test_1\Debug/../src/uart.c:33
		put_char('\r');
	reg_uart_data = c;
    66a6:	6761                	lui	a4,0x18
    66a8:	cb1c                	sw	a5,16(a4)
print_num():
D:\Hummingbird\HBird-workspace\pico_test_1\Debug/../src/uart.c:20
}
    66aa:	4492                	lw	s1,4(sp)
    66ac:	0141                	addi	sp,sp,16
    66ae:	8082                	ret
put_char():
D:\Hummingbird\HBird-workspace\pico_test_1\Debug/../src/uart.c:33
	reg_uart_data = c;
    66b0:	6761                	lui	a4,0x18
print_num():
D:\Hummingbird\HBird-workspace\pico_test_1\Debug/../src/uart.c:20
}
    66b2:	40b2                	lw	ra,12(sp)
    66b4:	4422                	lw	s0,8(sp)
put_char():
D:\Hummingbird\HBird-workspace\pico_test_1\Debug/../src/uart.c:33
	reg_uart_data = c;
    66b6:	46b5                	li	a3,13
    66b8:	cb14                	sw	a3,16(a4)
    66ba:	6761                	lui	a4,0x18
    66bc:	cb1c                	sw	a5,16(a4)
print_num():
D:\Hummingbird\HBird-workspace\pico_test_1\Debug/../src/uart.c:20
}
    66be:	4492                	lw	s1,4(sp)
    66c0:	0141                	addi	sp,sp,16
    66c2:	8082                	ret

000066c4 <put_char>:
put_char():
D:\Hummingbird\HBird-workspace\pico_test_1\Debug/../src/uart.c:30
{
    66c4:	1141                	addi	sp,sp,-16
    66c6:	c422                	sw	s0,8(sp)
    66c8:	c606                	sw	ra,12(sp)
D:\Hummingbird\HBird-workspace\pico_test_1\Debug/../src/uart.c:31
	if (c == '\n')
    66ca:	47a9                	li	a5,10
D:\Hummingbird\HBird-workspace\pico_test_1\Debug/../src/uart.c:30
{
    66cc:	842a                	mv	s0,a0
D:\Hummingbird\HBird-workspace\pico_test_1\Debug/../src/uart.c:31
	if (c == '\n')
    66ce:	00f50863          	beq	a0,a5,66de <put_char+0x1a>
D:\Hummingbird\HBird-workspace\pico_test_1\Debug/../src/uart.c:33
	reg_uart_data = c;
    66d2:	67e1                	lui	a5,0x18
    66d4:	cb80                	sw	s0,16(a5)
D:\Hummingbird\HBird-workspace\pico_test_1\Debug/../src/uart.c:34
}
    66d6:	40b2                	lw	ra,12(sp)
    66d8:	4422                	lw	s0,8(sp)
    66da:	0141                	addi	sp,sp,16
    66dc:	8082                	ret
D:\Hummingbird\HBird-workspace\pico_test_1\Debug/../src/uart.c:32
		put_char('\r');
    66de:	4535                	li	a0,13
    66e0:	37d5                	jal	66c4 <put_char>
    66e2:	bfc5                	j	66d2 <put_char+0xe>

000066e4 <print_str>:
print_str():
D:\Hummingbird\HBird-workspace\pico_test_1\Debug/../src/uart.c:45
 ** 输出参数：无
 ** 返回参数：无
 ********************************************************************/
void print_str(const char *p)
{
	while (*p)
    66e4:	00050783          	lb	a5,0(a0)
    66e8:	c38d                	beqz	a5,670a <print_str+0x26>
put_char():
D:\Hummingbird\HBird-workspace\pico_test_1\Debug/../src/uart.c:31
	if (c == '\n')
    66ea:	46a9                	li	a3,10
D:\Hummingbird\HBird-workspace\pico_test_1\Debug/../src/uart.c:33
	reg_uart_data = c;
    66ec:	6761                	lui	a4,0x18
    66ee:	4635                	li	a2,13
    66f0:	a029                	j	66fa <print_str+0x16>
    66f2:	cb1c                	sw	a5,16(a4)
print_str():
D:\Hummingbird\HBird-workspace\pico_test_1\Debug/../src/uart.c:45
	while (*p)
    66f4:	00050783          	lb	a5,0(a0)
    66f8:	cb89                	beqz	a5,670a <print_str+0x26>
D:\Hummingbird\HBird-workspace\pico_test_1\Debug/../src/uart.c:46
		put_char(*(p++));
    66fa:	0505                	addi	a0,a0,1
put_char():
D:\Hummingbird\HBird-workspace\pico_test_1\Debug/../src/uart.c:31
	if (c == '\n')
    66fc:	fed79be3          	bne	a5,a3,66f2 <print_str+0xe>
D:\Hummingbird\HBird-workspace\pico_test_1\Debug/../src/uart.c:33
	reg_uart_data = c;
    6700:	cb10                	sw	a2,16(a4)
    6702:	cb1c                	sw	a5,16(a4)
print_str():
D:\Hummingbird\HBird-workspace\pico_test_1\Debug/../src/uart.c:45
	while (*p)
    6704:	00050783          	lb	a5,0(a0)
    6708:	fbed                	bnez	a5,66fa <print_str+0x16>
D:\Hummingbird\HBird-workspace\pico_test_1\Debug/../src/uart.c:47
}
    670a:	8082                	ret

0000670c <print_hex>:
print_hex():
D:\Hummingbird\HBird-workspace\pico_test_1\Debug/../src/uart.c:58
 ** 		digits：数据类型（十进制、十六进制、八进制）
 ** 输出参数：无
 ** 返回参数：无
 ********************************************************************/
void print_hex(uint32_t v, int digits)
{
    670c:	000086b7          	lui	a3,0x8
D:\Hummingbird\HBird-workspace\pico_test_1\Debug/../src/uart.c:59
	for (int i = 7; i >= 0; i--)
    6710:	471d                	li	a4,7
    6712:	6e068693          	addi	a3,a3,1760 # 86e0 <ziguang+0x448>
D:\Hummingbird\HBird-workspace\pico_test_1\Debug/../src/uart.c:62
	{
		char c = "0123456789abcdef"[(v >> (4*i)) & 15];
		if (c == '0' && i >= digits)
    6716:	03000893          	li	a7,48
put_char():
D:\Hummingbird\HBird-workspace\pico_test_1\Debug/../src/uart.c:33
	reg_uart_data = c;
    671a:	6661                	lui	a2,0x18
D:\Hummingbird\HBird-workspace\pico_test_1\Debug/../src/uart.c:31
	if (c == '\n')
    671c:	4329                	li	t1,10
D:\Hummingbird\HBird-workspace\pico_test_1\Debug/../src/uart.c:33
	reg_uart_data = c;
    671e:	4e35                	li	t3,13
print_hex():
D:\Hummingbird\HBird-workspace\pico_test_1\Debug/../src/uart.c:59
	for (int i = 7; i >= 0; i--)
    6720:	587d                	li	a6,-1
    6722:	a801                	j	6732 <print_hex+0x26>
put_char():
D:\Hummingbird\HBird-workspace\pico_test_1\Debug/../src/uart.c:31
	if (c == '\n')
    6724:	02678763          	beq	a5,t1,6752 <print_hex+0x46>
D:\Hummingbird\HBird-workspace\pico_test_1\Debug/../src/uart.c:33
	reg_uart_data = c;
    6728:	85ba                	mv	a1,a4
    672a:	ca1c                	sw	a5,16(a2)
print_hex():
D:\Hummingbird\HBird-workspace\pico_test_1\Debug/../src/uart.c:59
	for (int i = 7; i >= 0; i--)
    672c:	177d                	addi	a4,a4,-1
    672e:	03070163          	beq	a4,a6,6750 <print_hex+0x44>
D:\Hummingbird\HBird-workspace\pico_test_1\Debug/../src/uart.c:61
		char c = "0123456789abcdef"[(v >> (4*i)) & 15];
    6732:	00271793          	slli	a5,a4,0x2
    6736:	00f557b3          	srl	a5,a0,a5
    673a:	8bbd                	andi	a5,a5,15
    673c:	97b6                	add	a5,a5,a3
    673e:	00078783          	lb	a5,0(a5) # 18000 <_etext+0xf7cc>
D:\Hummingbird\HBird-workspace\pico_test_1\Debug/../src/uart.c:62
		if (c == '0' && i >= digits)
    6742:	ff1791e3          	bne	a5,a7,6724 <print_hex+0x18>
D:\Hummingbird\HBird-workspace\pico_test_1\Debug/../src/uart.c:62 (discriminator 1)
    6746:	feb741e3          	blt	a4,a1,6728 <print_hex+0x1c>
D:\Hummingbird\HBird-workspace\pico_test_1\Debug/../src/uart.c:59
	for (int i = 7; i >= 0; i--)
    674a:	177d                	addi	a4,a4,-1
    674c:	ff0713e3          	bne	a4,a6,6732 <print_hex+0x26>
D:\Hummingbird\HBird-workspace\pico_test_1\Debug/../src/uart.c:67
			continue;
		put_char(c);
		digits = i;
	}
}
    6750:	8082                	ret
put_char():
D:\Hummingbird\HBird-workspace\pico_test_1\Debug/../src/uart.c:33
	reg_uart_data = c;
    6752:	01c62823          	sw	t3,16(a2) # 18010 <_etext+0xf7dc>
    6756:	bfc9                	j	6728 <print_hex+0x1c>

00006758 <print_hex2>:
print_hex2():
D:\Hummingbird\HBird-workspace\pico_test_1\Debug/../src/uart.c:78
 ** 输出参数：无
 ** 返回参数：无
 ********************************************************************/
void print_hex2(uint32_t hex)
{
	if(0 == hex)
    6758:	e511                	bnez	a0,6764 <print_hex2+0xc>
put_char():
D:\Hummingbird\HBird-workspace\pico_test_1\Debug/../src/uart.c:33
	reg_uart_data = c;
    675a:	67e1                	lui	a5,0x18
    675c:	03000713          	li	a4,48
    6760:	cb98                	sw	a4,16(a5)
print_hex2():
D:\Hummingbird\HBird-workspace\pico_test_1\Debug/../src/uart.c:87
	}
	else
	{
		print_num(hex, 16);											//打印十六进制数
	}
}
    6762:	8082                	ret
print_num():
    6764:	45c1                	li	a1,16
    6766:	bf09                	j	6678 <print_num.part.0>

00006768 <print_dec>:
print_dec():
D:\Hummingbird\HBird-workspace\pico_test_1\Debug/../src/uart.c:97
 ** 输出参数：无
 ** 返回参数：无
 ********************************************************************/
void print_dec(uint32_t v)
{
	if(0 == v)
    6768:	e511                	bnez	a0,6774 <print_dec+0xc>
put_char():
D:\Hummingbird\HBird-workspace\pico_test_1\Debug/../src/uart.c:33
	reg_uart_data = c;
    676a:	67e1                	lui	a5,0x18
    676c:	03000713          	li	a4,48
    6770:	cb98                	sw	a4,16(a5)
print_dec():
D:\Hummingbird\HBird-workspace\pico_test_1\Debug/../src/uart.c:106
	}
	else
	{
		print_num(v, 10);											//打印十进制数
	}
}
    6772:	8082                	ret
print_num():
    6774:	45a9                	li	a1,10
    6776:	b709                	j	6678 <print_num.part.0>

00006778 <print_flt>:
print_flt():
D:\Hummingbird\HBird-workspace\pico_test_1\Debug/../src/uart.c:116
 ** 输入参数：flt:打印的浮点数
 ** 输出参数：无
 ** 返回参数：无
 ********************************************************************/
void print_flt(double flt)
{
    6778:	1101                	addi	sp,sp,-32
    677a:	cc22                	sw	s0,24(sp)
    677c:	c84a                	sw	s2,16(sp)
    677e:	c64e                	sw	s3,12(sp)
    6780:	ce06                	sw	ra,28(sp)
    6782:	ca26                	sw	s1,20(sp)
    6784:	892a                	mv	s2,a0
    6786:	89ae                	mv	s3,a1
D:\Hummingbird\HBird-workspace\pico_test_1\Debug/../src/uart.c:120
	uint32_t icnt = 0;
	uint32_t tmpint = 0;

	tmpint = (int)(flt);
    6788:	158010ef          	jal	ra,78e0 <__fixdfsi>
    678c:	842a                	mv	s0,a0
print_dec():
D:\Hummingbird\HBird-workspace\pico_test_1\Debug/../src/uart.c:97
	if(0 == v)
    678e:	ed31                	bnez	a0,67ea <print_flt+0x72>
put_char():
D:\Hummingbird\HBird-workspace\pico_test_1\Debug/../src/uart.c:33
	reg_uart_data = c;
    6790:	67e1                	lui	a5,0x18
    6792:	03000713          	li	a4,48
    6796:	cb98                	sw	a4,16(a5)
    6798:	02e00793          	li	a5,46
    679c:	64e1                	lui	s1,0x18
    679e:	c89c                	sw	a5,16(s1)
print_flt():
D:\Hummingbird\HBird-workspace\pico_test_1\Debug/../src/uart.c:123
	print_dec(tmpint);
	put_char('.');
	flt = flt - tmpint;
    67a0:	8522                	mv	a0,s0
    67a2:	1c2010ef          	jal	ra,7964 <__floatunsidf>
    67a6:	862a                	mv	a2,a0
    67a8:	86ae                	mv	a3,a1
    67aa:	854a                	mv	a0,s2
    67ac:	85ce                	mv	a1,s3
    67ae:	0b3000ef          	jal	ra,7060 <__subdf3>
D:\Hummingbird\HBird-workspace\pico_test_1\Debug/../src/uart.c:124
	tmpint = (int)(flt * 1000000);
    67b2:	000087b7          	lui	a5,0x8
    67b6:	6d87a603          	lw	a2,1752(a5) # 86d8 <ziguang+0x440>
    67ba:	6dc7a683          	lw	a3,1756(a5)
    67be:	2c19                	jal	69d4 <__muldf3>
    67c0:	120010ef          	jal	ra,78e0 <__fixdfsi>
print_dec():
D:\Hummingbird\HBird-workspace\pico_test_1\Debug/../src/uart.c:97
	if(0 == v)
    67c4:	e919                	bnez	a0,67da <print_flt+0x62>
print_flt():
D:\Hummingbird\HBird-workspace\pico_test_1\Debug/../src/uart.c:126
	print_dec(tmpint);
}
    67c6:	40f2                	lw	ra,28(sp)
    67c8:	4462                	lw	s0,24(sp)
put_char():
D:\Hummingbird\HBird-workspace\pico_test_1\Debug/../src/uart.c:33
	reg_uart_data = c;
    67ca:	03000793          	li	a5,48
    67ce:	c89c                	sw	a5,16(s1)
print_flt():
D:\Hummingbird\HBird-workspace\pico_test_1\Debug/../src/uart.c:126
}
    67d0:	4942                	lw	s2,16(sp)
    67d2:	44d2                	lw	s1,20(sp)
    67d4:	49b2                	lw	s3,12(sp)
    67d6:	6105                	addi	sp,sp,32
    67d8:	8082                	ret
    67da:	4462                	lw	s0,24(sp)
    67dc:	40f2                	lw	ra,28(sp)
    67de:	44d2                	lw	s1,20(sp)
    67e0:	4942                	lw	s2,16(sp)
    67e2:	49b2                	lw	s3,12(sp)
print_dec():
    67e4:	45a9                	li	a1,10
print_flt():
    67e6:	6105                	addi	sp,sp,32
print_dec():
    67e8:	bd41                	j	6678 <print_num.part.0>
print_num():
    67ea:	45a9                	li	a1,10
    67ec:	3571                	jal	6678 <print_num.part.0>
    67ee:	b76d                	j	6798 <print_flt+0x20>

000067f0 <printk>:
printk():
D:\Hummingbird\HBird-workspace\pico_test_1\Debug/../src/uart.c:136
 ** 输入参数：fmt：打印的字符串内容
 ** 输出参数：无
 ** 返回参数：无
 ********************************************************************/
void printk(char *fmt, ...)
{
    67f0:	715d                	addi	sp,sp,-80
    67f2:	c0ba                	sw	a4,64(sp)
    67f4:	d606                	sw	ra,44(sp)
    67f6:	d422                	sw	s0,40(sp)
    67f8:	d226                	sw	s1,36(sp)
    67fa:	d04a                	sw	s2,32(sp)
    67fc:	ce4e                	sw	s3,28(sp)
    67fe:	cc52                	sw	s4,24(sp)
    6800:	ca56                	sw	s5,20(sp)
    6802:	c85a                	sw	s6,16(sp)
    6804:	da2e                	sw	a1,52(sp)
    6806:	dc32                	sw	a2,56(sp)
    6808:	de36                	sw	a3,60(sp)
    680a:	c2be                	sw	a5,68(sp)
    680c:	c4c2                	sw	a6,72(sp)
    680e:	c6c6                	sw	a7,76(sp)
D:\Hummingbird\HBird-workspace\pico_test_1\Debug/../src/uart.c:143
	va_list vp;

	va_start(vp, fmt);
	pfmt = fmt;

	while(*pfmt)
    6810:	00050783          	lb	a5,0(a0)
D:\Hummingbird\HBird-workspace\pico_test_1\Debug/../src/uart.c:140
	va_start(vp, fmt);
    6814:	1858                	addi	a4,sp,52
    6816:	c63a                	sw	a4,12(sp)
D:\Hummingbird\HBird-workspace\pico_test_1\Debug/../src/uart.c:143
	while(*pfmt)
    6818:	c3b9                	beqz	a5,685e <printk+0x6e>
D:\Hummingbird\HBird-workspace\pico_test_1\Debug/../src/uart.c:149
	{
		switch(*pfmt)
		{
			case '%':
			{
				switch(*(pfmt + 1))
    681a:	6aa1                	lui	s5,0x8
    681c:	84aa                	mv	s1,a0
D:\Hummingbird\HBird-workspace\pico_test_1\Debug/../src/uart.c:145
		switch(*pfmt)
    681e:	4929                	li	s2,10
put_char():
D:\Hummingbird\HBird-workspace\pico_test_1\Debug/../src/uart.c:33
	reg_uart_data = c;
    6820:	69e1                	lui	s3,0x18
    6822:	4b35                	li	s6,13
printk():
D:\Hummingbird\HBird-workspace\pico_test_1\Debug/../src/uart.c:145
		switch(*pfmt)
    6824:	02500a13          	li	s4,37
D:\Hummingbird\HBird-workspace\pico_test_1\Debug/../src/uart.c:149
				switch(*(pfmt + 1))
    6828:	584a8a93          	addi	s5,s5,1412 # 8584 <ziguang+0x2ec>
    682c:	a819                	j	6842 <printk+0x52>
D:\Hummingbird\HBird-workspace\pico_test_1\Debug/../src/uart.c:145
		switch(*pfmt)
    682e:	05478263          	beq	a5,s4,6872 <printk+0x82>
put_char():
D:\Hummingbird\HBird-workspace\pico_test_1\Debug/../src/uart.c:33
	reg_uart_data = c;
    6832:	8722                	mv	a4,s0
    6834:	00f9a823          	sw	a5,16(s3) # 18010 <_etext+0xf7dc>
    6838:	8426                	mv	s0,s1
    683a:	84ba                	mv	s1,a4
printk():
D:\Hummingbird\HBird-workspace\pico_test_1\Debug/../src/uart.c:143
	while(*pfmt)
    683c:	00140783          	lb	a5,1(s0)
    6840:	cf99                	beqz	a5,685e <printk+0x6e>
    6842:	00148413          	addi	s0,s1,1 # 18001 <_etext+0xf7cd>
D:\Hummingbird\HBird-workspace\pico_test_1\Debug/../src/uart.c:145
		switch(*pfmt)
    6846:	ff2794e3          	bne	a5,s2,682e <printk+0x3e>
put_char():
D:\Hummingbird\HBird-workspace\pico_test_1\Debug/../src/uart.c:33
	reg_uart_data = c;
    684a:	0169a823          	sw	s6,16(s3)
    684e:	87a2                	mv	a5,s0
    6850:	0129a823          	sw	s2,16(s3)
    6854:	8426                	mv	s0,s1
    6856:	84be                	mv	s1,a5
printk():
D:\Hummingbird\HBird-workspace\pico_test_1\Debug/../src/uart.c:143
	while(*pfmt)
    6858:	00140783          	lb	a5,1(s0)
    685c:	f3fd                	bnez	a5,6842 <printk+0x52>
D:\Hummingbird\HBird-workspace\pico_test_1\Debug/../src/uart.c:201
				break;
		}
		pfmt++;
	}
	va_end(vp);
}
    685e:	50b2                	lw	ra,44(sp)
    6860:	5422                	lw	s0,40(sp)
    6862:	5492                	lw	s1,36(sp)
    6864:	5902                	lw	s2,32(sp)
    6866:	49f2                	lw	s3,28(sp)
    6868:	4a62                	lw	s4,24(sp)
    686a:	4ad2                	lw	s5,20(sp)
    686c:	4b42                	lw	s6,16(sp)
    686e:	6161                	addi	sp,sp,80
    6870:	8082                	ret
D:\Hummingbird\HBird-workspace\pico_test_1\Debug/../src/uart.c:149
				switch(*(pfmt + 1))
    6872:	0014c783          	lbu	a5,1(s1)
    6876:	05300713          	li	a4,83
    687a:	fdb78793          	addi	a5,a5,-37
    687e:	0ff7f793          	andi	a5,a5,255
    6882:	00f76663          	bltu	a4,a5,688e <printk+0x9e>
    6886:	078a                	slli	a5,a5,0x2
    6888:	97d6                	add	a5,a5,s5
    688a:	439c                	lw	a5,0(a5)
    688c:	8782                	jr	a5
put_char():
D:\Hummingbird\HBird-workspace\pico_test_1\Debug/../src/uart.c:33
	reg_uart_data = c;
    688e:	87a2                	mv	a5,s0
    6890:	0149a823          	sw	s4,16(s3)
    6894:	8426                	mv	s0,s1
    6896:	84be                	mv	s1,a5
    6898:	b755                	j	683c <printk+0x4c>
printk():
D:\Hummingbird\HBird-workspace\pico_test_1\Debug/../src/uart.c:152
						put_char(va_arg(vp, int));
    689a:	47b2                	lw	a5,12(sp)
    689c:	00078703          	lb	a4,0(a5)
    68a0:	0791                	addi	a5,a5,4
    68a2:	c63e                	sw	a5,12(sp)
put_char():
D:\Hummingbird\HBird-workspace\pico_test_1\Debug/../src/uart.c:31
	if (c == '\n')
    68a4:	07270d63          	beq	a4,s2,691e <printk+0x12e>
D:\Hummingbird\HBird-workspace\pico_test_1\Debug/../src/uart.c:33
	reg_uart_data = c;
    68a8:	00e9a823          	sw	a4,16(s3)
    68ac:	0489                	addi	s1,s1,2
printk():
D:\Hummingbird\HBird-workspace\pico_test_1\Debug/../src/uart.c:154
						break;
    68ae:	b779                	j	683c <printk+0x4c>
D:\Hummingbird\HBird-workspace\pico_test_1\Debug/../src/uart.c:175
						print_hex2(va_arg(vp, int));
    68b0:	47b2                	lw	a5,12(sp)
    68b2:	4388                	lw	a0,0(a5)
    68b4:	0791                	addi	a5,a5,4
    68b6:	c63e                	sw	a5,12(sp)
print_hex2():
D:\Hummingbird\HBird-workspace\pico_test_1\Debug/../src/uart.c:78
	if(0 == hex)
    68b8:	ed39                	bnez	a0,6916 <printk+0x126>
put_char():
D:\Hummingbird\HBird-workspace\pico_test_1\Debug/../src/uart.c:33
	reg_uart_data = c;
    68ba:	03000793          	li	a5,48
    68be:	00f9a823          	sw	a5,16(s3)
    68c2:	0489                	addi	s1,s1,2
printk():
D:\Hummingbird\HBird-workspace\pico_test_1\Debug/../src/uart.c:177
						break;
    68c4:	bfa5                	j	683c <printk+0x4c>
D:\Hummingbird\HBird-workspace\pico_test_1\Debug/../src/uart.c:158
						print_dec(va_arg(vp, int));
    68c6:	47b2                	lw	a5,12(sp)
    68c8:	4388                	lw	a0,0(a5)
    68ca:	0791                	addi	a5,a5,4
    68cc:	c63e                	sw	a5,12(sp)
print_dec():
D:\Hummingbird\HBird-workspace\pico_test_1\Debug/../src/uart.c:97
	if(0 == v)
    68ce:	d575                	beqz	a0,68ba <printk+0xca>
print_num():
    68d0:	45a9                	li	a1,10
    68d2:	335d                	jal	6678 <print_num.part.0>
    68d4:	0489                	addi	s1,s1,2
    68d6:	b79d                	j	683c <printk+0x4c>
printk():
D:\Hummingbird\HBird-workspace\pico_test_1\Debug/../src/uart.c:169
						print_str(va_arg(vp, char*));
    68d8:	47b2                	lw	a5,12(sp)
    68da:	4398                	lw	a4,0(a5)
    68dc:	0791                	addi	a5,a5,4
    68de:	c63e                	sw	a5,12(sp)
print_str():
D:\Hummingbird\HBird-workspace\pico_test_1\Debug/../src/uart.c:45
	while (*p)
    68e0:	00070783          	lb	a5,0(a4) # 18000 <_etext+0xf7cc>
    68e4:	dff9                	beqz	a5,68c2 <printk+0xd2>
D:\Hummingbird\HBird-workspace\pico_test_1\Debug/../src/uart.c:46
		put_char(*(p++));
    68e6:	0705                	addi	a4,a4,1
put_char():
D:\Hummingbird\HBird-workspace\pico_test_1\Debug/../src/uart.c:31
	if (c == '\n')
    68e8:	01278a63          	beq	a5,s2,68fc <printk+0x10c>
D:\Hummingbird\HBird-workspace\pico_test_1\Debug/../src/uart.c:33
	reg_uart_data = c;
    68ec:	00f9a823          	sw	a5,16(s3)
print_str():
D:\Hummingbird\HBird-workspace\pico_test_1\Debug/../src/uart.c:45
	while (*p)
    68f0:	00070783          	lb	a5,0(a4)
    68f4:	d7f9                	beqz	a5,68c2 <printk+0xd2>
D:\Hummingbird\HBird-workspace\pico_test_1\Debug/../src/uart.c:46
		put_char(*(p++));
    68f6:	0705                	addi	a4,a4,1
put_char():
D:\Hummingbird\HBird-workspace\pico_test_1\Debug/../src/uart.c:31
	if (c == '\n')
    68f8:	ff279ae3          	bne	a5,s2,68ec <printk+0xfc>
D:\Hummingbird\HBird-workspace\pico_test_1\Debug/../src/uart.c:33
	reg_uart_data = c;
    68fc:	0169a823          	sw	s6,16(s3)
    6900:	b7f5                	j	68ec <printk+0xfc>
printk():
D:\Hummingbird\HBird-workspace\pico_test_1\Debug/../src/uart.c:163
						print_flt(va_arg(vp, double));
    6902:	47b2                	lw	a5,12(sp)
    6904:	0489                	addi	s1,s1,2
    6906:	079d                	addi	a5,a5,7
    6908:	9be1                	andi	a5,a5,-8
    690a:	4388                	lw	a0,0(a5)
    690c:	43cc                	lw	a1,4(a5)
    690e:	07a1                	addi	a5,a5,8
    6910:	c63e                	sw	a5,12(sp)
    6912:	359d                	jal	6778 <print_flt>
D:\Hummingbird\HBird-workspace\pico_test_1\Debug/../src/uart.c:165
						break;
    6914:	b725                	j	683c <printk+0x4c>
print_num():
    6916:	45c1                	li	a1,16
    6918:	3385                	jal	6678 <print_num.part.0>
    691a:	0489                	addi	s1,s1,2
    691c:	b705                	j	683c <printk+0x4c>
put_char():
D:\Hummingbird\HBird-workspace\pico_test_1\Debug/../src/uart.c:33
	reg_uart_data = c;
    691e:	0169a823          	sw	s6,16(s3)
    6922:	b759                	j	68a8 <printk+0xb8>

00006924 <getchar_prompt>:
getchar_prompt():
D:\Hummingbird\HBird-workspace\pico_test_1\Debug/../src/uart.c:215
char getchar_prompt(char *prompt)
{
	int32_t c = -1;

	uint32_t cycles_begin, cycles_now, cycles;
	__asm__ volatile ("rdcycle %0" : "=r"(cycles_begin));
    6924:	c00025f3          	rdcycle	a1
D:\Hummingbird\HBird-workspace\pico_test_1\Debug/../src/uart.c:217

	if (prompt)
    6928:	c515                	beqz	a0,6954 <getchar_prompt+0x30>
print_str():
D:\Hummingbird\HBird-workspace\pico_test_1\Debug/../src/uart.c:45
	while (*p)
    692a:	00050783          	lb	a5,0(a0)
    692e:	c39d                	beqz	a5,6954 <getchar_prompt+0x30>
    6930:	872a                	mv	a4,a0
put_char():
D:\Hummingbird\HBird-workspace\pico_test_1\Debug/../src/uart.c:31
	if (c == '\n')
    6932:	4629                	li	a2,10
D:\Hummingbird\HBird-workspace\pico_test_1\Debug/../src/uart.c:33
	reg_uart_data = c;
    6934:	66e1                	lui	a3,0x18
    6936:	4835                	li	a6,13
    6938:	a029                	j	6942 <getchar_prompt+0x1e>
    693a:	ca9c                	sw	a5,16(a3)
print_str():
D:\Hummingbird\HBird-workspace\pico_test_1\Debug/../src/uart.c:45
	while (*p)
    693c:	00070783          	lb	a5,0(a4)
    6940:	cb91                	beqz	a5,6954 <getchar_prompt+0x30>
D:\Hummingbird\HBird-workspace\pico_test_1\Debug/../src/uart.c:46
		put_char(*(p++));
    6942:	0705                	addi	a4,a4,1
put_char():
D:\Hummingbird\HBird-workspace\pico_test_1\Debug/../src/uart.c:31
	if (c == '\n')
    6944:	fec79be3          	bne	a5,a2,693a <getchar_prompt+0x16>
D:\Hummingbird\HBird-workspace\pico_test_1\Debug/../src/uart.c:33
	reg_uart_data = c;
    6948:	0106a823          	sw	a6,16(a3) # 18010 <_etext+0xf7dc>
    694c:	ca9c                	sw	a5,16(a3)
print_str():
D:\Hummingbird\HBird-workspace\pico_test_1\Debug/../src/uart.c:45
	while (*p)
    694e:	00070783          	lb	a5,0(a4)
    6952:	fbe5                	bnez	a5,6942 <getchar_prompt+0x1e>
getchar_prompt():
D:\Hummingbird\HBird-workspace\pico_test_1\Debug/../src/uart.c:224

	while (c == -1)
	{
		__asm__ volatile ("rdcycle %0" : "=r"(cycles_now));
		cycles = cycles_now - cycles_begin;
		if (cycles > 12000000)
    6954:	00b728b7          	lui	a7,0xb72
    6958:	b0088893          	addi	a7,a7,-1280 # b71b00 <_etext+0xb692cc>
put_char():
D:\Hummingbird\HBird-workspace\pico_test_1\Debug/../src/uart.c:31
	if (c == '\n')
    695c:	4829                	li	a6,10
D:\Hummingbird\HBird-workspace\pico_test_1\Debug/../src/uart.c:33
	reg_uart_data = c;
    695e:	66e1                	lui	a3,0x18
    6960:	4e35                	li	t3,13
getchar_prompt():
D:\Hummingbird\HBird-workspace\pico_test_1\Debug/../src/uart.c:220
	while (c == -1)
    6962:	537d                	li	t1,-1
D:\Hummingbird\HBird-workspace\pico_test_1\Debug/../src/uart.c:222
		__asm__ volatile ("rdcycle %0" : "=r"(cycles_now));
    6964:	c0002673          	rdcycle	a2
D:\Hummingbird\HBird-workspace\pico_test_1\Debug/../src/uart.c:223
		cycles = cycles_now - cycles_begin;
    6968:	40b607b3          	sub	a5,a2,a1
D:\Hummingbird\HBird-workspace\pico_test_1\Debug/../src/uart.c:224
		if (cycles > 12000000)
    696c:	02f8f763          	bleu	a5,a7,699a <getchar_prompt+0x76>
D:\Hummingbird\HBird-workspace\pico_test_1\Debug/../src/uart.c:230
		{
			if (prompt)
			{
				print_str(prompt);
			}
			cycles_begin = cycles_now;
    6970:	85b2                	mv	a1,a2
D:\Hummingbird\HBird-workspace\pico_test_1\Debug/../src/uart.c:226
			if (prompt)
    6972:	c505                	beqz	a0,699a <getchar_prompt+0x76>
print_str():
D:\Hummingbird\HBird-workspace\pico_test_1\Debug/../src/uart.c:45
	while (*p)
    6974:	00050783          	lb	a5,0(a0)
    6978:	c38d                	beqz	a5,699a <getchar_prompt+0x76>
    697a:	872a                	mv	a4,a0
    697c:	a029                	j	6986 <getchar_prompt+0x62>
put_char():
D:\Hummingbird\HBird-workspace\pico_test_1\Debug/../src/uart.c:33
	reg_uart_data = c;
    697e:	ca9c                	sw	a5,16(a3)
print_str():
D:\Hummingbird\HBird-workspace\pico_test_1\Debug/../src/uart.c:45
	while (*p)
    6980:	00070783          	lb	a5,0(a4)
    6984:	cb91                	beqz	a5,6998 <getchar_prompt+0x74>
D:\Hummingbird\HBird-workspace\pico_test_1\Debug/../src/uart.c:46
		put_char(*(p++));
    6986:	0705                	addi	a4,a4,1
put_char():
D:\Hummingbird\HBird-workspace\pico_test_1\Debug/../src/uart.c:31
	if (c == '\n')
    6988:	ff079be3          	bne	a5,a6,697e <getchar_prompt+0x5a>
D:\Hummingbird\HBird-workspace\pico_test_1\Debug/../src/uart.c:33
	reg_uart_data = c;
    698c:	01c6a823          	sw	t3,16(a3) # 18010 <_etext+0xf7dc>
    6990:	ca9c                	sw	a5,16(a3)
print_str():
D:\Hummingbird\HBird-workspace\pico_test_1\Debug/../src/uart.c:45
	while (*p)
    6992:	00070783          	lb	a5,0(a4)
    6996:	fbe5                	bnez	a5,6986 <getchar_prompt+0x62>
getchar_prompt():
D:\Hummingbird\HBird-workspace\pico_test_1\Debug/../src/uart.c:230
			cycles_begin = cycles_now;
    6998:	85b2                	mv	a1,a2
D:\Hummingbird\HBird-workspace\pico_test_1\Debug/../src/uart.c:232
		}
		c = reg_uart_data;
    699a:	4a9c                	lw	a5,16(a3)
D:\Hummingbird\HBird-workspace\pico_test_1\Debug/../src/uart.c:220
	while (c == -1)
    699c:	fc6784e3          	beq	a5,t1,6964 <getchar_prompt+0x40>
D:\Hummingbird\HBird-workspace\pico_test_1\Debug/../src/uart.c:236
	}

	return c;
}
    69a0:	01879513          	slli	a0,a5,0x18
    69a4:	8561                	srai	a0,a0,0x18
    69a6:	8082                	ret

000069a8 <get_char>:
get_char():
D:\Hummingbird\HBird-workspace\pico_test_1\Debug/../src/uart.c:246
 ** 输入参数：无
 ** 输出参数：无
 ** 返回参数：输出的字符
 ********************************************************************/
char get_char()
{
    69a8:	1141                	addi	sp,sp,-16
D:\Hummingbird\HBird-workspace\pico_test_1\Debug/../src/uart.c:248
//	return getchar_prompt(0);
	put_char(getchar_prompt(0));
    69aa:	4501                	li	a0,0
D:\Hummingbird\HBird-workspace\pico_test_1\Debug/../src/uart.c:246
{
    69ac:	c606                	sw	ra,12(sp)
D:\Hummingbird\HBird-workspace\pico_test_1\Debug/../src/uart.c:248
	put_char(getchar_prompt(0));
    69ae:	3f9d                	jal	6924 <getchar_prompt>
put_char():
D:\Hummingbird\HBird-workspace\pico_test_1\Debug/../src/uart.c:31
	if (c == '\n')
    69b0:	4729                	li	a4,10
get_char():
D:\Hummingbird\HBird-workspace\pico_test_1\Debug/../src/uart.c:248
	put_char(getchar_prompt(0));
    69b2:	87aa                	mv	a5,a0
put_char():
D:\Hummingbird\HBird-workspace\pico_test_1\Debug/../src/uart.c:31
	if (c == '\n')
    69b4:	00e50763          	beq	a0,a4,69c2 <get_char+0x1a>
get_char():
D:\Hummingbird\HBird-workspace\pico_test_1\Debug/../src/uart.c:249
}
    69b8:	40b2                	lw	ra,12(sp)
put_char():
D:\Hummingbird\HBird-workspace\pico_test_1\Debug/../src/uart.c:33
	reg_uart_data = c;
    69ba:	6761                	lui	a4,0x18
    69bc:	cb1c                	sw	a5,16(a4)
get_char():
D:\Hummingbird\HBird-workspace\pico_test_1\Debug/../src/uart.c:249
}
    69be:	0141                	addi	sp,sp,16
    69c0:	8082                	ret
put_char():
D:\Hummingbird\HBird-workspace\pico_test_1\Debug/../src/uart.c:33
	reg_uart_data = c;
    69c2:	6761                	lui	a4,0x18
get_char():
D:\Hummingbird\HBird-workspace\pico_test_1\Debug/../src/uart.c:249
}
    69c4:	40b2                	lw	ra,12(sp)
put_char():
D:\Hummingbird\HBird-workspace\pico_test_1\Debug/../src/uart.c:33
	reg_uart_data = c;
    69c6:	46b5                	li	a3,13
    69c8:	cb14                	sw	a3,16(a4)
    69ca:	6761                	lui	a4,0x18
    69cc:	cb1c                	sw	a5,16(a4)
get_char():
D:\Hummingbird\HBird-workspace\pico_test_1\Debug/../src/uart.c:249
}
    69ce:	0141                	addi	sp,sp,16
    69d0:	8082                	ret
	...

000069d4 <__muldf3>:
__muldf3():
    69d4:	fc010113          	addi	sp,sp,-64
    69d8:	02812c23          	sw	s0,56(sp)
    69dc:	0145d793          	srli	a5,a1,0x14
    69e0:	00100437          	lui	s0,0x100
    69e4:	02912a23          	sw	s1,52(sp)
    69e8:	03312623          	sw	s3,44(sp)
    69ec:	00050493          	mv	s1,a0
    69f0:	fff40413          	addi	s0,s0,-1 # fffff <_etext+0xf77cb>
    69f4:	02112e23          	sw	ra,60(sp)
    69f8:	03212823          	sw	s2,48(sp)
    69fc:	03412423          	sw	s4,40(sp)
    6a00:	03512223          	sw	s5,36(sp)
    6a04:	03612023          	sw	s6,32(sp)
    6a08:	01712e23          	sw	s7,28(sp)
    6a0c:	7ff7f513          	andi	a0,a5,2047
    6a10:	00b47433          	and	s0,s0,a1
    6a14:	01f5d993          	srli	s3,a1,0x1f
    6a18:	1e050e63          	beqz	a0,6c14 <__muldf3+0x240>
    6a1c:	7ff00793          	li	a5,2047
    6a20:	0af50063          	beq	a0,a5,6ac0 <__muldf3+0xec>
    6a24:	00341413          	slli	s0,s0,0x3
    6a28:	008007b7          	lui	a5,0x800
    6a2c:	01d4db13          	srli	s6,s1,0x1d
    6a30:	00f46433          	or	s0,s0,a5
    6a34:	00349a13          	slli	s4,s1,0x3
    6a38:	008b6b33          	or	s6,s6,s0
    6a3c:	c0150a93          	addi	s5,a0,-1023
    6a40:	00000493          	li	s1,0
    6a44:	00000b93          	li	s7,0
    6a48:	0146d893          	srli	a7,a3,0x14
    6a4c:	00100437          	lui	s0,0x100
    6a50:	fff40413          	addi	s0,s0,-1 # fffff <_etext+0xf77cb>
    6a54:	7ff8f893          	andi	a7,a7,2047
    6a58:	00060813          	mv	a6,a2
    6a5c:	00d47433          	and	s0,s0,a3
    6a60:	01f6d913          	srli	s2,a3,0x1f
    6a64:	08088a63          	beqz	a7,6af8 <__muldf3+0x124>
    6a68:	7ff00793          	li	a5,2047
    6a6c:	20f88463          	beq	a7,a5,6c74 <__muldf3+0x2a0>
    6a70:	00800737          	lui	a4,0x800
    6a74:	00341413          	slli	s0,s0,0x3
    6a78:	00e46433          	or	s0,s0,a4
    6a7c:	c0188893          	addi	a7,a7,-1023
    6a80:	01d65713          	srli	a4,a2,0x1d
    6a84:	00876733          	or	a4,a4,s0
    6a88:	00361813          	slli	a6,a2,0x3
    6a8c:	011a8ab3          	add	s5,s5,a7
    6a90:	00000513          	li	a0,0
    6a94:	00f00693          	li	a3,15
    6a98:	0129c7b3          	xor	a5,s3,s2
    6a9c:	001a8593          	addi	a1,s5,1
    6aa0:	1e96e863          	bltu	a3,s1,6c90 <__muldf3+0x2bc>
    6aa4:	00002617          	auipc	a2,0x2
    6aa8:	c5060613          	addi	a2,a2,-944 # 86f4 <ziguang+0x45c>
    6aac:	00249493          	slli	s1,s1,0x2
    6ab0:	00c484b3          	add	s1,s1,a2
    6ab4:	0004a683          	lw	a3,0(s1)
    6ab8:	00c686b3          	add	a3,a3,a2
    6abc:	00068067          	jr	a3
    6ac0:	00946b33          	or	s6,s0,s1
    6ac4:	400b1663          	bnez	s6,6ed0 <__muldf3+0x4fc>
    6ac8:	0146d893          	srli	a7,a3,0x14
    6acc:	00100437          	lui	s0,0x100
    6ad0:	fff40413          	addi	s0,s0,-1 # fffff <_etext+0xf77cb>
    6ad4:	7ff8f893          	andi	a7,a7,2047
    6ad8:	00800493          	li	s1,8
    6adc:	00000a13          	li	s4,0
    6ae0:	7ff00a93          	li	s5,2047
    6ae4:	00200b93          	li	s7,2
    6ae8:	00060813          	mv	a6,a2
    6aec:	00d47433          	and	s0,s0,a3
    6af0:	01f6d913          	srli	s2,a3,0x1f
    6af4:	f6089ae3          	bnez	a7,6a68 <__muldf3+0x94>
    6af8:	00c46733          	or	a4,s0,a2
    6afc:	3e070663          	beqz	a4,6ee8 <__muldf3+0x514>
    6b00:	4a040463          	beqz	s0,6fa8 <__muldf3+0x5d4>
    6b04:	00040513          	mv	a0,s0
    6b08:	00c12423          	sw	a2,8(sp)
    6b0c:	719000ef          	jal	ra,7a24 <__clzsi2>
    6b10:	00812603          	lw	a2,8(sp)
    6b14:	ff550793          	addi	a5,a0,-11
    6b18:	01c00713          	li	a4,28
    6b1c:	44f74a63          	blt	a4,a5,6f70 <__muldf3+0x59c>
    6b20:	01d00713          	li	a4,29
    6b24:	ff850813          	addi	a6,a0,-8
    6b28:	40f70733          	sub	a4,a4,a5
    6b2c:	01041433          	sll	s0,s0,a6
    6b30:	00e65733          	srl	a4,a2,a4
    6b34:	00876733          	or	a4,a4,s0
    6b38:	01061833          	sll	a6,a2,a6
    6b3c:	40aa8533          	sub	a0,s5,a0
    6b40:	c0d50a93          	addi	s5,a0,-1011
    6b44:	00000513          	li	a0,0
    6b48:	f4dff06f          	j	6a94 <__muldf3+0xc0>
    6b4c:	00000613          	li	a2,0
    6b50:	7ff00713          	li	a4,2047
    6b54:	000807b7          	lui	a5,0x80
    6b58:	00000813          	li	a6,0
    6b5c:	001006b7          	lui	a3,0x100
    6b60:	fff68693          	addi	a3,a3,-1 # fffff <_etext+0xf77cb>
    6b64:	00d7f7b3          	and	a5,a5,a3
    6b68:	801006b7          	lui	a3,0x80100
    6b6c:	fff68693          	addi	a3,a3,-1 # 800fffff <_etext+0x800f77cb>
    6b70:	00d7f7b3          	and	a5,a5,a3
    6b74:	03c12083          	lw	ra,60(sp)
    6b78:	03812403          	lw	s0,56(sp)
    6b7c:	01471713          	slli	a4,a4,0x14
    6b80:	01f61693          	slli	a3,a2,0x1f
    6b84:	00e7e7b3          	or	a5,a5,a4
    6b88:	00d7e7b3          	or	a5,a5,a3
    6b8c:	03412483          	lw	s1,52(sp)
    6b90:	03012903          	lw	s2,48(sp)
    6b94:	02c12983          	lw	s3,44(sp)
    6b98:	02812a03          	lw	s4,40(sp)
    6b9c:	02412a83          	lw	s5,36(sp)
    6ba0:	02012b03          	lw	s6,32(sp)
    6ba4:	01c12b83          	lw	s7,28(sp)
    6ba8:	00080513          	mv	a0,a6
    6bac:	00078593          	mv	a1,a5
    6bb0:	04010113          	addi	sp,sp,64
    6bb4:	00008067          	ret
    6bb8:	00090793          	mv	a5,s2
    6bbc:	00200693          	li	a3,2
    6bc0:	02d51863          	bne	a0,a3,6bf0 <__muldf3+0x21c>
    6bc4:	00078613          	mv	a2,a5
    6bc8:	7ff00713          	li	a4,2047
    6bcc:	00000793          	li	a5,0
    6bd0:	00000813          	li	a6,0
    6bd4:	f89ff06f          	j	6b5c <__muldf3+0x188>
    6bd8:	00098793          	mv	a5,s3
    6bdc:	000b8513          	mv	a0,s7
    6be0:	00200693          	li	a3,2
    6be4:	000b0713          	mv	a4,s6
    6be8:	000a0813          	mv	a6,s4
    6bec:	fcd50ce3          	beq	a0,a3,6bc4 <__muldf3+0x1f0>
    6bf0:	00300693          	li	a3,3
    6bf4:	f4d50ce3          	beq	a0,a3,6b4c <__muldf3+0x178>
    6bf8:	00100693          	li	a3,1
    6bfc:	24d51a63          	bne	a0,a3,6e50 <__muldf3+0x47c>
    6c00:	00078613          	mv	a2,a5
    6c04:	00000713          	li	a4,0
    6c08:	00000793          	li	a5,0
    6c0c:	00000813          	li	a6,0
    6c10:	f4dff06f          	j	6b5c <__muldf3+0x188>
    6c14:	00946b33          	or	s6,s0,s1
    6c18:	2a0b0263          	beqz	s6,6ebc <__muldf3+0x4e8>
    6c1c:	00d12623          	sw	a3,12(sp)
    6c20:	00c12423          	sw	a2,8(sp)
    6c24:	36040663          	beqz	s0,6f90 <__muldf3+0x5bc>
    6c28:	00040513          	mv	a0,s0
    6c2c:	5f9000ef          	jal	ra,7a24 <__clzsi2>
    6c30:	00812603          	lw	a2,8(sp)
    6c34:	00c12683          	lw	a3,12(sp)
    6c38:	ff550793          	addi	a5,a0,-11
    6c3c:	01c00713          	li	a4,28
    6c40:	34f74063          	blt	a4,a5,6f80 <__muldf3+0x5ac>
    6c44:	01d00b13          	li	s6,29
    6c48:	ff850a13          	addi	s4,a0,-8
    6c4c:	40fb0b33          	sub	s6,s6,a5
    6c50:	01441433          	sll	s0,s0,s4
    6c54:	0164db33          	srl	s6,s1,s6
    6c58:	008b6b33          	or	s6,s6,s0
    6c5c:	01449a33          	sll	s4,s1,s4
    6c60:	c0d00a93          	li	s5,-1011
    6c64:	40aa8ab3          	sub	s5,s5,a0
    6c68:	00000493          	li	s1,0
    6c6c:	00000b93          	li	s7,0
    6c70:	dd9ff06f          	j	6a48 <__muldf3+0x74>
    6c74:	00c46733          	or	a4,s0,a2
    6c78:	7ffa8a93          	addi	s5,s5,2047
    6c7c:	26071e63          	bnez	a4,6ef8 <__muldf3+0x524>
    6c80:	0024e493          	ori	s1,s1,2
    6c84:	00000813          	li	a6,0
    6c88:	00200513          	li	a0,2
    6c8c:	e09ff06f          	j	6a94 <__muldf3+0xc0>
    6c90:	00010eb7          	lui	t4,0x10
    6c94:	fffe8613          	addi	a2,t4,-1 # ffff <_etext+0x77cb>
    6c98:	010a5693          	srli	a3,s4,0x10
    6c9c:	01085313          	srli	t1,a6,0x10
    6ca0:	00ca7a33          	and	s4,s4,a2
    6ca4:	00c87833          	and	a6,a6,a2
    6ca8:	03480633          	mul	a2,a6,s4
    6cac:	03068e33          	mul	t3,a3,a6
    6cb0:	01065513          	srli	a0,a2,0x10
    6cb4:	034308b3          	mul	a7,t1,s4
    6cb8:	01c888b3          	add	a7,a7,t3
    6cbc:	01150533          	add	a0,a0,a7
    6cc0:	02668f33          	mul	t5,a3,t1
    6cc4:	01c57463          	bleu	t3,a0,6ccc <__muldf3+0x2f8>
    6cc8:	01df0f33          	add	t5,t5,t4
    6ccc:	00010e37          	lui	t3,0x10
    6cd0:	fffe0893          	addi	a7,t3,-1 # ffff <_etext+0x77cb>
    6cd4:	011773b3          	and	t2,a4,a7
    6cd8:	01075293          	srli	t0,a4,0x10
    6cdc:	01157733          	and	a4,a0,a7
    6ce0:	011678b3          	and	a7,a2,a7
    6ce4:	01071713          	slli	a4,a4,0x10
    6ce8:	03438633          	mul	a2,t2,s4
    6cec:	011708b3          	add	a7,a4,a7
    6cf0:	01055513          	srli	a0,a0,0x10
    6cf4:	02768eb3          	mul	t4,a3,t2
    6cf8:	01065713          	srli	a4,a2,0x10
    6cfc:	03428a33          	mul	s4,t0,s4
    6d00:	01da0a33          	add	s4,s4,t4
    6d04:	01470a33          	add	s4,a4,s4
    6d08:	025686b3          	mul	a3,a3,t0
    6d0c:	01da7463          	bleu	t4,s4,6d14 <__muldf3+0x340>
    6d10:	01c686b3          	add	a3,a3,t3
    6d14:	00010937          	lui	s2,0x10
    6d18:	fff90713          	addi	a4,s2,-1 # ffff <_etext+0x77cb>
    6d1c:	010b5f93          	srli	t6,s6,0x10
    6d20:	00eb7433          	and	s0,s6,a4
    6d24:	00ea7eb3          	and	t4,s4,a4
    6d28:	00e67633          	and	a2,a2,a4
    6d2c:	010e9e93          	slli	t4,t4,0x10
    6d30:	028804b3          	mul	s1,a6,s0
    6d34:	010a5a13          	srli	s4,s4,0x10
    6d38:	00ce8eb3          	add	t4,t4,a2
    6d3c:	00da0a33          	add	s4,s4,a3
    6d40:	01d50533          	add	a0,a0,t4
    6d44:	02830733          	mul	a4,t1,s0
    6d48:	0104de13          	srli	t3,s1,0x10
    6d4c:	030f8833          	mul	a6,t6,a6
    6d50:	01070733          	add	a4,a4,a6
    6d54:	00ee0e33          	add	t3,t3,a4
    6d58:	03f30333          	mul	t1,t1,t6
    6d5c:	010e7463          	bleu	a6,t3,6d64 <__muldf3+0x390>
    6d60:	01230333          	add	t1,t1,s2
    6d64:	00010937          	lui	s2,0x10
    6d68:	fff90613          	addi	a2,s2,-1 # ffff <_etext+0x77cb>
    6d6c:	00ce76b3          	and	a3,t3,a2
    6d70:	010e5e13          	srli	t3,t3,0x10
    6d74:	006e0333          	add	t1,t3,t1
    6d78:	01069693          	slli	a3,a3,0x10
    6d7c:	00c4f4b3          	and	s1,s1,a2
    6d80:	02838e33          	mul	t3,t2,s0
    6d84:	00968633          	add	a2,a3,s1
    6d88:	027f8833          	mul	a6,t6,t2
    6d8c:	010e5713          	srli	a4,t3,0x10
    6d90:	02828433          	mul	s0,t0,s0
    6d94:	01040433          	add	s0,s0,a6
    6d98:	00870433          	add	s0,a4,s0
    6d9c:	03f28fb3          	mul	t6,t0,t6
    6da0:	01047463          	bleu	a6,s0,6da8 <__muldf3+0x3d4>
    6da4:	012f8fb3          	add	t6,t6,s2
    6da8:	00010737          	lui	a4,0x10
    6dac:	fff70713          	addi	a4,a4,-1 # ffff <_etext+0x77cb>
    6db0:	00e476b3          	and	a3,s0,a4
    6db4:	01069693          	slli	a3,a3,0x10
    6db8:	00ee7733          	and	a4,t3,a4
    6dbc:	01e50533          	add	a0,a0,t5
    6dc0:	00e686b3          	add	a3,a3,a4
    6dc4:	01d53eb3          	sltu	t4,a0,t4
    6dc8:	01468733          	add	a4,a3,s4
    6dcc:	00c50533          	add	a0,a0,a2
    6dd0:	01d70833          	add	a6,a4,t4
    6dd4:	00c536b3          	sltu	a3,a0,a2
    6dd8:	00680e33          	add	t3,a6,t1
    6ddc:	00de0633          	add	a2,t3,a3
    6de0:	01d83eb3          	sltu	t4,a6,t4
    6de4:	01473733          	sltu	a4,a4,s4
    6de8:	01d76733          	or	a4,a4,t4
    6dec:	01045413          	srli	s0,s0,0x10
    6df0:	006e3333          	sltu	t1,t3,t1
    6df4:	00d636b3          	sltu	a3,a2,a3
    6df8:	00d366b3          	or	a3,t1,a3
    6dfc:	00870733          	add	a4,a4,s0
    6e00:	00d70733          	add	a4,a4,a3
    6e04:	00951813          	slli	a6,a0,0x9
    6e08:	01186833          	or	a6,a6,a7
    6e0c:	01f70733          	add	a4,a4,t6
    6e10:	00971713          	slli	a4,a4,0x9
    6e14:	01765893          	srli	a7,a2,0x17
    6e18:	01003833          	snez	a6,a6
    6e1c:	01755513          	srli	a0,a0,0x17
    6e20:	00961693          	slli	a3,a2,0x9
    6e24:	00a86833          	or	a6,a6,a0
    6e28:	01176733          	or	a4,a4,a7
    6e2c:	00d86833          	or	a6,a6,a3
    6e30:	00771693          	slli	a3,a4,0x7
    6e34:	1806d663          	bgez	a3,6fc0 <__muldf3+0x5ec>
    6e38:	00185693          	srli	a3,a6,0x1
    6e3c:	00187813          	andi	a6,a6,1
    6e40:	01f71613          	slli	a2,a4,0x1f
    6e44:	0106e833          	or	a6,a3,a6
    6e48:	00c86833          	or	a6,a6,a2
    6e4c:	00175713          	srli	a4,a4,0x1
    6e50:	3ff58693          	addi	a3,a1,1023
    6e54:	00078613          	mv	a2,a5
    6e58:	0ad05863          	blez	a3,6f08 <__muldf3+0x534>
    6e5c:	00787793          	andi	a5,a6,7
    6e60:	02078063          	beqz	a5,6e80 <__muldf3+0x4ac>
    6e64:	00f87793          	andi	a5,a6,15
    6e68:	00400513          	li	a0,4
    6e6c:	00a78a63          	beq	a5,a0,6e80 <__muldf3+0x4ac>
    6e70:	00480793          	addi	a5,a6,4
    6e74:	0107b833          	sltu	a6,a5,a6
    6e78:	01070733          	add	a4,a4,a6
    6e7c:	00078813          	mv	a6,a5
    6e80:	00771793          	slli	a5,a4,0x7
    6e84:	0007da63          	bgez	a5,6e98 <__muldf3+0x4c4>
    6e88:	ff0007b7          	lui	a5,0xff000
    6e8c:	fff78793          	addi	a5,a5,-1 # feffffff <_etext+0xfeff77cb>
    6e90:	00f77733          	and	a4,a4,a5
    6e94:	40058693          	addi	a3,a1,1024
    6e98:	7fe00793          	li	a5,2046
    6e9c:	12d7c663          	blt	a5,a3,6fc8 <__muldf3+0x5f4>
    6ea0:	00385793          	srli	a5,a6,0x3
    6ea4:	01d71813          	slli	a6,a4,0x1d
    6ea8:	00971713          	slli	a4,a4,0x9
    6eac:	00f86833          	or	a6,a6,a5
    6eb0:	00c75793          	srli	a5,a4,0xc
    6eb4:	7ff6f713          	andi	a4,a3,2047
    6eb8:	ca5ff06f          	j	6b5c <__muldf3+0x188>
    6ebc:	00400493          	li	s1,4
    6ec0:	00000a13          	li	s4,0
    6ec4:	00000a93          	li	s5,0
    6ec8:	00100b93          	li	s7,1
    6ecc:	b7dff06f          	j	6a48 <__muldf3+0x74>
    6ed0:	00048a13          	mv	s4,s1
    6ed4:	00040b13          	mv	s6,s0
    6ed8:	00c00493          	li	s1,12
    6edc:	7ff00a93          	li	s5,2047
    6ee0:	00300b93          	li	s7,3
    6ee4:	b65ff06f          	j	6a48 <__muldf3+0x74>
    6ee8:	0014e493          	ori	s1,s1,1
    6eec:	00000813          	li	a6,0
    6ef0:	00100513          	li	a0,1
    6ef4:	ba1ff06f          	j	6a94 <__muldf3+0xc0>
    6ef8:	0034e493          	ori	s1,s1,3
    6efc:	00040713          	mv	a4,s0
    6f00:	00300513          	li	a0,3
    6f04:	b91ff06f          	j	6a94 <__muldf3+0xc0>
    6f08:	00100793          	li	a5,1
    6f0c:	40d787b3          	sub	a5,a5,a3
    6f10:	0c069463          	bnez	a3,6fd8 <__muldf3+0x604>
    6f14:	41e58593          	addi	a1,a1,1054
    6f18:	00b816b3          	sll	a3,a6,a1
    6f1c:	00b715b3          	sll	a1,a4,a1
    6f20:	00f85833          	srl	a6,a6,a5
    6f24:	00d036b3          	snez	a3,a3
    6f28:	0105e5b3          	or	a1,a1,a6
    6f2c:	00d5e5b3          	or	a1,a1,a3
    6f30:	0075f693          	andi	a3,a1,7
    6f34:	00f75733          	srl	a4,a4,a5
    6f38:	02068063          	beqz	a3,6f58 <__muldf3+0x584>
    6f3c:	00f5f793          	andi	a5,a1,15
    6f40:	00400693          	li	a3,4
    6f44:	00d78a63          	beq	a5,a3,6f58 <__muldf3+0x584>
    6f48:	00058813          	mv	a6,a1
    6f4c:	00480593          	addi	a1,a6,4
    6f50:	0105b833          	sltu	a6,a1,a6
    6f54:	01070733          	add	a4,a4,a6
    6f58:	00871793          	slli	a5,a4,0x8
    6f5c:	0e07d263          	bgez	a5,7040 <__muldf3+0x66c>
    6f60:	00100713          	li	a4,1
    6f64:	00000793          	li	a5,0
    6f68:	00000813          	li	a6,0
    6f6c:	bf1ff06f          	j	6b5c <__muldf3+0x188>
    6f70:	fd850713          	addi	a4,a0,-40
    6f74:	00e61733          	sll	a4,a2,a4
    6f78:	00000813          	li	a6,0
    6f7c:	bc1ff06f          	j	6b3c <__muldf3+0x168>
    6f80:	fd850413          	addi	s0,a0,-40
    6f84:	00849b33          	sll	s6,s1,s0
    6f88:	00000a13          	li	s4,0
    6f8c:	cd5ff06f          	j	6c60 <__muldf3+0x28c>
    6f90:	00048513          	mv	a0,s1
    6f94:	291000ef          	jal	ra,7a24 <__clzsi2>
    6f98:	02050513          	addi	a0,a0,32
    6f9c:	00c12683          	lw	a3,12(sp)
    6fa0:	00812603          	lw	a2,8(sp)
    6fa4:	c95ff06f          	j	6c38 <__muldf3+0x264>
    6fa8:	00060513          	mv	a0,a2
    6fac:	00c12423          	sw	a2,8(sp)
    6fb0:	275000ef          	jal	ra,7a24 <__clzsi2>
    6fb4:	02050513          	addi	a0,a0,32
    6fb8:	00812603          	lw	a2,8(sp)
    6fbc:	b59ff06f          	j	6b14 <__muldf3+0x140>
    6fc0:	000a8593          	mv	a1,s5
    6fc4:	e8dff06f          	j	6e50 <__muldf3+0x47c>
    6fc8:	7ff00713          	li	a4,2047
    6fcc:	00000793          	li	a5,0
    6fd0:	00000813          	li	a6,0
    6fd4:	b89ff06f          	j	6b5c <__muldf3+0x188>
    6fd8:	03800513          	li	a0,56
    6fdc:	00f55a63          	ble	a5,a0,6ff0 <__muldf3+0x61c>
    6fe0:	00000713          	li	a4,0
    6fe4:	00000793          	li	a5,0
    6fe8:	00000813          	li	a6,0
    6fec:	b71ff06f          	j	6b5c <__muldf3+0x188>
    6ff0:	01f00513          	li	a0,31
    6ff4:	f2f550e3          	ble	a5,a0,6f14 <__muldf3+0x540>
    6ff8:	fe100513          	li	a0,-31
    6ffc:	40d506b3          	sub	a3,a0,a3
    7000:	02000513          	li	a0,32
    7004:	00d756b3          	srl	a3,a4,a3
    7008:	00a78863          	beq	a5,a0,7018 <__muldf3+0x644>
    700c:	43e58593          	addi	a1,a1,1086
    7010:	00b71733          	sll	a4,a4,a1
    7014:	00e86833          	or	a6,a6,a4
    7018:	01003833          	snez	a6,a6
    701c:	00d86833          	or	a6,a6,a3
    7020:	00787713          	andi	a4,a6,7
    7024:	00000793          	li	a5,0
    7028:	02070463          	beqz	a4,7050 <__muldf3+0x67c>
    702c:	00f87793          	andi	a5,a6,15
    7030:	00400693          	li	a3,4
    7034:	00000713          	li	a4,0
    7038:	00080593          	mv	a1,a6
    703c:	f0d798e3          	bne	a5,a3,6f4c <__muldf3+0x578>
    7040:	00971693          	slli	a3,a4,0x9
    7044:	00c6d793          	srli	a5,a3,0xc
    7048:	01d71713          	slli	a4,a4,0x1d
    704c:	00058813          	mv	a6,a1
    7050:	00385813          	srli	a6,a6,0x3
    7054:	00e86833          	or	a6,a6,a4
    7058:	00000713          	li	a4,0
    705c:	b01ff06f          	j	6b5c <__muldf3+0x188>

00007060 <__subdf3>:
__subdf3():
    7060:	00100837          	lui	a6,0x100
    7064:	fff80813          	addi	a6,a6,-1 # fffff <_etext+0xf77cb>
    7068:	fe010113          	addi	sp,sp,-32
    706c:	00b877b3          	and	a5,a6,a1
    7070:	0146d893          	srli	a7,a3,0x14
    7074:	00d87833          	and	a6,a6,a3
    7078:	00379313          	slli	t1,a5,0x3
    707c:	00812c23          	sw	s0,24(sp)
    7080:	01d55793          	srli	a5,a0,0x1d
    7084:	00912a23          	sw	s1,20(sp)
    7088:	01212823          	sw	s2,16(sp)
    708c:	0145d493          	srli	s1,a1,0x14
    7090:	01d65913          	srli	s2,a2,0x1d
    7094:	00381813          	slli	a6,a6,0x3
    7098:	00112e23          	sw	ra,28(sp)
    709c:	01312623          	sw	s3,12(sp)
    70a0:	7ff8f893          	andi	a7,a7,2047
    70a4:	7ff00713          	li	a4,2047
    70a8:	01f5d413          	srli	s0,a1,0x1f
    70ac:	7ff4f493          	andi	s1,s1,2047
    70b0:	0067e7b3          	or	a5,a5,t1
    70b4:	00351513          	slli	a0,a0,0x3
    70b8:	01f6d693          	srli	a3,a3,0x1f
    70bc:	010965b3          	or	a1,s2,a6
    70c0:	00361613          	slli	a2,a2,0x3
    70c4:	0ae88663          	beq	a7,a4,7170 <__subdf3+0x110>
    70c8:	0016c693          	xori	a3,a3,1
    70cc:	41148833          	sub	a6,s1,a7
    70d0:	0a868863          	beq	a3,s0,7180 <__subdf3+0x120>
    70d4:	0f005463          	blez	a6,71bc <__subdf3+0x15c>
    70d8:	12089463          	bnez	a7,7200 <__subdf3+0x1a0>
    70dc:	00c5e733          	or	a4,a1,a2
    70e0:	24071c63          	bnez	a4,7338 <__subdf3+0x2d8>
    70e4:	7ff00713          	li	a4,2047
    70e8:	38e80e63          	beq	a6,a4,7484 <__subdf3+0x424>
    70ec:	01d79693          	slli	a3,a5,0x1d
    70f0:	00355513          	srli	a0,a0,0x3
    70f4:	00d569b3          	or	s3,a0,a3
    70f8:	0037d793          	srli	a5,a5,0x3
    70fc:	7ff00713          	li	a4,2047
    7100:	56e80063          	beq	a6,a4,7660 <__subdf3+0x600>
    7104:	00100737          	lui	a4,0x100
    7108:	fff70713          	addi	a4,a4,-1 # fffff <_etext+0xf77cb>
    710c:	00e7f7b3          	and	a5,a5,a4
    7110:	7ff87813          	andi	a6,a6,2047
    7114:	00147593          	andi	a1,s0,1
    7118:	00100737          	lui	a4,0x100
    711c:	fff70713          	addi	a4,a4,-1 # fffff <_etext+0xf77cb>
    7120:	00e7f7b3          	and	a5,a5,a4
    7124:	80100737          	lui	a4,0x80100
    7128:	fff70713          	addi	a4,a4,-1 # 800fffff <_etext+0x800f77cb>
    712c:	00e7f7b3          	and	a5,a5,a4
    7130:	01481813          	slli	a6,a6,0x14
    7134:	80000737          	lui	a4,0x80000
    7138:	01c12083          	lw	ra,28(sp)
    713c:	01812403          	lw	s0,24(sp)
    7140:	0107e7b3          	or	a5,a5,a6
    7144:	fff74713          	not	a4,a4
    7148:	01f59593          	slli	a1,a1,0x1f
    714c:	00e7f7b3          	and	a5,a5,a4
    7150:	00b7e7b3          	or	a5,a5,a1
    7154:	00098513          	mv	a0,s3
    7158:	01412483          	lw	s1,20(sp)
    715c:	01012903          	lw	s2,16(sp)
    7160:	00c12983          	lw	s3,12(sp)
    7164:	00078593          	mv	a1,a5
    7168:	02010113          	addi	sp,sp,32
    716c:	00008067          	ret
    7170:	00c5e733          	or	a4,a1,a2
    7174:	f4070ae3          	beqz	a4,70c8 <__subdf3+0x68>
    7178:	41148833          	sub	a6,s1,a7
    717c:	f4869ce3          	bne	a3,s0,70d4 <__subdf3+0x74>
    7180:	33005063          	blez	a6,74a0 <__subdf3+0x440>
    7184:	0c089263          	bnez	a7,7248 <__subdf3+0x1e8>
    7188:	00c5e733          	or	a4,a1,a2
    718c:	f4070ce3          	beqz	a4,70e4 <__subdf3+0x84>
    7190:	fff80713          	addi	a4,a6,-1
    7194:	48071c63          	bnez	a4,762c <__subdf3+0x5cc>
    7198:	00c509b3          	add	s3,a0,a2
    719c:	00b78933          	add	s2,a5,a1
    71a0:	00a9b533          	sltu	a0,s3,a0
    71a4:	00a90333          	add	t1,s2,a0
    71a8:	00831793          	slli	a5,t1,0x8
    71ac:	00100493          	li	s1,1
    71b0:	2a07d663          	bgez	a5,745c <__subdf3+0x3fc>
    71b4:	00200493          	li	s1,2
    71b8:	0f80006f          	j	72b0 <__subdf3+0x250>
    71bc:	22081063          	bnez	a6,73dc <__subdf3+0x37c>
    71c0:	00148713          	addi	a4,s1,1
    71c4:	7ff77713          	andi	a4,a4,2047
    71c8:	00100813          	li	a6,1
    71cc:	36e85663          	ble	a4,a6,7538 <__subdf3+0x4d8>
    71d0:	40c509b3          	sub	s3,a0,a2
    71d4:	01353733          	sltu	a4,a0,s3
    71d8:	40b78933          	sub	s2,a5,a1
    71dc:	40e90933          	sub	s2,s2,a4
    71e0:	00891713          	slli	a4,s2,0x8
    71e4:	3a074a63          	bltz	a4,7598 <__subdf3+0x538>
    71e8:	0129e7b3          	or	a5,s3,s2
    71ec:	16079e63          	bnez	a5,7368 <__subdf3+0x308>
    71f0:	00000413          	li	s0,0
    71f4:	00000993          	li	s3,0
    71f8:	00040813          	mv	a6,s0
    71fc:	f09ff06f          	j	7104 <__subdf3+0xa4>
    7200:	008006b7          	lui	a3,0x800
    7204:	7ff00713          	li	a4,2047
    7208:	00d5e5b3          	or	a1,a1,a3
    720c:	22e48c63          	beq	s1,a4,7444 <__subdf3+0x3e4>
    7210:	03800713          	li	a4,56
    7214:	31074663          	blt	a4,a6,7520 <__subdf3+0x4c0>
    7218:	01f00713          	li	a4,31
    721c:	3b075063          	ble	a6,a4,75bc <__subdf3+0x55c>
    7220:	02000713          	li	a4,32
    7224:	0105d6b3          	srl	a3,a1,a6
    7228:	00e80a63          	beq	a6,a4,723c <__subdf3+0x1dc>
    722c:	04000913          	li	s2,64
    7230:	41090833          	sub	a6,s2,a6
    7234:	01059933          	sll	s2,a1,a6
    7238:	01266633          	or	a2,a2,s2
    723c:	00c03633          	snez	a2,a2
    7240:	00d666b3          	or	a3,a2,a3
    7244:	2e40006f          	j	7528 <__subdf3+0x4c8>
    7248:	008006b7          	lui	a3,0x800
    724c:	7ff00713          	li	a4,2047
    7250:	00d5e5b3          	or	a1,a1,a3
    7254:	1ee48863          	beq	s1,a4,7444 <__subdf3+0x3e4>
    7258:	03800713          	li	a4,56
    725c:	35074a63          	blt	a4,a6,75b0 <__subdf3+0x550>
    7260:	01f00713          	li	a4,31
    7264:	4b074663          	blt	a4,a6,7710 <__subdf3+0x6b0>
    7268:	02000713          	li	a4,32
    726c:	41070733          	sub	a4,a4,a6
    7270:	010656b3          	srl	a3,a2,a6
    7274:	00e599b3          	sll	s3,a1,a4
    7278:	00e61633          	sll	a2,a2,a4
    727c:	00d9e9b3          	or	s3,s3,a3
    7280:	0105d933          	srl	s2,a1,a6
    7284:	00c036b3          	snez	a3,a2
    7288:	00d9e6b3          	or	a3,s3,a3
    728c:	012787b3          	add	a5,a5,s2
    7290:	00a689b3          	add	s3,a3,a0
    7294:	00a9b533          	sltu	a0,s3,a0
    7298:	00f50333          	add	t1,a0,a5
    729c:	00831793          	slli	a5,t1,0x8
    72a0:	1a07de63          	bgez	a5,745c <__subdf3+0x3fc>
    72a4:	00148493          	addi	s1,s1,1
    72a8:	7ff00793          	li	a5,2047
    72ac:	1ef48063          	beq	s1,a5,748c <__subdf3+0x42c>
    72b0:	ff800937          	lui	s2,0xff800
    72b4:	fff90913          	addi	s2,s2,-1 # ff7fffff <_etext+0xff7f77cb>
    72b8:	0019d793          	srli	a5,s3,0x1
    72bc:	01237933          	and	s2,t1,s2
    72c0:	0019f693          	andi	a3,s3,1
    72c4:	00d7e6b3          	or	a3,a5,a3
    72c8:	01f91993          	slli	s3,s2,0x1f
    72cc:	00d9e9b3          	or	s3,s3,a3
    72d0:	00195313          	srli	t1,s2,0x1
    72d4:	0079f793          	andi	a5,s3,7
    72d8:	02078063          	beqz	a5,72f8 <__subdf3+0x298>
    72dc:	00f9f593          	andi	a1,s3,15
    72e0:	00400793          	li	a5,4
    72e4:	00f58a63          	beq	a1,a5,72f8 <__subdf3+0x298>
    72e8:	00498713          	addi	a4,s3,4
    72ec:	013736b3          	sltu	a3,a4,s3
    72f0:	00d30333          	add	t1,t1,a3
    72f4:	00070993          	mv	s3,a4
    72f8:	00831793          	slli	a5,t1,0x8
    72fc:	5c07da63          	bgez	a5,78d0 <__subdf3+0x870>
    7300:	00148813          	addi	a6,s1,1
    7304:	7ff00793          	li	a5,2047
    7308:	00147593          	andi	a1,s0,1
    730c:	18f80263          	beq	a6,a5,7490 <__subdf3+0x430>
    7310:	ff800737          	lui	a4,0xff800
    7314:	fff70713          	addi	a4,a4,-1 # ff7fffff <_etext+0xff7f77cb>
    7318:	00e37733          	and	a4,t1,a4
    731c:	0039d693          	srli	a3,s3,0x3
    7320:	00971793          	slli	a5,a4,0x9
    7324:	01d71993          	slli	s3,a4,0x1d
    7328:	00d9e9b3          	or	s3,s3,a3
    732c:	00c7d793          	srli	a5,a5,0xc
    7330:	7ff87813          	andi	a6,a6,2047
    7334:	de5ff06f          	j	7118 <__subdf3+0xb8>
    7338:	fff80713          	addi	a4,a6,-1
    733c:	14071063          	bnez	a4,747c <__subdf3+0x41c>
    7340:	40c509b3          	sub	s3,a0,a2
    7344:	40b78933          	sub	s2,a5,a1
    7348:	01353533          	sltu	a0,a0,s3
    734c:	40a90333          	sub	t1,s2,a0
    7350:	00100493          	li	s1,1
    7354:	00831793          	slli	a5,t1,0x8
    7358:	1007d263          	bgez	a5,745c <__subdf3+0x3fc>
    735c:	00800937          	lui	s2,0x800
    7360:	fff90913          	addi	s2,s2,-1 # 7fffff <_etext+0x7f77cb>
    7364:	01237933          	and	s2,t1,s2
    7368:	1a090463          	beqz	s2,7510 <__subdf3+0x4b0>
    736c:	00090513          	mv	a0,s2
    7370:	6b4000ef          	jal	ra,7a24 <__clzsi2>
    7374:	ff850813          	addi	a6,a0,-8
    7378:	01f00793          	li	a5,31
    737c:	1707c663          	blt	a5,a6,74e8 <__subdf3+0x488>
    7380:	02000313          	li	t1,32
    7384:	41030333          	sub	t1,t1,a6
    7388:	0069d333          	srl	t1,s3,t1
    738c:	01091933          	sll	s2,s2,a6
    7390:	01236933          	or	s2,t1,s2
    7394:	010999b3          	sll	s3,s3,a6
    7398:	16984063          	blt	a6,s1,74f8 <__subdf3+0x498>
    739c:	40980833          	sub	a6,a6,s1
    73a0:	00180713          	addi	a4,a6,1
    73a4:	01f00793          	li	a5,31
    73a8:	1ae7cc63          	blt	a5,a4,7560 <__subdf3+0x500>
    73ac:	02000793          	li	a5,32
    73b0:	40e787b3          	sub	a5,a5,a4
    73b4:	00f996b3          	sll	a3,s3,a5
    73b8:	00e9d633          	srl	a2,s3,a4
    73bc:	00f917b3          	sll	a5,s2,a5
    73c0:	00c7e7b3          	or	a5,a5,a2
    73c4:	00d036b3          	snez	a3,a3
    73c8:	00d7e9b3          	or	s3,a5,a3
    73cc:	00e95333          	srl	t1,s2,a4
    73d0:	0079f793          	andi	a5,s3,7
    73d4:	00000493          	li	s1,0
    73d8:	f01ff06f          	j	72d8 <__subdf3+0x278>
    73dc:	20048663          	beqz	s1,75e8 <__subdf3+0x588>
    73e0:	7ff00713          	li	a4,2047
    73e4:	30e88863          	beq	a7,a4,76f4 <__subdf3+0x694>
    73e8:	00800737          	lui	a4,0x800
    73ec:	41000833          	neg	a6,a6
    73f0:	00e7e7b3          	or	a5,a5,a4
    73f4:	03800713          	li	a4,56
    73f8:	3b074063          	blt	a4,a6,7798 <__subdf3+0x738>
    73fc:	01f00713          	li	a4,31
    7400:	43074e63          	blt	a4,a6,783c <__subdf3+0x7dc>
    7404:	02000713          	li	a4,32
    7408:	41070733          	sub	a4,a4,a6
    740c:	00e799b3          	sll	s3,a5,a4
    7410:	01055333          	srl	t1,a0,a6
    7414:	00e51733          	sll	a4,a0,a4
    7418:	0069e9b3          	or	s3,s3,t1
    741c:	00e03733          	snez	a4,a4
    7420:	0107d833          	srl	a6,a5,a6
    7424:	00e9e9b3          	or	s3,s3,a4
    7428:	410585b3          	sub	a1,a1,a6
    742c:	413609b3          	sub	s3,a2,s3
    7430:	01363633          	sltu	a2,a2,s3
    7434:	40c58333          	sub	t1,a1,a2
    7438:	00088493          	mv	s1,a7
    743c:	00068413          	mv	s0,a3
    7440:	f15ff06f          	j	7354 <__subdf3+0x2f4>
    7444:	00a7e733          	or	a4,a5,a0
    7448:	04070263          	beqz	a4,748c <__subdf3+0x42c>
    744c:	7ff00813          	li	a6,2047
    7450:	c9dff06f          	j	70ec <__subdf3+0x8c>
    7454:	0069e7b3          	or	a5,s3,t1
    7458:	d8078ce3          	beqz	a5,71f0 <__subdf3+0x190>
    745c:	0079f793          	andi	a5,s3,7
    7460:	e6079ee3          	bnez	a5,72dc <__subdf3+0x27c>
    7464:	01d31793          	slli	a5,t1,0x1d
    7468:	0039d693          	srli	a3,s3,0x3
    746c:	00f6e9b3          	or	s3,a3,a5
    7470:	00048813          	mv	a6,s1
    7474:	00335793          	srli	a5,t1,0x3
    7478:	c85ff06f          	j	70fc <__subdf3+0x9c>
    747c:	7ff00693          	li	a3,2047
    7480:	18d81663          	bne	a6,a3,760c <__subdf3+0x5ac>
    7484:	00a7e733          	or	a4,a5,a0
    7488:	c60712e3          	bnez	a4,70ec <__subdf3+0x8c>
    748c:	00147593          	andi	a1,s0,1
    7490:	7ff00813          	li	a6,2047
    7494:	00000793          	li	a5,0
    7498:	00000993          	li	s3,0
    749c:	c7dff06f          	j	7118 <__subdf3+0xb8>
    74a0:	18081e63          	bnez	a6,763c <__subdf3+0x5dc>
    74a4:	00148893          	addi	a7,s1,1
    74a8:	7ff8f813          	andi	a6,a7,2047
    74ac:	00100713          	li	a4,1
    74b0:	1d075663          	ble	a6,a4,767c <__subdf3+0x61c>
    74b4:	7ff00713          	li	a4,2047
    74b8:	fce88ae3          	beq	a7,a4,748c <__subdf3+0x42c>
    74bc:	00c50633          	add	a2,a0,a2
    74c0:	00b78933          	add	s2,a5,a1
    74c4:	00a63533          	sltu	a0,a2,a0
    74c8:	00a90533          	add	a0,s2,a0
    74cc:	01f51693          	slli	a3,a0,0x1f
    74d0:	00165613          	srli	a2,a2,0x1
    74d4:	00c6e9b3          	or	s3,a3,a2
    74d8:	00155313          	srli	t1,a0,0x1
    74dc:	0079f793          	andi	a5,s3,7
    74e0:	00088493          	mv	s1,a7
    74e4:	df5ff06f          	j	72d8 <__subdf3+0x278>
    74e8:	fd850913          	addi	s2,a0,-40
    74ec:	01299933          	sll	s2,s3,s2
    74f0:	00000993          	li	s3,0
    74f4:	ea9854e3          	ble	s1,a6,739c <__subdf3+0x33c>
    74f8:	ff800737          	lui	a4,0xff800
    74fc:	fff70713          	addi	a4,a4,-1 # ff7fffff <_etext+0xff7f77cb>
    7500:	410484b3          	sub	s1,s1,a6
    7504:	00e97333          	and	t1,s2,a4
    7508:	0079f793          	andi	a5,s3,7
    750c:	dcdff06f          	j	72d8 <__subdf3+0x278>
    7510:	00098513          	mv	a0,s3
    7514:	510000ef          	jal	ra,7a24 <__clzsi2>
    7518:	02050513          	addi	a0,a0,32
    751c:	e59ff06f          	j	7374 <__subdf3+0x314>
    7520:	00c5e633          	or	a2,a1,a2
    7524:	00c036b3          	snez	a3,a2
    7528:	40d509b3          	sub	s3,a0,a3
    752c:	01353533          	sltu	a0,a0,s3
    7530:	40a78333          	sub	t1,a5,a0
    7534:	e21ff06f          	j	7354 <__subdf3+0x2f4>
    7538:	00a7e733          	or	a4,a5,a0
    753c:	00c5e9b3          	or	s3,a1,a2
    7540:	0c049a63          	bnez	s1,7614 <__subdf3+0x5b4>
    7544:	2a071a63          	bnez	a4,77f8 <__subdf3+0x798>
    7548:	32098c63          	beqz	s3,7880 <__subdf3+0x820>
    754c:	00058793          	mv	a5,a1
    7550:	00060513          	mv	a0,a2
    7554:	00048813          	mv	a6,s1
    7558:	00068413          	mv	s0,a3
    755c:	b91ff06f          	j	70ec <__subdf3+0x8c>
    7560:	fe180813          	addi	a6,a6,-31
    7564:	02000793          	li	a5,32
    7568:	01095833          	srl	a6,s2,a6
    756c:	00f70a63          	beq	a4,a5,7580 <__subdf3+0x520>
    7570:	04000313          	li	t1,64
    7574:	40e30333          	sub	t1,t1,a4
    7578:	00691933          	sll	s2,s2,t1
    757c:	0129e9b3          	or	s3,s3,s2
    7580:	013036b3          	snez	a3,s3
    7584:	0106e9b3          	or	s3,a3,a6
    7588:	0079f793          	andi	a5,s3,7
    758c:	00000313          	li	t1,0
    7590:	00000493          	li	s1,0
    7594:	ecdff06f          	j	7460 <__subdf3+0x400>
    7598:	40a609b3          	sub	s3,a2,a0
    759c:	40f58933          	sub	s2,a1,a5
    75a0:	01363633          	sltu	a2,a2,s3
    75a4:	40c90933          	sub	s2,s2,a2
    75a8:	00068413          	mv	s0,a3
    75ac:	dbdff06f          	j	7368 <__subdf3+0x308>
    75b0:	00c5e633          	or	a2,a1,a2
    75b4:	00c036b3          	snez	a3,a2
    75b8:	cd9ff06f          	j	7290 <__subdf3+0x230>
    75bc:	02000713          	li	a4,32
    75c0:	41070733          	sub	a4,a4,a6
    75c4:	010656b3          	srl	a3,a2,a6
    75c8:	00e599b3          	sll	s3,a1,a4
    75cc:	00e61633          	sll	a2,a2,a4
    75d0:	00d9e9b3          	or	s3,s3,a3
    75d4:	0105d933          	srl	s2,a1,a6
    75d8:	00c036b3          	snez	a3,a2
    75dc:	00d9e6b3          	or	a3,s3,a3
    75e0:	412787b3          	sub	a5,a5,s2
    75e4:	f45ff06f          	j	7528 <__subdf3+0x4c8>
    75e8:	00a7e733          	or	a4,a5,a0
    75ec:	0e071a63          	bnez	a4,76e0 <__subdf3+0x680>
    75f0:	7ff00793          	li	a5,2047
    75f4:	10f88063          	beq	a7,a5,76f4 <__subdf3+0x694>
    75f8:	00088813          	mv	a6,a7
    75fc:	00068413          	mv	s0,a3
    7600:	00058793          	mv	a5,a1
    7604:	00060513          	mv	a0,a2
    7608:	ae5ff06f          	j	70ec <__subdf3+0x8c>
    760c:	00070813          	mv	a6,a4
    7610:	c01ff06f          	j	7210 <__subdf3+0x1b0>
    7614:	1a071663          	bnez	a4,77c0 <__subdf3+0x760>
    7618:	1a099063          	bnez	s3,77b8 <__subdf3+0x758>
    761c:	00000593          	li	a1,0
    7620:	7ff00813          	li	a6,2047
    7624:	000807b7          	lui	a5,0x80
    7628:	af1ff06f          	j	7118 <__subdf3+0xb8>
    762c:	7ff00693          	li	a3,2047
    7630:	e4d80ae3          	beq	a6,a3,7484 <__subdf3+0x424>
    7634:	00070813          	mv	a6,a4
    7638:	c21ff06f          	j	7258 <__subdf3+0x1f8>
    763c:	0e049e63          	bnez	s1,7738 <__subdf3+0x6d8>
    7640:	00a7e733          	or	a4,a5,a0
    7644:	18071463          	bnez	a4,77cc <__subdf3+0x76c>
    7648:	7ff00793          	li	a5,2047
    764c:	18f88a63          	beq	a7,a5,77e0 <__subdf3+0x780>
    7650:	00088813          	mv	a6,a7
    7654:	00058793          	mv	a5,a1
    7658:	00060513          	mv	a0,a2
    765c:	a91ff06f          	j	70ec <__subdf3+0x8c>
    7660:	0137e7b3          	or	a5,a5,s3
    7664:	e20784e3          	beqz	a5,748c <__subdf3+0x42c>
    7668:	00000593          	li	a1,0
    766c:	7ff00813          	li	a6,2047
    7670:	000807b7          	lui	a5,0x80
    7674:	00000993          	li	s3,0
    7678:	aa1ff06f          	j	7118 <__subdf3+0xb8>
    767c:	00a7e733          	or	a4,a5,a0
    7680:	12049263          	bnez	s1,77a4 <__subdf3+0x744>
    7684:	04070463          	beqz	a4,76cc <__subdf3+0x66c>
    7688:	00c5e733          	or	a4,a1,a2
    768c:	02070c63          	beqz	a4,76c4 <__subdf3+0x664>
    7690:	00c509b3          	add	s3,a0,a2
    7694:	00b78933          	add	s2,a5,a1
    7698:	00a9b533          	sltu	a0,s3,a0
    769c:	00a90333          	add	t1,s2,a0
    76a0:	00831713          	slli	a4,t1,0x8
    76a4:	0079f793          	andi	a5,s3,7
    76a8:	da075ce3          	bgez	a4,7460 <__subdf3+0x400>
    76ac:	ff800737          	lui	a4,0xff800
    76b0:	fff70713          	addi	a4,a4,-1 # ff7fffff <_etext+0xff7f77cb>
    76b4:	00e37333          	and	t1,t1,a4
    76b8:	00100493          	li	s1,1
    76bc:	c1dff06f          	j	72d8 <__subdf3+0x278>
    76c0:	00040693          	mv	a3,s0
    76c4:	00078593          	mv	a1,a5
    76c8:	00050613          	mv	a2,a0
    76cc:	00048813          	mv	a6,s1
    76d0:	00068413          	mv	s0,a3
    76d4:	00058793          	mv	a5,a1
    76d8:	00060513          	mv	a0,a2
    76dc:	a11ff06f          	j	70ec <__subdf3+0x8c>
    76e0:	fff00713          	li	a4,-1
    76e4:	18e80063          	beq	a6,a4,7864 <__subdf3+0x804>
    76e8:	7ff00713          	li	a4,2047
    76ec:	fff84813          	not	a6,a6
    76f0:	d0e892e3          	bne	a7,a4,73f4 <__subdf3+0x394>
    76f4:	00c5e7b3          	or	a5,a1,a2
    76f8:	00068413          	mv	s0,a3
    76fc:	d80788e3          	beqz	a5,748c <__subdf3+0x42c>
    7700:	00058793          	mv	a5,a1
    7704:	00060513          	mv	a0,a2
    7708:	7ff00813          	li	a6,2047
    770c:	9e1ff06f          	j	70ec <__subdf3+0x8c>
    7710:	02000713          	li	a4,32
    7714:	0105d6b3          	srl	a3,a1,a6
    7718:	00e80a63          	beq	a6,a4,772c <__subdf3+0x6cc>
    771c:	04000913          	li	s2,64
    7720:	41090833          	sub	a6,s2,a6
    7724:	01059933          	sll	s2,a1,a6
    7728:	01266633          	or	a2,a2,s2
    772c:	00c03633          	snez	a2,a2
    7730:	00d666b3          	or	a3,a2,a3
    7734:	b5dff06f          	j	7290 <__subdf3+0x230>
    7738:	7ff00713          	li	a4,2047
    773c:	0ae88263          	beq	a7,a4,77e0 <__subdf3+0x780>
    7740:	00800737          	lui	a4,0x800
    7744:	41000833          	neg	a6,a6
    7748:	00e7e7b3          	or	a5,a5,a4
    774c:	03800713          	li	a4,56
    7750:	0f074063          	blt	a4,a6,7830 <__subdf3+0x7d0>
    7754:	01f00713          	li	a4,31
    7758:	13074c63          	blt	a4,a6,7890 <__subdf3+0x830>
    775c:	02000713          	li	a4,32
    7760:	41070733          	sub	a4,a4,a6
    7764:	01055333          	srl	t1,a0,a6
    7768:	00e796b3          	sll	a3,a5,a4
    776c:	00e51533          	sll	a0,a0,a4
    7770:	0066e6b3          	or	a3,a3,t1
    7774:	00a039b3          	snez	s3,a0
    7778:	0107d833          	srl	a6,a5,a6
    777c:	0136e6b3          	or	a3,a3,s3
    7780:	010585b3          	add	a1,a1,a6
    7784:	00c689b3          	add	s3,a3,a2
    7788:	00c9b633          	sltu	a2,s3,a2
    778c:	00b60333          	add	t1,a2,a1
    7790:	00088493          	mv	s1,a7
    7794:	b09ff06f          	j	729c <__subdf3+0x23c>
    7798:	00a7e533          	or	a0,a5,a0
    779c:	00a039b3          	snez	s3,a0
    77a0:	c8dff06f          	j	742c <__subdf3+0x3cc>
    77a4:	00070a63          	beqz	a4,77b8 <__subdf3+0x758>
    77a8:	00c5e633          	or	a2,a1,a2
    77ac:	ea061ee3          	bnez	a2,7668 <__subdf3+0x608>
    77b0:	7ff00813          	li	a6,2047
    77b4:	939ff06f          	j	70ec <__subdf3+0x8c>
    77b8:	7ff00493          	li	s1,2047
    77bc:	f11ff06f          	j	76cc <__subdf3+0x66c>
    77c0:	ea0994e3          	bnez	s3,7668 <__subdf3+0x608>
    77c4:	7ff00813          	li	a6,2047
    77c8:	925ff06f          	j	70ec <__subdf3+0x8c>
    77cc:	fff00713          	li	a4,-1
    77d0:	0ee80463          	beq	a6,a4,78b8 <__subdf3+0x858>
    77d4:	7ff00713          	li	a4,2047
    77d8:	fff84813          	not	a6,a6
    77dc:	f6e898e3          	bne	a7,a4,774c <__subdf3+0x6ec>
    77e0:	00c5e7b3          	or	a5,a1,a2
    77e4:	ca0784e3          	beqz	a5,748c <__subdf3+0x42c>
    77e8:	00058793          	mv	a5,a1
    77ec:	00060513          	mv	a0,a2
    77f0:	7ff00813          	li	a6,2047
    77f4:	8f9ff06f          	j	70ec <__subdf3+0x8c>
    77f8:	ec0984e3          	beqz	s3,76c0 <__subdf3+0x660>
    77fc:	40c509b3          	sub	s3,a0,a2
    7800:	40b78333          	sub	t1,a5,a1
    7804:	01353933          	sltu	s2,a0,s3
    7808:	41230333          	sub	t1,t1,s2
    780c:	00831713          	slli	a4,t1,0x8
    7810:	c40752e3          	bgez	a4,7454 <__subdf3+0x3f4>
    7814:	40a609b3          	sub	s3,a2,a0
    7818:	40f58933          	sub	s2,a1,a5
    781c:	01363633          	sltu	a2,a2,s3
    7820:	40c90333          	sub	t1,s2,a2
    7824:	0079f793          	andi	a5,s3,7
    7828:	00068413          	mv	s0,a3
    782c:	aadff06f          	j	72d8 <__subdf3+0x278>
    7830:	00a7e533          	or	a0,a5,a0
    7834:	00a036b3          	snez	a3,a0
    7838:	f4dff06f          	j	7784 <__subdf3+0x724>
    783c:	02000713          	li	a4,32
    7840:	0107d9b3          	srl	s3,a5,a6
    7844:	00e80a63          	beq	a6,a4,7858 <__subdf3+0x7f8>
    7848:	04000713          	li	a4,64
    784c:	41070833          	sub	a6,a4,a6
    7850:	010797b3          	sll	a5,a5,a6
    7854:	00f56533          	or	a0,a0,a5
    7858:	00a03533          	snez	a0,a0
    785c:	013569b3          	or	s3,a0,s3
    7860:	bcdff06f          	j	742c <__subdf3+0x3cc>
    7864:	40a609b3          	sub	s3,a2,a0
    7868:	40f58933          	sub	s2,a1,a5
    786c:	01363633          	sltu	a2,a2,s3
    7870:	40c90333          	sub	t1,s2,a2
    7874:	00088493          	mv	s1,a7
    7878:	00068413          	mv	s0,a3
    787c:	ad9ff06f          	j	7354 <__subdf3+0x2f4>
    7880:	00000413          	li	s0,0
    7884:	00040813          	mv	a6,s0
    7888:	00000793          	li	a5,0
    788c:	879ff06f          	j	7104 <__subdf3+0xa4>
    7890:	02000713          	li	a4,32
    7894:	0107d6b3          	srl	a3,a5,a6
    7898:	00e80a63          	beq	a6,a4,78ac <__subdf3+0x84c>
    789c:	04000713          	li	a4,64
    78a0:	41070833          	sub	a6,a4,a6
    78a4:	010797b3          	sll	a5,a5,a6
    78a8:	00f56533          	or	a0,a0,a5
    78ac:	00a03533          	snez	a0,a0
    78b0:	00d566b3          	or	a3,a0,a3
    78b4:	ed1ff06f          	j	7784 <__subdf3+0x724>
    78b8:	00c509b3          	add	s3,a0,a2
    78bc:	00b78933          	add	s2,a5,a1
    78c0:	00c9b633          	sltu	a2,s3,a2
    78c4:	00c90333          	add	t1,s2,a2
    78c8:	00088493          	mv	s1,a7
    78cc:	9d1ff06f          	j	729c <__subdf3+0x23c>
    78d0:	00048813          	mv	a6,s1
    78d4:	00030793          	mv	a5,t1
    78d8:	00098513          	mv	a0,s3
    78dc:	811ff06f          	j	70ec <__subdf3+0x8c>

000078e0 <__fixdfsi>:
__fixdfsi():
    78e0:	0145d793          	srli	a5,a1,0x14
    78e4:	001006b7          	lui	a3,0x100
    78e8:	fff68713          	addi	a4,a3,-1 # fffff <_etext+0xf77cb>
    78ec:	7ff7f793          	andi	a5,a5,2047
    78f0:	3fe00613          	li	a2,1022
    78f4:	00b77733          	and	a4,a4,a1
    78f8:	01f5d593          	srli	a1,a1,0x1f
    78fc:	04f65663          	ble	a5,a2,7948 <__fixdfsi+0x68>
    7900:	41d00613          	li	a2,1053
    7904:	02f64a63          	blt	a2,a5,7938 <__fixdfsi+0x58>
    7908:	43300613          	li	a2,1075
    790c:	40f60633          	sub	a2,a2,a5
    7910:	01f00813          	li	a6,31
    7914:	00d76733          	or	a4,a4,a3
    7918:	02c85c63          	ble	a2,a6,7950 <__fixdfsi+0x70>
    791c:	41300693          	li	a3,1043
    7920:	40f687b3          	sub	a5,a3,a5
    7924:	00f757b3          	srl	a5,a4,a5
    7928:	40f00533          	neg	a0,a5
    792c:	02059063          	bnez	a1,794c <__fixdfsi+0x6c>
    7930:	00078513          	mv	a0,a5
    7934:	00008067          	ret
    7938:	80000537          	lui	a0,0x80000
    793c:	fff54513          	not	a0,a0
    7940:	00a58533          	add	a0,a1,a0
    7944:	00008067          	ret
    7948:	00000513          	li	a0,0
    794c:	00008067          	ret
    7950:	bed78793          	addi	a5,a5,-1043 # 7fbed <_etext+0x773b9>
    7954:	00f717b3          	sll	a5,a4,a5
    7958:	00c55533          	srl	a0,a0,a2
    795c:	00a7e7b3          	or	a5,a5,a0
    7960:	fc9ff06f          	j	7928 <__fixdfsi+0x48>

00007964 <__floatunsidf>:
__floatunsidf():
    7964:	ff010113          	addi	sp,sp,-16
    7968:	00112623          	sw	ra,12(sp)
    796c:	00812423          	sw	s0,8(sp)
    7970:	0a050263          	beqz	a0,7a14 <__floatunsidf+0xb0>
    7974:	00050413          	mv	s0,a0
    7978:	0ac000ef          	jal	ra,7a24 <__clzsi2>
    797c:	41e00693          	li	a3,1054
    7980:	40a686b3          	sub	a3,a3,a0
    7984:	00a00793          	li	a5,10
    7988:	7ff6f693          	andi	a3,a3,2047
    798c:	06a7d263          	ble	a0,a5,79f0 <__floatunsidf+0x8c>
    7990:	ff550793          	addi	a5,a0,-11 # 7ffffff5 <_etext+0x7fff77c1>
    7994:	00100737          	lui	a4,0x100
    7998:	00f417b3          	sll	a5,s0,a5
    799c:	fff70713          	addi	a4,a4,-1 # fffff <_etext+0xf77cb>
    79a0:	00e7f7b3          	and	a5,a5,a4
    79a4:	00000513          	li	a0,0
    79a8:	00100737          	lui	a4,0x100
    79ac:	fff70713          	addi	a4,a4,-1 # fffff <_etext+0xf77cb>
    79b0:	00e7f7b3          	and	a5,a5,a4
    79b4:	80100737          	lui	a4,0x80100
    79b8:	fff70713          	addi	a4,a4,-1 # 800fffff <_etext+0x800f77cb>
    79bc:	01469693          	slli	a3,a3,0x14
    79c0:	00e7f733          	and	a4,a5,a4
    79c4:	00d76733          	or	a4,a4,a3
    79c8:	00c12083          	lw	ra,12(sp)
    79cc:	00812403          	lw	s0,8(sp)
    79d0:	800006b7          	lui	a3,0x80000
    79d4:	fff6c693          	not	a3,a3
    79d8:	00050793          	mv	a5,a0
    79dc:	00d77733          	and	a4,a4,a3
    79e0:	00078513          	mv	a0,a5
    79e4:	00070593          	mv	a1,a4
    79e8:	01010113          	addi	sp,sp,16
    79ec:	00008067          	ret
    79f0:	00b00793          	li	a5,11
    79f4:	40a787b3          	sub	a5,a5,a0
    79f8:	00100737          	lui	a4,0x100
    79fc:	01550513          	addi	a0,a0,21
    7a00:	00f457b3          	srl	a5,s0,a5
    7a04:	fff70713          	addi	a4,a4,-1 # fffff <_etext+0xf77cb>
    7a08:	00a41533          	sll	a0,s0,a0
    7a0c:	00e7f7b3          	and	a5,a5,a4
    7a10:	f99ff06f          	j	79a8 <__floatunsidf+0x44>
    7a14:	00000693          	li	a3,0
    7a18:	00000793          	li	a5,0
    7a1c:	00000513          	li	a0,0
    7a20:	f89ff06f          	j	79a8 <__floatunsidf+0x44>

00007a24 <__clzsi2>:
__clzsi2():
    7a24:	000107b7          	lui	a5,0x10
    7a28:	02f57463          	bleu	a5,a0,7a50 <__clzsi2+0x2c>
    7a2c:	0ff00793          	li	a5,255
    7a30:	02000713          	li	a4,32
    7a34:	04a7e263          	bltu	a5,a0,7a78 <__clzsi2+0x54>
    7a38:	00001797          	auipc	a5,0x1
    7a3c:	cfc78793          	addi	a5,a5,-772 # 8734 <__clz_tab>
    7a40:	00a78533          	add	a0,a5,a0
    7a44:	00054503          	lbu	a0,0(a0)
    7a48:	40a70533          	sub	a0,a4,a0
    7a4c:	00008067          	ret
    7a50:	010007b7          	lui	a5,0x1000
    7a54:	04f56263          	bltu	a0,a5,7a98 <__clzsi2+0x74>
    7a58:	00001797          	auipc	a5,0x1
    7a5c:	cdc78793          	addi	a5,a5,-804 # 8734 <__clz_tab>
    7a60:	01855513          	srli	a0,a0,0x18
    7a64:	00a78533          	add	a0,a5,a0
    7a68:	00054503          	lbu	a0,0(a0)
    7a6c:	00800713          	li	a4,8
    7a70:	40a70533          	sub	a0,a4,a0
    7a74:	00008067          	ret
    7a78:	00001797          	auipc	a5,0x1
    7a7c:	cbc78793          	addi	a5,a5,-836 # 8734 <__clz_tab>
    7a80:	00855513          	srli	a0,a0,0x8
    7a84:	00a78533          	add	a0,a5,a0
    7a88:	00054503          	lbu	a0,0(a0)
    7a8c:	01800713          	li	a4,24
    7a90:	40a70533          	sub	a0,a4,a0
    7a94:	00008067          	ret
    7a98:	00001797          	auipc	a5,0x1
    7a9c:	c9c78793          	addi	a5,a5,-868 # 8734 <__clz_tab>
    7aa0:	01055513          	srli	a0,a0,0x10
    7aa4:	00a78533          	add	a0,a5,a0
    7aa8:	00054503          	lbu	a0,0(a0)
    7aac:	01000713          	li	a4,16
    7ab0:	40a70533          	sub	a0,a4,a0
    7ab4:	00008067          	ret

00007ab8 <srand>:
srand():
    7ab8:	44000793          	li	a5,1088
    7abc:	0007a783          	lw	a5,0(a5)
    7ac0:	0aa7a423          	sw	a0,168(a5)
    7ac4:	0a07a623          	sw	zero,172(a5)
    7ac8:	00008067          	ret

00007acc <rand>:
rand():
    7acc:	44000793          	li	a5,1088
    7ad0:	0007a583          	lw	a1,0(a5)
    7ad4:	4c958637          	lui	a2,0x4c958
    7ad8:	f2d60613          	addi	a2,a2,-211 # 4c957f2d <_etext+0x4c94f6f9>
    7adc:	0a85a703          	lw	a4,168(a1)
    7ae0:	0ac5a503          	lw	a0,172(a1)
    7ae4:	02c707b3          	mul	a5,a4,a2
    7ae8:	00178693          	addi	a3,a5,1
    7aec:	00f6b7b3          	sltu	a5,a3,a5
    7af0:	0ad5a423          	sw	a3,168(a1)
    7af4:	5851f6b7          	lui	a3,0x5851f
    7af8:	42d68693          	addi	a3,a3,1069 # 5851f42d <_etext+0x58516bf9>
    7afc:	02d706b3          	mul	a3,a4,a3
    7b00:	02c50533          	mul	a0,a0,a2
    7b04:	02c73733          	mulhu	a4,a4,a2
    7b08:	00d50533          	add	a0,a0,a3
    7b0c:	00e50533          	add	a0,a0,a4
    7b10:	00a787b3          	add	a5,a5,a0
    7b14:	80000537          	lui	a0,0x80000
    7b18:	fff54513          	not	a0,a0
    7b1c:	0af5a623          	sw	a5,172(a1)
    7b20:	00a7f533          	and	a0,a5,a0
    7b24:	00008067          	ret
    7b28:	524f4353          	0x524f4353
    7b2c:	3a45                	jal	74dc <__subdf3+0x47c>
    7b2e:	0000                	unimp
    7b30:	454d4147          	0x454d4147
    7b34:	4f20                	lw	s0,88(a4)
    7b36:	4556                	lw	a0,84(sp)
    7b38:	0052                	c.slli	zero,0x14
    7b3a:	0000                	unimp
    7b3c:	7250                	flw	fa2,36(a2)
    7b3e:	7365                	lui	t1,0xffff9
    7b40:	27422773          	csrrs	a4,0x274,tp
    7b44:	6f74                	flw	fa3,92(a4)
    7b46:	7220                	flw	fs0,96(a2)
    7b48:	7365                	lui	t1,0xffff9
    7b4a:	6174                	flw	fa3,68(a0)
    7b4c:	7472                	flw	fs0,60(sp)
    7b4e:	0000                	unimp
    7b50:	5250                	lw	a2,36(a2)
    7b52:	5345                	li	t1,-15
    7b54:	27582753          	fsgnjx.q	fa4,fa6,fs5
    7b58:	4f54                	lw	a3,28(a4)
    7b5a:	5120                	lw	s0,96(a0)
    7b5c:	4955                	li	s2,21
    7b5e:	0054                	addi	a3,sp,4
    7b60:	5250                	lw	a2,36(a2)
    7b62:	5345                	li	t1,-15
    7b64:	4e412053          	0x4e412053
    7b68:	2059                	jal	7bee <F8X16+0x76>
    7b6a:	2059454b          	fnmsub.s	fa0,fs2,ft5,ft4,rmm
    7b6e:	4f54                	lw	a3,28(a4)
    7b70:	5120                	lw	s0,96(a0)
    7b72:	4955                	li	s2,21
    7b74:	0054                	addi	a3,sp,4
	...

00007b78 <F8X16>:
	...
    7b88:	0000 4000 4040 4040 4040 0000 4040 0000     ...@@@@@@@..@@..
    7b98:	7800 2878 5050 0000 0000 0000 0000 0000     .xx(PP..........
    7ba8:	0000 5000 5050 60f0 6060 60f0 6060 0000     ...PPP.```.```..
    7bb8:	0000 6020 b0b0 60a0 3020 b030 60b0 2020     .. `...` 00..`  
    7bc8:	0000 4400 a8a4 b0a8 1a54 2a2a 444a 0000     ...D....T.**JD..
    7bd8:	0000 3000 4848 5048 a46e 9894 7689 0000     ...0HHHPn....v..
    7be8:	1800 0818 2010 0000 0000 0000 0000 0000     ..... ..........
    7bf8:	0200 0804 1008 1010 1010 0810 0408 0002     ................
    7c08:	4000 1020 0810 0808 0808 1008 2010 0040     .@ .......... @.
    7c18:	0000 0000 1010 38d6 d638 1010 0000 0000     .......88.......
    7c28:	0000 0000 0800 0808 087f 0808 0000 0000     ................
	...
    7c44:	2060 4020 0000 0000 0000 0000 007e 0000     `  @........~...
	...
    7c64:	6060 0000 0000 0402 0404 0808 1010 2010     ``............. 
    7c74:	4020 0040 0000 1800 4224 4242 4242 4242      @@.....$BBBBBBB
    7c84:	1824 0000 0000 0800 0838 0808 0808 0808     $.......8.......
    7c94:	3e08 0000 0000 3c00 4242 0242 0804 2010     .>.....<BBB.... 
    7ca4:	7e42 0000 0000 3c00 4242 0402 0418 4202     B~.....<BB.....B
    7cb4:	3c42 0000 0000 0400 0c0c 2414 4424 047f     B<.........$$D..
    7cc4:	1f04 0000 0000 7e00 4040 7840 0244 4202     .......~@@@xD..B
    7cd4:	3844 0000 0000 1800 4024 5c40 4262 4242     D8......$@@\bBBB
    7ce4:	1c22 0000 0000 7e00 0442 0804 1008 1010     "......~B.......
    7cf4:	1010 0000 0000 3c00 4242 2442 2418 4242     .......<BBB$.$BB
    7d04:	3c42 0000 0000 3800 4244 4242 3a46 0202     B<.....8DBBBF:..
    7d14:	1824 0000 0000 0000 0000 1818 0000 0000     $...............
    7d24:	1818 0000 0000 0000 0000 1000 0000 0000     ................
    7d34:	1000 1010 0000 0200 0804 2010 2040 0810     ........... @ ..
    7d44:	0204 0000 0000 0000 0000 007e 7e00 0000     ..........~..~..
    7d54:	0000 0000 0000 4000 1020 0408 0402 1008     .......@ .......
    7d64:	4020 0000 0000 3c00 4242 0462 0808 0008      @.....<BBb.....
    7d74:	1818 0000 0000 3800 5a44 aaaa aaaa 5caa     .......8DZ.....\
    7d84:	3c42 0000 0000 1000 1810 2828 3c24 4244     B<........(($<DB
    7d94:	e742 0000 0000 f800 4444 7844 4244 4242     B.......DDDxDBBB
    7da4:	f844 0000 0000 3e00 4242 8080 8080 4280     D......>BB.....B
    7db4:	3844 0000 0000 f800 4244 4242 4242 4242     D8......DBBBBBBB
    7dc4:	f844 0000 0000 fc00 4842 7848 4848 4240     D.......BHHxHH@B
    7dd4:	fc42 0000 0000 fc00 4842 7848 4848 4040     B.......BHHxHH@@
    7de4:	e040 0000 0000 3c00 4444 8080 8e80 4484     @......<DD.....D
    7df4:	3844 0000 0000 e700 4242 4242 427e 4242     D8......BBBB~BBB
    7e04:	e742 0000 0000 7c00 1010 1010 1010 1010     B......|........
    7e14:	7c10 0000 0000 3e00 0808 0808 0808 0808     .|.....>........
    7e24:	0808 f088 0000 ee00 4844 7050 4850 4448     ........DHPpPHHD
    7e34:	ee44 0000 0000 e000 4040 4040 4040 4040     D.......@@@@@@@@
    7e44:	fe42 0000 0000 ee00 6c6c 6c6c 546c 5454     B.......lllllTTT
    7e54:	d654 0000 0000 c700 6262 5252 4a4a 464a     T.......bbRRJJJF
    7e64:	e246 0000 0000 3800 8244 8282 8282 8282     F......8D.......
    7e74:	3844 0000 0000 fc00 4242 4242 407c 4040     D8......BBBB|@@@
    7e84:	e040 0000 0000 3800 8244 8282 8282 b282     @......8D.......
    7e94:	384c 0006 0000 fc00 4242 7c42 4848 4444     L8......BBB|HHDD
    7ea4:	e342 0000 0000 3e00 4242 2040 0418 4202     B......>BB@ ...B
    7eb4:	7c42 0000 0000 fe00 1092 1010 1010 1010     B|..............
    7ec4:	3810 0000 0000 e700 4242 4242 4242 4242     .8......BBBBBBBB
    7ed4:	3c42 0000 0000 e700 4242 2444 2824 1828     B<......BBD$$((.
    7ee4:	1010 0000 0000 d600 5454 5454 6c54 2828     ........TTTTTl((
    7ef4:	2828 0000 0000 e700 2442 1824 1818 2424     ((......B$$...$$
    7f04:	e742 0000 0000 ee00 4444 2828 1010 1010     B.......DD((....
    7f14:	3810 0000 0000 7e00 0484 0808 2010 4220     .8.....~.....  B
    7f24:	fc42 0000 1e00 1010 1010 1010 1010 1010     B...............
    7f34:	1010 001e 0000 2040 2020 1010 0810 0408     ......@   ......
    7f44:	0404 0202 7800 0808 0808 0808 0808 0808     .....x..........
    7f54:	0808 0078 1800 0024 0000 0000 0000 0000     ..x...$.........
	...
    7f74:	0000 ff00 6000 0010 0000 0000 0000 0000     .....`..........
	...
    7f8c:	0000 3800 0c44 4434 364c 0000 0000 0000     ...8D.4DL6......
    7f9c:	40c0 5840 4264 4242 5864 0000 0000 0000     .@@XdBBBdX......
    7fac:	0000 1c00 4022 4040 1c22 0000 0000 0000     ...."@@@".......
    7fbc:	0206 3e02 4242 4242 3b46 0000 0000 0000     ...>BBBBF;......
    7fcc:	0000 3c00 4242 407e 3c42 0000 0000 0000     ...<BB~@B<......
    7fdc:	120c 7c10 1010 1010 7c10 0000 0000 0000     ...|.....|......
    7fec:	0000 3e00 4444 4038 423c 3c42 0000 0000     ...>DD8@<BB<....
    7ffc:	40c0 5c40 4262 4242 e742 0000 0000 3000     .@@\bBBBB......0
    800c:	0030 7000 1010 1010 7c10 0000 0000 0c00     0..p.....|......
    801c:	000c 1c00 0404 0404 0404 7844 0000 0000     ..........Dx....
    802c:	40c0 4e40 5048 4870 ee44 0000 0000 1000     .@@NHPpHD.......
    803c:	1070 1010 1010 1010 7c10 0000 0000 0000     p........|......
    804c:	0000 fe00 4949 4949 ed49 0000 0000 0000     ....IIIII.......
    805c:	0000 dc00 4262 4242 e742 0000 0000 0000     ....bBBBB.......
    806c:	0000 3c00 4242 4242 3c42 0000 0000 0000     ...<BBBBB<......
    807c:	0000 d800 4264 4242 5864 e040 0000 0000     ....dBBBdX@.....
    808c:	0000 1a00 4226 4242 1a26 0702 0000 0000     ....&BBB&.......
    809c:	0000 ee00 2032 2020 f820 0000 0000 0000     ....2    .......
    80ac:	0000 3e00 4042 023c 7c42 0000 0000 0000     ...>B@<.B|......
    80bc:	1000 7c10 1010 1010 0c12 0000 0000 0000     ...|............
    80cc:	0000 c600 4242 4242 3b46 0000 0000 0000     ....BBBBF;......
    80dc:	0000 ee00 4444 2828 1010 0000 0000 0000     ....DD((........
    80ec:	0000 db00 4a89 545a 2424 0000 0000 0000     .....JZT$$......
    80fc:	0000 7600 1824 1818 6e24 0000 0000 0000     ...v$...$n......
    810c:	0000 e700 2442 1824 1018 6010 0000 0000     ....B$$....`....
    811c:	0000 7e00 0844 1010 7e22 0000 0300 0404     ...~D..."~......
    812c:	0404 0404 0408 0404 0404 0003 0808 0808     ................
    813c:	0808 0808 0808 0808 0808 0808 c000 2020     ..............  
    814c:	2020 2020 2010 2020 2020 00c0 5a20 0004         .     .. Z..
	...

00008168 <bitmap_bytes>:
    8168:	0001 0000 0000 0001 f01f 047f fc7f 1010     ................
    8178:	0441 0001 1010 087f f83f 1010 1041 0002     A.......?...A...
    8188:	1010 227f feff 1010 0208 2008 f01f c4ff     ..."....... ....
    8198:	1010 1010 0800 e82f 1010 107f 26c8 1010     ....../......&..
    81a8:	2241 2008 1010 027f e00f 1010 0408 2008     A". ........... 
    81b8:	1010 0849 2008 f01f 9088 e00f 1010 6018     ..I.. .........`

000081c8 <quwei>:
    81c8:	0000 0010 4000 1002 2000 0010 0000 e013     .....@... ......
    81d8:	4000 1021 2800 f011 0000 5e11 4078 1011     .@!..(.....^x@..
    81e8:	2400 1011 0000 427d fc4b be17 247e 1011     .$....}BK...~$..
    81f8:	0000 d211 4048 2082 2002 10fd 0000 4a11     ....H@. . .....J
    8208:	4048 4042 3e02 1011 0000 4afd 4048 bc43     H@B@.>.....JH@C.
    8218:	e025 1031 0000 c411 fe4f 8412 2414 1039     %.1.....O....$9.
    8228:	0000 4411 e048 8812 2408 1055 0000 6451     ...DH....$U...Qd
    8238:	5049 8822 2808 1055 0000 ca5d 5079 bee2     IP"..(U...].yP..
    8248:	2814 1091 0000 4a53 484a 8822 1012 1211     .(....SJJH".....
    8258:	0000 5270 4404 8824 3222 1211 0000 4050     ..pR.D$."2....P@
    8268:	4208 8824 4a40 1212 0000 fe4f 4000 a829     .B$.@J....O..@).
    8278:	8600 0e12 0000 0080 4000 1010 0201 0014     .........@......

00008288 <triangle>:
    8288:	0000 c080 f0e0 fcf8 fcfe f0f8 c0e0 0080     ................

00008298 <ziguang>:
    8298:	0000 ff1f 00fc 0000 0000 ff1f 00fc 0000     ................
    82a8:	0000 ff1f 00fc 0000 0000 ff1f 00fc 0000     ................
    82b8:	0000 001c 001c 0000 0000 001c 001c 0000     ................
    82c8:	0000 001c 001c 0000 0000 001c 001c 0000     ................
    82d8:	0000 001c 001c 0000 0000 381c f81f 0000     ...........8....
    82e8:	0000 381c f81f 0000 0000 3c1c f81f 0000     ...8.......<....
    82f8:	0000 3c1c f81f 0000 0000 3c1c 381c 0000     ...<.......<.8..
    8308:	0000 3e1c 381c 0000 0000 3a1c 381c 0000     ...>.8.....:.8..
    8318:	0000 391c 381c 0000 0000 381c 381c 0000     ...9.8.....8.8..
    8328:	0000 381c 385c 0000 0000 381c 387c 0000     ...8\8.....8|8..
    8338:	0000 381c 387c 0000 0000 381c 383c 0000     ...8|8.....8<8..
    8348:	0000 f81f 383c 0000 0000 f81f 383c 0000     ....<8......<8..
    8358:	0000 f81f 381c 0000 0000 f81f 381c 0000     .....8.......8..
    8368:	0000 3800 3800 0000 0000 3800 3800 0000     ...8.8.....8.8..
    8378:	0000 3800 3800 0000 0000 3800 3800 0000     ...8.8.....8.8..
    8388:	0000 3800 7800 0000 0000 3f00 f8ff 0000     ...8.x.....?....
    8398:	0000 3f00 f8ff 0000 0000 3f00 f8ff 0000     ...?.......?....
	...
    83f8:	c01c 8001 0000 030f fcde 8e71 ff3f 3b1f     ..........q.?..;
    8408:	fcde 8c31 0730 3b1b c0dc 8c31 0730 3b11     ..1.0..;..1.0..;
    8418:	c0dc 9c39 0730 bb31 c0dc 9819 f737 3b00     ..9.0.1.....7..;
    8428:	fc7e 9819 0730 3b00 7c7e b00d 0730 bb3f     ~...0..;~|..0.?.
    8438:	0000 c001 f737 bb31 601c fe7f f736 bb31     ....7.1..`..6.1.
    8448:	c03c 300e 3736 bb31 8c7f 300e 3736 bb31     <..0671....0671.
    8458:	0c0f 300c 3736 bb31 1c7f 300c 3736 bb31     ...0671....0671.
    8468:	fc7f 300c 3736 3b33 8003 300c 3736 0330     ...0673;...0670.
    8478:	b033 301c 3736 0330 9833 301c 7737 0730     3..0670.3..07w0.
    8488:	9873 3818 e637 8f3f 0ce7 3f78 0430 8e1f     s..87.?...x?0...
    8498:	7cee 353f ba5e 4040 aaab aaaa aaaa 4040     .|?5^.@@......@@
    84a8:	6548 6c6c 206f 6952 6373 562d 5020 6e61     Hello Risc-V Pan
    84b8:	6f67 3220 3130 0a39 0000 0000 3032 3931     go 2019.....2019
    84c8:	0000 0000 6574 7473 6420 7461 2061 203d     ....test data = 
    84d8:	6425 252c 2c66 7325 302c 2078 203d 7825     %d,%f,%s,0x = %x
    84e8:	000a 0000 6973 706d 656c 6320 6d6f 7570     ....simple compu
    84f8:	6574 3a20 3520 2a30 3031 3d20 2520 2c64     te : 50*10 = %d,
    8508:	3031 2f30 2033 203d 6625 312c 3030 3325     100/3 = %f,100%3
    8518:	3d20 2520 0a64 0000 6574 7473 000a 0000      = %d...test....
    8528:	6425 0000 6e53 6b61 2065 6f47 0021 0000     %d..Snake Go!...
    8538:	6554 7274 7369 4720 216f 0000 6f42 7261     Tetris Go!..Boar
    8548:	2064 6f47 0021 0000 6f59 2075 6564 6461     d Go!...You dead
    8558:	2121 0021 7250 7365 2773 2758 6f74 7120     !!!.Press'X'to q
    8568:	6975 0074 6353 726f 3a65 0000 6e73 6b61     uit.Score:..snak
    8578:	2e65 696c 6566 253a 0064 0000 688e 0000     e.life:%d....h..
    8588:	688e 0000 688e 0000 688e 0000 688e 0000     .h...h...h...h..
    8598:	688e 0000 688e 0000 688e 0000 688e 0000     .h...h...h...h..
    85a8:	688e 0000 688e 0000 688e 0000 688e 0000     .h...h...h...h..
    85b8:	688e 0000 688e 0000 688e 0000 688e 0000     .h...h...h...h..
    85c8:	688e 0000 688e 0000 688e 0000 688e 0000     .h...h...h...h..
    85d8:	688e 0000 688e 0000 688e 0000 688e 0000     .h...h...h...h..
    85e8:	688e 0000 688e 0000 688e 0000 688e 0000     .h...h...h...h..
    85f8:	688e 0000 688e 0000 68c6 0000 688e 0000     .h...h...h...h..
    8608:	688e 0000 688e 0000 688e 0000 688e 0000     .h...h...h...h..
    8618:	688e 0000 688e 0000 688e 0000 688e 0000     .h...h...h...h..
    8628:	688e 0000 688e 0000 688e 0000 688e 0000     .h...h...h...h..
    8638:	688e 0000 68d8 0000 688e 0000 688e 0000     .h...h...h...h..
    8648:	688e 0000 688e 0000 68b0 0000 688e 0000     .h...h...h...h..
    8658:	688e 0000 688e 0000 688e 0000 688e 0000     .h...h...h...h..
    8668:	688e 0000 688e 0000 688e 0000 688e 0000     .h...h...h...h..
    8678:	688e 0000 689a 0000 68c6 0000 688e 0000     .h...h...h...h..
    8688:	6902 0000 688e 0000 688e 0000 68c6 0000     .i...h...h...h..
    8698:	688e 0000 688e 0000 688e 0000 688e 0000     .h...h...h...h..
    86a8:	688e 0000 688e 0000 688e 0000 688e 0000     .h...h...h...h..
    86b8:	688e 0000 68d8 0000 688e 0000 688e 0000     .h...h...h...h..
    86c8:	688e 0000 688e 0000 68b0 0000 0000 0000     .h...h...h......
    86d8:	0000 0000 8480 412e 3130 3332 3534 3736     .......A01234567
    86e8:	3938 6261 6463 6665 0000 0000 e59c ffff     89abcdef........
    86f8:	e4c8 ffff e4c8 ffff e4c4 ffff e4e8 ffff     ................
    8708:	e4e8 ffff e458 ffff e4c4 ffff e4e8 ffff     ....X...........
    8718:	e458 ffff e4e8 ffff e4c4 ffff e4e4 ffff     X...............
    8728:	e4e4 ffff e4e4 ffff e458 ffff               ........X...

00008734 <__clz_tab>:
    8734:	0100 0202 0303 0303 0404 0404 0404 0404     ................
    8744:	0505 0505 0505 0505 0505 0505 0505 0505     ................
    8754:	0606 0606 0606 0606 0606 0606 0606 0606     ................
    8764:	0606 0606 0606 0606 0606 0606 0606 0606     ................
    8774:	0707 0707 0707 0707 0707 0707 0707 0707     ................
    8784:	0707 0707 0707 0707 0707 0707 0707 0707     ................
    8794:	0707 0707 0707 0707 0707 0707 0707 0707     ................
    87a4:	0707 0707 0707 0707 0707 0707 0707 0707     ................
    87b4:	0808 0808 0808 0808 0808 0808 0808 0808     ................
    87c4:	0808 0808 0808 0808 0808 0808 0808 0808     ................
    87d4:	0808 0808 0808 0808 0808 0808 0808 0808     ................
    87e4:	0808 0808 0808 0808 0808 0808 0808 0808     ................
    87f4:	0808 0808 0808 0808 0808 0808 0808 0808     ................
    8804:	0808 0808 0808 0808 0808 0808 0808 0808     ................
    8814:	0808 0808 0808 0808 0808 0808 0808 0808     ................
    8824:	0808 0808 0808 0808 0808 0808 0808 0808     ................
