
pico_test_1.elf:     file format elf32-littleriscv
pico_test_1.elf
architecture: riscv:rv32, flags 0x00000112:
EXEC_P, HAS_SYMS, D_PAGED
start address 0x00001000

Program Header:
    LOAD off    0x00001000 vaddr 0x00001000 paddr 0x00001000 align 2**12
         filesz 0x00001f3c memsz 0x00001f3c flags r-x
    LOAD off    0x00003000 vaddr 0x00000000 paddr 0x00002f3c align 2**12
         filesz 0x00000434 memsz 0x000004ac flags rw-

Sections:
Idx Name           Size      VMA       LMA       File off  Algn  Flags
  0 .text          00001f3c  00001000  00001000  00001000  2**3  CONTENTS, ALLOC, LOAD, READONLY, CODE
  1 .data          00000434  00000000  00002f3c  00003000  2**3  CONTENTS, ALLOC, LOAD, DATA
  2 .bss           00000078  00000434  00003370  00003434  2**2  ALLOC
  3 .heap          00000000  000004ac  000004ac  00003434  2**0  CONTENTS
  4 .debug_info    000039c2  00000000  00000000  00003434  2**0  CONTENTS, READONLY, DEBUGGING
  5 .debug_abbrev  00000b41  00000000  00000000  00006df6  2**0  CONTENTS, READONLY, DEBUGGING
  6 .debug_loc     000011ea  00000000  00000000  00007937  2**0  CONTENTS, READONLY, DEBUGGING
  7 .debug_aranges 00000150  00000000  00000000  00008b28  2**3  CONTENTS, READONLY, DEBUGGING
  8 .debug_ranges  00000410  00000000  00000000  00008c78  2**0  CONTENTS, READONLY, DEBUGGING
  9 .debug_line    000015d2  00000000  00000000  00009088  2**0  CONTENTS, READONLY, DEBUGGING
 10 .debug_str     00000797  00000000  00000000  0000a65a  2**0  CONTENTS, READONLY, DEBUGGING
 11 .comment       0000003a  00000000  00000000  0000adf1  2**0  CONTENTS, READONLY
 12 .debug_frame   00000458  00000000  00000000  0000ae2c  2**2  CONTENTS, READONLY, DEBUGGING
SYMBOL TABLE:
00001000 l    d  .text	00000000 .text
00000000 l    d  .data	00000000 .data
00000434 l    d  .bss	00000000 .bss
000004ac l    d  .heap	00000000 .heap
00000000 l    d  .debug_info	00000000 .debug_info
00000000 l    d  .debug_abbrev	00000000 .debug_abbrev
00000000 l    d  .debug_loc	00000000 .debug_loc
00000000 l    d  .debug_aranges	00000000 .debug_aranges
00000000 l    d  .debug_ranges	00000000 .debug_ranges
00000000 l    d  .debug_line	00000000 .debug_line
00000000 l    d  .debug_str	00000000 .debug_str
00000000 l    d  .comment	00000000 .comment
00000000 l    d  .debug_frame	00000000 .debug_frame
00000000 l    df *ABS*	00000000 main.c
00000000 l    df *ABS*	00000000 snake.c
00001276 l     F .text	0000002c HDMI_DrawPoint.part.0
000004a8 l     O .bss	00000001 node_cnt
00000000 l    df *ABS*	00000000 ./src/start.o
00001000 l       .text	00000000 start
0000107a l       .text	00000000 setmemloop
000010a2 l       .text	00000000 end_init_data
00001096 l       .text	00000000 loop_init_data
000010b8 l       .text	00000000 end_init_bss
000010ae l       .text	00000000 loop_init_bss
00000000 l    df *ABS*	00000000 test.c
00000000 l    df *ABS*	00000000 uart.c
000016be l     F .text	0000004c print_num.part.0
00000000 l    df *ABS*	00000000 muldf3.c
00000000 l    df *ABS*	00000000 subdf3.c
00000000 l    df *ABS*	00000000 fixdfsi.c
00000000 l    df *ABS*	00000000 floatunsidf.c
00000000 l    df *ABS*	00000000 libgcc2.c
00000000 l    df *ABS*	00000000 libgcc2.c
00000000 l    df *ABS*	00000000 rand.c
00000000 l    df *ABS*	00000000 impure.c
00000000 l     O .data	00000428 impure_data
000017be g     F .text	00000078 print_flt
000011c8 g     F .text	00000048 block_test
00002f3c g       .text	00000000 _sidata
00000498 g     O .bss	00000004 delaycnt
0000138e g     F .text	00000320 SnakeGameStart
00001314 g     F .text	0000001c draw_c
000010c0 g     F .text	00000002 led_blink
00000434 g     O .bss	00000064 snake_info
00002f3c g       .text	00000000 _etext
00000434 g       .bss	00000000 _sbss
000012c0 g     F .text	00000014 draw_point
0000196a g     F .text	00000084 getchar_prompt
0000172a g     F .text	00000028 print_str
000004a0 g     O .bss	00000004 temp_data
00000000 g       .data	00000000 _sdata
000017ae g     F .text	00000010 print_dec
0000042c g     O .data	00000004 _global_impure_ptr
000029a8 g     F .text	000000c0 .hidden __floatunsidf
00001330 g     F .text	0000005e draw_gameover
000004ac g       .bss	00000000 _ebss
00002924 g     F .text	00000084 .hidden __fixdfsi
000004ac g       .heap	00000000 _heap_start
000010d4 g     F .text	00000040 gpio_test
000004a4 g     O .bss	00000004 uart_data
00000000 g       .data	00000000 _ram_start
000019ee g     F .text	0000002a get_char
00002a68 g     F .text	00000094 .hidden __clzsi2
000016ae g     F .text	0000000a test
000010c2 g     F .text	00000012 ps2_test
00002b10 g     F .text	0000005c rand
00001114 g     F .text	000000b4 rgb_test
00001836 g     F .text	00000134 printk
00001a18 g     F .text	0000068c .hidden __muldf3
0000179e g     F .text	00000010 print_hex2
00001210 g     F .text	00000066 main
00002afc g     F .text	00000014 srand
00001752 g     F .text	0000004c print_hex
00000428 g     O .data	00000004 rgb_data
000012ee g     F .text	00000026 delay
00002e3c g     O .text	00000100 .hidden __clz_tab
0000049c g     O .bss	00000004 rgb_data_get_test
00000430 g     O .data	00000004 _impure_ptr
000012d4 g     F .text	0000001a clear_point
000016b8 g     F .text	00000006 print_num
000012a2 g     F .text	0000001e HDMI_DrawPoint
00000434 g       .data	00000000 _edata
000020a4 g     F .text	00000880 .hidden __subdf3
0000170a g     F .text	00000020 put_char



Disassembly of section .text:

00001000 <start>:
start():
D:\Hummingbird\HBird-workspace\pico_test_1\Debug/../src/start.S:5
	.section .text

start:
	# zero-initialize register file
	addi x1, zero, 0
    1000:	00000093          	li	ra,0
D:\Hummingbird\HBird-workspace\pico_test_1\Debug/../src/start.S:7
	# x2 (sp) is initialized by reset
	addi x3, zero, 0
    1004:	00000193          	li	gp,0
D:\Hummingbird\HBird-workspace\pico_test_1\Debug/../src/start.S:8
	addi x4, zero, 0
    1008:	00000213          	li	tp,0
D:\Hummingbird\HBird-workspace\pico_test_1\Debug/../src/start.S:9
	addi x5, zero, 0
    100c:	00000293          	li	t0,0
D:\Hummingbird\HBird-workspace\pico_test_1\Debug/../src/start.S:10
	addi x6, zero, 0
    1010:	00000313          	li	t1,0
D:\Hummingbird\HBird-workspace\pico_test_1\Debug/../src/start.S:11
	addi x7, zero, 0
    1014:	00000393          	li	t2,0
D:\Hummingbird\HBird-workspace\pico_test_1\Debug/../src/start.S:12
	addi x8, zero, 0
    1018:	00000413          	li	s0,0
D:\Hummingbird\HBird-workspace\pico_test_1\Debug/../src/start.S:13
	addi x9, zero, 0
    101c:	00000493          	li	s1,0
D:\Hummingbird\HBird-workspace\pico_test_1\Debug/../src/start.S:14
	addi x10, zero, 0
    1020:	00000513          	li	a0,0
D:\Hummingbird\HBird-workspace\pico_test_1\Debug/../src/start.S:15
	addi x11, zero, 0
    1024:	00000593          	li	a1,0
D:\Hummingbird\HBird-workspace\pico_test_1\Debug/../src/start.S:16
	addi x12, zero, 0
    1028:	00000613          	li	a2,0
D:\Hummingbird\HBird-workspace\pico_test_1\Debug/../src/start.S:17
	addi x13, zero, 0
    102c:	00000693          	li	a3,0
D:\Hummingbird\HBird-workspace\pico_test_1\Debug/../src/start.S:18
	addi x14, zero, 0
    1030:	00000713          	li	a4,0
D:\Hummingbird\HBird-workspace\pico_test_1\Debug/../src/start.S:19
	addi x15, zero, 0
    1034:	00000793          	li	a5,0
D:\Hummingbird\HBird-workspace\pico_test_1\Debug/../src/start.S:20
	addi x16, zero, 0
    1038:	00000813          	li	a6,0
D:\Hummingbird\HBird-workspace\pico_test_1\Debug/../src/start.S:21
	addi x17, zero, 0
    103c:	00000893          	li	a7,0
D:\Hummingbird\HBird-workspace\pico_test_1\Debug/../src/start.S:22
	addi x18, zero, 0
    1040:	00000913          	li	s2,0
D:\Hummingbird\HBird-workspace\pico_test_1\Debug/../src/start.S:23
	addi x19, zero, 0
    1044:	00000993          	li	s3,0
D:\Hummingbird\HBird-workspace\pico_test_1\Debug/../src/start.S:24
	addi x20, zero, 0
    1048:	00000a13          	li	s4,0
D:\Hummingbird\HBird-workspace\pico_test_1\Debug/../src/start.S:25
	addi x21, zero, 0
    104c:	00000a93          	li	s5,0
D:\Hummingbird\HBird-workspace\pico_test_1\Debug/../src/start.S:26
	addi x22, zero, 0
    1050:	00000b13          	li	s6,0
D:\Hummingbird\HBird-workspace\pico_test_1\Debug/../src/start.S:27
	addi x23, zero, 0
    1054:	00000b93          	li	s7,0
D:\Hummingbird\HBird-workspace\pico_test_1\Debug/../src/start.S:28
	addi x24, zero, 0
    1058:	00000c13          	li	s8,0
D:\Hummingbird\HBird-workspace\pico_test_1\Debug/../src/start.S:29
	addi x25, zero, 0
    105c:	00000c93          	li	s9,0
D:\Hummingbird\HBird-workspace\pico_test_1\Debug/../src/start.S:30
	addi x26, zero, 0
    1060:	00000d13          	li	s10,0
D:\Hummingbird\HBird-workspace\pico_test_1\Debug/../src/start.S:31
	addi x27, zero, 0
    1064:	00000d93          	li	s11,0
D:\Hummingbird\HBird-workspace\pico_test_1\Debug/../src/start.S:32
	addi x28, zero, 0
    1068:	00000e13          	li	t3,0
D:\Hummingbird\HBird-workspace\pico_test_1\Debug/../src/start.S:33
	addi x29, zero, 0
    106c:	00000e93          	li	t4,0
D:\Hummingbird\HBird-workspace\pico_test_1\Debug/../src/start.S:34
	addi x30, zero, 0
    1070:	00000f13          	li	t5,0
D:\Hummingbird\HBird-workspace\pico_test_1\Debug/../src/start.S:35
	addi x31, zero, 0
    1074:	00000f93          	li	t6,0
D:\Hummingbird\HBird-workspace\pico_test_1\Debug/../src/start.S:38

	# zero initialize entire scratchpad memory
	li a0, 0x00000000
    1078:	4501                	li	a0,0

0000107a <setmemloop>:
setmemloop():
D:\Hummingbird\HBird-workspace\pico_test_1\Debug/../src/start.S:40
setmemloop:
	sw a0, 0(a0)
    107a:	c108                	sw	a0,0(a0)
D:\Hummingbird\HBird-workspace\pico_test_1\Debug/../src/start.S:41
	addi a0, a0, 4
    107c:	0511                	addi	a0,a0,4
D:\Hummingbird\HBird-workspace\pico_test_1\Debug/../src/start.S:42
	blt a0, sp, setmemloop
    107e:	fe254ee3          	blt	a0,sp,107a <setmemloop>
D:\Hummingbird\HBird-workspace\pico_test_1\Debug/../src/start.S:45

	# copy data section
	la a0, _sidata
    1082:	00002517          	auipc	a0,0x2
    1086:	eba50513          	addi	a0,a0,-326 # 2f3c <_etext>
D:\Hummingbird\HBird-workspace\pico_test_1\Debug/../src/start.S:46
	la a1, _sdata
    108a:	00000593          	li	a1,0
D:\Hummingbird\HBird-workspace\pico_test_1\Debug/../src/start.S:47
	la a2, _edata
    108e:	43400613          	li	a2,1076
D:\Hummingbird\HBird-workspace\pico_test_1\Debug/../src/start.S:48
	bge a1, a2, end_init_data
    1092:	00c5d863          	ble	a2,a1,10a2 <end_init_data>

00001096 <loop_init_data>:
loop_init_data():
D:\Hummingbird\HBird-workspace\pico_test_1\Debug/../src/start.S:50
loop_init_data:
	lw a3, 0(a0)
    1096:	4114                	lw	a3,0(a0)
D:\Hummingbird\HBird-workspace\pico_test_1\Debug/../src/start.S:51
	sw a3, 0(a1)
    1098:	c194                	sw	a3,0(a1)
D:\Hummingbird\HBird-workspace\pico_test_1\Debug/../src/start.S:52
	addi a0, a0, 4
    109a:	0511                	addi	a0,a0,4
D:\Hummingbird\HBird-workspace\pico_test_1\Debug/../src/start.S:53
	addi a1, a1, 4
    109c:	0591                	addi	a1,a1,4
D:\Hummingbird\HBird-workspace\pico_test_1\Debug/../src/start.S:54
	blt a1, a2, loop_init_data
    109e:	fec5cce3          	blt	a1,a2,1096 <loop_init_data>

000010a2 <end_init_data>:
end_init_data():
D:\Hummingbird\HBird-workspace\pico_test_1\Debug/../src/start.S:58
end_init_data:

	# zero-init bss section
	la a0, _sbss
    10a2:	43400513          	li	a0,1076
D:\Hummingbird\HBird-workspace\pico_test_1\Debug/../src/start.S:59
	la a1, _ebss
    10a6:	4ac00593          	li	a1,1196
D:\Hummingbird\HBird-workspace\pico_test_1\Debug/../src/start.S:60
	bge a0, a1, end_init_bss
    10aa:	00b55763          	ble	a1,a0,10b8 <end_init_bss>

000010ae <loop_init_bss>:
loop_init_bss():
D:\Hummingbird\HBird-workspace\pico_test_1\Debug/../src/start.S:62
loop_init_bss:
	sw zero, 0(a0)
    10ae:	00052023          	sw	zero,0(a0)
D:\Hummingbird\HBird-workspace\pico_test_1\Debug/../src/start.S:63
	addi a0, a0, 4
    10b2:	0511                	addi	a0,a0,4
D:\Hummingbird\HBird-workspace\pico_test_1\Debug/../src/start.S:64
	blt a0, a1, loop_init_bss
    10b4:	feb54de3          	blt	a0,a1,10ae <loop_init_bss>

000010b8 <end_init_bss>:
end_init_bss():
D:\Hummingbird\HBird-workspace\pico_test_1\Debug/../src/start.S:69
end_init_bss:


	/* jump to main C code */
	jal ra,main
    10b8:	158000ef          	jal	ra,1210 <main>
D:\Hummingbird\HBird-workspace\pico_test_1\Debug/../src/start.S:72

1:
	j 1b
    10bc:	a001                	j	10bc <end_init_bss+0x4>
D:\Hummingbird\HBird-workspace\pico_test_1\Debug/../src/start.S:75

	/* trap */
	ebreak
    10be:	9002                	ebreak

000010c0 <led_blink>:
led_blink():
D:\Hummingbird\HBird-workspace\pico_test_1\Debug/../src/main.c:84
//				printk("risc-v has found rgb_adress");
//			else printk("%x",rgb_data_get_test);
//		}
//		rgb_out_address = rgb_data;
//	}
}
    10c0:	8082                	ret

000010c2 <ps2_test>:
ps2_test():
D:\Hummingbird\HBird-workspace\pico_test_1\Debug/../src/main.c:87

void ps2_test(){
	int getps2 = *ps2ctrl_point;
    10c2:	67a1                	lui	a5,0x8
    10c4:	0a07a583          	lw	a1,160(a5) # 80a0 <_etext+0x5164>
D:\Hummingbird\HBird-workspace\pico_test_1\Debug/../src/main.c:88
	printk("getps2 = %d\n",getps2);
    10c8:	00003537          	lui	a0,0x3
    10cc:	c2850513          	addi	a0,a0,-984 # 2c28 <rand+0x118>
    10d0:	7660006f          	j	1836 <printk>

000010d4 <gpio_test>:
gpio_test():
D:\Hummingbird\HBird-workspace\pico_test_1\Debug/../src/main.c:93
}

void gpio_test(){
	int count = 0;
	temp_data = *gpio_point;
    10d4:	67a1                	lui	a5,0x8
    10d6:	5b98                	lw	a4,48(a5)
D:\Hummingbird\HBird-workspace\pico_test_1\Debug/../src/main.c:91
void gpio_test(){
    10d8:	1141                	addi	sp,sp,-16
D:\Hummingbird\HBird-workspace\pico_test_1\Debug/../src/main.c:93
	temp_data = *gpio_point;
    10da:	4ae02023          	sw	a4,1184(zero) # 4a0 <temp_data>
D:\Hummingbird\HBird-workspace\pico_test_1\Debug/../src/main.c:94
	if(GPIO_DATA == temp_data)
    10de:	67ad                	lui	a5,0xb
D:\Hummingbird\HBird-workspace\pico_test_1\Debug/../src/main.c:91
void gpio_test(){
    10e0:	c606                	sw	ra,12(sp)
    10e2:	c422                	sw	s0,8(sp)
D:\Hummingbird\HBird-workspace\pico_test_1\Debug/../src/main.c:94
	if(GPIO_DATA == temp_data)
    10e4:	a5578793          	addi	a5,a5,-1451 # aa55 <_etext+0x7b19>
    10e8:	00f70f63          	beq	a4,a5,1106 <gpio_test+0x32>
D:\Hummingbird\HBird-workspace\pico_test_1\Debug/../src/main.c:100
	{
		printk("gpio success\n");
	}
	else
	{
		printk("gpio failed\n");
    10ec:	00003537          	lui	a0,0x3
    10f0:	b7c50513          	addi	a0,a0,-1156 # 2b7c <rand+0x6c>
    10f4:	742000ef          	jal	ra,1836 <printk>
    10f8:	00003437          	lui	s0,0x3
D:\Hummingbird\HBird-workspace\pico_test_1\Debug/../src/main.c:106
	}
	while(1){
		count++;
		if(count == 10000){
			count = 0;
			printk("test\n");
    10fc:	b8c40513          	addi	a0,s0,-1140 # 2b8c <rand+0x7c>
    1100:	736000ef          	jal	ra,1836 <printk>
    1104:	bfe5                	j	10fc <gpio_test+0x28>
D:\Hummingbird\HBird-workspace\pico_test_1\Debug/../src/main.c:96
		printk("gpio success\n");
    1106:	00003537          	lui	a0,0x3
    110a:	b6c50513          	addi	a0,a0,-1172 # 2b6c <rand+0x5c>
    110e:	728000ef          	jal	ra,1836 <printk>
    1112:	b7dd                	j	10f8 <gpio_test+0x24>

00001114 <rgb_test>:
rgb_test():
D:\Hummingbird\HBird-workspace\pico_test_1\Debug/../src/main.c:112
		}
	}
}


void rgb_test(){
    1114:	1101                	addi	sp,sp,-32
D:\Hummingbird\HBird-workspace\pico_test_1\Debug/../src/main.c:117
	int addr = 0;
	int data = 0;
	int cut = 0;
	data= POINT;
	ram_address = addr;
    1116:	67a1                	lui	a5,0x8
D:\Hummingbird\HBird-workspace\pico_test_1\Debug/../src/main.c:112
void rgb_test(){
    1118:	ce06                	sw	ra,28(sp)
    111a:	cc22                	sw	s0,24(sp)
    111c:	ca26                	sw	s1,20(sp)
    111e:	c84a                	sw	s2,16(sp)
    1120:	c64e                	sw	s3,12(sp)
    1122:	c452                	sw	s4,8(sp)
    1124:	c256                	sw	s5,4(sp)
D:\Hummingbird\HBird-workspace\pico_test_1\Debug/../src/main.c:117
	ram_address = addr;
    1126:	0607a023          	sw	zero,96(a5) # 8060 <_etext+0x5124>
D:\Hummingbird\HBird-workspace\pico_test_1\Debug/../src/main.c:118
	ram_data_address = data;
    112a:	474d                	li	a4,19
D:\Hummingbird\HBird-workspace\pico_test_1\Debug/../src/main.c:119
	delay(DELAY_CUT,1,1);
    112c:	000f44b7          	lui	s1,0xf4
D:\Hummingbird\HBird-workspace\pico_test_1\Debug/../src/main.c:118
	ram_data_address = data;
    1130:	dbb8                	sw	a4,112(a5)
D:\Hummingbird\HBird-workspace\pico_test_1\Debug/../src/main.c:119
	delay(DELAY_CUT,1,1);
    1132:	24048513          	addi	a0,s1,576 # f4240 <_etext+0xf1304>
    1136:	4605                	li	a2,1
    1138:	4585                	li	a1,1
    113a:	2a55                	jal	12ee <delay>
D:\Hummingbird\HBird-workspace\pico_test_1\Debug/../src/main.c:120
	delay(DELAY_CUT,2,1);
    113c:	4605                	li	a2,1
    113e:	24048513          	addi	a0,s1,576
    1142:	4589                	li	a1,2
    1144:	226d                	jal	12ee <delay>
D:\Hummingbird\HBird-workspace\pico_test_1\Debug/../src/main.c:121
	clear_point(1,1);
    1146:	4585                	li	a1,1
    1148:	4505                	li	a0,1
    114a:	2269                	jal	12d4 <clear_point>
D:\Hummingbird\HBird-workspace\pico_test_1\Debug/../src/main.c:122
	delay(DELAY_CUT,18,21);
    114c:	24048513          	addi	a0,s1,576
    1150:	4655                	li	a2,21
    1152:	45c9                	li	a1,18
    1154:	2a69                	jal	12ee <delay>
D:\Hummingbird\HBird-workspace\pico_test_1\Debug/../src/main.c:123
	delay(DELAY_CUT,3,1);
    1156:	4605                	li	a2,1
    1158:	24048513          	addi	a0,s1,576
    115c:	458d                	li	a1,3
    115e:	2a41                	jal	12ee <delay>
D:\Hummingbird\HBird-workspace\pico_test_1\Debug/../src/main.c:124
	clear_point(2,1);
    1160:	4585                	li	a1,1
    1162:	4509                	li	a0,2
    1164:	2a85                	jal	12d4 <clear_point>
D:\Hummingbird\HBird-workspace\pico_test_1\Debug/../src/main.c:125
	delay(DELAY_CUT,4,1);
    1166:	4605                	li	a2,1
    1168:	24048513          	addi	a0,s1,576
    116c:	4591                	li	a1,4
    116e:	2241                	jal	12ee <delay>
D:\Hummingbird\HBird-workspace\pico_test_1\Debug/../src/main.c:126
	clear_point(3,1);
    1170:	4585                	li	a1,1
    1172:	450d                	li	a0,3
    1174:	2285                	jal	12d4 <clear_point>
D:\Hummingbird\HBird-workspace\pico_test_1\Debug/../src/main.c:127
	delay(DELAY_CUT,5,1);
    1176:	4605                	li	a2,1
    1178:	24048513          	addi	a0,s1,576
    117c:	4595                	li	a1,5
    117e:	2a85                	jal	12ee <delay>
D:\Hummingbird\HBird-workspace\pico_test_1\Debug/../src/main.c:128
	clear_point(4,1);
    1180:	4585                	li	a1,1
    1182:	4511                	li	a0,4
    1184:	2a81                	jal	12d4 <clear_point>
D:\Hummingbird\HBird-workspace\pico_test_1\Debug/../src/main.c:129
	delay(DELAY_CUT,6,1);
    1186:	24048513          	addi	a0,s1,576
    118a:	4605                	li	a2,1
    118c:	4599                	li	a1,6
    118e:	2285                	jal	12ee <delay>
D:\Hummingbird\HBird-workspace\pico_test_1\Debug/../src/main.c:130
	clear_point(5,1);
    1190:	4585                	li	a1,1
    1192:	4515                	li	a0,5
D:\Hummingbird\HBird-workspace\pico_test_1\Debug/../src/main.c:138
		if(cut==1000000){
			cut = 0;
			addr++;
			printk("addr:%x",addr);
		}
		ram_address = addr;
    1194:	6921                	lui	s2,0x8
D:\Hummingbird\HBird-workspace\pico_test_1\Debug/../src/main.c:130
	clear_point(5,1);
    1196:	2a3d                	jal	12d4 <clear_point>
D:\Hummingbird\HBird-workspace\pico_test_1\Debug/../src/main.c:113
	int addr = 0;
    1198:	4401                	li	s0,0
D:\Hummingbird\HBird-workspace\pico_test_1\Debug/../src/main.c:132
		cut++;
    119a:	4785                	li	a5,1
    119c:	00003ab7          	lui	s5,0x3
D:\Hummingbird\HBird-workspace\pico_test_1\Debug/../src/main.c:139
		ram_data_address = 0b00100011;
    11a0:	07090a13          	addi	s4,s2,112 # 8070 <_etext+0x5134>
    11a4:	02300993          	li	s3,35
D:\Hummingbird\HBird-workspace\pico_test_1\Debug/../src/main.c:133
		if(cut==1000000){
    11a8:	24048493          	addi	s1,s1,576
D:\Hummingbird\HBird-workspace\pico_test_1\Debug/../src/main.c:138
		ram_address = addr;
    11ac:	06892023          	sw	s0,96(s2)
D:\Hummingbird\HBird-workspace\pico_test_1\Debug/../src/main.c:132
		cut++;
    11b0:	0785                	addi	a5,a5,1
D:\Hummingbird\HBird-workspace\pico_test_1\Debug/../src/main.c:139
		ram_data_address = 0b00100011;
    11b2:	013a2023          	sw	s3,0(s4)
D:\Hummingbird\HBird-workspace\pico_test_1\Debug/../src/main.c:133
		if(cut==1000000){
    11b6:	fe979be3          	bne	a5,s1,11ac <rgb_test+0x98>
D:\Hummingbird\HBird-workspace\pico_test_1\Debug/../src/main.c:135
			addr++;
    11ba:	0405                	addi	s0,s0,1
D:\Hummingbird\HBird-workspace\pico_test_1\Debug/../src/main.c:136
			printk("addr:%x",addr);
    11bc:	85a2                	mv	a1,s0
    11be:	c38a8513          	addi	a0,s5,-968 # 2c38 <rand+0x128>
    11c2:	2d95                	jal	1836 <printk>
D:\Hummingbird\HBird-workspace\pico_test_1\Debug/../src/main.c:134
			cut = 0;
    11c4:	4781                	li	a5,0
    11c6:	b7dd                	j	11ac <rgb_test+0x98>

000011c8 <block_test>:
block_test():
D:\Hummingbird\HBird-workspace\pico_test_1\Debug/../src/main.c:143
	}
}

void block_test(){
    11c8:	1141                	addi	sp,sp,-16
D:\Hummingbird\HBird-workspace\pico_test_1\Debug/../src/main.c:144
	draw_c(8,5,2);
    11ca:	4609                	li	a2,2
    11cc:	4595                	li	a1,5
    11ce:	4521                	li	a0,8
D:\Hummingbird\HBird-workspace\pico_test_1\Debug/../src/main.c:143
void block_test(){
    11d0:	c606                	sw	ra,12(sp)
D:\Hummingbird\HBird-workspace\pico_test_1\Debug/../src/main.c:144
	draw_c(8,5,2);
    11d2:	2289                	jal	1314 <draw_c>
D:\Hummingbird\HBird-workspace\pico_test_1\Debug/../src/main.c:145
	draw_c(10,5,3);
    11d4:	460d                	li	a2,3
    11d6:	4595                	li	a1,5
    11d8:	4529                	li	a0,10
    11da:	2a2d                	jal	1314 <draw_c>
D:\Hummingbird\HBird-workspace\pico_test_1\Debug/../src/main.c:146
	draw_c(12,5,4);
    11dc:	4611                	li	a2,4
    11de:	4595                	li	a1,5
    11e0:	4531                	li	a0,12
    11e2:	2a0d                	jal	1314 <draw_c>
D:\Hummingbird\HBird-workspace\pico_test_1\Debug/../src/main.c:147
	draw_c(14,5,5);
    11e4:	4615                	li	a2,5
    11e6:	4595                	li	a1,5
    11e8:	4539                	li	a0,14
    11ea:	222d                	jal	1314 <draw_c>
D:\Hummingbird\HBird-workspace\pico_test_1\Debug/../src/main.c:148
	draw_c(16,5,6);
    11ec:	4619                	li	a2,6
    11ee:	4595                	li	a1,5
    11f0:	4541                	li	a0,16
    11f2:	220d                	jal	1314 <draw_c>
D:\Hummingbird\HBird-workspace\pico_test_1\Debug/../src/main.c:149
	draw_c(18,5,7);
    11f4:	461d                	li	a2,7
    11f6:	4595                	li	a1,5
    11f8:	4549                	li	a0,18
    11fa:	2a29                	jal	1314 <draw_c>
D:\Hummingbird\HBird-workspace\pico_test_1\Debug/../src/main.c:150
	draw_c(20,5,5);
    11fc:	4615                	li	a2,5
    11fe:	4595                	li	a1,5
    1200:	4551                	li	a0,20
    1202:	2a09                	jal	1314 <draw_c>
D:\Hummingbird\HBird-workspace\pico_test_1\Debug/../src/main.c:152
	draw_c(22,5,0);
}
    1204:	40b2                	lw	ra,12(sp)
D:\Hummingbird\HBird-workspace\pico_test_1\Debug/../src/main.c:151
	draw_c(22,5,0);
    1206:	4601                	li	a2,0
    1208:	4595                	li	a1,5
    120a:	4559                	li	a0,22
D:\Hummingbird\HBird-workspace\pico_test_1\Debug/../src/main.c:152
}
    120c:	0141                	addi	sp,sp,16
D:\Hummingbird\HBird-workspace\pico_test_1\Debug/../src/main.c:151
	draw_c(22,5,0);
    120e:	a219                	j	1314 <draw_c>

00001210 <main>:
main():
D:\Hummingbird\HBird-workspace\pico_test_1\Debug/../src/main.c:155

int main(void)
{
    1210:	1141                	addi	sp,sp,-16
D:\Hummingbird\HBird-workspace\pico_test_1\Debug/../src/main.c:156
	reg_uart_clkdiv = BAUND_9600;
    1212:	6785                	lui	a5,0x1
D:\Hummingbird\HBird-workspace\pico_test_1\Debug/../src/main.c:155
{
    1214:	c606                	sw	ra,12(sp)
D:\Hummingbird\HBird-workspace\pico_test_1\Debug/../src/main.c:156
	reg_uart_clkdiv = BAUND_9600;
    1216:	6721                	lui	a4,0x8
    1218:	45878793          	addi	a5,a5,1112 # 1458 <SnakeGameStart+0xca>
D:\Hummingbird\HBird-workspace\pico_test_1\Debug/../src/main.c:157
	printk("Hello Risc-V Pango 2019\n");
    121c:	00003537          	lui	a0,0x3
D:\Hummingbird\HBird-workspace\pico_test_1\Debug/../src/main.c:156
	reg_uart_clkdiv = BAUND_9600;
    1220:	c31c                	sw	a5,0(a4)
D:\Hummingbird\HBird-workspace\pico_test_1\Debug/../src/main.c:157
	printk("Hello Risc-V Pango 2019\n");
    1222:	ba850513          	addi	a0,a0,-1112 # 2ba8 <rand+0x98>
    1226:	2d01                	jal	1836 <printk>
D:\Hummingbird\HBird-workspace\pico_test_1\Debug/../src/main.c:158
	printk("test data = %d,%f,%s,0x = %x\n", 100,33.456,"2019",100);
    1228:	000037b7          	lui	a5,0x3
    122c:	b987a603          	lw	a2,-1128(a5) # 2b98 <rand+0x88>
    1230:	b9c7a683          	lw	a3,-1124(a5)
    1234:	00003737          	lui	a4,0x3
    1238:	00003537          	lui	a0,0x3
    123c:	06400793          	li	a5,100
    1240:	bc470713          	addi	a4,a4,-1084 # 2bc4 <rand+0xb4>
    1244:	06400593          	li	a1,100
    1248:	bcc50513          	addi	a0,a0,-1076 # 2bcc <rand+0xbc>
    124c:	23ed                	jal	1836 <printk>
D:\Hummingbird\HBird-workspace\pico_test_1\Debug/../src/main.c:159
	printk("simple compute : 50*10 = %d,100/3 = %f,100%3 = %d\n", 50*10,(double)100/3,(int)100%3);
    124e:	000037b7          	lui	a5,0x3
    1252:	ba07a603          	lw	a2,-1120(a5) # 2ba0 <rand+0x90>
    1256:	ba47a683          	lw	a3,-1116(a5)
    125a:	00003537          	lui	a0,0x3
    125e:	4705                	li	a4,1
    1260:	1f400593          	li	a1,500
    1264:	bec50513          	addi	a0,a0,-1044 # 2bec <rand+0xdc>
    1268:	23f9                	jal	1836 <printk>
D:\Hummingbird\HBird-workspace\pico_test_1\Debug/../src/main.c:160
	printk("test/n");
    126a:	00003537          	lui	a0,0x3
    126e:	c2050513          	addi	a0,a0,-992 # 2c20 <rand+0x110>
    1272:	23d1                	jal	1836 <printk>
D:\Hummingbird\HBird-workspace\pico_test_1\Debug/../src/main.c:161
	gpio_test();
    1274:	3585                	jal	10d4 <gpio_test>

00001276 <HDMI_DrawPoint.part.0>:
delay():
D:\Hummingbird\HBird-workspace\pico_test_1\Debug/../src/snake.c:35
		ram_data_address = 0;
	}
}
void delay(long d,char x,char y){
	int addr_temp;
	addr_temp = 40*y + x;
    1276:	05e2                	slli	a1,a1,0x18
    1278:	85e1                	srai	a1,a1,0x18
    127a:	00259713          	slli	a4,a1,0x2
    127e:	972e                	add	a4,a4,a1
    1280:	0562                	slli	a0,a0,0x18
    1282:	070e                	slli	a4,a4,0x3
    1284:	8561                	srai	a0,a0,0x18
D:\Hummingbird\HBird-workspace\pico_test_1\Debug/../src/snake.c:38
	long count = d;
	while(count--){
		ram_address = addr_temp;
    1286:	66a1                	lui	a3,0x8
D:\Hummingbird\HBird-workspace\pico_test_1\Debug/../src/snake.c:35
	addr_temp = 40*y + x;
    1288:	000f47b7          	lui	a5,0xf4
    128c:	972a                	add	a4,a4,a0
    128e:	24078793          	addi	a5,a5,576 # f4240 <_etext+0xf1304>
D:\Hummingbird\HBird-workspace\pico_test_1\Debug/../src/snake.c:39
		ram_data_address = POINT;
    1292:	07068593          	addi	a1,a3,112 # 8070 <_etext+0x5134>
    1296:	464d                	li	a2,19
D:\Hummingbird\HBird-workspace\pico_test_1\Debug/../src/snake.c:38
		ram_address = addr_temp;
    1298:	d2b8                	sw	a4,96(a3)
D:\Hummingbird\HBird-workspace\pico_test_1\Debug/../src/snake.c:39
		ram_data_address = POINT;
    129a:	c190                	sw	a2,0(a1)
    129c:	17fd                	addi	a5,a5,-1
D:\Hummingbird\HBird-workspace\pico_test_1\Debug/../src/snake.c:37
	while(count--){
    129e:	ffed                	bnez	a5,1298 <HDMI_DrawPoint.part.0+0x22>
HDMI_DrawPoint():
D:\Hummingbird\HBird-workspace\pico_test_1\Debug/../src/snake.c:15
}
    12a0:	8082                	ret

000012a2 <HDMI_DrawPoint>:
D:\Hummingbird\HBird-workspace\pico_test_1\Debug/../src/snake.c:11
	if(c)
    12a2:	c211                	beqz	a2,12a6 <HDMI_DrawPoint+0x4>
    12a4:	bfc9                	j	1276 <HDMI_DrawPoint.part.0>
clear_point():
D:\Hummingbird\HBird-workspace\pico_test_1\Debug/../src/snake.c:27
	addr_temp = 40*y + x;
    12a6:	00259693          	slli	a3,a1,0x2
    12aa:	96ae                	add	a3,a3,a1
    12ac:	068e                	slli	a3,a3,0x3
    12ae:	96aa                	add	a3,a3,a0
    12b0:	47d1                	li	a5,20
D:\Hummingbird\HBird-workspace\pico_test_1\Debug/../src/snake.c:29
		ram_address = addr_temp;
    12b2:	6721                	lui	a4,0x8
    12b4:	d334                	sw	a3,96(a4)
D:\Hummingbird\HBird-workspace\pico_test_1\Debug/../src/snake.c:30
		ram_data_address = 0;
    12b6:	06072823          	sw	zero,112(a4) # 8070 <_etext+0x5134>
    12ba:	17fd                	addi	a5,a5,-1
D:\Hummingbird\HBird-workspace\pico_test_1\Debug/../src/snake.c:28
	while(cut_temp--){
    12bc:	ffe5                	bnez	a5,12b4 <HDMI_DrawPoint+0x12>
HDMI_DrawPoint():
D:\Hummingbird\HBird-workspace\pico_test_1\Debug/../src/snake.c:15
}
    12be:	8082                	ret

000012c0 <draw_point>:
draw_point():
D:\Hummingbird\HBird-workspace\pico_test_1\Debug/../src/snake.c:19
	addr_temp = 40*y + x;
    12c0:	00259793          	slli	a5,a1,0x2
    12c4:	95be                	add	a1,a1,a5
    12c6:	058e                	slli	a1,a1,0x3
D:\Hummingbird\HBird-workspace\pico_test_1\Debug/../src/snake.c:20
	ram_address = addr_temp;
    12c8:	67a1                	lui	a5,0x8
D:\Hummingbird\HBird-workspace\pico_test_1\Debug/../src/snake.c:19
	addr_temp = 40*y + x;
    12ca:	95aa                	add	a1,a1,a0
D:\Hummingbird\HBird-workspace\pico_test_1\Debug/../src/snake.c:20
	ram_address = addr_temp;
    12cc:	d3ac                	sw	a1,96(a5)
D:\Hummingbird\HBird-workspace\pico_test_1\Debug/../src/snake.c:21
	ram_data_address = POINT;
    12ce:	474d                	li	a4,19
    12d0:	dbb8                	sw	a4,112(a5)
D:\Hummingbird\HBird-workspace\pico_test_1\Debug/../src/snake.c:22
}
    12d2:	8082                	ret

000012d4 <clear_point>:
clear_point():
D:\Hummingbird\HBird-workspace\pico_test_1\Debug/../src/snake.c:27
	addr_temp = 40*y + x;
    12d4:	00259793          	slli	a5,a1,0x2
    12d8:	97ae                	add	a5,a5,a1
    12da:	078e                	slli	a5,a5,0x3
    12dc:	953e                	add	a0,a0,a5
D:\Hummingbird\HBird-workspace\pico_test_1\Debug/../src/snake.c:29
		ram_address = addr_temp;
    12de:	6721                	lui	a4,0x8
D:\Hummingbird\HBird-workspace\pico_test_1\Debug/../src/snake.c:27
	addr_temp = 40*y + x;
    12e0:	47d1                	li	a5,20
D:\Hummingbird\HBird-workspace\pico_test_1\Debug/../src/snake.c:29
		ram_address = addr_temp;
    12e2:	d328                	sw	a0,96(a4)
D:\Hummingbird\HBird-workspace\pico_test_1\Debug/../src/snake.c:30
		ram_data_address = 0;
    12e4:	06072823          	sw	zero,112(a4) # 8070 <_etext+0x5134>
    12e8:	17fd                	addi	a5,a5,-1
D:\Hummingbird\HBird-workspace\pico_test_1\Debug/../src/snake.c:28
	while(cut_temp--){
    12ea:	ffe5                	bnez	a5,12e2 <clear_point+0xe>
D:\Hummingbird\HBird-workspace\pico_test_1\Debug/../src/snake.c:32
}
    12ec:	8082                	ret

000012ee <delay>:
delay():
D:\Hummingbird\HBird-workspace\pico_test_1\Debug/../src/snake.c:35
	addr_temp = 40*y + x;
    12ee:	00261793          	slli	a5,a2,0x2
    12f2:	963e                	add	a2,a2,a5
    12f4:	060e                	slli	a2,a2,0x3
    12f6:	95b2                	add	a1,a1,a2
D:\Hummingbird\HBird-workspace\pico_test_1\Debug/../src/snake.c:37
	while(count--){
    12f8:	fff50793          	addi	a5,a0,-1
    12fc:	c919                	beqz	a0,1312 <delay+0x24>
D:\Hummingbird\HBird-workspace\pico_test_1\Debug/../src/snake.c:38
		ram_address = addr_temp;
    12fe:	6721                	lui	a4,0x8
D:\Hummingbird\HBird-workspace\pico_test_1\Debug/../src/snake.c:39
		ram_data_address = POINT;
    1300:	07070513          	addi	a0,a4,112 # 8070 <_etext+0x5134>
    1304:	464d                	li	a2,19
D:\Hummingbird\HBird-workspace\pico_test_1\Debug/../src/snake.c:37
	while(count--){
    1306:	56fd                	li	a3,-1
D:\Hummingbird\HBird-workspace\pico_test_1\Debug/../src/snake.c:38
		ram_address = addr_temp;
    1308:	d32c                	sw	a1,96(a4)
D:\Hummingbird\HBird-workspace\pico_test_1\Debug/../src/snake.c:39
		ram_data_address = POINT;
    130a:	c110                	sw	a2,0(a0)
D:\Hummingbird\HBird-workspace\pico_test_1\Debug/../src/snake.c:37
	while(count--){
    130c:	17fd                	addi	a5,a5,-1
    130e:	fed79de3          	bne	a5,a3,1308 <delay+0x1a>
D:\Hummingbird\HBird-workspace\pico_test_1\Debug/../src/snake.c:41
	}
}
    1312:	8082                	ret

00001314 <draw_c>:
draw_c():
D:\Hummingbird\HBird-workspace\pico_test_1\Debug/../src/snake.c:46
//0:R,2:G,3:A,4:M,5:E,6:O,7:V
void draw_c(int x,int y,char c){
	int addr_temp;
	int data_temp;
	addr_temp = 40*y + x;
    1314:	00259793          	slli	a5,a1,0x2
    1318:	95be                	add	a1,a1,a5
    131a:	058e                	slli	a1,a1,0x3
D:\Hummingbird\HBird-workspace\pico_test_1\Debug/../src/snake.c:47
	data_temp = (c<<4) | (c<<1)+1;
    131c:	00161793          	slli	a5,a2,0x1
D:\Hummingbird\HBird-workspace\pico_test_1\Debug/../src/snake.c:48
	ram_address = addr_temp;
    1320:	6721                	lui	a4,0x8
D:\Hummingbird\HBird-workspace\pico_test_1\Debug/../src/snake.c:46
	addr_temp = 40*y + x;
    1322:	95aa                	add	a1,a1,a0
D:\Hummingbird\HBird-workspace\pico_test_1\Debug/../src/snake.c:47
	data_temp = (c<<4) | (c<<1)+1;
    1324:	0785                	addi	a5,a5,1
    1326:	0612                	slli	a2,a2,0x4
D:\Hummingbird\HBird-workspace\pico_test_1\Debug/../src/snake.c:48
	ram_address = addr_temp;
    1328:	d32c                	sw	a1,96(a4)
D:\Hummingbird\HBird-workspace\pico_test_1\Debug/../src/snake.c:47
	data_temp = (c<<4) | (c<<1)+1;
    132a:	8fd1                	or	a5,a5,a2
D:\Hummingbird\HBird-workspace\pico_test_1\Debug/../src/snake.c:49
	ram_data_address = data_temp;
    132c:	db3c                	sw	a5,112(a4)
D:\Hummingbird\HBird-workspace\pico_test_1\Debug/../src/snake.c:50
}
    132e:	8082                	ret

00001330 <draw_gameover>:
D:\Hummingbird\HBird-workspace\pico_test_1\Debug/../src/snake.c:48
	ram_address = addr_temp;
    1330:	67a1                	lui	a5,0x8
    1332:	26400713          	li	a4,612
    1336:	d3b8                	sw	a4,96(a5)
D:\Hummingbird\HBird-workspace\pico_test_1\Debug/../src/snake.c:49
	ram_data_address = data_temp;
    1338:	02500713          	li	a4,37
    133c:	dbb8                	sw	a4,112(a5)
D:\Hummingbird\HBird-workspace\pico_test_1\Debug/../src/snake.c:48
	ram_address = addr_temp;
    133e:	26600713          	li	a4,614
    1342:	d3b8                	sw	a4,96(a5)
D:\Hummingbird\HBird-workspace\pico_test_1\Debug/../src/snake.c:49
	ram_data_address = data_temp;
    1344:	03700713          	li	a4,55
    1348:	dbb8                	sw	a4,112(a5)
D:\Hummingbird\HBird-workspace\pico_test_1\Debug/../src/snake.c:48
	ram_address = addr_temp;
    134a:	26800713          	li	a4,616
    134e:	d3b8                	sw	a4,96(a5)
D:\Hummingbird\HBird-workspace\pico_test_1\Debug/../src/snake.c:49
	ram_data_address = data_temp;
    1350:	04900713          	li	a4,73
    1354:	dbb8                	sw	a4,112(a5)
D:\Hummingbird\HBird-workspace\pico_test_1\Debug/../src/snake.c:48
	ram_address = addr_temp;
    1356:	26a00713          	li	a4,618
    135a:	d3b8                	sw	a4,96(a5)
D:\Hummingbird\HBird-workspace\pico_test_1\Debug/../src/snake.c:49
	ram_data_address = data_temp;
    135c:	05b00713          	li	a4,91
    1360:	dbb8                	sw	a4,112(a5)
D:\Hummingbird\HBird-workspace\pico_test_1\Debug/../src/snake.c:48
	ram_address = addr_temp;
    1362:	26c00693          	li	a3,620
    1366:	d3b4                	sw	a3,96(a5)
D:\Hummingbird\HBird-workspace\pico_test_1\Debug/../src/snake.c:49
	ram_data_address = data_temp;
    1368:	06d00693          	li	a3,109
    136c:	dbb4                	sw	a3,112(a5)
D:\Hummingbird\HBird-workspace\pico_test_1\Debug/../src/snake.c:48
	ram_address = addr_temp;
    136e:	26e00693          	li	a3,622
    1372:	d3b4                	sw	a3,96(a5)
D:\Hummingbird\HBird-workspace\pico_test_1\Debug/../src/snake.c:49
	ram_data_address = data_temp;
    1374:	07f00693          	li	a3,127
    1378:	dbb4                	sw	a3,112(a5)
D:\Hummingbird\HBird-workspace\pico_test_1\Debug/../src/snake.c:48
	ram_address = addr_temp;
    137a:	27000693          	li	a3,624
    137e:	d3b4                	sw	a3,96(a5)
D:\Hummingbird\HBird-workspace\pico_test_1\Debug/../src/snake.c:49
	ram_data_address = data_temp;
    1380:	dbb8                	sw	a4,112(a5)
D:\Hummingbird\HBird-workspace\pico_test_1\Debug/../src/snake.c:48
	ram_address = addr_temp;
    1382:	27200713          	li	a4,626
    1386:	d3b8                	sw	a4,96(a5)
D:\Hummingbird\HBird-workspace\pico_test_1\Debug/../src/snake.c:49
	ram_data_address = data_temp;
    1388:	4705                	li	a4,1
    138a:	dbb8                	sw	a4,112(a5)
draw_gameover():
D:\Hummingbird\HBird-workspace\pico_test_1\Debug/../src/snake.c:60
	draw_c(18,15,5);
	draw_c(20,15,6);
	draw_c(22,15,7);
	draw_c(24,15,5);
	draw_c(26,15,0);
}
    138c:	8082                	ret

0000138e <SnakeGameStart>:
SnakeGameStart():
D:\Hummingbird\HBird-workspace\pico_test_1\Debug/../src/snake.c:136
  printk("x0:%d,y0:%d",snake_info[0].x,snake_info[0].y);
//  HDMI_DrawSnakebody(snake_info,node_cnt,1);
}
/*******************控制方向,判断游戏是否结束********************/
u8 SnakeGameStart(void)
{
    138e:	7139                	addi	sp,sp,-64
    1390:	da26                	sw	s1,52(sp)
D:\Hummingbird\HBird-workspace\pico_test_1\Debug/../src/snake.c:144
  u8 y=15;
  u8 food_x,food_y;
  u8 stat=8;
  char buff[20];
  //创建蛇身1
  snake_info[node_cnt].x=x;
    1392:	4a800493          	li	s1,1192
    1396:	0004c783          	lbu	a5,0(s1)
D:\Hummingbird\HBird-workspace\pico_test_1\Debug/../src/snake.c:136
{
    139a:	dc22                	sw	s0,56(sp)
D:\Hummingbird\HBird-workspace\pico_test_1\Debug/../src/snake.c:146
  snake_info[node_cnt].y=y;
  node_cnt++;
    139c:	00178713          	addi	a4,a5,1 # 8001 <_etext+0x50c5>
D:\Hummingbird\HBird-workspace\pico_test_1\Debug/../src/snake.c:136
{
    13a0:	cc62                	sw	s8,24(sp)
D:\Hummingbird\HBird-workspace\pico_test_1\Debug/../src/snake.c:144
  snake_info[node_cnt].x=x;
    13a2:	6685                	lui	a3,0x1
    13a4:	43400c13          	li	s8,1076
    13a8:	00179613          	slli	a2,a5,0x1
D:\Hummingbird\HBird-workspace\pico_test_1\Debug/../src/snake.c:146
  node_cnt++;
    13ac:	0ff77713          	andi	a4,a4,255
D:\Hummingbird\HBird-workspace\pico_test_1\Debug/../src/snake.c:153
  snake_info[node_cnt].x=x+1;
  snake_info[node_cnt].y=y;
  //保存蛇头坐标
  x=snake_info[node_cnt].x;
  y=snake_info[node_cnt].y;
  node_cnt++;
    13b0:	0789                	addi	a5,a5,2
D:\Hummingbird\HBird-workspace\pico_test_1\Debug/../src/snake.c:136
{
    13b2:	de06                	sw	ra,60(sp)
    13b4:	d84a                	sw	s2,48(sp)
    13b6:	d64e                	sw	s3,44(sp)
    13b8:	d452                	sw	s4,40(sp)
    13ba:	d256                	sw	s5,36(sp)
    13bc:	d05a                	sw	s6,32(sp)
    13be:	ce5e                	sw	s7,28(sp)
    13c0:	ca66                	sw	s9,20(sp)
    13c2:	c86a                	sw	s10,16(sp)
    13c4:	c66e                	sw	s11,12(sp)
D:\Hummingbird\HBird-workspace\pico_test_1\Debug/../src/snake.c:144
  snake_info[node_cnt].x=x;
    13c6:	f0f68593          	addi	a1,a3,-241 # f0f <_ebss+0xa63>
D:\Hummingbird\HBird-workspace\pico_test_1\Debug/../src/snake.c:153
  node_cnt++;
    13ca:	0ff7f793          	andi	a5,a5,255
D:\Hummingbird\HBird-workspace\pico_test_1\Debug/../src/snake.c:144
  snake_info[node_cnt].x=x;
    13ce:	9662                	add	a2,a2,s8
D:\Hummingbird\HBird-workspace\pico_test_1\Debug/../src/snake.c:148
  snake_info[node_cnt].x=x+1;
    13d0:	0706                	slli	a4,a4,0x1
D:\Hummingbird\HBird-workspace\pico_test_1\Debug/../src/snake.c:144
  snake_info[node_cnt].x=x;
    13d2:	00b61023          	sh	a1,0(a2)
D:\Hummingbird\HBird-workspace\pico_test_1\Debug/../src/snake.c:148
  snake_info[node_cnt].x=x+1;
    13d6:	f1068693          	addi	a3,a3,-240
    13da:	00ec05b3          	add	a1,s8,a4
D:\Hummingbird\HBird-workspace\pico_test_1\Debug/../src/snake.c:155
  snake_info[node_cnt].y = y;
  snake_info[node_cnt].x = x;
    13de:	00179613          	slli	a2,a5,0x1
D:\Hummingbird\HBird-workspace\pico_test_1\Debug/../src/snake.c:148
  snake_info[node_cnt].x=x+1;
    13e2:	00d59023          	sh	a3,0(a1)
D:\Hummingbird\HBird-workspace\pico_test_1\Debug/../src/snake.c:155
  snake_info[node_cnt].x = x;
    13e6:	9662                	add	a2,a2,s8
D:\Hummingbird\HBird-workspace\pico_test_1\Debug/../src/snake.c:153
  node_cnt++;
    13e8:	00f48023          	sb	a5,0(s1)
D:\Hummingbird\HBird-workspace\pico_test_1\Debug/../src/snake.c:155
  snake_info[node_cnt].x = x;
    13ec:	00d61023          	sh	a3,0(a2)
HDMI_DrawSnakebody():
D:\Hummingbird\HBird-workspace\pico_test_1\Debug/../src/snake.c:75
    for(i=0;i<cnt;i++)
    13f0:	cf91                	beqz	a5,140c <SnakeGameStart+0x7e>
    13f2:	002c0913          	addi	s2,s8,2
    13f6:	43400413          	li	s0,1076
    13fa:	993a                	add	s2,s2,a4
HDMI_DrawPoint():
    13fc:	00144583          	lbu	a1,1(s0)
    1400:	00044503          	lbu	a0,0(s0)
    1404:	0409                	addi	s0,s0,2
    1406:	3d85                	jal	1276 <HDMI_DrawPoint.part.0>
HDMI_DrawSnakebody():
    1408:	ff241ae3          	bne	s0,s2,13fc <SnakeGameStart+0x6e>
SnakeGameStart():
D:\Hummingbird\HBird-workspace\pico_test_1\Debug/../src/snake.c:158
  HDMI_DrawSnakebody(snake_info,node_cnt,1);//绘制蛇身
  //生成实物坐标
  food_x=(rand()%40)+1;
    140c:	704010ef          	jal	ra,2b10 <rand>
    1410:	842a                	mv	s0,a0
D:\Hummingbird\HBird-workspace\pico_test_1\Debug/../src/snake.c:159
  food_y=(rand()%30)+1;
    1412:	6fe010ef          	jal	ra,2b10 <rand>
    1416:	4679                	li	a2,30
D:\Hummingbird\HBird-workspace\pico_test_1\Debug/../src/snake.c:158
  food_x=(rand()%40)+1;
    1418:	02800593          	li	a1,40
D:\Hummingbird\HBird-workspace\pico_test_1\Debug/../src/snake.c:159
  food_y=(rand()%30)+1;
    141c:	02c56633          	rem	a2,a0,a2
D:\Hummingbird\HBird-workspace\pico_test_1\Debug/../src/snake.c:160
  printk("foodx:%d,foody:%d\n",food_x,food_y);
    1420:	000037b7          	lui	a5,0x3
    1424:	c4078513          	addi	a0,a5,-960 # 2c40 <rand+0x130>
D:\Hummingbird\HBird-workspace\pico_test_1\Debug/../src/snake.c:158
  food_x=(rand()%40)+1;
    1428:	02b465b3          	rem	a1,s0,a1
D:\Hummingbird\HBird-workspace\pico_test_1\Debug/../src/snake.c:159
  food_y=(rand()%30)+1;
    142c:	0605                	addi	a2,a2,1
D:\Hummingbird\HBird-workspace\pico_test_1\Debug/../src/snake.c:160
  printk("foodx:%d,foody:%d\n",food_x,food_y);
    142e:	0ff67613          	andi	a2,a2,255
D:\Hummingbird\HBird-workspace\pico_test_1\Debug/../src/snake.c:158
  food_x=(rand()%40)+1;
    1432:	0585                	addi	a1,a1,1
D:\Hummingbird\HBird-workspace\pico_test_1\Debug/../src/snake.c:160
  printk("foodx:%d,foody:%d\n",food_x,food_y);
    1434:	0ff5f593          	andi	a1,a1,255
    1438:	2efd                	jal	1836 <printk>
HDMI_DrawPoint():
    143a:	45bd                	li	a1,15
    143c:	455d                	li	a0,23
    143e:	3d25                	jal	1276 <HDMI_DrawPoint.part.0>
SnakeGameStart():
D:\Hummingbird\HBird-workspace\pico_test_1\Debug/../src/snake.c:175
	  else if(stat&1<<1)
		  snake_info[node_cnt].y=snake_info[node_cnt-1].y-1;
	  else if(stat&1<<2)
		  snake_info[node_cnt].x=snake_info[node_cnt-1].x-1;
	  else if(stat&1<<3)
		  snake_info[node_cnt].x=snake_info[node_cnt-1].x+1;
    1440:	0004c583          	lbu	a1,0(s1)
D:\Hummingbird\HBird-workspace\pico_test_1\Debug/../src/snake.c:164
  int getps2 = *ps2ctrl_point;//手柄键值接收
    1444:	67a1                	lui	a5,0x8
    1446:	0a07a783          	lw	a5,160(a5) # 80a0 <_etext+0x5164>
D:\Hummingbird\HBird-workspace\pico_test_1\Debug/../src/snake.c:175
		  snake_info[node_cnt].x=snake_info[node_cnt-1].x+1;
    144a:	fff58713          	addi	a4,a1,-1
    144e:	0706                	slli	a4,a4,0x1
    1450:	9762                	add	a4,a4,s8
    1452:	00074783          	lbu	a5,0(a4) # 8000 <_etext+0x50c4>
    1456:	00159693          	slli	a3,a1,0x1
    145a:	96e2                	add	a3,a3,s8
    145c:	0785                	addi	a5,a5,1
    145e:	0ff7f793          	andi	a5,a5,255
    1462:	00f68023          	sb	a5,0(a3)
D:\Hummingbird\HBird-workspace\pico_test_1\Debug/../src/snake.c:176
    if(snake_info[node_cnt].x>39 || snake_info[node_cnt].y>29 || snake_info[node_cnt-1].x<1 || snake_info[node_cnt-1].y<1)//判断是否撞墙
    1466:	02700613          	li	a2,39
    146a:	14f66563          	bltu	a2,a5,15b4 <SnakeGameStart+0x226>
    146e:	0016c603          	lbu	a2,1(a3)
    1472:	46f5                	li	a3,29
    1474:	14c6e063          	bltu	a3,a2,15b4 <SnakeGameStart+0x226>
    1478:	00074683          	lbu	a3,0(a4)
    147c:	12068c63          	beqz	a3,15b4 <SnakeGameStart+0x226>
    1480:	00174703          	lbu	a4,1(a4)
    1484:	12070863          	beqz	a4,15b4 <SnakeGameStart+0x226>
D:\Hummingbird\HBird-workspace\pico_test_1\Debug/../src/snake.c:162
  food_y = 15;
    1488:	49bd                	li	s3,15
D:\Hummingbird\HBird-workspace\pico_test_1\Debug/../src/snake.c:161
  food_x = 23;
    148a:	495d                	li	s2,23
D:\Hummingbird\HBird-workspace\pico_test_1\Debug/../src/snake.c:151
  x=snake_info[node_cnt].x;
    148c:	4d41                	li	s10,16
    148e:	00003ab7          	lui	s5,0x3
    1492:	00003bb7          	lui	s7,0x3
draw_point():
D:\Hummingbird\HBird-workspace\pico_test_1\Debug/../src/snake.c:20
	ram_address = addr_temp;
    1496:	6da1                	lui	s11,0x8
D:\Hummingbird\HBird-workspace\pico_test_1\Debug/../src/snake.c:21
	ram_data_address = POINT;
    1498:	4a4d                	li	s4,19
SnakeGameStart():
D:\Hummingbird\HBird-workspace\pico_test_1\Debug/../src/snake.c:206
//      HDMI_DrawSnakebody(snake_info,node_cnt,1);
      draw_point(snake_info[node_cnt-1].x,snake_info[node_cnt-1].y);//显示蛇头节点
      printk("node_cnt:%d",node_cnt);
      while(1)//保证重新生成的实物不再蛇身上
      {
    	food_x=(rand()%40)+1;
    149a:	02800c93          	li	s9,40
Snake_Move():
D:\Hummingbird\HBird-workspace\pico_test_1\Debug/../src/snake.c:128
  snake_info[node_cnt-1].y=y;
    149e:	4b3d                	li	s6,15
    14a0:	001d0413          	addi	s0,s10,1
    14a4:	0ff47413          	andi	s0,s0,255
SnakeGameStart():
D:\Hummingbird\HBird-workspace\pico_test_1\Debug/../src/snake.c:186
    if(snake_info[node_cnt].x==food_x && snake_info[node_cnt].y==food_y)//判断是否吃到食物
    14a8:	13278e63          	beq	a5,s2,15e4 <SnakeGameStart+0x256>
D:\Hummingbird\HBird-workspace\pico_test_1\Debug/../src/snake.c:217
        if(HDMI_GetSnakeFoodY(food_y,node_cnt)==0)break;
      }
      HDMI_DrawPoint(food_x,food_y,1);//绘制实物
      printk("foodx:%d,foody:%d\n",food_x,food_y);
    }
    printk("x:%d,y:%d\n",snake_info[node_cnt-1].x,snake_info[node_cnt-1].y);
    14ac:	0004c783          	lbu	a5,0(s1)
    14b0:	c6ca8513          	addi	a0,s5,-916 # 2c6c <rand+0x15c>
    14b4:	17fd                	addi	a5,a5,-1
    14b6:	0786                	slli	a5,a5,0x1
    14b8:	97e2                	add	a5,a5,s8
    14ba:	0017c603          	lbu	a2,1(a5)
    14be:	0007c583          	lbu	a1,0(a5)
    14c2:	2e95                	jal	1836 <printk>
Snake_Move():
D:\Hummingbird\HBird-workspace\pico_test_1\Debug/../src/snake.c:118
  draw_point(snake_info[node_cnt-1].x,snake_info[node_cnt-1].y);//显示蛇头节点
    14c4:	0004c583          	lbu	a1,0(s1)
clear_point():
D:\Hummingbird\HBird-workspace\pico_test_1\Debug/../src/snake.c:27
	addr_temp = 40*y + x;
    14c8:	47d1                	li	a5,20
Snake_Move():
D:\Hummingbird\HBird-workspace\pico_test_1\Debug/../src/snake.c:118
  draw_point(snake_info[node_cnt-1].x,snake_info[node_cnt-1].y);//显示蛇头节点
    14ca:	15fd                	addi	a1,a1,-1
    14cc:	00159513          	slli	a0,a1,0x1
    14d0:	00ac06b3          	add	a3,s8,a0
    14d4:	0016c603          	lbu	a2,1(a3)
    14d8:	0006c883          	lbu	a7,0(a3)
draw_point():
D:\Hummingbird\HBird-workspace\pico_test_1\Debug/../src/snake.c:19
	addr_temp = 40*y + x;
    14dc:	00261693          	slli	a3,a2,0x2
    14e0:	96b2                	add	a3,a3,a2
    14e2:	068e                	slli	a3,a3,0x3
    14e4:	96c6                	add	a3,a3,a7
D:\Hummingbird\HBird-workspace\pico_test_1\Debug/../src/snake.c:20
	ram_address = addr_temp;
    14e6:	06dda023          	sw	a3,96(s11) # 8060 <_etext+0x5124>
D:\Hummingbird\HBird-workspace\pico_test_1\Debug/../src/snake.c:21
	ram_data_address = POINT;
    14ea:	074da823          	sw	s4,112(s11)
HDMI_DrawPoint():
D:\Hummingbird\HBird-workspace\pico_test_1\Debug/../src/snake.c:14
	  clear_point(x,y);
    14ee:	001c4603          	lbu	a2,1(s8)
    14f2:	000c4883          	lbu	a7,0(s8)
clear_point():
D:\Hummingbird\HBird-workspace\pico_test_1\Debug/../src/snake.c:27
	addr_temp = 40*y + x;
    14f6:	00261693          	slli	a3,a2,0x2
    14fa:	96b2                	add	a3,a3,a2
    14fc:	068e                	slli	a3,a3,0x3
    14fe:	96c6                	add	a3,a3,a7
D:\Hummingbird\HBird-workspace\pico_test_1\Debug/../src/snake.c:29
		ram_address = addr_temp;
    1500:	06dda023          	sw	a3,96(s11)
D:\Hummingbird\HBird-workspace\pico_test_1\Debug/../src/snake.c:30
		ram_data_address = 0;
    1504:	060da823          	sw	zero,112(s11)
    1508:	17fd                	addi	a5,a5,-1
D:\Hummingbird\HBird-workspace\pico_test_1\Debug/../src/snake.c:28
	while(cut_temp--){
    150a:	fbfd                	bnez	a5,1500 <SnakeGameStart+0x172>
Snake_Move():
D:\Hummingbird\HBird-workspace\pico_test_1\Debug/../src/snake.c:120
  for(i=0;i<node_cnt-1;i++)//节点往前偏移
    150c:	02b05763          	blez	a1,153a <SnakeGameStart+0x1ac>
    1510:	4601                	li	a2,0
D:\Hummingbird\HBird-workspace\pico_test_1\Debug/../src/snake.c:122
    snake_info[i].x= snake_info[i+1].x;
    1512:	00178693          	addi	a3,a5,1
    1516:	0686                	slli	a3,a3,0x1
    1518:	96e2                	add	a3,a3,s8
    151a:	0006c883          	lbu	a7,0(a3)
D:\Hummingbird\HBird-workspace\pico_test_1\Debug/../src/snake.c:123
    snake_info[i].y=snake_info[i+1].y;
    151e:	0016c683          	lbu	a3,1(a3)
D:\Hummingbird\HBird-workspace\pico_test_1\Debug/../src/snake.c:122
    snake_info[i].x= snake_info[i+1].x;
    1522:	0786                	slli	a5,a5,0x1
    1524:	97e2                	add	a5,a5,s8
D:\Hummingbird\HBird-workspace\pico_test_1\Debug/../src/snake.c:120
  for(i=0;i<node_cnt-1;i++)//节点往前偏移
    1526:	0605                	addi	a2,a2,1
    1528:	0ff67613          	andi	a2,a2,255
D:\Hummingbird\HBird-workspace\pico_test_1\Debug/../src/snake.c:122
    snake_info[i].x= snake_info[i+1].x;
    152c:	01178023          	sb	a7,0(a5)
D:\Hummingbird\HBird-workspace\pico_test_1\Debug/../src/snake.c:123
    snake_info[i].y=snake_info[i+1].y;
    1530:	00d780a3          	sb	a3,1(a5)
D:\Hummingbird\HBird-workspace\pico_test_1\Debug/../src/snake.c:120
  for(i=0;i<node_cnt-1;i++)//节点往前偏移
    1534:	87b2                	mv	a5,a2
    1536:	fcb64ee3          	blt	a2,a1,1512 <SnakeGameStart+0x184>
D:\Hummingbird\HBird-workspace\pico_test_1\Debug/../src/snake.c:127
  snake_info[node_cnt-1].x=x;
    153a:	9562                	add	a0,a0,s8
D:\Hummingbird\HBird-workspace\pico_test_1\Debug/../src/snake.c:128
  snake_info[node_cnt-1].y=y;
    153c:	016500a3          	sb	s6,1(a0)
D:\Hummingbird\HBird-workspace\pico_test_1\Debug/../src/snake.c:129
  draw_point(snake_info[0].x,snake_info[0].y);//显示蛇头节点
    1540:	001c4683          	lbu	a3,1(s8)
D:\Hummingbird\HBird-workspace\pico_test_1\Debug/../src/snake.c:127
  snake_info[node_cnt-1].x=x;
    1544:	00850023          	sb	s0,0(a0)
D:\Hummingbird\HBird-workspace\pico_test_1\Debug/../src/snake.c:129
  draw_point(snake_info[0].x,snake_info[0].y);//显示蛇头节点
    1548:	000c4603          	lbu	a2,0(s8)
draw_point():
D:\Hummingbird\HBird-workspace\pico_test_1\Debug/../src/snake.c:19
	addr_temp = 40*y + x;
    154c:	00269793          	slli	a5,a3,0x2
    1550:	97b6                	add	a5,a5,a3
    1552:	078e                	slli	a5,a5,0x3
    1554:	97b2                	add	a5,a5,a2
D:\Hummingbird\HBird-workspace\pico_test_1\Debug/../src/snake.c:20
	ram_address = addr_temp;
    1556:	06fda023          	sw	a5,96(s11)
HDMI_DrawPoint():
    155a:	45bd                	li	a1,15
    155c:	8522                	mv	a0,s0
draw_point():
D:\Hummingbird\HBird-workspace\pico_test_1\Debug/../src/snake.c:21
	ram_data_address = POINT;
    155e:	074da823          	sw	s4,112(s11)
HDMI_DrawPoint():
    1562:	3b11                	jal	1276 <HDMI_DrawPoint.part.0>
Snake_Move():
D:\Hummingbird\HBird-workspace\pico_test_1\Debug/../src/snake.c:131
  printk("x0:%d,y0:%d",snake_info[0].x,snake_info[0].y);
    1564:	001c4603          	lbu	a2,1(s8)
    1568:	000c4583          	lbu	a1,0(s8)
    156c:	c78b8513          	addi	a0,s7,-904 # 2c78 <rand+0x168>
    1570:	24d9                	jal	1836 <printk>
SnakeGameStart():
D:\Hummingbird\HBird-workspace\pico_test_1\Debug/../src/snake.c:175
		  snake_info[node_cnt].x=snake_info[node_cnt-1].x+1;
    1572:	0004c583          	lbu	a1,0(s1)
D:\Hummingbird\HBird-workspace\pico_test_1\Debug/../src/snake.c:176
    if(snake_info[node_cnt].x>39 || snake_info[node_cnt].y>29 || snake_info[node_cnt-1].x<1 || snake_info[node_cnt-1].y<1)//判断是否撞墙
    1576:	02700513          	li	a0,39
D:\Hummingbird\HBird-workspace\pico_test_1\Debug/../src/snake.c:175
		  snake_info[node_cnt].x=snake_info[node_cnt-1].x+1;
    157a:	fff58693          	addi	a3,a1,-1
    157e:	0686                	slli	a3,a3,0x1
    1580:	96e2                	add	a3,a3,s8
    1582:	0006c783          	lbu	a5,0(a3)
    1586:	00159613          	slli	a2,a1,0x1
    158a:	9662                	add	a2,a2,s8
    158c:	0785                	addi	a5,a5,1
    158e:	0ff7f793          	andi	a5,a5,255
    1592:	00f60023          	sb	a5,0(a2)
D:\Hummingbird\HBird-workspace\pico_test_1\Debug/../src/snake.c:176
    if(snake_info[node_cnt].x>39 || snake_info[node_cnt].y>29 || snake_info[node_cnt-1].x<1 || snake_info[node_cnt-1].y<1)//判断是否撞墙
    1596:	00f56f63          	bltu	a0,a5,15b4 <SnakeGameStart+0x226>
D:\Hummingbird\HBird-workspace\pico_test_1\Debug/../src/snake.c:176 (discriminator 1)
    159a:	00164603          	lbu	a2,1(a2)
    159e:	4575                	li	a0,29
    15a0:	00c56a63          	bltu	a0,a2,15b4 <SnakeGameStart+0x226>
D:\Hummingbird\HBird-workspace\pico_test_1\Debug/../src/snake.c:176 (discriminator 2)
    15a4:	0006c503          	lbu	a0,0(a3)
    15a8:	c511                	beqz	a0,15b4 <SnakeGameStart+0x226>
D:\Hummingbird\HBird-workspace\pico_test_1\Debug/../src/snake.c:176 (discriminator 3)
    15aa:	0016c683          	lbu	a3,1(a3)
D:\Hummingbird\HBird-workspace\pico_test_1\Debug/../src/snake.c:257 (discriminator 3)
      stat&=~(0x3<<0);//清除上下标志
      if(stat&1<<2){}//向左时不能直接向右
      else
      {
        stat|=1<<3;
        x+=1;
    15ae:	8d22                	mv	s10,s0
D:\Hummingbird\HBird-workspace\pico_test_1\Debug/../src/snake.c:176 (discriminator 3)
    if(snake_info[node_cnt].x>39 || snake_info[node_cnt].y>29 || snake_info[node_cnt-1].x<1 || snake_info[node_cnt-1].y<1)//判断是否撞墙
    15b0:	ee0698e3          	bnez	a3,14a0 <SnakeGameStart+0x112>
D:\Hummingbird\HBird-workspace\pico_test_1\Debug/../src/snake.c:181
    	draw_gameover();
    15b4:	3bb5                	jal	1330 <draw_gameover>
D:\Hummingbird\HBird-workspace\pico_test_1\Debug/../src/snake.c:182
    	printk("game over");
    15b6:	00003537          	lui	a0,0x3
    15ba:	c5450513          	addi	a0,a0,-940 # 2c54 <rand+0x144>
    15be:	2ca5                	jal	1836 <printk>
D:\Hummingbird\HBird-workspace\pico_test_1\Debug/../src/snake.c:265
      break;
    }
//    Delay_Ms(300);
  }
  return 0;
}
    15c0:	50f2                	lw	ra,60(sp)
    15c2:	5462                	lw	s0,56(sp)
D:\Hummingbird\HBird-workspace\pico_test_1\Debug/../src/snake.c:183
      node_cnt=0;//清空节点
    15c4:	00048023          	sb	zero,0(s1)
D:\Hummingbird\HBird-workspace\pico_test_1\Debug/../src/snake.c:265
}
    15c8:	5942                	lw	s2,48(sp)
    15ca:	54d2                	lw	s1,52(sp)
    15cc:	59b2                	lw	s3,44(sp)
    15ce:	5a22                	lw	s4,40(sp)
    15d0:	5a92                	lw	s5,36(sp)
    15d2:	5b02                	lw	s6,32(sp)
    15d4:	4bf2                	lw	s7,28(sp)
    15d6:	4c62                	lw	s8,24(sp)
    15d8:	4cd2                	lw	s9,20(sp)
    15da:	4d42                	lw	s10,16(sp)
    15dc:	4db2                	lw	s11,12(sp)
    15de:	4501                	li	a0,0
    15e0:	6121                	addi	sp,sp,64
    15e2:	8082                	ret
D:\Hummingbird\HBird-workspace\pico_test_1\Debug/../src/snake.c:186 (discriminator 1)
    if(snake_info[node_cnt].x==food_x && snake_info[node_cnt].y==food_y)//判断是否吃到食物
    15e4:	ed3614e3          	bne	a2,s3,14ac <SnakeGameStart+0x11e>
D:\Hummingbird\HBird-workspace\pico_test_1\Debug/../src/snake.c:200 (discriminator 1)
      node_cnt++;
    15e8:	0585                	addi	a1,a1,1
    15ea:	0ff5f593          	andi	a1,a1,255
D:\Hummingbird\HBird-workspace\pico_test_1\Debug/../src/snake.c:202 (discriminator 1)
      draw_point(snake_info[node_cnt-1].x,snake_info[node_cnt-1].y);//显示蛇头节点
    15ee:	fff58793          	addi	a5,a1,-1
    15f2:	0786                	slli	a5,a5,0x1
    15f4:	97e2                	add	a5,a5,s8
    15f6:	0017c683          	lbu	a3,1(a5)
    15fa:	0007c603          	lbu	a2,0(a5)
D:\Hummingbird\HBird-workspace\pico_test_1\Debug/../src/snake.c:200 (discriminator 1)
      node_cnt++;
    15fe:	00b48023          	sb	a1,0(s1)
draw_point():
D:\Hummingbird\HBird-workspace\pico_test_1\Debug/../src/snake.c:19 (discriminator 1)
	addr_temp = 40*y + x;
    1602:	00269793          	slli	a5,a3,0x2
    1606:	97b6                	add	a5,a5,a3
    1608:	078e                	slli	a5,a5,0x3
    160a:	97b2                	add	a5,a5,a2
D:\Hummingbird\HBird-workspace\pico_test_1\Debug/../src/snake.c:20 (discriminator 1)
	ram_address = addr_temp;
    160c:	06fda023          	sw	a5,96(s11)
SnakeGameStart():
D:\Hummingbird\HBird-workspace\pico_test_1\Debug/../src/snake.c:203 (discriminator 1)
      printk("node_cnt:%d",node_cnt);
    1610:	000037b7          	lui	a5,0x3
draw_point():
D:\Hummingbird\HBird-workspace\pico_test_1\Debug/../src/snake.c:21 (discriminator 1)
	ram_data_address = POINT;
    1614:	074da823          	sw	s4,112(s11)
SnakeGameStart():
D:\Hummingbird\HBird-workspace\pico_test_1\Debug/../src/snake.c:203 (discriminator 1)
      printk("node_cnt:%d",node_cnt);
    1618:	c6078513          	addi	a0,a5,-928 # 2c60 <rand+0x150>
    161c:	2c29                	jal	1836 <printk>
D:\Hummingbird\HBird-workspace\pico_test_1\Debug/../src/snake.c:206
    	food_x=(rand()%40)+1;
    161e:	4f2010ef          	jal	ra,2b10 <rand>
    1622:	03956933          	rem	s2,a0,s9
D:\Hummingbird\HBird-workspace\pico_test_1\Debug/../src/snake.c:207
        if(HDMI_GetSnakeFoodX(food_x,node_cnt)==0)break;
    1626:	0004c583          	lbu	a1,0(s1)
D:\Hummingbird\HBird-workspace\pico_test_1\Debug/../src/snake.c:206
    	food_x=(rand()%40)+1;
    162a:	0905                	addi	s2,s2,1
    162c:	0ff97913          	andi	s2,s2,255
HDMI_GetSnakeFoodX():
D:\Hummingbird\HBird-workspace\pico_test_1\Debug/../src/snake.c:90
  for(i=0;i<cnt;i++)
    1630:	c19d                	beqz	a1,1656 <SnakeGameStart+0x2c8>
D:\Hummingbird\HBird-workspace\pico_test_1\Debug/../src/snake.c:92
    if(x==snake_info[i].x)break;
    1632:	000c4783          	lbu	a5,0(s8)
    1636:	ff2784e3          	beq	a5,s2,161e <SnakeGameStart+0x290>
    163a:	002c0693          	addi	a3,s8,2
D:\Hummingbird\HBird-workspace\pico_test_1\Debug/../src/snake.c:90
  for(i=0;i<cnt;i++)
    163e:	4781                	li	a5,0
    1640:	a029                	j	164a <SnakeGameStart+0x2bc>
D:\Hummingbird\HBird-workspace\pico_test_1\Debug/../src/snake.c:92
    if(x==snake_info[i].x)break;
    1642:	ffe6c603          	lbu	a2,-2(a3)
    1646:	fd260ce3          	beq	a2,s2,161e <SnakeGameStart+0x290>
D:\Hummingbird\HBird-workspace\pico_test_1\Debug/../src/snake.c:90
  for(i=0;i<cnt;i++)
    164a:	0785                	addi	a5,a5,1
    164c:	0ff7f793          	andi	a5,a5,255
    1650:	0689                	addi	a3,a3,2
    1652:	fef598e3          	bne	a1,a5,1642 <SnakeGameStart+0x2b4>
SnakeGameStart():
D:\Hummingbird\HBird-workspace\pico_test_1\Debug/../src/snake.c:211
    	food_y=(rand()%30)+1;
    1656:	4ba010ef          	jal	ra,2b10 <rand>
    165a:	47f9                	li	a5,30
    165c:	02f569b3          	rem	s3,a0,a5
D:\Hummingbird\HBird-workspace\pico_test_1\Debug/../src/snake.c:212
        if(HDMI_GetSnakeFoodY(food_y,node_cnt)==0)break;
    1660:	0004c583          	lbu	a1,0(s1)
D:\Hummingbird\HBird-workspace\pico_test_1\Debug/../src/snake.c:211
    	food_y=(rand()%30)+1;
    1664:	0985                	addi	s3,s3,1
    1666:	0ff9f993          	andi	s3,s3,255
HDMI_GetSnakeFoodY():
D:\Hummingbird\HBird-workspace\pico_test_1\Debug/../src/snake.c:107
  for(i=0;i<cnt;i++)
    166a:	c19d                	beqz	a1,1690 <SnakeGameStart+0x302>
D:\Hummingbird\HBird-workspace\pico_test_1\Debug/../src/snake.c:109
    if(y==snake_info[i].y)break;
    166c:	001c4783          	lbu	a5,1(s8)
    1670:	ff3783e3          	beq	a5,s3,1656 <SnakeGameStart+0x2c8>
    1674:	003c0693          	addi	a3,s8,3
D:\Hummingbird\HBird-workspace\pico_test_1\Debug/../src/snake.c:107
  for(i=0;i<cnt;i++)
    1678:	4781                	li	a5,0
    167a:	a029                	j	1684 <SnakeGameStart+0x2f6>
D:\Hummingbird\HBird-workspace\pico_test_1\Debug/../src/snake.c:109
    if(y==snake_info[i].y)break;
    167c:	ffe6c603          	lbu	a2,-2(a3)
    1680:	fd360be3          	beq	a2,s3,1656 <SnakeGameStart+0x2c8>
D:\Hummingbird\HBird-workspace\pico_test_1\Debug/../src/snake.c:107
  for(i=0;i<cnt;i++)
    1684:	0785                	addi	a5,a5,1
    1686:	0ff7f793          	andi	a5,a5,255
    168a:	0689                	addi	a3,a3,2
    168c:	fef598e3          	bne	a1,a5,167c <SnakeGameStart+0x2ee>
HDMI_DrawPoint():
    1690:	854a                	mv	a0,s2
    1692:	85ce                	mv	a1,s3
    1694:	36cd                	jal	1276 <HDMI_DrawPoint.part.0>
SnakeGameStart():
D:\Hummingbird\HBird-workspace\pico_test_1\Debug/../src/snake.c:215
      printk("foodx:%d,foody:%d\n",food_x,food_y);
    1696:	000037b7          	lui	a5,0x3
    169a:	864e                	mv	a2,s3
    169c:	85ca                	mv	a1,s2
    169e:	c4078513          	addi	a0,a5,-960 # 2c40 <rand+0x130>
    16a2:	2a51                	jal	1836 <printk>
    16a4:	002d0893          	addi	a7,s10,2
    16a8:	0ff8f413          	andi	s0,a7,255
    16ac:	b501                	j	14ac <SnakeGameStart+0x11e>

000016ae <test>:
test():
D:\Hummingbird\HBird-workspace\pico_test_1\Debug/../src/test.c:11
 */

#include "uart.h"

void test(void){
	printk("testtest");
    16ae:	00003537          	lui	a0,0x3
    16b2:	c8450513          	addi	a0,a0,-892 # 2c84 <rand+0x174>
    16b6:	a241                	j	1836 <printk>

000016b8 <print_num>:
print_num():
D:\Hummingbird\HBird-workspace\pico_test_1\Debug/../src/uart.c:14
 ** 输出参数：无
 ** 返回参数：无
 ********************************************************************/
void print_num(uint32_t num, int base)
{
	if(num == 0)
    16b8:	e111                	bnez	a0,16bc <print_num+0x4>
D:\Hummingbird\HBird-workspace\pico_test_1\Debug/../src/uart.c:20
	{
		return;
	}
	print_num(num/base, base);
	put_char("0123456789abcdef"[num%base]);							//逆序打印结果
}
    16ba:	8082                	ret
    16bc:	a009                	j	16be <print_num.part.0>

000016be <print_num.part.0>:
D:\Hummingbird\HBird-workspace\pico_test_1\Debug/../src/uart.c:12
void print_num(uint32_t num, int base)
    16be:	1141                	addi	sp,sp,-16
    16c0:	c422                	sw	s0,8(sp)
    16c2:	842a                	mv	s0,a0
D:\Hummingbird\HBird-workspace\pico_test_1\Debug/../src/uart.c:18
	print_num(num/base, base);
    16c4:	02b55533          	divu	a0,a0,a1
D:\Hummingbird\HBird-workspace\pico_test_1\Debug/../src/uart.c:12
void print_num(uint32_t num, int base)
    16c8:	c226                	sw	s1,4(sp)
    16ca:	84ae                	mv	s1,a1
    16cc:	c606                	sw	ra,12(sp)
D:\Hummingbird\HBird-workspace\pico_test_1\Debug/../src/uart.c:18
	print_num(num/base, base);
    16ce:	37ed                	jal	16b8 <print_num>
D:\Hummingbird\HBird-workspace\pico_test_1\Debug/../src/uart.c:19
	put_char("0123456789abcdef"[num%base]);							//逆序打印结果
    16d0:	02947433          	remu	s0,s0,s1
    16d4:	000037b7          	lui	a5,0x3
    16d8:	de878793          	addi	a5,a5,-536 # 2de8 <rand+0x2d8>
put_char():
D:\Hummingbird\HBird-workspace\pico_test_1\Debug/../src/uart.c:31
 ** 输出参数：无
 ** 返回参数：无
 ********************************************************************/
void put_char(char c)
{
	if (c == '\n')
    16dc:	4729                	li	a4,10
print_num():
D:\Hummingbird\HBird-workspace\pico_test_1\Debug/../src/uart.c:19
	put_char("0123456789abcdef"[num%base]);							//逆序打印结果
    16de:	943e                	add	s0,s0,a5
    16e0:	00040783          	lb	a5,0(s0)
put_char():
D:\Hummingbird\HBird-workspace\pico_test_1\Debug/../src/uart.c:31
	if (c == '\n')
    16e4:	00e78963          	beq	a5,a4,16f6 <print_num.part.0+0x38>
print_num():
D:\Hummingbird\HBird-workspace\pico_test_1\Debug/../src/uart.c:20
}
    16e8:	40b2                	lw	ra,12(sp)
    16ea:	4422                	lw	s0,8(sp)
put_char():
D:\Hummingbird\HBird-workspace\pico_test_1\Debug/../src/uart.c:33
		put_char('\r');
	reg_uart_data = c;
    16ec:	6721                	lui	a4,0x8
    16ee:	cb1c                	sw	a5,16(a4)
print_num():
D:\Hummingbird\HBird-workspace\pico_test_1\Debug/../src/uart.c:20
}
    16f0:	4492                	lw	s1,4(sp)
    16f2:	0141                	addi	sp,sp,16
    16f4:	8082                	ret
put_char():
D:\Hummingbird\HBird-workspace\pico_test_1\Debug/../src/uart.c:33
	reg_uart_data = c;
    16f6:	6721                	lui	a4,0x8
print_num():
D:\Hummingbird\HBird-workspace\pico_test_1\Debug/../src/uart.c:20
}
    16f8:	40b2                	lw	ra,12(sp)
    16fa:	4422                	lw	s0,8(sp)
put_char():
D:\Hummingbird\HBird-workspace\pico_test_1\Debug/../src/uart.c:33
	reg_uart_data = c;
    16fc:	46b5                	li	a3,13
    16fe:	cb14                	sw	a3,16(a4)
    1700:	6721                	lui	a4,0x8
    1702:	cb1c                	sw	a5,16(a4)
print_num():
D:\Hummingbird\HBird-workspace\pico_test_1\Debug/../src/uart.c:20
}
    1704:	4492                	lw	s1,4(sp)
    1706:	0141                	addi	sp,sp,16
    1708:	8082                	ret

0000170a <put_char>:
put_char():
D:\Hummingbird\HBird-workspace\pico_test_1\Debug/../src/uart.c:30
{
    170a:	1141                	addi	sp,sp,-16
    170c:	c422                	sw	s0,8(sp)
    170e:	c606                	sw	ra,12(sp)
D:\Hummingbird\HBird-workspace\pico_test_1\Debug/../src/uart.c:31
	if (c == '\n')
    1710:	47a9                	li	a5,10
D:\Hummingbird\HBird-workspace\pico_test_1\Debug/../src/uart.c:30
{
    1712:	842a                	mv	s0,a0
D:\Hummingbird\HBird-workspace\pico_test_1\Debug/../src/uart.c:31
	if (c == '\n')
    1714:	00f50863          	beq	a0,a5,1724 <put_char+0x1a>
D:\Hummingbird\HBird-workspace\pico_test_1\Debug/../src/uart.c:33
	reg_uart_data = c;
    1718:	67a1                	lui	a5,0x8
    171a:	cb80                	sw	s0,16(a5)
D:\Hummingbird\HBird-workspace\pico_test_1\Debug/../src/uart.c:34
}
    171c:	40b2                	lw	ra,12(sp)
    171e:	4422                	lw	s0,8(sp)
    1720:	0141                	addi	sp,sp,16
    1722:	8082                	ret
D:\Hummingbird\HBird-workspace\pico_test_1\Debug/../src/uart.c:32
		put_char('\r');
    1724:	4535                	li	a0,13
    1726:	37d5                	jal	170a <put_char>
    1728:	bfc5                	j	1718 <put_char+0xe>

0000172a <print_str>:
print_str():
D:\Hummingbird\HBird-workspace\pico_test_1\Debug/../src/uart.c:45
 ** 输出参数：无
 ** 返回参数：无
 ********************************************************************/
void print_str(const char *p)
{
	while (*p)
    172a:	00050783          	lb	a5,0(a0)
    172e:	c38d                	beqz	a5,1750 <print_str+0x26>
put_char():
D:\Hummingbird\HBird-workspace\pico_test_1\Debug/../src/uart.c:31
	if (c == '\n')
    1730:	46a9                	li	a3,10
D:\Hummingbird\HBird-workspace\pico_test_1\Debug/../src/uart.c:33
	reg_uart_data = c;
    1732:	6721                	lui	a4,0x8
    1734:	4635                	li	a2,13
    1736:	a029                	j	1740 <print_str+0x16>
    1738:	cb1c                	sw	a5,16(a4)
print_str():
D:\Hummingbird\HBird-workspace\pico_test_1\Debug/../src/uart.c:45
	while (*p)
    173a:	00050783          	lb	a5,0(a0)
    173e:	cb89                	beqz	a5,1750 <print_str+0x26>
D:\Hummingbird\HBird-workspace\pico_test_1\Debug/../src/uart.c:46
		put_char(*(p++));
    1740:	0505                	addi	a0,a0,1
put_char():
D:\Hummingbird\HBird-workspace\pico_test_1\Debug/../src/uart.c:31
	if (c == '\n')
    1742:	fed79be3          	bne	a5,a3,1738 <print_str+0xe>
D:\Hummingbird\HBird-workspace\pico_test_1\Debug/../src/uart.c:33
	reg_uart_data = c;
    1746:	cb10                	sw	a2,16(a4)
    1748:	cb1c                	sw	a5,16(a4)
print_str():
D:\Hummingbird\HBird-workspace\pico_test_1\Debug/../src/uart.c:45
	while (*p)
    174a:	00050783          	lb	a5,0(a0)
    174e:	fbed                	bnez	a5,1740 <print_str+0x16>
D:\Hummingbird\HBird-workspace\pico_test_1\Debug/../src/uart.c:47
}
    1750:	8082                	ret

00001752 <print_hex>:
print_hex():
D:\Hummingbird\HBird-workspace\pico_test_1\Debug/../src/uart.c:58
 ** 		digits：数据类型（十进制、十六进制、八进制）
 ** 输出参数：无
 ** 返回参数：无
 ********************************************************************/
void print_hex(uint32_t v, int digits)
{
    1752:	000036b7          	lui	a3,0x3
D:\Hummingbird\HBird-workspace\pico_test_1\Debug/../src/uart.c:59
	for (int i = 7; i >= 0; i--)
    1756:	471d                	li	a4,7
    1758:	de868693          	addi	a3,a3,-536 # 2de8 <rand+0x2d8>
D:\Hummingbird\HBird-workspace\pico_test_1\Debug/../src/uart.c:62
	{
		char c = "0123456789abcdef"[(v >> (4*i)) & 15];
		if (c == '0' && i >= digits)
    175c:	03000893          	li	a7,48
put_char():
D:\Hummingbird\HBird-workspace\pico_test_1\Debug/../src/uart.c:33
	reg_uart_data = c;
    1760:	6621                	lui	a2,0x8
D:\Hummingbird\HBird-workspace\pico_test_1\Debug/../src/uart.c:31
	if (c == '\n')
    1762:	4329                	li	t1,10
D:\Hummingbird\HBird-workspace\pico_test_1\Debug/../src/uart.c:33
	reg_uart_data = c;
    1764:	4e35                	li	t3,13
print_hex():
D:\Hummingbird\HBird-workspace\pico_test_1\Debug/../src/uart.c:59
	for (int i = 7; i >= 0; i--)
    1766:	587d                	li	a6,-1
    1768:	a801                	j	1778 <print_hex+0x26>
put_char():
D:\Hummingbird\HBird-workspace\pico_test_1\Debug/../src/uart.c:31
	if (c == '\n')
    176a:	02678763          	beq	a5,t1,1798 <print_hex+0x46>
D:\Hummingbird\HBird-workspace\pico_test_1\Debug/../src/uart.c:33
	reg_uart_data = c;
    176e:	85ba                	mv	a1,a4
    1770:	ca1c                	sw	a5,16(a2)
print_hex():
D:\Hummingbird\HBird-workspace\pico_test_1\Debug/../src/uart.c:59
	for (int i = 7; i >= 0; i--)
    1772:	177d                	addi	a4,a4,-1
    1774:	03070163          	beq	a4,a6,1796 <print_hex+0x44>
D:\Hummingbird\HBird-workspace\pico_test_1\Debug/../src/uart.c:61
		char c = "0123456789abcdef"[(v >> (4*i)) & 15];
    1778:	00271793          	slli	a5,a4,0x2
    177c:	00f557b3          	srl	a5,a0,a5
    1780:	8bbd                	andi	a5,a5,15
    1782:	97b6                	add	a5,a5,a3
    1784:	00078783          	lb	a5,0(a5) # 8000 <_etext+0x50c4>
D:\Hummingbird\HBird-workspace\pico_test_1\Debug/../src/uart.c:62
		if (c == '0' && i >= digits)
    1788:	ff1791e3          	bne	a5,a7,176a <print_hex+0x18>
D:\Hummingbird\HBird-workspace\pico_test_1\Debug/../src/uart.c:62 (discriminator 1)
    178c:	feb741e3          	blt	a4,a1,176e <print_hex+0x1c>
D:\Hummingbird\HBird-workspace\pico_test_1\Debug/../src/uart.c:59
	for (int i = 7; i >= 0; i--)
    1790:	177d                	addi	a4,a4,-1
    1792:	ff0713e3          	bne	a4,a6,1778 <print_hex+0x26>
D:\Hummingbird\HBird-workspace\pico_test_1\Debug/../src/uart.c:67
			continue;
		put_char(c);
		digits = i;
	}
}
    1796:	8082                	ret
put_char():
D:\Hummingbird\HBird-workspace\pico_test_1\Debug/../src/uart.c:33
	reg_uart_data = c;
    1798:	01c62823          	sw	t3,16(a2) # 8010 <_etext+0x50d4>
    179c:	bfc9                	j	176e <print_hex+0x1c>

0000179e <print_hex2>:
print_hex2():
D:\Hummingbird\HBird-workspace\pico_test_1\Debug/../src/uart.c:78
 ** 输出参数：无
 ** 返回参数：无
 ********************************************************************/
void print_hex2(uint32_t hex)
{
	if(0 == hex)
    179e:	e511                	bnez	a0,17aa <print_hex2+0xc>
put_char():
D:\Hummingbird\HBird-workspace\pico_test_1\Debug/../src/uart.c:33
	reg_uart_data = c;
    17a0:	67a1                	lui	a5,0x8
    17a2:	03000713          	li	a4,48
    17a6:	cb98                	sw	a4,16(a5)
print_hex2():
D:\Hummingbird\HBird-workspace\pico_test_1\Debug/../src/uart.c:87
	}
	else
	{
		print_num(hex, 16);											//打印十六进制数
	}
}
    17a8:	8082                	ret
print_num():
    17aa:	45c1                	li	a1,16
    17ac:	bf09                	j	16be <print_num.part.0>

000017ae <print_dec>:
print_dec():
D:\Hummingbird\HBird-workspace\pico_test_1\Debug/../src/uart.c:97
 ** 输出参数：无
 ** 返回参数：无
 ********************************************************************/
void print_dec(uint32_t v)
{
	if(0 == v)
    17ae:	e511                	bnez	a0,17ba <print_dec+0xc>
put_char():
D:\Hummingbird\HBird-workspace\pico_test_1\Debug/../src/uart.c:33
	reg_uart_data = c;
    17b0:	67a1                	lui	a5,0x8
    17b2:	03000713          	li	a4,48
    17b6:	cb98                	sw	a4,16(a5)
print_dec():
D:\Hummingbird\HBird-workspace\pico_test_1\Debug/../src/uart.c:106
	}
	else
	{
		print_num(v, 10);											//打印十进制数
	}
}
    17b8:	8082                	ret
print_num():
    17ba:	45a9                	li	a1,10
    17bc:	b709                	j	16be <print_num.part.0>

000017be <print_flt>:
print_flt():
D:\Hummingbird\HBird-workspace\pico_test_1\Debug/../src/uart.c:116
 ** 输入参数：flt:打印的浮点数
 ** 输出参数：无
 ** 返回参数：无
 ********************************************************************/
void print_flt(double flt)
{
    17be:	1101                	addi	sp,sp,-32
    17c0:	cc22                	sw	s0,24(sp)
    17c2:	c84a                	sw	s2,16(sp)
    17c4:	c64e                	sw	s3,12(sp)
    17c6:	ce06                	sw	ra,28(sp)
    17c8:	ca26                	sw	s1,20(sp)
    17ca:	892a                	mv	s2,a0
    17cc:	89ae                	mv	s3,a1
D:\Hummingbird\HBird-workspace\pico_test_1\Debug/../src/uart.c:120
	uint32_t icnt = 0;
	uint32_t tmpint = 0;

	tmpint = (int)(flt);
    17ce:	156010ef          	jal	ra,2924 <__fixdfsi>
    17d2:	842a                	mv	s0,a0
print_dec():
D:\Hummingbird\HBird-workspace\pico_test_1\Debug/../src/uart.c:97
	if(0 == v)
    17d4:	ed31                	bnez	a0,1830 <print_flt+0x72>
put_char():
D:\Hummingbird\HBird-workspace\pico_test_1\Debug/../src/uart.c:33
	reg_uart_data = c;
    17d6:	67a1                	lui	a5,0x8
    17d8:	03000713          	li	a4,48
    17dc:	cb98                	sw	a4,16(a5)
    17de:	02e00793          	li	a5,46
    17e2:	64a1                	lui	s1,0x8
    17e4:	c89c                	sw	a5,16(s1)
print_flt():
D:\Hummingbird\HBird-workspace\pico_test_1\Debug/../src/uart.c:123
	print_dec(tmpint);
	put_char('.');
	flt = flt - tmpint;
    17e6:	8522                	mv	a0,s0
    17e8:	1c0010ef          	jal	ra,29a8 <__floatunsidf>
    17ec:	862a                	mv	a2,a0
    17ee:	86ae                	mv	a3,a1
    17f0:	854a                	mv	a0,s2
    17f2:	85ce                	mv	a1,s3
    17f4:	0b1000ef          	jal	ra,20a4 <__subdf3>
D:\Hummingbird\HBird-workspace\pico_test_1\Debug/../src/uart.c:124
	tmpint = (int)(flt * 1000000);
    17f8:	000037b7          	lui	a5,0x3
    17fc:	de07a603          	lw	a2,-544(a5) # 2de0 <rand+0x2d0>
    1800:	de47a683          	lw	a3,-540(a5)
    1804:	2c11                	jal	1a18 <__muldf3>
    1806:	11e010ef          	jal	ra,2924 <__fixdfsi>
print_dec():
D:\Hummingbird\HBird-workspace\pico_test_1\Debug/../src/uart.c:97
	if(0 == v)
    180a:	e919                	bnez	a0,1820 <print_flt+0x62>
print_flt():
D:\Hummingbird\HBird-workspace\pico_test_1\Debug/../src/uart.c:126
	print_dec(tmpint);
}
    180c:	40f2                	lw	ra,28(sp)
    180e:	4462                	lw	s0,24(sp)
put_char():
D:\Hummingbird\HBird-workspace\pico_test_1\Debug/../src/uart.c:33
	reg_uart_data = c;
    1810:	03000793          	li	a5,48
    1814:	c89c                	sw	a5,16(s1)
print_flt():
D:\Hummingbird\HBird-workspace\pico_test_1\Debug/../src/uart.c:126
}
    1816:	4942                	lw	s2,16(sp)
    1818:	44d2                	lw	s1,20(sp)
    181a:	49b2                	lw	s3,12(sp)
    181c:	6105                	addi	sp,sp,32
    181e:	8082                	ret
    1820:	4462                	lw	s0,24(sp)
    1822:	40f2                	lw	ra,28(sp)
    1824:	44d2                	lw	s1,20(sp)
    1826:	4942                	lw	s2,16(sp)
    1828:	49b2                	lw	s3,12(sp)
print_num():
    182a:	45a9                	li	a1,10
print_flt():
    182c:	6105                	addi	sp,sp,32
print_num():
    182e:	bd41                	j	16be <print_num.part.0>
    1830:	45a9                	li	a1,10
    1832:	3571                	jal	16be <print_num.part.0>
    1834:	b76d                	j	17de <print_flt+0x20>

00001836 <printk>:
printk():
D:\Hummingbird\HBird-workspace\pico_test_1\Debug/../src/uart.c:136
 ** 输入参数：fmt：打印的字符串内容
 ** 输出参数：无
 ** 返回参数：无
 ********************************************************************/
void printk(char *fmt, ...)
{
    1836:	715d                	addi	sp,sp,-80
    1838:	c0ba                	sw	a4,64(sp)
    183a:	d606                	sw	ra,44(sp)
    183c:	d422                	sw	s0,40(sp)
    183e:	d226                	sw	s1,36(sp)
    1840:	d04a                	sw	s2,32(sp)
    1842:	ce4e                	sw	s3,28(sp)
    1844:	cc52                	sw	s4,24(sp)
    1846:	ca56                	sw	s5,20(sp)
    1848:	c85a                	sw	s6,16(sp)
    184a:	da2e                	sw	a1,52(sp)
    184c:	dc32                	sw	a2,56(sp)
    184e:	de36                	sw	a3,60(sp)
    1850:	c2be                	sw	a5,68(sp)
    1852:	c4c2                	sw	a6,72(sp)
    1854:	c6c6                	sw	a7,76(sp)
D:\Hummingbird\HBird-workspace\pico_test_1\Debug/../src/uart.c:143
	va_list vp;

	va_start(vp, fmt);
	pfmt = fmt;

	while(*pfmt)
    1856:	00050783          	lb	a5,0(a0)
D:\Hummingbird\HBird-workspace\pico_test_1\Debug/../src/uart.c:140
	va_start(vp, fmt);
    185a:	1858                	addi	a4,sp,52
    185c:	c63a                	sw	a4,12(sp)
D:\Hummingbird\HBird-workspace\pico_test_1\Debug/../src/uart.c:143
	while(*pfmt)
    185e:	c3b9                	beqz	a5,18a4 <printk+0x6e>
D:\Hummingbird\HBird-workspace\pico_test_1\Debug/../src/uart.c:149
	{
		switch(*pfmt)
		{
			case '%':
			{
				switch(*(pfmt + 1))
    1860:	6a8d                	lui	s5,0x3
    1862:	84aa                	mv	s1,a0
D:\Hummingbird\HBird-workspace\pico_test_1\Debug/../src/uart.c:145
		switch(*pfmt)
    1864:	4929                	li	s2,10
put_char():
D:\Hummingbird\HBird-workspace\pico_test_1\Debug/../src/uart.c:33
	reg_uart_data = c;
    1866:	69a1                	lui	s3,0x8
    1868:	4b35                	li	s6,13
printk():
D:\Hummingbird\HBird-workspace\pico_test_1\Debug/../src/uart.c:145
		switch(*pfmt)
    186a:	02500a13          	li	s4,37
D:\Hummingbird\HBird-workspace\pico_test_1\Debug/../src/uart.c:149
				switch(*(pfmt + 1))
    186e:	c90a8a93          	addi	s5,s5,-880 # 2c90 <rand+0x180>
    1872:	a819                	j	1888 <printk+0x52>
D:\Hummingbird\HBird-workspace\pico_test_1\Debug/../src/uart.c:145
		switch(*pfmt)
    1874:	05478263          	beq	a5,s4,18b8 <printk+0x82>
put_char():
D:\Hummingbird\HBird-workspace\pico_test_1\Debug/../src/uart.c:33
	reg_uart_data = c;
    1878:	8722                	mv	a4,s0
    187a:	00f9a823          	sw	a5,16(s3) # 8010 <_etext+0x50d4>
    187e:	8426                	mv	s0,s1
    1880:	84ba                	mv	s1,a4
printk():
D:\Hummingbird\HBird-workspace\pico_test_1\Debug/../src/uart.c:143
	while(*pfmt)
    1882:	00140783          	lb	a5,1(s0)
    1886:	cf99                	beqz	a5,18a4 <printk+0x6e>
    1888:	00148413          	addi	s0,s1,1 # 8001 <_etext+0x50c5>
D:\Hummingbird\HBird-workspace\pico_test_1\Debug/../src/uart.c:145
		switch(*pfmt)
    188c:	ff2794e3          	bne	a5,s2,1874 <printk+0x3e>
put_char():
D:\Hummingbird\HBird-workspace\pico_test_1\Debug/../src/uart.c:33
	reg_uart_data = c;
    1890:	0169a823          	sw	s6,16(s3)
    1894:	87a2                	mv	a5,s0
    1896:	0129a823          	sw	s2,16(s3)
    189a:	8426                	mv	s0,s1
    189c:	84be                	mv	s1,a5
printk():
D:\Hummingbird\HBird-workspace\pico_test_1\Debug/../src/uart.c:143
	while(*pfmt)
    189e:	00140783          	lb	a5,1(s0)
    18a2:	f3fd                	bnez	a5,1888 <printk+0x52>
D:\Hummingbird\HBird-workspace\pico_test_1\Debug/../src/uart.c:201
				break;
		}
		pfmt++;
	}
	va_end(vp);
}
    18a4:	50b2                	lw	ra,44(sp)
    18a6:	5422                	lw	s0,40(sp)
    18a8:	5492                	lw	s1,36(sp)
    18aa:	5902                	lw	s2,32(sp)
    18ac:	49f2                	lw	s3,28(sp)
    18ae:	4a62                	lw	s4,24(sp)
    18b0:	4ad2                	lw	s5,20(sp)
    18b2:	4b42                	lw	s6,16(sp)
    18b4:	6161                	addi	sp,sp,80
    18b6:	8082                	ret
D:\Hummingbird\HBird-workspace\pico_test_1\Debug/../src/uart.c:149
				switch(*(pfmt + 1))
    18b8:	0014c783          	lbu	a5,1(s1)
    18bc:	05300713          	li	a4,83
    18c0:	fdb78793          	addi	a5,a5,-37
    18c4:	0ff7f793          	andi	a5,a5,255
    18c8:	00f76663          	bltu	a4,a5,18d4 <printk+0x9e>
    18cc:	078a                	slli	a5,a5,0x2
    18ce:	97d6                	add	a5,a5,s5
    18d0:	439c                	lw	a5,0(a5)
    18d2:	8782                	jr	a5
put_char():
D:\Hummingbird\HBird-workspace\pico_test_1\Debug/../src/uart.c:33
	reg_uart_data = c;
    18d4:	87a2                	mv	a5,s0
    18d6:	0149a823          	sw	s4,16(s3)
    18da:	8426                	mv	s0,s1
    18dc:	84be                	mv	s1,a5
    18de:	b755                	j	1882 <printk+0x4c>
printk():
D:\Hummingbird\HBird-workspace\pico_test_1\Debug/../src/uart.c:152
						put_char(va_arg(vp, int));
    18e0:	47b2                	lw	a5,12(sp)
    18e2:	00078703          	lb	a4,0(a5)
    18e6:	0791                	addi	a5,a5,4
    18e8:	c63e                	sw	a5,12(sp)
put_char():
D:\Hummingbird\HBird-workspace\pico_test_1\Debug/../src/uart.c:31
	if (c == '\n')
    18ea:	07270d63          	beq	a4,s2,1964 <printk+0x12e>
D:\Hummingbird\HBird-workspace\pico_test_1\Debug/../src/uart.c:33
	reg_uart_data = c;
    18ee:	00e9a823          	sw	a4,16(s3)
    18f2:	0489                	addi	s1,s1,2
printk():
D:\Hummingbird\HBird-workspace\pico_test_1\Debug/../src/uart.c:154
						break;
    18f4:	b779                	j	1882 <printk+0x4c>
D:\Hummingbird\HBird-workspace\pico_test_1\Debug/../src/uart.c:175
						print_hex2(va_arg(vp, int));
    18f6:	47b2                	lw	a5,12(sp)
    18f8:	4388                	lw	a0,0(a5)
    18fa:	0791                	addi	a5,a5,4
    18fc:	c63e                	sw	a5,12(sp)
print_hex2():
D:\Hummingbird\HBird-workspace\pico_test_1\Debug/../src/uart.c:78
	if(0 == hex)
    18fe:	ed39                	bnez	a0,195c <printk+0x126>
put_char():
D:\Hummingbird\HBird-workspace\pico_test_1\Debug/../src/uart.c:33
	reg_uart_data = c;
    1900:	03000793          	li	a5,48
    1904:	00f9a823          	sw	a5,16(s3)
    1908:	0489                	addi	s1,s1,2
printk():
D:\Hummingbird\HBird-workspace\pico_test_1\Debug/../src/uart.c:177
						break;
    190a:	bfa5                	j	1882 <printk+0x4c>
D:\Hummingbird\HBird-workspace\pico_test_1\Debug/../src/uart.c:158
						print_dec(va_arg(vp, int));
    190c:	47b2                	lw	a5,12(sp)
    190e:	4388                	lw	a0,0(a5)
    1910:	0791                	addi	a5,a5,4
    1912:	c63e                	sw	a5,12(sp)
print_dec():
D:\Hummingbird\HBird-workspace\pico_test_1\Debug/../src/uart.c:97
	if(0 == v)
    1914:	d575                	beqz	a0,1900 <printk+0xca>
print_num():
    1916:	45a9                	li	a1,10
    1918:	335d                	jal	16be <print_num.part.0>
    191a:	0489                	addi	s1,s1,2
    191c:	b79d                	j	1882 <printk+0x4c>
printk():
D:\Hummingbird\HBird-workspace\pico_test_1\Debug/../src/uart.c:169
						print_str(va_arg(vp, char*));
    191e:	47b2                	lw	a5,12(sp)
    1920:	4398                	lw	a4,0(a5)
    1922:	0791                	addi	a5,a5,4
    1924:	c63e                	sw	a5,12(sp)
print_str():
D:\Hummingbird\HBird-workspace\pico_test_1\Debug/../src/uart.c:45
	while (*p)
    1926:	00070783          	lb	a5,0(a4) # 8000 <_etext+0x50c4>
    192a:	dff9                	beqz	a5,1908 <printk+0xd2>
D:\Hummingbird\HBird-workspace\pico_test_1\Debug/../src/uart.c:46
		put_char(*(p++));
    192c:	0705                	addi	a4,a4,1
put_char():
D:\Hummingbird\HBird-workspace\pico_test_1\Debug/../src/uart.c:31
	if (c == '\n')
    192e:	01278a63          	beq	a5,s2,1942 <printk+0x10c>
D:\Hummingbird\HBird-workspace\pico_test_1\Debug/../src/uart.c:33
	reg_uart_data = c;
    1932:	00f9a823          	sw	a5,16(s3)
print_str():
D:\Hummingbird\HBird-workspace\pico_test_1\Debug/../src/uart.c:45
	while (*p)
    1936:	00070783          	lb	a5,0(a4)
    193a:	d7f9                	beqz	a5,1908 <printk+0xd2>
D:\Hummingbird\HBird-workspace\pico_test_1\Debug/../src/uart.c:46
		put_char(*(p++));
    193c:	0705                	addi	a4,a4,1
put_char():
D:\Hummingbird\HBird-workspace\pico_test_1\Debug/../src/uart.c:31
	if (c == '\n')
    193e:	ff279ae3          	bne	a5,s2,1932 <printk+0xfc>
D:\Hummingbird\HBird-workspace\pico_test_1\Debug/../src/uart.c:33
	reg_uart_data = c;
    1942:	0169a823          	sw	s6,16(s3)
    1946:	b7f5                	j	1932 <printk+0xfc>
printk():
D:\Hummingbird\HBird-workspace\pico_test_1\Debug/../src/uart.c:163
						print_flt(va_arg(vp, double));
    1948:	47b2                	lw	a5,12(sp)
    194a:	0489                	addi	s1,s1,2
    194c:	079d                	addi	a5,a5,7
    194e:	9be1                	andi	a5,a5,-8
    1950:	4388                	lw	a0,0(a5)
    1952:	43cc                	lw	a1,4(a5)
    1954:	07a1                	addi	a5,a5,8
    1956:	c63e                	sw	a5,12(sp)
    1958:	359d                	jal	17be <print_flt>
D:\Hummingbird\HBird-workspace\pico_test_1\Debug/../src/uart.c:165
						break;
    195a:	b725                	j	1882 <printk+0x4c>
print_num():
    195c:	45c1                	li	a1,16
    195e:	3385                	jal	16be <print_num.part.0>
    1960:	0489                	addi	s1,s1,2
    1962:	b705                	j	1882 <printk+0x4c>
put_char():
D:\Hummingbird\HBird-workspace\pico_test_1\Debug/../src/uart.c:33
	reg_uart_data = c;
    1964:	0169a823          	sw	s6,16(s3)
    1968:	b759                	j	18ee <printk+0xb8>

0000196a <getchar_prompt>:
getchar_prompt():
D:\Hummingbird\HBird-workspace\pico_test_1\Debug/../src/uart.c:215
char getchar_prompt(char *prompt)
{
	int32_t c = -1;

	uint32_t cycles_begin, cycles_now, cycles;
	__asm__ volatile ("rdcycle %0" : "=r"(cycles_begin));
    196a:	c00025f3          	rdcycle	a1
D:\Hummingbird\HBird-workspace\pico_test_1\Debug/../src/uart.c:217

	if (prompt)
    196e:	c515                	beqz	a0,199a <getchar_prompt+0x30>
print_str():
D:\Hummingbird\HBird-workspace\pico_test_1\Debug/../src/uart.c:45
	while (*p)
    1970:	00050783          	lb	a5,0(a0)
    1974:	c39d                	beqz	a5,199a <getchar_prompt+0x30>
    1976:	872a                	mv	a4,a0
put_char():
D:\Hummingbird\HBird-workspace\pico_test_1\Debug/../src/uart.c:31
	if (c == '\n')
    1978:	4629                	li	a2,10
D:\Hummingbird\HBird-workspace\pico_test_1\Debug/../src/uart.c:33
	reg_uart_data = c;
    197a:	66a1                	lui	a3,0x8
    197c:	4835                	li	a6,13
    197e:	a029                	j	1988 <getchar_prompt+0x1e>
    1980:	ca9c                	sw	a5,16(a3)
print_str():
D:\Hummingbird\HBird-workspace\pico_test_1\Debug/../src/uart.c:45
	while (*p)
    1982:	00070783          	lb	a5,0(a4)
    1986:	cb91                	beqz	a5,199a <getchar_prompt+0x30>
D:\Hummingbird\HBird-workspace\pico_test_1\Debug/../src/uart.c:46
		put_char(*(p++));
    1988:	0705                	addi	a4,a4,1
put_char():
D:\Hummingbird\HBird-workspace\pico_test_1\Debug/../src/uart.c:31
	if (c == '\n')
    198a:	fec79be3          	bne	a5,a2,1980 <getchar_prompt+0x16>
D:\Hummingbird\HBird-workspace\pico_test_1\Debug/../src/uart.c:33
	reg_uart_data = c;
    198e:	0106a823          	sw	a6,16(a3) # 8010 <_etext+0x50d4>
    1992:	ca9c                	sw	a5,16(a3)
print_str():
D:\Hummingbird\HBird-workspace\pico_test_1\Debug/../src/uart.c:45
	while (*p)
    1994:	00070783          	lb	a5,0(a4)
    1998:	fbe5                	bnez	a5,1988 <getchar_prompt+0x1e>
getchar_prompt():
D:\Hummingbird\HBird-workspace\pico_test_1\Debug/../src/uart.c:224

	while (c == -1)
	{
		__asm__ volatile ("rdcycle %0" : "=r"(cycles_now));
		cycles = cycles_now - cycles_begin;
		if (cycles > 12000000)
    199a:	00b728b7          	lui	a7,0xb72
    199e:	b0088893          	addi	a7,a7,-1280 # b71b00 <_etext+0xb6ebc4>
put_char():
D:\Hummingbird\HBird-workspace\pico_test_1\Debug/../src/uart.c:31
	if (c == '\n')
    19a2:	4829                	li	a6,10
D:\Hummingbird\HBird-workspace\pico_test_1\Debug/../src/uart.c:33
	reg_uart_data = c;
    19a4:	66a1                	lui	a3,0x8
    19a6:	4e35                	li	t3,13
getchar_prompt():
D:\Hummingbird\HBird-workspace\pico_test_1\Debug/../src/uart.c:220
	while (c == -1)
    19a8:	537d                	li	t1,-1
D:\Hummingbird\HBird-workspace\pico_test_1\Debug/../src/uart.c:222
		__asm__ volatile ("rdcycle %0" : "=r"(cycles_now));
    19aa:	c0002673          	rdcycle	a2
D:\Hummingbird\HBird-workspace\pico_test_1\Debug/../src/uart.c:223
		cycles = cycles_now - cycles_begin;
    19ae:	40b607b3          	sub	a5,a2,a1
D:\Hummingbird\HBird-workspace\pico_test_1\Debug/../src/uart.c:224
		if (cycles > 12000000)
    19b2:	02f8f763          	bleu	a5,a7,19e0 <getchar_prompt+0x76>
D:\Hummingbird\HBird-workspace\pico_test_1\Debug/../src/uart.c:230
		{
			if (prompt)
			{
				print_str(prompt);
			}
			cycles_begin = cycles_now;
    19b6:	85b2                	mv	a1,a2
D:\Hummingbird\HBird-workspace\pico_test_1\Debug/../src/uart.c:226
			if (prompt)
    19b8:	c505                	beqz	a0,19e0 <getchar_prompt+0x76>
print_str():
D:\Hummingbird\HBird-workspace\pico_test_1\Debug/../src/uart.c:45
	while (*p)
    19ba:	00050783          	lb	a5,0(a0)
    19be:	c38d                	beqz	a5,19e0 <getchar_prompt+0x76>
    19c0:	872a                	mv	a4,a0
    19c2:	a029                	j	19cc <getchar_prompt+0x62>
put_char():
D:\Hummingbird\HBird-workspace\pico_test_1\Debug/../src/uart.c:33
	reg_uart_data = c;
    19c4:	ca9c                	sw	a5,16(a3)
print_str():
D:\Hummingbird\HBird-workspace\pico_test_1\Debug/../src/uart.c:45
	while (*p)
    19c6:	00070783          	lb	a5,0(a4)
    19ca:	cb91                	beqz	a5,19de <getchar_prompt+0x74>
D:\Hummingbird\HBird-workspace\pico_test_1\Debug/../src/uart.c:46
		put_char(*(p++));
    19cc:	0705                	addi	a4,a4,1
put_char():
D:\Hummingbird\HBird-workspace\pico_test_1\Debug/../src/uart.c:31
	if (c == '\n')
    19ce:	ff079be3          	bne	a5,a6,19c4 <getchar_prompt+0x5a>
D:\Hummingbird\HBird-workspace\pico_test_1\Debug/../src/uart.c:33
	reg_uart_data = c;
    19d2:	01c6a823          	sw	t3,16(a3) # 8010 <_etext+0x50d4>
    19d6:	ca9c                	sw	a5,16(a3)
print_str():
D:\Hummingbird\HBird-workspace\pico_test_1\Debug/../src/uart.c:45
	while (*p)
    19d8:	00070783          	lb	a5,0(a4)
    19dc:	fbe5                	bnez	a5,19cc <getchar_prompt+0x62>
getchar_prompt():
D:\Hummingbird\HBird-workspace\pico_test_1\Debug/../src/uart.c:230
			cycles_begin = cycles_now;
    19de:	85b2                	mv	a1,a2
D:\Hummingbird\HBird-workspace\pico_test_1\Debug/../src/uart.c:232
		}
		c = reg_uart_data;
    19e0:	4a9c                	lw	a5,16(a3)
D:\Hummingbird\HBird-workspace\pico_test_1\Debug/../src/uart.c:220
	while (c == -1)
    19e2:	fc6784e3          	beq	a5,t1,19aa <getchar_prompt+0x40>
D:\Hummingbird\HBird-workspace\pico_test_1\Debug/../src/uart.c:236
	}

	return c;
}
    19e6:	01879513          	slli	a0,a5,0x18
    19ea:	8561                	srai	a0,a0,0x18
    19ec:	8082                	ret

000019ee <get_char>:
get_char():
D:\Hummingbird\HBird-workspace\pico_test_1\Debug/../src/uart.c:246
 ** 输入参数：无
 ** 输出参数：无
 ** 返回参数：输出的字符
 ********************************************************************/
char get_char()
{
    19ee:	1141                	addi	sp,sp,-16
D:\Hummingbird\HBird-workspace\pico_test_1\Debug/../src/uart.c:248
//	return getchar_prompt(0);
	put_char(getchar_prompt(0));
    19f0:	4501                	li	a0,0
D:\Hummingbird\HBird-workspace\pico_test_1\Debug/../src/uart.c:246
{
    19f2:	c606                	sw	ra,12(sp)
D:\Hummingbird\HBird-workspace\pico_test_1\Debug/../src/uart.c:248
	put_char(getchar_prompt(0));
    19f4:	3f9d                	jal	196a <getchar_prompt>
put_char():
D:\Hummingbird\HBird-workspace\pico_test_1\Debug/../src/uart.c:31
	if (c == '\n')
    19f6:	4729                	li	a4,10
get_char():
D:\Hummingbird\HBird-workspace\pico_test_1\Debug/../src/uart.c:248
	put_char(getchar_prompt(0));
    19f8:	87aa                	mv	a5,a0
put_char():
D:\Hummingbird\HBird-workspace\pico_test_1\Debug/../src/uart.c:31
	if (c == '\n')
    19fa:	00e50763          	beq	a0,a4,1a08 <get_char+0x1a>
get_char():
D:\Hummingbird\HBird-workspace\pico_test_1\Debug/../src/uart.c:249
}
    19fe:	40b2                	lw	ra,12(sp)
put_char():
D:\Hummingbird\HBird-workspace\pico_test_1\Debug/../src/uart.c:33
	reg_uart_data = c;
    1a00:	6721                	lui	a4,0x8
    1a02:	cb1c                	sw	a5,16(a4)
get_char():
D:\Hummingbird\HBird-workspace\pico_test_1\Debug/../src/uart.c:249
}
    1a04:	0141                	addi	sp,sp,16
    1a06:	8082                	ret
put_char():
D:\Hummingbird\HBird-workspace\pico_test_1\Debug/../src/uart.c:33
	reg_uart_data = c;
    1a08:	6721                	lui	a4,0x8
get_char():
D:\Hummingbird\HBird-workspace\pico_test_1\Debug/../src/uart.c:249
}
    1a0a:	40b2                	lw	ra,12(sp)
put_char():
D:\Hummingbird\HBird-workspace\pico_test_1\Debug/../src/uart.c:33
	reg_uart_data = c;
    1a0c:	46b5                	li	a3,13
    1a0e:	cb14                	sw	a3,16(a4)
    1a10:	6721                	lui	a4,0x8
    1a12:	cb1c                	sw	a5,16(a4)
get_char():
D:\Hummingbird\HBird-workspace\pico_test_1\Debug/../src/uart.c:249
}
    1a14:	0141                	addi	sp,sp,16
    1a16:	8082                	ret

00001a18 <__muldf3>:
__muldf3():
    1a18:	fc010113          	addi	sp,sp,-64
    1a1c:	02812c23          	sw	s0,56(sp)
    1a20:	0145d793          	srli	a5,a1,0x14
    1a24:	00100437          	lui	s0,0x100
    1a28:	02912a23          	sw	s1,52(sp)
    1a2c:	03312623          	sw	s3,44(sp)
    1a30:	00050493          	mv	s1,a0
    1a34:	fff40413          	addi	s0,s0,-1 # fffff <_etext+0xfd0c3>
    1a38:	02112e23          	sw	ra,60(sp)
    1a3c:	03212823          	sw	s2,48(sp)
    1a40:	03412423          	sw	s4,40(sp)
    1a44:	03512223          	sw	s5,36(sp)
    1a48:	03612023          	sw	s6,32(sp)
    1a4c:	01712e23          	sw	s7,28(sp)
    1a50:	7ff7f513          	andi	a0,a5,2047
    1a54:	00b47433          	and	s0,s0,a1
    1a58:	01f5d993          	srli	s3,a1,0x1f
    1a5c:	1e050e63          	beqz	a0,1c58 <__muldf3+0x240>
    1a60:	7ff00793          	li	a5,2047
    1a64:	0af50063          	beq	a0,a5,1b04 <__muldf3+0xec>
    1a68:	00341413          	slli	s0,s0,0x3
    1a6c:	008007b7          	lui	a5,0x800
    1a70:	01d4db13          	srli	s6,s1,0x1d
    1a74:	00f46433          	or	s0,s0,a5
    1a78:	00349a13          	slli	s4,s1,0x3
    1a7c:	008b6b33          	or	s6,s6,s0
    1a80:	c0150a93          	addi	s5,a0,-1023
    1a84:	00000493          	li	s1,0
    1a88:	00000b93          	li	s7,0
    1a8c:	0146d893          	srli	a7,a3,0x14
    1a90:	00100437          	lui	s0,0x100
    1a94:	fff40413          	addi	s0,s0,-1 # fffff <_etext+0xfd0c3>
    1a98:	7ff8f893          	andi	a7,a7,2047
    1a9c:	00060813          	mv	a6,a2
    1aa0:	00d47433          	and	s0,s0,a3
    1aa4:	01f6d913          	srli	s2,a3,0x1f
    1aa8:	08088a63          	beqz	a7,1b3c <__muldf3+0x124>
    1aac:	7ff00793          	li	a5,2047
    1ab0:	20f88463          	beq	a7,a5,1cb8 <__muldf3+0x2a0>
    1ab4:	00800737          	lui	a4,0x800
    1ab8:	00341413          	slli	s0,s0,0x3
    1abc:	00e46433          	or	s0,s0,a4
    1ac0:	c0188893          	addi	a7,a7,-1023
    1ac4:	01d65713          	srli	a4,a2,0x1d
    1ac8:	00876733          	or	a4,a4,s0
    1acc:	00361813          	slli	a6,a2,0x3
    1ad0:	011a8ab3          	add	s5,s5,a7
    1ad4:	00000513          	li	a0,0
    1ad8:	00f00693          	li	a3,15
    1adc:	0129c7b3          	xor	a5,s3,s2
    1ae0:	001a8593          	addi	a1,s5,1
    1ae4:	1e96e863          	bltu	a3,s1,1cd4 <__muldf3+0x2bc>
    1ae8:	00001617          	auipc	a2,0x1
    1aec:	31460613          	addi	a2,a2,788 # 2dfc <rand+0x2ec>
    1af0:	00249493          	slli	s1,s1,0x2
    1af4:	00c484b3          	add	s1,s1,a2
    1af8:	0004a683          	lw	a3,0(s1)
    1afc:	00c686b3          	add	a3,a3,a2
    1b00:	00068067          	jr	a3
    1b04:	00946b33          	or	s6,s0,s1
    1b08:	400b1663          	bnez	s6,1f14 <__muldf3+0x4fc>
    1b0c:	0146d893          	srli	a7,a3,0x14
    1b10:	00100437          	lui	s0,0x100
    1b14:	fff40413          	addi	s0,s0,-1 # fffff <_etext+0xfd0c3>
    1b18:	7ff8f893          	andi	a7,a7,2047
    1b1c:	00800493          	li	s1,8
    1b20:	00000a13          	li	s4,0
    1b24:	7ff00a93          	li	s5,2047
    1b28:	00200b93          	li	s7,2
    1b2c:	00060813          	mv	a6,a2
    1b30:	00d47433          	and	s0,s0,a3
    1b34:	01f6d913          	srli	s2,a3,0x1f
    1b38:	f6089ae3          	bnez	a7,1aac <__muldf3+0x94>
    1b3c:	00c46733          	or	a4,s0,a2
    1b40:	3e070663          	beqz	a4,1f2c <__muldf3+0x514>
    1b44:	4a040463          	beqz	s0,1fec <__muldf3+0x5d4>
    1b48:	00040513          	mv	a0,s0
    1b4c:	00c12423          	sw	a2,8(sp)
    1b50:	719000ef          	jal	ra,2a68 <__clzsi2>
    1b54:	00812603          	lw	a2,8(sp)
    1b58:	ff550793          	addi	a5,a0,-11
    1b5c:	01c00713          	li	a4,28
    1b60:	44f74a63          	blt	a4,a5,1fb4 <__muldf3+0x59c>
    1b64:	01d00713          	li	a4,29
    1b68:	ff850813          	addi	a6,a0,-8
    1b6c:	40f70733          	sub	a4,a4,a5
    1b70:	01041433          	sll	s0,s0,a6
    1b74:	00e65733          	srl	a4,a2,a4
    1b78:	00876733          	or	a4,a4,s0
    1b7c:	01061833          	sll	a6,a2,a6
    1b80:	40aa8533          	sub	a0,s5,a0
    1b84:	c0d50a93          	addi	s5,a0,-1011
    1b88:	00000513          	li	a0,0
    1b8c:	f4dff06f          	j	1ad8 <__muldf3+0xc0>
    1b90:	00000613          	li	a2,0
    1b94:	7ff00713          	li	a4,2047
    1b98:	000807b7          	lui	a5,0x80
    1b9c:	00000813          	li	a6,0
    1ba0:	001006b7          	lui	a3,0x100
    1ba4:	fff68693          	addi	a3,a3,-1 # fffff <_etext+0xfd0c3>
    1ba8:	00d7f7b3          	and	a5,a5,a3
    1bac:	801006b7          	lui	a3,0x80100
    1bb0:	fff68693          	addi	a3,a3,-1 # 800fffff <_etext+0x800fd0c3>
    1bb4:	00d7f7b3          	and	a5,a5,a3
    1bb8:	03c12083          	lw	ra,60(sp)
    1bbc:	03812403          	lw	s0,56(sp)
    1bc0:	01471713          	slli	a4,a4,0x14
    1bc4:	01f61693          	slli	a3,a2,0x1f
    1bc8:	00e7e7b3          	or	a5,a5,a4
    1bcc:	00d7e7b3          	or	a5,a5,a3
    1bd0:	03412483          	lw	s1,52(sp)
    1bd4:	03012903          	lw	s2,48(sp)
    1bd8:	02c12983          	lw	s3,44(sp)
    1bdc:	02812a03          	lw	s4,40(sp)
    1be0:	02412a83          	lw	s5,36(sp)
    1be4:	02012b03          	lw	s6,32(sp)
    1be8:	01c12b83          	lw	s7,28(sp)
    1bec:	00080513          	mv	a0,a6
    1bf0:	00078593          	mv	a1,a5
    1bf4:	04010113          	addi	sp,sp,64
    1bf8:	00008067          	ret
    1bfc:	00090793          	mv	a5,s2
    1c00:	00200693          	li	a3,2
    1c04:	02d51863          	bne	a0,a3,1c34 <__muldf3+0x21c>
    1c08:	00078613          	mv	a2,a5
    1c0c:	7ff00713          	li	a4,2047
    1c10:	00000793          	li	a5,0
    1c14:	00000813          	li	a6,0
    1c18:	f89ff06f          	j	1ba0 <__muldf3+0x188>
    1c1c:	00098793          	mv	a5,s3
    1c20:	000b8513          	mv	a0,s7
    1c24:	00200693          	li	a3,2
    1c28:	000b0713          	mv	a4,s6
    1c2c:	000a0813          	mv	a6,s4
    1c30:	fcd50ce3          	beq	a0,a3,1c08 <__muldf3+0x1f0>
    1c34:	00300693          	li	a3,3
    1c38:	f4d50ce3          	beq	a0,a3,1b90 <__muldf3+0x178>
    1c3c:	00100693          	li	a3,1
    1c40:	24d51a63          	bne	a0,a3,1e94 <__muldf3+0x47c>
    1c44:	00078613          	mv	a2,a5
    1c48:	00000713          	li	a4,0
    1c4c:	00000793          	li	a5,0
    1c50:	00000813          	li	a6,0
    1c54:	f4dff06f          	j	1ba0 <__muldf3+0x188>
    1c58:	00946b33          	or	s6,s0,s1
    1c5c:	2a0b0263          	beqz	s6,1f00 <__muldf3+0x4e8>
    1c60:	00d12623          	sw	a3,12(sp)
    1c64:	00c12423          	sw	a2,8(sp)
    1c68:	36040663          	beqz	s0,1fd4 <__muldf3+0x5bc>
    1c6c:	00040513          	mv	a0,s0
    1c70:	5f9000ef          	jal	ra,2a68 <__clzsi2>
    1c74:	00812603          	lw	a2,8(sp)
    1c78:	00c12683          	lw	a3,12(sp)
    1c7c:	ff550793          	addi	a5,a0,-11
    1c80:	01c00713          	li	a4,28
    1c84:	34f74063          	blt	a4,a5,1fc4 <__muldf3+0x5ac>
    1c88:	01d00b13          	li	s6,29
    1c8c:	ff850a13          	addi	s4,a0,-8
    1c90:	40fb0b33          	sub	s6,s6,a5
    1c94:	01441433          	sll	s0,s0,s4
    1c98:	0164db33          	srl	s6,s1,s6
    1c9c:	008b6b33          	or	s6,s6,s0
    1ca0:	01449a33          	sll	s4,s1,s4
    1ca4:	c0d00a93          	li	s5,-1011
    1ca8:	40aa8ab3          	sub	s5,s5,a0
    1cac:	00000493          	li	s1,0
    1cb0:	00000b93          	li	s7,0
    1cb4:	dd9ff06f          	j	1a8c <__muldf3+0x74>
    1cb8:	00c46733          	or	a4,s0,a2
    1cbc:	7ffa8a93          	addi	s5,s5,2047
    1cc0:	26071e63          	bnez	a4,1f3c <__muldf3+0x524>
    1cc4:	0024e493          	ori	s1,s1,2
    1cc8:	00000813          	li	a6,0
    1ccc:	00200513          	li	a0,2
    1cd0:	e09ff06f          	j	1ad8 <__muldf3+0xc0>
    1cd4:	00010eb7          	lui	t4,0x10
    1cd8:	fffe8613          	addi	a2,t4,-1 # ffff <_etext+0xd0c3>
    1cdc:	010a5693          	srli	a3,s4,0x10
    1ce0:	01085313          	srli	t1,a6,0x10
    1ce4:	00ca7a33          	and	s4,s4,a2
    1ce8:	00c87833          	and	a6,a6,a2
    1cec:	03480633          	mul	a2,a6,s4
    1cf0:	03068e33          	mul	t3,a3,a6
    1cf4:	01065513          	srli	a0,a2,0x10
    1cf8:	034308b3          	mul	a7,t1,s4
    1cfc:	01c888b3          	add	a7,a7,t3
    1d00:	01150533          	add	a0,a0,a7
    1d04:	02668f33          	mul	t5,a3,t1
    1d08:	01c57463          	bleu	t3,a0,1d10 <__muldf3+0x2f8>
    1d0c:	01df0f33          	add	t5,t5,t4
    1d10:	00010e37          	lui	t3,0x10
    1d14:	fffe0893          	addi	a7,t3,-1 # ffff <_etext+0xd0c3>
    1d18:	011773b3          	and	t2,a4,a7
    1d1c:	01075293          	srli	t0,a4,0x10
    1d20:	01157733          	and	a4,a0,a7
    1d24:	011678b3          	and	a7,a2,a7
    1d28:	01071713          	slli	a4,a4,0x10
    1d2c:	03438633          	mul	a2,t2,s4
    1d30:	011708b3          	add	a7,a4,a7
    1d34:	01055513          	srli	a0,a0,0x10
    1d38:	02768eb3          	mul	t4,a3,t2
    1d3c:	01065713          	srli	a4,a2,0x10
    1d40:	03428a33          	mul	s4,t0,s4
    1d44:	01da0a33          	add	s4,s4,t4
    1d48:	01470a33          	add	s4,a4,s4
    1d4c:	025686b3          	mul	a3,a3,t0
    1d50:	01da7463          	bleu	t4,s4,1d58 <__muldf3+0x340>
    1d54:	01c686b3          	add	a3,a3,t3
    1d58:	00010937          	lui	s2,0x10
    1d5c:	fff90713          	addi	a4,s2,-1 # ffff <_etext+0xd0c3>
    1d60:	010b5f93          	srli	t6,s6,0x10
    1d64:	00eb7433          	and	s0,s6,a4
    1d68:	00ea7eb3          	and	t4,s4,a4
    1d6c:	00e67633          	and	a2,a2,a4
    1d70:	010e9e93          	slli	t4,t4,0x10
    1d74:	028804b3          	mul	s1,a6,s0
    1d78:	010a5a13          	srli	s4,s4,0x10
    1d7c:	00ce8eb3          	add	t4,t4,a2
    1d80:	00da0a33          	add	s4,s4,a3
    1d84:	01d50533          	add	a0,a0,t4
    1d88:	02830733          	mul	a4,t1,s0
    1d8c:	0104de13          	srli	t3,s1,0x10
    1d90:	030f8833          	mul	a6,t6,a6
    1d94:	01070733          	add	a4,a4,a6
    1d98:	00ee0e33          	add	t3,t3,a4
    1d9c:	03f30333          	mul	t1,t1,t6
    1da0:	010e7463          	bleu	a6,t3,1da8 <__muldf3+0x390>
    1da4:	01230333          	add	t1,t1,s2
    1da8:	00010937          	lui	s2,0x10
    1dac:	fff90613          	addi	a2,s2,-1 # ffff <_etext+0xd0c3>
    1db0:	00ce76b3          	and	a3,t3,a2
    1db4:	010e5e13          	srli	t3,t3,0x10
    1db8:	006e0333          	add	t1,t3,t1
    1dbc:	01069693          	slli	a3,a3,0x10
    1dc0:	00c4f4b3          	and	s1,s1,a2
    1dc4:	02838e33          	mul	t3,t2,s0
    1dc8:	00968633          	add	a2,a3,s1
    1dcc:	027f8833          	mul	a6,t6,t2
    1dd0:	010e5713          	srli	a4,t3,0x10
    1dd4:	02828433          	mul	s0,t0,s0
    1dd8:	01040433          	add	s0,s0,a6
    1ddc:	00870433          	add	s0,a4,s0
    1de0:	03f28fb3          	mul	t6,t0,t6
    1de4:	01047463          	bleu	a6,s0,1dec <__muldf3+0x3d4>
    1de8:	012f8fb3          	add	t6,t6,s2
    1dec:	00010737          	lui	a4,0x10
    1df0:	fff70713          	addi	a4,a4,-1 # ffff <_etext+0xd0c3>
    1df4:	00e476b3          	and	a3,s0,a4
    1df8:	01069693          	slli	a3,a3,0x10
    1dfc:	00ee7733          	and	a4,t3,a4
    1e00:	01e50533          	add	a0,a0,t5
    1e04:	00e686b3          	add	a3,a3,a4
    1e08:	01d53eb3          	sltu	t4,a0,t4
    1e0c:	01468733          	add	a4,a3,s4
    1e10:	00c50533          	add	a0,a0,a2
    1e14:	01d70833          	add	a6,a4,t4
    1e18:	00c536b3          	sltu	a3,a0,a2
    1e1c:	00680e33          	add	t3,a6,t1
    1e20:	00de0633          	add	a2,t3,a3
    1e24:	01d83eb3          	sltu	t4,a6,t4
    1e28:	01473733          	sltu	a4,a4,s4
    1e2c:	01d76733          	or	a4,a4,t4
    1e30:	01045413          	srli	s0,s0,0x10
    1e34:	006e3333          	sltu	t1,t3,t1
    1e38:	00d636b3          	sltu	a3,a2,a3
    1e3c:	00d366b3          	or	a3,t1,a3
    1e40:	00870733          	add	a4,a4,s0
    1e44:	00d70733          	add	a4,a4,a3
    1e48:	00951813          	slli	a6,a0,0x9
    1e4c:	01186833          	or	a6,a6,a7
    1e50:	01f70733          	add	a4,a4,t6
    1e54:	00971713          	slli	a4,a4,0x9
    1e58:	01765893          	srli	a7,a2,0x17
    1e5c:	01003833          	snez	a6,a6
    1e60:	01755513          	srli	a0,a0,0x17
    1e64:	00961693          	slli	a3,a2,0x9
    1e68:	00a86833          	or	a6,a6,a0
    1e6c:	01176733          	or	a4,a4,a7
    1e70:	00d86833          	or	a6,a6,a3
    1e74:	00771693          	slli	a3,a4,0x7
    1e78:	1806d663          	bgez	a3,2004 <__muldf3+0x5ec>
    1e7c:	00185693          	srli	a3,a6,0x1
    1e80:	00187813          	andi	a6,a6,1
    1e84:	01f71613          	slli	a2,a4,0x1f
    1e88:	0106e833          	or	a6,a3,a6
    1e8c:	00c86833          	or	a6,a6,a2
    1e90:	00175713          	srli	a4,a4,0x1
    1e94:	3ff58693          	addi	a3,a1,1023
    1e98:	00078613          	mv	a2,a5
    1e9c:	0ad05863          	blez	a3,1f4c <__muldf3+0x534>
    1ea0:	00787793          	andi	a5,a6,7
    1ea4:	02078063          	beqz	a5,1ec4 <__muldf3+0x4ac>
    1ea8:	00f87793          	andi	a5,a6,15
    1eac:	00400513          	li	a0,4
    1eb0:	00a78a63          	beq	a5,a0,1ec4 <__muldf3+0x4ac>
    1eb4:	00480793          	addi	a5,a6,4
    1eb8:	0107b833          	sltu	a6,a5,a6
    1ebc:	01070733          	add	a4,a4,a6
    1ec0:	00078813          	mv	a6,a5
    1ec4:	00771793          	slli	a5,a4,0x7
    1ec8:	0007da63          	bgez	a5,1edc <__muldf3+0x4c4>
    1ecc:	ff0007b7          	lui	a5,0xff000
    1ed0:	fff78793          	addi	a5,a5,-1 # feffffff <_etext+0xfeffd0c3>
    1ed4:	00f77733          	and	a4,a4,a5
    1ed8:	40058693          	addi	a3,a1,1024
    1edc:	7fe00793          	li	a5,2046
    1ee0:	12d7c663          	blt	a5,a3,200c <__muldf3+0x5f4>
    1ee4:	00385793          	srli	a5,a6,0x3
    1ee8:	01d71813          	slli	a6,a4,0x1d
    1eec:	00971713          	slli	a4,a4,0x9
    1ef0:	00f86833          	or	a6,a6,a5
    1ef4:	00c75793          	srli	a5,a4,0xc
    1ef8:	7ff6f713          	andi	a4,a3,2047
    1efc:	ca5ff06f          	j	1ba0 <__muldf3+0x188>
    1f00:	00400493          	li	s1,4
    1f04:	00000a13          	li	s4,0
    1f08:	00000a93          	li	s5,0
    1f0c:	00100b93          	li	s7,1
    1f10:	b7dff06f          	j	1a8c <__muldf3+0x74>
    1f14:	00048a13          	mv	s4,s1
    1f18:	00040b13          	mv	s6,s0
    1f1c:	00c00493          	li	s1,12
    1f20:	7ff00a93          	li	s5,2047
    1f24:	00300b93          	li	s7,3
    1f28:	b65ff06f          	j	1a8c <__muldf3+0x74>
    1f2c:	0014e493          	ori	s1,s1,1
    1f30:	00000813          	li	a6,0
    1f34:	00100513          	li	a0,1
    1f38:	ba1ff06f          	j	1ad8 <__muldf3+0xc0>
    1f3c:	0034e493          	ori	s1,s1,3
    1f40:	00040713          	mv	a4,s0
    1f44:	00300513          	li	a0,3
    1f48:	b91ff06f          	j	1ad8 <__muldf3+0xc0>
    1f4c:	00100793          	li	a5,1
    1f50:	40d787b3          	sub	a5,a5,a3
    1f54:	0c069463          	bnez	a3,201c <__muldf3+0x604>
    1f58:	41e58593          	addi	a1,a1,1054
    1f5c:	00b816b3          	sll	a3,a6,a1
    1f60:	00b715b3          	sll	a1,a4,a1
    1f64:	00f85833          	srl	a6,a6,a5
    1f68:	00d036b3          	snez	a3,a3
    1f6c:	0105e5b3          	or	a1,a1,a6
    1f70:	00d5e5b3          	or	a1,a1,a3
    1f74:	0075f693          	andi	a3,a1,7
    1f78:	00f75733          	srl	a4,a4,a5
    1f7c:	02068063          	beqz	a3,1f9c <__muldf3+0x584>
    1f80:	00f5f793          	andi	a5,a1,15
    1f84:	00400693          	li	a3,4
    1f88:	00d78a63          	beq	a5,a3,1f9c <__muldf3+0x584>
    1f8c:	00058813          	mv	a6,a1
    1f90:	00480593          	addi	a1,a6,4
    1f94:	0105b833          	sltu	a6,a1,a6
    1f98:	01070733          	add	a4,a4,a6
    1f9c:	00871793          	slli	a5,a4,0x8
    1fa0:	0e07d263          	bgez	a5,2084 <__muldf3+0x66c>
    1fa4:	00100713          	li	a4,1
    1fa8:	00000793          	li	a5,0
    1fac:	00000813          	li	a6,0
    1fb0:	bf1ff06f          	j	1ba0 <__muldf3+0x188>
    1fb4:	fd850713          	addi	a4,a0,-40
    1fb8:	00e61733          	sll	a4,a2,a4
    1fbc:	00000813          	li	a6,0
    1fc0:	bc1ff06f          	j	1b80 <__muldf3+0x168>
    1fc4:	fd850413          	addi	s0,a0,-40
    1fc8:	00849b33          	sll	s6,s1,s0
    1fcc:	00000a13          	li	s4,0
    1fd0:	cd5ff06f          	j	1ca4 <__muldf3+0x28c>
    1fd4:	00048513          	mv	a0,s1
    1fd8:	291000ef          	jal	ra,2a68 <__clzsi2>
    1fdc:	02050513          	addi	a0,a0,32
    1fe0:	00c12683          	lw	a3,12(sp)
    1fe4:	00812603          	lw	a2,8(sp)
    1fe8:	c95ff06f          	j	1c7c <__muldf3+0x264>
    1fec:	00060513          	mv	a0,a2
    1ff0:	00c12423          	sw	a2,8(sp)
    1ff4:	275000ef          	jal	ra,2a68 <__clzsi2>
    1ff8:	02050513          	addi	a0,a0,32
    1ffc:	00812603          	lw	a2,8(sp)
    2000:	b59ff06f          	j	1b58 <__muldf3+0x140>
    2004:	000a8593          	mv	a1,s5
    2008:	e8dff06f          	j	1e94 <__muldf3+0x47c>
    200c:	7ff00713          	li	a4,2047
    2010:	00000793          	li	a5,0
    2014:	00000813          	li	a6,0
    2018:	b89ff06f          	j	1ba0 <__muldf3+0x188>
    201c:	03800513          	li	a0,56
    2020:	00f55a63          	ble	a5,a0,2034 <__muldf3+0x61c>
    2024:	00000713          	li	a4,0
    2028:	00000793          	li	a5,0
    202c:	00000813          	li	a6,0
    2030:	b71ff06f          	j	1ba0 <__muldf3+0x188>
    2034:	01f00513          	li	a0,31
    2038:	f2f550e3          	ble	a5,a0,1f58 <__muldf3+0x540>
    203c:	fe100513          	li	a0,-31
    2040:	40d506b3          	sub	a3,a0,a3
    2044:	02000513          	li	a0,32
    2048:	00d756b3          	srl	a3,a4,a3
    204c:	00a78863          	beq	a5,a0,205c <__muldf3+0x644>
    2050:	43e58593          	addi	a1,a1,1086
    2054:	00b71733          	sll	a4,a4,a1
    2058:	00e86833          	or	a6,a6,a4
    205c:	01003833          	snez	a6,a6
    2060:	00d86833          	or	a6,a6,a3
    2064:	00787713          	andi	a4,a6,7
    2068:	00000793          	li	a5,0
    206c:	02070463          	beqz	a4,2094 <__muldf3+0x67c>
    2070:	00f87793          	andi	a5,a6,15
    2074:	00400693          	li	a3,4
    2078:	00000713          	li	a4,0
    207c:	00080593          	mv	a1,a6
    2080:	f0d798e3          	bne	a5,a3,1f90 <__muldf3+0x578>
    2084:	00971693          	slli	a3,a4,0x9
    2088:	00c6d793          	srli	a5,a3,0xc
    208c:	01d71713          	slli	a4,a4,0x1d
    2090:	00058813          	mv	a6,a1
    2094:	00385813          	srli	a6,a6,0x3
    2098:	00e86833          	or	a6,a6,a4
    209c:	00000713          	li	a4,0
    20a0:	b01ff06f          	j	1ba0 <__muldf3+0x188>

000020a4 <__subdf3>:
__subdf3():
    20a4:	00100837          	lui	a6,0x100
    20a8:	fff80813          	addi	a6,a6,-1 # fffff <_etext+0xfd0c3>
    20ac:	fe010113          	addi	sp,sp,-32
    20b0:	00b877b3          	and	a5,a6,a1
    20b4:	0146d893          	srli	a7,a3,0x14
    20b8:	00d87833          	and	a6,a6,a3
    20bc:	00379313          	slli	t1,a5,0x3
    20c0:	00812c23          	sw	s0,24(sp)
    20c4:	01d55793          	srli	a5,a0,0x1d
    20c8:	00912a23          	sw	s1,20(sp)
    20cc:	01212823          	sw	s2,16(sp)
    20d0:	0145d493          	srli	s1,a1,0x14
    20d4:	01d65913          	srli	s2,a2,0x1d
    20d8:	00381813          	slli	a6,a6,0x3
    20dc:	00112e23          	sw	ra,28(sp)
    20e0:	01312623          	sw	s3,12(sp)
    20e4:	7ff8f893          	andi	a7,a7,2047
    20e8:	7ff00713          	li	a4,2047
    20ec:	01f5d413          	srli	s0,a1,0x1f
    20f0:	7ff4f493          	andi	s1,s1,2047
    20f4:	0067e7b3          	or	a5,a5,t1
    20f8:	00351513          	slli	a0,a0,0x3
    20fc:	01f6d693          	srli	a3,a3,0x1f
    2100:	010965b3          	or	a1,s2,a6
    2104:	00361613          	slli	a2,a2,0x3
    2108:	0ae88663          	beq	a7,a4,21b4 <__subdf3+0x110>
    210c:	0016c693          	xori	a3,a3,1
    2110:	41148833          	sub	a6,s1,a7
    2114:	0a868863          	beq	a3,s0,21c4 <__subdf3+0x120>
    2118:	0f005463          	blez	a6,2200 <__subdf3+0x15c>
    211c:	12089463          	bnez	a7,2244 <__subdf3+0x1a0>
    2120:	00c5e733          	or	a4,a1,a2
    2124:	24071c63          	bnez	a4,237c <__subdf3+0x2d8>
    2128:	7ff00713          	li	a4,2047
    212c:	38e80e63          	beq	a6,a4,24c8 <__subdf3+0x424>
    2130:	01d79693          	slli	a3,a5,0x1d
    2134:	00355513          	srli	a0,a0,0x3
    2138:	00d569b3          	or	s3,a0,a3
    213c:	0037d793          	srli	a5,a5,0x3
    2140:	7ff00713          	li	a4,2047
    2144:	56e80063          	beq	a6,a4,26a4 <__subdf3+0x600>
    2148:	00100737          	lui	a4,0x100
    214c:	fff70713          	addi	a4,a4,-1 # fffff <_etext+0xfd0c3>
    2150:	00e7f7b3          	and	a5,a5,a4
    2154:	7ff87813          	andi	a6,a6,2047
    2158:	00147593          	andi	a1,s0,1
    215c:	00100737          	lui	a4,0x100
    2160:	fff70713          	addi	a4,a4,-1 # fffff <_etext+0xfd0c3>
    2164:	00e7f7b3          	and	a5,a5,a4
    2168:	80100737          	lui	a4,0x80100
    216c:	fff70713          	addi	a4,a4,-1 # 800fffff <_etext+0x800fd0c3>
    2170:	00e7f7b3          	and	a5,a5,a4
    2174:	01481813          	slli	a6,a6,0x14
    2178:	80000737          	lui	a4,0x80000
    217c:	01c12083          	lw	ra,28(sp)
    2180:	01812403          	lw	s0,24(sp)
    2184:	0107e7b3          	or	a5,a5,a6
    2188:	fff74713          	not	a4,a4
    218c:	01f59593          	slli	a1,a1,0x1f
    2190:	00e7f7b3          	and	a5,a5,a4
    2194:	00b7e7b3          	or	a5,a5,a1
    2198:	00098513          	mv	a0,s3
    219c:	01412483          	lw	s1,20(sp)
    21a0:	01012903          	lw	s2,16(sp)
    21a4:	00c12983          	lw	s3,12(sp)
    21a8:	00078593          	mv	a1,a5
    21ac:	02010113          	addi	sp,sp,32
    21b0:	00008067          	ret
    21b4:	00c5e733          	or	a4,a1,a2
    21b8:	f4070ae3          	beqz	a4,210c <__subdf3+0x68>
    21bc:	41148833          	sub	a6,s1,a7
    21c0:	f4869ce3          	bne	a3,s0,2118 <__subdf3+0x74>
    21c4:	33005063          	blez	a6,24e4 <__subdf3+0x440>
    21c8:	0c089263          	bnez	a7,228c <__subdf3+0x1e8>
    21cc:	00c5e733          	or	a4,a1,a2
    21d0:	f4070ce3          	beqz	a4,2128 <__subdf3+0x84>
    21d4:	fff80713          	addi	a4,a6,-1
    21d8:	48071c63          	bnez	a4,2670 <__subdf3+0x5cc>
    21dc:	00c509b3          	add	s3,a0,a2
    21e0:	00b78933          	add	s2,a5,a1
    21e4:	00a9b533          	sltu	a0,s3,a0
    21e8:	00a90333          	add	t1,s2,a0
    21ec:	00831793          	slli	a5,t1,0x8
    21f0:	00100493          	li	s1,1
    21f4:	2a07d663          	bgez	a5,24a0 <__subdf3+0x3fc>
    21f8:	00200493          	li	s1,2
    21fc:	0f80006f          	j	22f4 <__subdf3+0x250>
    2200:	22081063          	bnez	a6,2420 <__subdf3+0x37c>
    2204:	00148713          	addi	a4,s1,1
    2208:	7ff77713          	andi	a4,a4,2047
    220c:	00100813          	li	a6,1
    2210:	36e85663          	ble	a4,a6,257c <__subdf3+0x4d8>
    2214:	40c509b3          	sub	s3,a0,a2
    2218:	01353733          	sltu	a4,a0,s3
    221c:	40b78933          	sub	s2,a5,a1
    2220:	40e90933          	sub	s2,s2,a4
    2224:	00891713          	slli	a4,s2,0x8
    2228:	3a074a63          	bltz	a4,25dc <__subdf3+0x538>
    222c:	0129e7b3          	or	a5,s3,s2
    2230:	16079e63          	bnez	a5,23ac <__subdf3+0x308>
    2234:	00000413          	li	s0,0
    2238:	00000993          	li	s3,0
    223c:	00040813          	mv	a6,s0
    2240:	f09ff06f          	j	2148 <__subdf3+0xa4>
    2244:	008006b7          	lui	a3,0x800
    2248:	7ff00713          	li	a4,2047
    224c:	00d5e5b3          	or	a1,a1,a3
    2250:	22e48c63          	beq	s1,a4,2488 <__subdf3+0x3e4>
    2254:	03800713          	li	a4,56
    2258:	31074663          	blt	a4,a6,2564 <__subdf3+0x4c0>
    225c:	01f00713          	li	a4,31
    2260:	3b075063          	ble	a6,a4,2600 <__subdf3+0x55c>
    2264:	02000713          	li	a4,32
    2268:	0105d6b3          	srl	a3,a1,a6
    226c:	00e80a63          	beq	a6,a4,2280 <__subdf3+0x1dc>
    2270:	04000913          	li	s2,64
    2274:	41090833          	sub	a6,s2,a6
    2278:	01059933          	sll	s2,a1,a6
    227c:	01266633          	or	a2,a2,s2
    2280:	00c03633          	snez	a2,a2
    2284:	00d666b3          	or	a3,a2,a3
    2288:	2e40006f          	j	256c <__subdf3+0x4c8>
    228c:	008006b7          	lui	a3,0x800
    2290:	7ff00713          	li	a4,2047
    2294:	00d5e5b3          	or	a1,a1,a3
    2298:	1ee48863          	beq	s1,a4,2488 <__subdf3+0x3e4>
    229c:	03800713          	li	a4,56
    22a0:	35074a63          	blt	a4,a6,25f4 <__subdf3+0x550>
    22a4:	01f00713          	li	a4,31
    22a8:	4b074663          	blt	a4,a6,2754 <__subdf3+0x6b0>
    22ac:	02000713          	li	a4,32
    22b0:	41070733          	sub	a4,a4,a6
    22b4:	010656b3          	srl	a3,a2,a6
    22b8:	00e599b3          	sll	s3,a1,a4
    22bc:	00e61633          	sll	a2,a2,a4
    22c0:	00d9e9b3          	or	s3,s3,a3
    22c4:	0105d933          	srl	s2,a1,a6
    22c8:	00c036b3          	snez	a3,a2
    22cc:	00d9e6b3          	or	a3,s3,a3
    22d0:	012787b3          	add	a5,a5,s2
    22d4:	00a689b3          	add	s3,a3,a0
    22d8:	00a9b533          	sltu	a0,s3,a0
    22dc:	00f50333          	add	t1,a0,a5
    22e0:	00831793          	slli	a5,t1,0x8
    22e4:	1a07de63          	bgez	a5,24a0 <__subdf3+0x3fc>
    22e8:	00148493          	addi	s1,s1,1
    22ec:	7ff00793          	li	a5,2047
    22f0:	1ef48063          	beq	s1,a5,24d0 <__subdf3+0x42c>
    22f4:	ff800937          	lui	s2,0xff800
    22f8:	fff90913          	addi	s2,s2,-1 # ff7fffff <_etext+0xff7fd0c3>
    22fc:	0019d793          	srli	a5,s3,0x1
    2300:	01237933          	and	s2,t1,s2
    2304:	0019f693          	andi	a3,s3,1
    2308:	00d7e6b3          	or	a3,a5,a3
    230c:	01f91993          	slli	s3,s2,0x1f
    2310:	00d9e9b3          	or	s3,s3,a3
    2314:	00195313          	srli	t1,s2,0x1
    2318:	0079f793          	andi	a5,s3,7
    231c:	02078063          	beqz	a5,233c <__subdf3+0x298>
    2320:	00f9f593          	andi	a1,s3,15
    2324:	00400793          	li	a5,4
    2328:	00f58a63          	beq	a1,a5,233c <__subdf3+0x298>
    232c:	00498713          	addi	a4,s3,4
    2330:	013736b3          	sltu	a3,a4,s3
    2334:	00d30333          	add	t1,t1,a3
    2338:	00070993          	mv	s3,a4
    233c:	00831793          	slli	a5,t1,0x8
    2340:	5c07da63          	bgez	a5,2914 <__subdf3+0x870>
    2344:	00148813          	addi	a6,s1,1
    2348:	7ff00793          	li	a5,2047
    234c:	00147593          	andi	a1,s0,1
    2350:	18f80263          	beq	a6,a5,24d4 <__subdf3+0x430>
    2354:	ff800737          	lui	a4,0xff800
    2358:	fff70713          	addi	a4,a4,-1 # ff7fffff <_etext+0xff7fd0c3>
    235c:	00e37733          	and	a4,t1,a4
    2360:	0039d693          	srli	a3,s3,0x3
    2364:	00971793          	slli	a5,a4,0x9
    2368:	01d71993          	slli	s3,a4,0x1d
    236c:	00d9e9b3          	or	s3,s3,a3
    2370:	00c7d793          	srli	a5,a5,0xc
    2374:	7ff87813          	andi	a6,a6,2047
    2378:	de5ff06f          	j	215c <__subdf3+0xb8>
    237c:	fff80713          	addi	a4,a6,-1
    2380:	14071063          	bnez	a4,24c0 <__subdf3+0x41c>
    2384:	40c509b3          	sub	s3,a0,a2
    2388:	40b78933          	sub	s2,a5,a1
    238c:	01353533          	sltu	a0,a0,s3
    2390:	40a90333          	sub	t1,s2,a0
    2394:	00100493          	li	s1,1
    2398:	00831793          	slli	a5,t1,0x8
    239c:	1007d263          	bgez	a5,24a0 <__subdf3+0x3fc>
    23a0:	00800937          	lui	s2,0x800
    23a4:	fff90913          	addi	s2,s2,-1 # 7fffff <_etext+0x7fd0c3>
    23a8:	01237933          	and	s2,t1,s2
    23ac:	1a090463          	beqz	s2,2554 <__subdf3+0x4b0>
    23b0:	00090513          	mv	a0,s2
    23b4:	6b4000ef          	jal	ra,2a68 <__clzsi2>
    23b8:	ff850813          	addi	a6,a0,-8
    23bc:	01f00793          	li	a5,31
    23c0:	1707c663          	blt	a5,a6,252c <__subdf3+0x488>
    23c4:	02000313          	li	t1,32
    23c8:	41030333          	sub	t1,t1,a6
    23cc:	0069d333          	srl	t1,s3,t1
    23d0:	01091933          	sll	s2,s2,a6
    23d4:	01236933          	or	s2,t1,s2
    23d8:	010999b3          	sll	s3,s3,a6
    23dc:	16984063          	blt	a6,s1,253c <__subdf3+0x498>
    23e0:	40980833          	sub	a6,a6,s1
    23e4:	00180713          	addi	a4,a6,1
    23e8:	01f00793          	li	a5,31
    23ec:	1ae7cc63          	blt	a5,a4,25a4 <__subdf3+0x500>
    23f0:	02000793          	li	a5,32
    23f4:	40e787b3          	sub	a5,a5,a4
    23f8:	00f996b3          	sll	a3,s3,a5
    23fc:	00e9d633          	srl	a2,s3,a4
    2400:	00f917b3          	sll	a5,s2,a5
    2404:	00c7e7b3          	or	a5,a5,a2
    2408:	00d036b3          	snez	a3,a3
    240c:	00d7e9b3          	or	s3,a5,a3
    2410:	00e95333          	srl	t1,s2,a4
    2414:	0079f793          	andi	a5,s3,7
    2418:	00000493          	li	s1,0
    241c:	f01ff06f          	j	231c <__subdf3+0x278>
    2420:	20048663          	beqz	s1,262c <__subdf3+0x588>
    2424:	7ff00713          	li	a4,2047
    2428:	30e88863          	beq	a7,a4,2738 <__subdf3+0x694>
    242c:	00800737          	lui	a4,0x800
    2430:	41000833          	neg	a6,a6
    2434:	00e7e7b3          	or	a5,a5,a4
    2438:	03800713          	li	a4,56
    243c:	3b074063          	blt	a4,a6,27dc <__subdf3+0x738>
    2440:	01f00713          	li	a4,31
    2444:	43074e63          	blt	a4,a6,2880 <__subdf3+0x7dc>
    2448:	02000713          	li	a4,32
    244c:	41070733          	sub	a4,a4,a6
    2450:	00e799b3          	sll	s3,a5,a4
    2454:	01055333          	srl	t1,a0,a6
    2458:	00e51733          	sll	a4,a0,a4
    245c:	0069e9b3          	or	s3,s3,t1
    2460:	00e03733          	snez	a4,a4
    2464:	0107d833          	srl	a6,a5,a6
    2468:	00e9e9b3          	or	s3,s3,a4
    246c:	410585b3          	sub	a1,a1,a6
    2470:	413609b3          	sub	s3,a2,s3
    2474:	01363633          	sltu	a2,a2,s3
    2478:	40c58333          	sub	t1,a1,a2
    247c:	00088493          	mv	s1,a7
    2480:	00068413          	mv	s0,a3
    2484:	f15ff06f          	j	2398 <__subdf3+0x2f4>
    2488:	00a7e733          	or	a4,a5,a0
    248c:	04070263          	beqz	a4,24d0 <__subdf3+0x42c>
    2490:	7ff00813          	li	a6,2047
    2494:	c9dff06f          	j	2130 <__subdf3+0x8c>
    2498:	0069e7b3          	or	a5,s3,t1
    249c:	d8078ce3          	beqz	a5,2234 <__subdf3+0x190>
    24a0:	0079f793          	andi	a5,s3,7
    24a4:	e6079ee3          	bnez	a5,2320 <__subdf3+0x27c>
    24a8:	01d31793          	slli	a5,t1,0x1d
    24ac:	0039d693          	srli	a3,s3,0x3
    24b0:	00f6e9b3          	or	s3,a3,a5
    24b4:	00048813          	mv	a6,s1
    24b8:	00335793          	srli	a5,t1,0x3
    24bc:	c85ff06f          	j	2140 <__subdf3+0x9c>
    24c0:	7ff00693          	li	a3,2047
    24c4:	18d81663          	bne	a6,a3,2650 <__subdf3+0x5ac>
    24c8:	00a7e733          	or	a4,a5,a0
    24cc:	c60712e3          	bnez	a4,2130 <__subdf3+0x8c>
    24d0:	00147593          	andi	a1,s0,1
    24d4:	7ff00813          	li	a6,2047
    24d8:	00000793          	li	a5,0
    24dc:	00000993          	li	s3,0
    24e0:	c7dff06f          	j	215c <__subdf3+0xb8>
    24e4:	18081e63          	bnez	a6,2680 <__subdf3+0x5dc>
    24e8:	00148893          	addi	a7,s1,1
    24ec:	7ff8f813          	andi	a6,a7,2047
    24f0:	00100713          	li	a4,1
    24f4:	1d075663          	ble	a6,a4,26c0 <__subdf3+0x61c>
    24f8:	7ff00713          	li	a4,2047
    24fc:	fce88ae3          	beq	a7,a4,24d0 <__subdf3+0x42c>
    2500:	00c50633          	add	a2,a0,a2
    2504:	00b78933          	add	s2,a5,a1
    2508:	00a63533          	sltu	a0,a2,a0
    250c:	00a90533          	add	a0,s2,a0
    2510:	01f51693          	slli	a3,a0,0x1f
    2514:	00165613          	srli	a2,a2,0x1
    2518:	00c6e9b3          	or	s3,a3,a2
    251c:	00155313          	srli	t1,a0,0x1
    2520:	0079f793          	andi	a5,s3,7
    2524:	00088493          	mv	s1,a7
    2528:	df5ff06f          	j	231c <__subdf3+0x278>
    252c:	fd850913          	addi	s2,a0,-40
    2530:	01299933          	sll	s2,s3,s2
    2534:	00000993          	li	s3,0
    2538:	ea9854e3          	ble	s1,a6,23e0 <__subdf3+0x33c>
    253c:	ff800737          	lui	a4,0xff800
    2540:	fff70713          	addi	a4,a4,-1 # ff7fffff <_etext+0xff7fd0c3>
    2544:	410484b3          	sub	s1,s1,a6
    2548:	00e97333          	and	t1,s2,a4
    254c:	0079f793          	andi	a5,s3,7
    2550:	dcdff06f          	j	231c <__subdf3+0x278>
    2554:	00098513          	mv	a0,s3
    2558:	510000ef          	jal	ra,2a68 <__clzsi2>
    255c:	02050513          	addi	a0,a0,32
    2560:	e59ff06f          	j	23b8 <__subdf3+0x314>
    2564:	00c5e633          	or	a2,a1,a2
    2568:	00c036b3          	snez	a3,a2
    256c:	40d509b3          	sub	s3,a0,a3
    2570:	01353533          	sltu	a0,a0,s3
    2574:	40a78333          	sub	t1,a5,a0
    2578:	e21ff06f          	j	2398 <__subdf3+0x2f4>
    257c:	00a7e733          	or	a4,a5,a0
    2580:	00c5e9b3          	or	s3,a1,a2
    2584:	0c049a63          	bnez	s1,2658 <__subdf3+0x5b4>
    2588:	2a071a63          	bnez	a4,283c <__subdf3+0x798>
    258c:	32098c63          	beqz	s3,28c4 <__subdf3+0x820>
    2590:	00058793          	mv	a5,a1
    2594:	00060513          	mv	a0,a2
    2598:	00048813          	mv	a6,s1
    259c:	00068413          	mv	s0,a3
    25a0:	b91ff06f          	j	2130 <__subdf3+0x8c>
    25a4:	fe180813          	addi	a6,a6,-31
    25a8:	02000793          	li	a5,32
    25ac:	01095833          	srl	a6,s2,a6
    25b0:	00f70a63          	beq	a4,a5,25c4 <__subdf3+0x520>
    25b4:	04000313          	li	t1,64
    25b8:	40e30333          	sub	t1,t1,a4
    25bc:	00691933          	sll	s2,s2,t1
    25c0:	0129e9b3          	or	s3,s3,s2
    25c4:	013036b3          	snez	a3,s3
    25c8:	0106e9b3          	or	s3,a3,a6
    25cc:	0079f793          	andi	a5,s3,7
    25d0:	00000313          	li	t1,0
    25d4:	00000493          	li	s1,0
    25d8:	ecdff06f          	j	24a4 <__subdf3+0x400>
    25dc:	40a609b3          	sub	s3,a2,a0
    25e0:	40f58933          	sub	s2,a1,a5
    25e4:	01363633          	sltu	a2,a2,s3
    25e8:	40c90933          	sub	s2,s2,a2
    25ec:	00068413          	mv	s0,a3
    25f0:	dbdff06f          	j	23ac <__subdf3+0x308>
    25f4:	00c5e633          	or	a2,a1,a2
    25f8:	00c036b3          	snez	a3,a2
    25fc:	cd9ff06f          	j	22d4 <__subdf3+0x230>
    2600:	02000713          	li	a4,32
    2604:	41070733          	sub	a4,a4,a6
    2608:	010656b3          	srl	a3,a2,a6
    260c:	00e599b3          	sll	s3,a1,a4
    2610:	00e61633          	sll	a2,a2,a4
    2614:	00d9e9b3          	or	s3,s3,a3
    2618:	0105d933          	srl	s2,a1,a6
    261c:	00c036b3          	snez	a3,a2
    2620:	00d9e6b3          	or	a3,s3,a3
    2624:	412787b3          	sub	a5,a5,s2
    2628:	f45ff06f          	j	256c <__subdf3+0x4c8>
    262c:	00a7e733          	or	a4,a5,a0
    2630:	0e071a63          	bnez	a4,2724 <__subdf3+0x680>
    2634:	7ff00793          	li	a5,2047
    2638:	10f88063          	beq	a7,a5,2738 <__subdf3+0x694>
    263c:	00088813          	mv	a6,a7
    2640:	00068413          	mv	s0,a3
    2644:	00058793          	mv	a5,a1
    2648:	00060513          	mv	a0,a2
    264c:	ae5ff06f          	j	2130 <__subdf3+0x8c>
    2650:	00070813          	mv	a6,a4
    2654:	c01ff06f          	j	2254 <__subdf3+0x1b0>
    2658:	1a071663          	bnez	a4,2804 <__subdf3+0x760>
    265c:	1a099063          	bnez	s3,27fc <__subdf3+0x758>
    2660:	00000593          	li	a1,0
    2664:	7ff00813          	li	a6,2047
    2668:	000807b7          	lui	a5,0x80
    266c:	af1ff06f          	j	215c <__subdf3+0xb8>
    2670:	7ff00693          	li	a3,2047
    2674:	e4d80ae3          	beq	a6,a3,24c8 <__subdf3+0x424>
    2678:	00070813          	mv	a6,a4
    267c:	c21ff06f          	j	229c <__subdf3+0x1f8>
    2680:	0e049e63          	bnez	s1,277c <__subdf3+0x6d8>
    2684:	00a7e733          	or	a4,a5,a0
    2688:	18071463          	bnez	a4,2810 <__subdf3+0x76c>
    268c:	7ff00793          	li	a5,2047
    2690:	18f88a63          	beq	a7,a5,2824 <__subdf3+0x780>
    2694:	00088813          	mv	a6,a7
    2698:	00058793          	mv	a5,a1
    269c:	00060513          	mv	a0,a2
    26a0:	a91ff06f          	j	2130 <__subdf3+0x8c>
    26a4:	0137e7b3          	or	a5,a5,s3
    26a8:	e20784e3          	beqz	a5,24d0 <__subdf3+0x42c>
    26ac:	00000593          	li	a1,0
    26b0:	7ff00813          	li	a6,2047
    26b4:	000807b7          	lui	a5,0x80
    26b8:	00000993          	li	s3,0
    26bc:	aa1ff06f          	j	215c <__subdf3+0xb8>
    26c0:	00a7e733          	or	a4,a5,a0
    26c4:	12049263          	bnez	s1,27e8 <__subdf3+0x744>
    26c8:	04070463          	beqz	a4,2710 <__subdf3+0x66c>
    26cc:	00c5e733          	or	a4,a1,a2
    26d0:	02070c63          	beqz	a4,2708 <__subdf3+0x664>
    26d4:	00c509b3          	add	s3,a0,a2
    26d8:	00b78933          	add	s2,a5,a1
    26dc:	00a9b533          	sltu	a0,s3,a0
    26e0:	00a90333          	add	t1,s2,a0
    26e4:	00831713          	slli	a4,t1,0x8
    26e8:	0079f793          	andi	a5,s3,7
    26ec:	da075ce3          	bgez	a4,24a4 <__subdf3+0x400>
    26f0:	ff800737          	lui	a4,0xff800
    26f4:	fff70713          	addi	a4,a4,-1 # ff7fffff <_etext+0xff7fd0c3>
    26f8:	00e37333          	and	t1,t1,a4
    26fc:	00100493          	li	s1,1
    2700:	c1dff06f          	j	231c <__subdf3+0x278>
    2704:	00040693          	mv	a3,s0
    2708:	00078593          	mv	a1,a5
    270c:	00050613          	mv	a2,a0
    2710:	00048813          	mv	a6,s1
    2714:	00068413          	mv	s0,a3
    2718:	00058793          	mv	a5,a1
    271c:	00060513          	mv	a0,a2
    2720:	a11ff06f          	j	2130 <__subdf3+0x8c>
    2724:	fff00713          	li	a4,-1
    2728:	18e80063          	beq	a6,a4,28a8 <__subdf3+0x804>
    272c:	7ff00713          	li	a4,2047
    2730:	fff84813          	not	a6,a6
    2734:	d0e892e3          	bne	a7,a4,2438 <__subdf3+0x394>
    2738:	00c5e7b3          	or	a5,a1,a2
    273c:	00068413          	mv	s0,a3
    2740:	d80788e3          	beqz	a5,24d0 <__subdf3+0x42c>
    2744:	00058793          	mv	a5,a1
    2748:	00060513          	mv	a0,a2
    274c:	7ff00813          	li	a6,2047
    2750:	9e1ff06f          	j	2130 <__subdf3+0x8c>
    2754:	02000713          	li	a4,32
    2758:	0105d6b3          	srl	a3,a1,a6
    275c:	00e80a63          	beq	a6,a4,2770 <__subdf3+0x6cc>
    2760:	04000913          	li	s2,64
    2764:	41090833          	sub	a6,s2,a6
    2768:	01059933          	sll	s2,a1,a6
    276c:	01266633          	or	a2,a2,s2
    2770:	00c03633          	snez	a2,a2
    2774:	00d666b3          	or	a3,a2,a3
    2778:	b5dff06f          	j	22d4 <__subdf3+0x230>
    277c:	7ff00713          	li	a4,2047
    2780:	0ae88263          	beq	a7,a4,2824 <__subdf3+0x780>
    2784:	00800737          	lui	a4,0x800
    2788:	41000833          	neg	a6,a6
    278c:	00e7e7b3          	or	a5,a5,a4
    2790:	03800713          	li	a4,56
    2794:	0f074063          	blt	a4,a6,2874 <__subdf3+0x7d0>
    2798:	01f00713          	li	a4,31
    279c:	13074c63          	blt	a4,a6,28d4 <__subdf3+0x830>
    27a0:	02000713          	li	a4,32
    27a4:	41070733          	sub	a4,a4,a6
    27a8:	01055333          	srl	t1,a0,a6
    27ac:	00e796b3          	sll	a3,a5,a4
    27b0:	00e51533          	sll	a0,a0,a4
    27b4:	0066e6b3          	or	a3,a3,t1
    27b8:	00a039b3          	snez	s3,a0
    27bc:	0107d833          	srl	a6,a5,a6
    27c0:	0136e6b3          	or	a3,a3,s3
    27c4:	010585b3          	add	a1,a1,a6
    27c8:	00c689b3          	add	s3,a3,a2
    27cc:	00c9b633          	sltu	a2,s3,a2
    27d0:	00b60333          	add	t1,a2,a1
    27d4:	00088493          	mv	s1,a7
    27d8:	b09ff06f          	j	22e0 <__subdf3+0x23c>
    27dc:	00a7e533          	or	a0,a5,a0
    27e0:	00a039b3          	snez	s3,a0
    27e4:	c8dff06f          	j	2470 <__subdf3+0x3cc>
    27e8:	00070a63          	beqz	a4,27fc <__subdf3+0x758>
    27ec:	00c5e633          	or	a2,a1,a2
    27f0:	ea061ee3          	bnez	a2,26ac <__subdf3+0x608>
    27f4:	7ff00813          	li	a6,2047
    27f8:	939ff06f          	j	2130 <__subdf3+0x8c>
    27fc:	7ff00493          	li	s1,2047
    2800:	f11ff06f          	j	2710 <__subdf3+0x66c>
    2804:	ea0994e3          	bnez	s3,26ac <__subdf3+0x608>
    2808:	7ff00813          	li	a6,2047
    280c:	925ff06f          	j	2130 <__subdf3+0x8c>
    2810:	fff00713          	li	a4,-1
    2814:	0ee80463          	beq	a6,a4,28fc <__subdf3+0x858>
    2818:	7ff00713          	li	a4,2047
    281c:	fff84813          	not	a6,a6
    2820:	f6e898e3          	bne	a7,a4,2790 <__subdf3+0x6ec>
    2824:	00c5e7b3          	or	a5,a1,a2
    2828:	ca0784e3          	beqz	a5,24d0 <__subdf3+0x42c>
    282c:	00058793          	mv	a5,a1
    2830:	00060513          	mv	a0,a2
    2834:	7ff00813          	li	a6,2047
    2838:	8f9ff06f          	j	2130 <__subdf3+0x8c>
    283c:	ec0984e3          	beqz	s3,2704 <__subdf3+0x660>
    2840:	40c509b3          	sub	s3,a0,a2
    2844:	40b78333          	sub	t1,a5,a1
    2848:	01353933          	sltu	s2,a0,s3
    284c:	41230333          	sub	t1,t1,s2
    2850:	00831713          	slli	a4,t1,0x8
    2854:	c40752e3          	bgez	a4,2498 <__subdf3+0x3f4>
    2858:	40a609b3          	sub	s3,a2,a0
    285c:	40f58933          	sub	s2,a1,a5
    2860:	01363633          	sltu	a2,a2,s3
    2864:	40c90333          	sub	t1,s2,a2
    2868:	0079f793          	andi	a5,s3,7
    286c:	00068413          	mv	s0,a3
    2870:	aadff06f          	j	231c <__subdf3+0x278>
    2874:	00a7e533          	or	a0,a5,a0
    2878:	00a036b3          	snez	a3,a0
    287c:	f4dff06f          	j	27c8 <__subdf3+0x724>
    2880:	02000713          	li	a4,32
    2884:	0107d9b3          	srl	s3,a5,a6
    2888:	00e80a63          	beq	a6,a4,289c <__subdf3+0x7f8>
    288c:	04000713          	li	a4,64
    2890:	41070833          	sub	a6,a4,a6
    2894:	010797b3          	sll	a5,a5,a6
    2898:	00f56533          	or	a0,a0,a5
    289c:	00a03533          	snez	a0,a0
    28a0:	013569b3          	or	s3,a0,s3
    28a4:	bcdff06f          	j	2470 <__subdf3+0x3cc>
    28a8:	40a609b3          	sub	s3,a2,a0
    28ac:	40f58933          	sub	s2,a1,a5
    28b0:	01363633          	sltu	a2,a2,s3
    28b4:	40c90333          	sub	t1,s2,a2
    28b8:	00088493          	mv	s1,a7
    28bc:	00068413          	mv	s0,a3
    28c0:	ad9ff06f          	j	2398 <__subdf3+0x2f4>
    28c4:	00000413          	li	s0,0
    28c8:	00040813          	mv	a6,s0
    28cc:	00000793          	li	a5,0
    28d0:	879ff06f          	j	2148 <__subdf3+0xa4>
    28d4:	02000713          	li	a4,32
    28d8:	0107d6b3          	srl	a3,a5,a6
    28dc:	00e80a63          	beq	a6,a4,28f0 <__subdf3+0x84c>
    28e0:	04000713          	li	a4,64
    28e4:	41070833          	sub	a6,a4,a6
    28e8:	010797b3          	sll	a5,a5,a6
    28ec:	00f56533          	or	a0,a0,a5
    28f0:	00a03533          	snez	a0,a0
    28f4:	00d566b3          	or	a3,a0,a3
    28f8:	ed1ff06f          	j	27c8 <__subdf3+0x724>
    28fc:	00c509b3          	add	s3,a0,a2
    2900:	00b78933          	add	s2,a5,a1
    2904:	00c9b633          	sltu	a2,s3,a2
    2908:	00c90333          	add	t1,s2,a2
    290c:	00088493          	mv	s1,a7
    2910:	9d1ff06f          	j	22e0 <__subdf3+0x23c>
    2914:	00048813          	mv	a6,s1
    2918:	00030793          	mv	a5,t1
    291c:	00098513          	mv	a0,s3
    2920:	811ff06f          	j	2130 <__subdf3+0x8c>

00002924 <__fixdfsi>:
__fixdfsi():
    2924:	0145d793          	srli	a5,a1,0x14
    2928:	001006b7          	lui	a3,0x100
    292c:	fff68713          	addi	a4,a3,-1 # fffff <_etext+0xfd0c3>
    2930:	7ff7f793          	andi	a5,a5,2047
    2934:	3fe00613          	li	a2,1022
    2938:	00b77733          	and	a4,a4,a1
    293c:	01f5d593          	srli	a1,a1,0x1f
    2940:	04f65663          	ble	a5,a2,298c <__fixdfsi+0x68>
    2944:	41d00613          	li	a2,1053
    2948:	02f64a63          	blt	a2,a5,297c <__fixdfsi+0x58>
    294c:	43300613          	li	a2,1075
    2950:	40f60633          	sub	a2,a2,a5
    2954:	01f00813          	li	a6,31
    2958:	00d76733          	or	a4,a4,a3
    295c:	02c85c63          	ble	a2,a6,2994 <__fixdfsi+0x70>
    2960:	41300693          	li	a3,1043
    2964:	40f687b3          	sub	a5,a3,a5
    2968:	00f757b3          	srl	a5,a4,a5
    296c:	40f00533          	neg	a0,a5
    2970:	02059063          	bnez	a1,2990 <__fixdfsi+0x6c>
    2974:	00078513          	mv	a0,a5
    2978:	00008067          	ret
    297c:	80000537          	lui	a0,0x80000
    2980:	fff54513          	not	a0,a0
    2984:	00a58533          	add	a0,a1,a0
    2988:	00008067          	ret
    298c:	00000513          	li	a0,0
    2990:	00008067          	ret
    2994:	bed78793          	addi	a5,a5,-1043 # 7fbed <_etext+0x7ccb1>
    2998:	00f717b3          	sll	a5,a4,a5
    299c:	00c55533          	srl	a0,a0,a2
    29a0:	00a7e7b3          	or	a5,a5,a0
    29a4:	fc9ff06f          	j	296c <__fixdfsi+0x48>

000029a8 <__floatunsidf>:
__floatunsidf():
    29a8:	ff010113          	addi	sp,sp,-16
    29ac:	00112623          	sw	ra,12(sp)
    29b0:	00812423          	sw	s0,8(sp)
    29b4:	0a050263          	beqz	a0,2a58 <__floatunsidf+0xb0>
    29b8:	00050413          	mv	s0,a0
    29bc:	0ac000ef          	jal	ra,2a68 <__clzsi2>
    29c0:	41e00693          	li	a3,1054
    29c4:	40a686b3          	sub	a3,a3,a0
    29c8:	00a00793          	li	a5,10
    29cc:	7ff6f693          	andi	a3,a3,2047
    29d0:	06a7d263          	ble	a0,a5,2a34 <__floatunsidf+0x8c>
    29d4:	ff550793          	addi	a5,a0,-11 # 7ffffff5 <_etext+0x7fffd0b9>
    29d8:	00100737          	lui	a4,0x100
    29dc:	00f417b3          	sll	a5,s0,a5
    29e0:	fff70713          	addi	a4,a4,-1 # fffff <_etext+0xfd0c3>
    29e4:	00e7f7b3          	and	a5,a5,a4
    29e8:	00000513          	li	a0,0
    29ec:	00100737          	lui	a4,0x100
    29f0:	fff70713          	addi	a4,a4,-1 # fffff <_etext+0xfd0c3>
    29f4:	00e7f7b3          	and	a5,a5,a4
    29f8:	80100737          	lui	a4,0x80100
    29fc:	fff70713          	addi	a4,a4,-1 # 800fffff <_etext+0x800fd0c3>
    2a00:	01469693          	slli	a3,a3,0x14
    2a04:	00e7f733          	and	a4,a5,a4
    2a08:	00d76733          	or	a4,a4,a3
    2a0c:	00c12083          	lw	ra,12(sp)
    2a10:	00812403          	lw	s0,8(sp)
    2a14:	800006b7          	lui	a3,0x80000
    2a18:	fff6c693          	not	a3,a3
    2a1c:	00050793          	mv	a5,a0
    2a20:	00d77733          	and	a4,a4,a3
    2a24:	00078513          	mv	a0,a5
    2a28:	00070593          	mv	a1,a4
    2a2c:	01010113          	addi	sp,sp,16
    2a30:	00008067          	ret
    2a34:	00b00793          	li	a5,11
    2a38:	40a787b3          	sub	a5,a5,a0
    2a3c:	00100737          	lui	a4,0x100
    2a40:	01550513          	addi	a0,a0,21
    2a44:	00f457b3          	srl	a5,s0,a5
    2a48:	fff70713          	addi	a4,a4,-1 # fffff <_etext+0xfd0c3>
    2a4c:	00a41533          	sll	a0,s0,a0
    2a50:	00e7f7b3          	and	a5,a5,a4
    2a54:	f99ff06f          	j	29ec <__floatunsidf+0x44>
    2a58:	00000693          	li	a3,0
    2a5c:	00000793          	li	a5,0
    2a60:	00000513          	li	a0,0
    2a64:	f89ff06f          	j	29ec <__floatunsidf+0x44>

00002a68 <__clzsi2>:
__clzsi2():
    2a68:	000107b7          	lui	a5,0x10
    2a6c:	02f57463          	bleu	a5,a0,2a94 <__clzsi2+0x2c>
    2a70:	0ff00793          	li	a5,255
    2a74:	02000713          	li	a4,32
    2a78:	04a7e263          	bltu	a5,a0,2abc <__clzsi2+0x54>
    2a7c:	00000797          	auipc	a5,0x0
    2a80:	3c078793          	addi	a5,a5,960 # 2e3c <__clz_tab>
    2a84:	00a78533          	add	a0,a5,a0
    2a88:	00054503          	lbu	a0,0(a0)
    2a8c:	40a70533          	sub	a0,a4,a0
    2a90:	00008067          	ret
    2a94:	010007b7          	lui	a5,0x1000
    2a98:	04f56263          	bltu	a0,a5,2adc <__clzsi2+0x74>
    2a9c:	00000797          	auipc	a5,0x0
    2aa0:	3a078793          	addi	a5,a5,928 # 2e3c <__clz_tab>
    2aa4:	01855513          	srli	a0,a0,0x18
    2aa8:	00a78533          	add	a0,a5,a0
    2aac:	00054503          	lbu	a0,0(a0)
    2ab0:	00800713          	li	a4,8
    2ab4:	40a70533          	sub	a0,a4,a0
    2ab8:	00008067          	ret
    2abc:	00000797          	auipc	a5,0x0
    2ac0:	38078793          	addi	a5,a5,896 # 2e3c <__clz_tab>
    2ac4:	00855513          	srli	a0,a0,0x8
    2ac8:	00a78533          	add	a0,a5,a0
    2acc:	00054503          	lbu	a0,0(a0)
    2ad0:	01800713          	li	a4,24
    2ad4:	40a70533          	sub	a0,a4,a0
    2ad8:	00008067          	ret
    2adc:	00000797          	auipc	a5,0x0
    2ae0:	36078793          	addi	a5,a5,864 # 2e3c <__clz_tab>
    2ae4:	01055513          	srli	a0,a0,0x10
    2ae8:	00a78533          	add	a0,a5,a0
    2aec:	00054503          	lbu	a0,0(a0)
    2af0:	01000713          	li	a4,16
    2af4:	40a70533          	sub	a0,a4,a0
    2af8:	00008067          	ret

00002afc <srand>:
srand():
    2afc:	43000793          	li	a5,1072
    2b00:	0007a783          	lw	a5,0(a5)
    2b04:	0aa7a423          	sw	a0,168(a5)
    2b08:	0a07a623          	sw	zero,172(a5)
    2b0c:	00008067          	ret

00002b10 <rand>:
rand():
    2b10:	43000793          	li	a5,1072
    2b14:	0007a583          	lw	a1,0(a5)
    2b18:	4c958637          	lui	a2,0x4c958
    2b1c:	f2d60613          	addi	a2,a2,-211 # 4c957f2d <_etext+0x4c954ff1>
    2b20:	0a85a703          	lw	a4,168(a1)
    2b24:	0ac5a503          	lw	a0,172(a1)
    2b28:	02c707b3          	mul	a5,a4,a2
    2b2c:	00178693          	addi	a3,a5,1
    2b30:	00f6b7b3          	sltu	a5,a3,a5
    2b34:	0ad5a423          	sw	a3,168(a1)
    2b38:	5851f6b7          	lui	a3,0x5851f
    2b3c:	42d68693          	addi	a3,a3,1069 # 5851f42d <_etext+0x5851c4f1>
    2b40:	02d706b3          	mul	a3,a4,a3
    2b44:	02c50533          	mul	a0,a0,a2
    2b48:	02c73733          	mulhu	a4,a4,a2
    2b4c:	00d50533          	add	a0,a0,a3
    2b50:	00e50533          	add	a0,a0,a4
    2b54:	00a787b3          	add	a5,a5,a0
    2b58:	80000537          	lui	a0,0x80000
    2b5c:	fff54513          	not	a0,a0
    2b60:	0af5a623          	sw	a5,172(a1)
    2b64:	00a7f533          	and	a0,a5,a0
    2b68:	00008067          	ret
    2b6c:	6f697067          	0x6f697067
    2b70:	7320                	flw	fs0,96(a4)
    2b72:	6375                	lui	t1,0x1d
    2b74:	73736563          	bltu	t1,s7,329e <_etext+0x362>
    2b78:	000a                	c.slli	zero,0x2
    2b7a:	0000                	unimp
    2b7c:	6f697067          	0x6f697067
    2b80:	6620                	flw	fs0,72(a2)
    2b82:	6961                	lui	s2,0x18
    2b84:	656c                	flw	fa1,76(a0)
    2b86:	0a64                	addi	s1,sp,284
    2b88:	0000                	unimp
    2b8a:	0000                	unimp
    2b8c:	6574                	flw	fa3,76(a0)
    2b8e:	000a7473          	csrrci	s0,ustatus,20
    2b92:	0000                	unimp
    2b94:	0000                	unimp
    2b96:	0000                	unimp
    2b98:	7cee                	flw	fs9,248(sp)
    2b9a:	ba5e353f aaab4040 	0xaaab4040ba5e353f
    2ba2:	aaaa                	fsd	fa0,336(sp)
    2ba4:	aaaa                	fsd	fa0,336(sp)
    2ba6:	4040                	lw	s0,4(s0)
    2ba8:	6548                	flw	fa0,12(a0)
    2baa:	6c6c                	flw	fa1,92(s0)
    2bac:	6952206f          	j	25a40 <_etext+0x22b04>
    2bb0:	562d6373          	csrrsi	t1,0x562,26
    2bb4:	5020                	lw	s0,96(s0)
    2bb6:	6e61                	lui	t3,0x18
    2bb8:	32206f67          	0x32206f67
    2bbc:	3130                	fld	fa2,96(a0)
    2bbe:	0a39                	addi	s4,s4,14
    2bc0:	0000                	unimp
    2bc2:	0000                	unimp
    2bc4:	3032                	fld	ft0,296(sp)
    2bc6:	3931                	jal	27e2 <__subdf3+0x73e>
    2bc8:	0000                	unimp
    2bca:	0000                	unimp
    2bcc:	6574                	flw	fa3,76(a0)
    2bce:	64207473          	csrrci	s0,0x642,0
    2bd2:	7461                	lui	s0,0xffff8
    2bd4:	2061                	jal	2c5c <rand+0x14c>
    2bd6:	203d                	jal	2c04 <rand+0xf4>
    2bd8:	6425                	lui	s0,0x9
    2bda:	252c                	fld	fa1,72(a0)
    2bdc:	2c66                	fld	fs8,88(sp)
    2bde:	7325                	lui	t1,0xfffe9
    2be0:	302c                	fld	fa1,96(s0)
    2be2:	2078                	fld	fa4,192(s0)
    2be4:	203d                	jal	2c12 <rand+0x102>
    2be6:	7825                	lui	a6,0xfffe9
    2be8:	000a                	c.slli	zero,0x2
    2bea:	0000                	unimp
    2bec:	706d6973          	csrrsi	s2,0x706,26
    2bf0:	656c                	flw	fa1,76(a0)
    2bf2:	6320                	flw	fs0,64(a4)
    2bf4:	75706d6f          	jal	s10,9b4a <_etext+0x6c0e>
    2bf8:	6574                	flw	fa3,76(a0)
    2bfa:	3a20                	fld	fs0,112(a2)
    2bfc:	3520                	fld	fs0,104(a0)
    2bfe:	2a30                	fld	fa2,80(a2)
    2c00:	3031                	jal	240c <__subdf3+0x368>
    2c02:	3d20                	fld	fs0,120(a0)
    2c04:	2520                	fld	fs0,72(a0)
    2c06:	2c64                	fld	fs1,216(s0)
    2c08:	3031                	jal	2414 <__subdf3+0x370>
    2c0a:	2f30                	fld	fa2,88(a4)
    2c0c:	203d2033          	0x203d2033
    2c10:	6625                	lui	a2,0x9
    2c12:	312c                	fld	fa1,96(a0)
    2c14:	3030                	fld	fa2,96(s0)
    2c16:	3325                	jal	293e <__fixdfsi+0x1a>
    2c18:	3d20                	fld	fs0,120(a0)
    2c1a:	2520                	fld	fs0,72(a0)
    2c1c:	0a64                	addi	s1,sp,284
    2c1e:	0000                	unimp
    2c20:	6574                	flw	fa3,76(a0)
    2c22:	6e2f7473          	csrrci	s0,0x6e2,30
    2c26:	0000                	unimp
    2c28:	70746567          	0x70746567
    2c2c:	3d203273          	csrrc	tp,0x3d2,zero
    2c30:	2520                	fld	fs0,72(a0)
    2c32:	0a64                	addi	s1,sp,284
    2c34:	0000                	unimp
    2c36:	0000                	unimp
    2c38:	6461                	lui	s0,0x18
    2c3a:	7264                	flw	fs1,100(a2)
    2c3c:	253a                	fld	fa0,392(sp)
    2c3e:	0078                	addi	a4,sp,12
    2c40:	6f66                	flw	ft10,88(sp)
    2c42:	3a78646f          	jal	s0,897e8 <_etext+0x868ac>
    2c46:	6425                	lui	s0,0x9
    2c48:	662c                	flw	fa1,72(a2)
    2c4a:	79646f6f          	jal	t5,493e0 <_etext+0x464a4>
    2c4e:	253a                	fld	fa0,392(sp)
    2c50:	0a64                	addi	s1,sp,284
    2c52:	0000                	unimp
    2c54:	656d6167          	0x656d6167
    2c58:	6f20                	flw	fs0,88(a4)
    2c5a:	6576                	flw	fa0,92(sp)
    2c5c:	0072                	c.slli	zero,0x1c
    2c5e:	0000                	unimp
    2c60:	6f6e                	flw	ft10,216(sp)
    2c62:	6564                	flw	fs1,76(a0)
    2c64:	635f 746e 253a      	0x253a746e635f
    2c6a:	0064                	addi	s1,sp,12
    2c6c:	3a78                	fld	fa4,240(a2)
    2c6e:	6425                	lui	s0,0x9
    2c70:	792c                	flw	fa1,112(a0)
    2c72:	253a                	fld	fa0,392(sp)
    2c74:	0a64                	addi	s1,sp,284
    2c76:	0000                	unimp
    2c78:	3078                	fld	fa4,224(s0)
    2c7a:	253a                	fld	fa0,392(sp)
    2c7c:	2c64                	fld	fs1,216(s0)
    2c7e:	3079                	jal	250c <__subdf3+0x468>
    2c80:	253a                	fld	fa0,392(sp)
    2c82:	0064                	addi	s1,sp,12
    2c84:	6574                	flw	fa3,76(a0)
    2c86:	65747473          	csrrci	s0,0x657,8
    2c8a:	00007473          	csrrci	s0,ustatus,0
    2c8e:	0000                	unimp
    2c90:	18d4                	addi	a3,sp,116
    2c92:	0000                	unimp
    2c94:	18d4                	addi	a3,sp,116
    2c96:	0000                	unimp
    2c98:	18d4                	addi	a3,sp,116
    2c9a:	0000                	unimp
    2c9c:	18d4                	addi	a3,sp,116
    2c9e:	0000                	unimp
    2ca0:	18d4                	addi	a3,sp,116
    2ca2:	0000                	unimp
    2ca4:	18d4                	addi	a3,sp,116
    2ca6:	0000                	unimp
    2ca8:	18d4                	addi	a3,sp,116
    2caa:	0000                	unimp
    2cac:	18d4                	addi	a3,sp,116
    2cae:	0000                	unimp
    2cb0:	18d4                	addi	a3,sp,116
    2cb2:	0000                	unimp
    2cb4:	18d4                	addi	a3,sp,116
    2cb6:	0000                	unimp
    2cb8:	18d4                	addi	a3,sp,116
    2cba:	0000                	unimp
    2cbc:	18d4                	addi	a3,sp,116
    2cbe:	0000                	unimp
    2cc0:	18d4                	addi	a3,sp,116
    2cc2:	0000                	unimp
    2cc4:	18d4                	addi	a3,sp,116
    2cc6:	0000                	unimp
    2cc8:	18d4                	addi	a3,sp,116
    2cca:	0000                	unimp
    2ccc:	18d4                	addi	a3,sp,116
    2cce:	0000                	unimp
    2cd0:	18d4                	addi	a3,sp,116
    2cd2:	0000                	unimp
    2cd4:	18d4                	addi	a3,sp,116
    2cd6:	0000                	unimp
    2cd8:	18d4                	addi	a3,sp,116
    2cda:	0000                	unimp
    2cdc:	18d4                	addi	a3,sp,116
    2cde:	0000                	unimp
    2ce0:	18d4                	addi	a3,sp,116
    2ce2:	0000                	unimp
    2ce4:	18d4                	addi	a3,sp,116
    2ce6:	0000                	unimp
    2ce8:	18d4                	addi	a3,sp,116
    2cea:	0000                	unimp
    2cec:	18d4                	addi	a3,sp,116
    2cee:	0000                	unimp
    2cf0:	18d4                	addi	a3,sp,116
    2cf2:	0000                	unimp
    2cf4:	18d4                	addi	a3,sp,116
    2cf6:	0000                	unimp
    2cf8:	18d4                	addi	a3,sp,116
    2cfa:	0000                	unimp
    2cfc:	18d4                	addi	a3,sp,116
    2cfe:	0000                	unimp
    2d00:	18d4                	addi	a3,sp,116
    2d02:	0000                	unimp
    2d04:	18d4                	addi	a3,sp,116
    2d06:	0000                	unimp
    2d08:	18d4                	addi	a3,sp,116
    2d0a:	0000                	unimp
    2d0c:	190c                	addi	a1,sp,176
    2d0e:	0000                	unimp
    2d10:	18d4                	addi	a3,sp,116
    2d12:	0000                	unimp
    2d14:	18d4                	addi	a3,sp,116
    2d16:	0000                	unimp
    2d18:	18d4                	addi	a3,sp,116
    2d1a:	0000                	unimp
    2d1c:	18d4                	addi	a3,sp,116
    2d1e:	0000                	unimp
    2d20:	18d4                	addi	a3,sp,116
    2d22:	0000                	unimp
    2d24:	18d4                	addi	a3,sp,116
    2d26:	0000                	unimp
    2d28:	18d4                	addi	a3,sp,116
    2d2a:	0000                	unimp
    2d2c:	18d4                	addi	a3,sp,116
    2d2e:	0000                	unimp
    2d30:	18d4                	addi	a3,sp,116
    2d32:	0000                	unimp
    2d34:	18d4                	addi	a3,sp,116
    2d36:	0000                	unimp
    2d38:	18d4                	addi	a3,sp,116
    2d3a:	0000                	unimp
    2d3c:	18d4                	addi	a3,sp,116
    2d3e:	0000                	unimp
    2d40:	18d4                	addi	a3,sp,116
    2d42:	0000                	unimp
    2d44:	18d4                	addi	a3,sp,116
    2d46:	0000                	unimp
    2d48:	191e                	slli	s2,s2,0x27
    2d4a:	0000                	unimp
    2d4c:	18d4                	addi	a3,sp,116
    2d4e:	0000                	unimp
    2d50:	18d4                	addi	a3,sp,116
    2d52:	0000                	unimp
    2d54:	18d4                	addi	a3,sp,116
    2d56:	0000                	unimp
    2d58:	18d4                	addi	a3,sp,116
    2d5a:	0000                	unimp
    2d5c:	18f6                	slli	a7,a7,0x3d
    2d5e:	0000                	unimp
    2d60:	18d4                	addi	a3,sp,116
    2d62:	0000                	unimp
    2d64:	18d4                	addi	a3,sp,116
    2d66:	0000                	unimp
    2d68:	18d4                	addi	a3,sp,116
    2d6a:	0000                	unimp
    2d6c:	18d4                	addi	a3,sp,116
    2d6e:	0000                	unimp
    2d70:	18d4                	addi	a3,sp,116
    2d72:	0000                	unimp
    2d74:	18d4                	addi	a3,sp,116
    2d76:	0000                	unimp
    2d78:	18d4                	addi	a3,sp,116
    2d7a:	0000                	unimp
    2d7c:	18d4                	addi	a3,sp,116
    2d7e:	0000                	unimp
    2d80:	18d4                	addi	a3,sp,116
    2d82:	0000                	unimp
    2d84:	18d4                	addi	a3,sp,116
    2d86:	0000                	unimp
    2d88:	18e0                	addi	s0,sp,124
    2d8a:	0000                	unimp
    2d8c:	190c                	addi	a1,sp,176
    2d8e:	0000                	unimp
    2d90:	18d4                	addi	a3,sp,116
    2d92:	0000                	unimp
    2d94:	1948                	addi	a0,sp,180
    2d96:	0000                	unimp
    2d98:	18d4                	addi	a3,sp,116
    2d9a:	0000                	unimp
    2d9c:	18d4                	addi	a3,sp,116
    2d9e:	0000                	unimp
    2da0:	190c                	addi	a1,sp,176
    2da2:	0000                	unimp
    2da4:	18d4                	addi	a3,sp,116
    2da6:	0000                	unimp
    2da8:	18d4                	addi	a3,sp,116
    2daa:	0000                	unimp
    2dac:	18d4                	addi	a3,sp,116
    2dae:	0000                	unimp
    2db0:	18d4                	addi	a3,sp,116
    2db2:	0000                	unimp
    2db4:	18d4                	addi	a3,sp,116
    2db6:	0000                	unimp
    2db8:	18d4                	addi	a3,sp,116
    2dba:	0000                	unimp
    2dbc:	18d4                	addi	a3,sp,116
    2dbe:	0000                	unimp
    2dc0:	18d4                	addi	a3,sp,116
    2dc2:	0000                	unimp
    2dc4:	18d4                	addi	a3,sp,116
    2dc6:	0000                	unimp
    2dc8:	191e                	slli	s2,s2,0x27
    2dca:	0000                	unimp
    2dcc:	18d4                	addi	a3,sp,116
    2dce:	0000                	unimp
    2dd0:	18d4                	addi	a3,sp,116
    2dd2:	0000                	unimp
    2dd4:	18d4                	addi	a3,sp,116
    2dd6:	0000                	unimp
    2dd8:	18d4                	addi	a3,sp,116
    2dda:	0000                	unimp
    2ddc:	18f6                	slli	a7,a7,0x3d
    2dde:	0000                	unimp
    2de0:	0000                	unimp
    2de2:	0000                	unimp
    2de4:	8480                	0x8480
    2de6:	412e                	lw	sp,200(sp)
    2de8:	3130                	fld	fa2,96(a0)
    2dea:	3332                	fld	ft6,296(sp)
    2dec:	3534                	fld	fa3,104(a0)
    2dee:	3736                	fld	fa4,360(sp)
    2df0:	3938                	fld	fa4,112(a0)
    2df2:	6261                	lui	tp,0x18
    2df4:	66656463          	bltu	a0,t1,345c <_etext+0x520>
    2df8:	0000                	unimp
    2dfa:	0000                	unimp
    2dfc:	eed8                	fsw	fa4,28(a3)
    2dfe:	ffff                	0xffff
    2e00:	ee04                	fsw	fs1,24(a2)
    2e02:	ffff                	0xffff
    2e04:	ee04                	fsw	fs1,24(a2)
    2e06:	ffff                	0xffff
    2e08:	ee00                	fsw	fs0,24(a2)
    2e0a:	ffff                	0xffff
    2e0c:	ee24                	fsw	fs1,88(a2)
    2e0e:	ffff                	0xffff
    2e10:	ee24                	fsw	fs1,88(a2)
    2e12:	ffff                	0xffff
    2e14:	ed94                	fsw	fa3,24(a1)
    2e16:	ffff                	0xffff
    2e18:	ee00                	fsw	fs0,24(a2)
    2e1a:	ffff                	0xffff
    2e1c:	ee24                	fsw	fs1,88(a2)
    2e1e:	ffff                	0xffff
    2e20:	ed94                	fsw	fa3,24(a1)
    2e22:	ffff                	0xffff
    2e24:	ee24                	fsw	fs1,88(a2)
    2e26:	ffff                	0xffff
    2e28:	ee00                	fsw	fs0,24(a2)
    2e2a:	ffff                	0xffff
    2e2c:	ee20                	fsw	fs0,88(a2)
    2e2e:	ffff                	0xffff
    2e30:	ee20                	fsw	fs0,88(a2)
    2e32:	ffff                	0xffff
    2e34:	ee20                	fsw	fs0,88(a2)
    2e36:	ffff                	0xffff
    2e38:	ed94                	fsw	fa3,24(a1)
    2e3a:	ffff                	0xffff

00002e3c <__clz_tab>:
    2e3c:	0100 0202 0303 0303 0404 0404 0404 0404     ................
    2e4c:	0505 0505 0505 0505 0505 0505 0505 0505     ................
    2e5c:	0606 0606 0606 0606 0606 0606 0606 0606     ................
    2e6c:	0606 0606 0606 0606 0606 0606 0606 0606     ................
    2e7c:	0707 0707 0707 0707 0707 0707 0707 0707     ................
    2e8c:	0707 0707 0707 0707 0707 0707 0707 0707     ................
    2e9c:	0707 0707 0707 0707 0707 0707 0707 0707     ................
    2eac:	0707 0707 0707 0707 0707 0707 0707 0707     ................
    2ebc:	0808 0808 0808 0808 0808 0808 0808 0808     ................
    2ecc:	0808 0808 0808 0808 0808 0808 0808 0808     ................
    2edc:	0808 0808 0808 0808 0808 0808 0808 0808     ................
    2eec:	0808 0808 0808 0808 0808 0808 0808 0808     ................
    2efc:	0808 0808 0808 0808 0808 0808 0808 0808     ................
    2f0c:	0808 0808 0808 0808 0808 0808 0808 0808     ................
    2f1c:	0808 0808 0808 0808 0808 0808 0808 0808     ................
    2f2c:	0808 0808 0808 0808 0808 0808 0808 0808     ................
