
pico_test_1.elf:     file format elf32-littleriscv
pico_test_1.elf
architecture: riscv:rv32, flags 0x00000112:
EXEC_P, HAS_SYMS, D_PAGED
start address 0x00001000

Program Header:
    LOAD off    0x00001000 vaddr 0x00001000 paddr 0x00001000 align 2**12
         filesz 0x00002a8c memsz 0x00002a8c flags r-x
    LOAD off    0x00004000 vaddr 0x00000000 paddr 0x00003a8c align 2**12
         filesz 0x00000430 memsz 0x000006a4 flags rw-

Sections:
Idx Name           Size      VMA       LMA       File off  Algn  Flags
  0 .text          00002a8c  00001000  00001000  00001000  2**3  CONTENTS, ALLOC, LOAD, READONLY, CODE
  1 .data          00000430  00000000  00003a8c  00004000  2**3  CONTENTS, ALLOC, LOAD, DATA
  2 .bss           00000274  00000430  00003ebc  00004430  2**2  ALLOC
  3 .heap          00000000  000006a4  000006a4  00004430  2**0  CONTENTS
  4 .debug_info    000049c8  00000000  00000000  00004430  2**0  CONTENTS, READONLY, DEBUGGING
  5 .debug_abbrev  00000d09  00000000  00000000  00008df8  2**0  CONTENTS, READONLY, DEBUGGING
  6 .debug_loc     000015cf  00000000  00000000  00009b01  2**0  CONTENTS, READONLY, DEBUGGING
  7 .debug_aranges 00000190  00000000  00000000  0000b0d0  2**3  CONTENTS, READONLY, DEBUGGING
  8 .debug_ranges  00000500  00000000  00000000  0000b260  2**0  CONTENTS, READONLY, DEBUGGING
  9 .debug_line    00001be3  00000000  00000000  0000b760  2**0  CONTENTS, READONLY, DEBUGGING
 10 .debug_str     000008d0  00000000  00000000  0000d343  2**0  CONTENTS, READONLY, DEBUGGING
 11 .comment       0000003a  00000000  00000000  0000dc13  2**0  CONTENTS, READONLY
 12 .debug_frame   0000061c  00000000  00000000  0000dc50  2**2  CONTENTS, READONLY, DEBUGGING
SYMBOL TABLE:
00001000 l    d  .text	00000000 .text
00000000 l    d  .data	00000000 .data
00000430 l    d  .bss	00000000 .bss
000006a4 l    d  .heap	00000000 .heap
00000000 l    d  .debug_info	00000000 .debug_info
00000000 l    d  .debug_abbrev	00000000 .debug_abbrev
00000000 l    d  .debug_loc	00000000 .debug_loc
00000000 l    d  .debug_aranges	00000000 .debug_aranges
00000000 l    d  .debug_ranges	00000000 .debug_ranges
00000000 l    d  .debug_line	00000000 .debug_line
00000000 l    d  .debug_str	00000000 .debug_str
00000000 l    d  .comment	00000000 .comment
00000000 l    d  .debug_frame	00000000 .debug_frame
00000000 l    df *ABS*	00000000 hdmidraw.c
000030b8 l     O .text	000005f0 F8X16
000036a8 l     O .text	00000060 bitmap_bytes
00000000 l    df *ABS*	00000000 main.c
00000000 l    df *ABS*	00000000 newsnake.c
00001636 l     F .text	00000084 refresh.part.0
00000000 l    df *ABS*	00000000 ./src/start.o
00001000 l       .text	00000000 start
0000107a l       .text	00000000 setmemloop
000010a2 l       .text	00000000 end_init_data
00001096 l       .text	00000000 loop_init_data
000010b8 l       .text	00000000 end_init_bss
000010ae l       .text	00000000 loop_init_bss
00000000 l    df *ABS*	00000000 uart.c
00001c08 l     F .text	0000004c print_num.part.0
00000000 l    df *ABS*	00000000 muldf3.c
00000000 l    df *ABS*	00000000 subdf3.c
00000000 l    df *ABS*	00000000 fixdfsi.c
00000000 l    df *ABS*	00000000 floatunsidf.c
00000000 l    df *ABS*	00000000 libgcc2.c
00000000 l    df *ABS*	00000000 libgcc2.c
00000000 l    df *ABS*	00000000 rand.c
00000000 l    df *ABS*	00000000 impure.c
00000000 l     O .data	00000428 impure_data
00000430 g     O .bss	00000268 snake
00001d08 g     F .text	00000078 print_flt
00001974 g     F .text	000001a8 snakeGo
00003a8c g       .text	00000000 _sidata
00001b1c g     F .text	000000e6 GameStart
00000698 g     O .bss	00000004 delaycnt
00003a8c g       .text	00000000 _etext
000006a0 g     O .bss	00000001 getps2
00000430 g       .bss	00000000 _sbss
000013ba g     F .text	0000010c hdmi_draw_dircle_solid
00001eb4 g     F .text	00000084 getchar_prompt
00001c74 g     F .text	00000028 print_str
000011e6 g     F .text	00000080 hdmi_draw_string
00000000 g       .data	00000000 _sdata
00001cf8 g     F .text	00000010 print_dec
00000428 g     O .data	00000004 _global_impure_ptr
00002ef4 g     F .text	000000c0 .hidden __floatunsidf
000010c0 g     F .text	00000094 hdmi_draw_test
000006a1 g     O .bss	00000001 key_val
000006a4 g       .bss	00000000 _ebss
00002e70 g     F .text	00000084 .hidden __fixdfsi
000006a4 g       .heap	00000000 _heap_start
000006a2 g     O .bss	00000002 score
0000069c g     O .bss	00000004 uart_data
00000000 g       .data	00000000 _ram_start
00001f38 g     F .text	0000002a get_char
00002fb4 g     F .text	00000094 .hidden __clzsi2
000018a4 g     F .text	000000d0 dead
00001514 g     F .text	00000012 ps2_test
0000305c g     F .text	0000005c rand
0000116c g     F .text	0000007a hdmi_draw_char
0000154a g     F .text	00000076 rgb_test
000014c6 g     F .text	0000004e hdmi_drawrectangle
00001d80 g     F .text	00000134 printk
00001f64 g     F .text	0000068c .hidden __muldf3
00001266 g     F .text	00000070 hdmi_draw_num
00001ce8 g     F .text	00000010 print_hex2
000015c0 g     F .text	00000076 main
00003048 g     F .text	00000014 srand
000012d6 g     F .text	00000052 hdmi_draw_fill
000016fe g     F .text	00000036 isCover
00001328 g     F .text	00000092 hdmi_drawLine
00001c9c g     F .text	0000004c print_hex
000016f0 g     F .text	0000000e refresh
0000398c g     O .text	00000100 .hidden __clz_tab
00001778 g     F .text	000000c6 generateFood
0000042c g     O .data	00000004 _impure_ptr
00001c02 g     F .text	00000006 print_num
00001154 g     F .text	00000018 hdmi_draw_point
00000430 g       .data	00000000 _edata
00001734 g     F .text	00000044 isNearSelf
0000183e g     F .text	00000066 snakeInit
00001526 g     F .text	00000024 draw_point_test
000025f0 g     F .text	00000880 .hidden __subdf3
000016ba g     F .text	00000036 snakeDelay
00001c54 g     F .text	00000020 put_char



Disassembly of section .text:

00001000 <start>:
start():
D:\Hummingbird\HBird-workspace\pico_test_1\Debug/../src/start.S:5
	.section .text

start:
	# zero-initialize register file
	addi x1, zero, 0
    1000:	00000093          	li	ra,0
D:\Hummingbird\HBird-workspace\pico_test_1\Debug/../src/start.S:7
	# x2 (sp) is initialized by reset
	addi x3, zero, 0
    1004:	00000193          	li	gp,0
D:\Hummingbird\HBird-workspace\pico_test_1\Debug/../src/start.S:8
	addi x4, zero, 0
    1008:	00000213          	li	tp,0
D:\Hummingbird\HBird-workspace\pico_test_1\Debug/../src/start.S:9
	addi x5, zero, 0
    100c:	00000293          	li	t0,0
D:\Hummingbird\HBird-workspace\pico_test_1\Debug/../src/start.S:10
	addi x6, zero, 0
    1010:	00000313          	li	t1,0
D:\Hummingbird\HBird-workspace\pico_test_1\Debug/../src/start.S:11
	addi x7, zero, 0
    1014:	00000393          	li	t2,0
D:\Hummingbird\HBird-workspace\pico_test_1\Debug/../src/start.S:12
	addi x8, zero, 0
    1018:	00000413          	li	s0,0
D:\Hummingbird\HBird-workspace\pico_test_1\Debug/../src/start.S:13
	addi x9, zero, 0
    101c:	00000493          	li	s1,0
D:\Hummingbird\HBird-workspace\pico_test_1\Debug/../src/start.S:14
	addi x10, zero, 0
    1020:	00000513          	li	a0,0
D:\Hummingbird\HBird-workspace\pico_test_1\Debug/../src/start.S:15
	addi x11, zero, 0
    1024:	00000593          	li	a1,0
D:\Hummingbird\HBird-workspace\pico_test_1\Debug/../src/start.S:16
	addi x12, zero, 0
    1028:	00000613          	li	a2,0
D:\Hummingbird\HBird-workspace\pico_test_1\Debug/../src/start.S:17
	addi x13, zero, 0
    102c:	00000693          	li	a3,0
D:\Hummingbird\HBird-workspace\pico_test_1\Debug/../src/start.S:18
	addi x14, zero, 0
    1030:	00000713          	li	a4,0
D:\Hummingbird\HBird-workspace\pico_test_1\Debug/../src/start.S:19
	addi x15, zero, 0
    1034:	00000793          	li	a5,0
D:\Hummingbird\HBird-workspace\pico_test_1\Debug/../src/start.S:20
	addi x16, zero, 0
    1038:	00000813          	li	a6,0
D:\Hummingbird\HBird-workspace\pico_test_1\Debug/../src/start.S:21
	addi x17, zero, 0
    103c:	00000893          	li	a7,0
D:\Hummingbird\HBird-workspace\pico_test_1\Debug/../src/start.S:22
	addi x18, zero, 0
    1040:	00000913          	li	s2,0
D:\Hummingbird\HBird-workspace\pico_test_1\Debug/../src/start.S:23
	addi x19, zero, 0
    1044:	00000993          	li	s3,0
D:\Hummingbird\HBird-workspace\pico_test_1\Debug/../src/start.S:24
	addi x20, zero, 0
    1048:	00000a13          	li	s4,0
D:\Hummingbird\HBird-workspace\pico_test_1\Debug/../src/start.S:25
	addi x21, zero, 0
    104c:	00000a93          	li	s5,0
D:\Hummingbird\HBird-workspace\pico_test_1\Debug/../src/start.S:26
	addi x22, zero, 0
    1050:	00000b13          	li	s6,0
D:\Hummingbird\HBird-workspace\pico_test_1\Debug/../src/start.S:27
	addi x23, zero, 0
    1054:	00000b93          	li	s7,0
D:\Hummingbird\HBird-workspace\pico_test_1\Debug/../src/start.S:28
	addi x24, zero, 0
    1058:	00000c13          	li	s8,0
D:\Hummingbird\HBird-workspace\pico_test_1\Debug/../src/start.S:29
	addi x25, zero, 0
    105c:	00000c93          	li	s9,0
D:\Hummingbird\HBird-workspace\pico_test_1\Debug/../src/start.S:30
	addi x26, zero, 0
    1060:	00000d13          	li	s10,0
D:\Hummingbird\HBird-workspace\pico_test_1\Debug/../src/start.S:31
	addi x27, zero, 0
    1064:	00000d93          	li	s11,0
D:\Hummingbird\HBird-workspace\pico_test_1\Debug/../src/start.S:32
	addi x28, zero, 0
    1068:	00000e13          	li	t3,0
D:\Hummingbird\HBird-workspace\pico_test_1\Debug/../src/start.S:33
	addi x29, zero, 0
    106c:	00000e93          	li	t4,0
D:\Hummingbird\HBird-workspace\pico_test_1\Debug/../src/start.S:34
	addi x30, zero, 0
    1070:	00000f13          	li	t5,0
D:\Hummingbird\HBird-workspace\pico_test_1\Debug/../src/start.S:35
	addi x31, zero, 0
    1074:	00000f93          	li	t6,0
D:\Hummingbird\HBird-workspace\pico_test_1\Debug/../src/start.S:38

	# zero initialize entire scratchpad memory
	li a0, 0x00000000
    1078:	4501                	li	a0,0

0000107a <setmemloop>:
setmemloop():
D:\Hummingbird\HBird-workspace\pico_test_1\Debug/../src/start.S:40
setmemloop:
	sw a0, 0(a0)
    107a:	c108                	sw	a0,0(a0)
D:\Hummingbird\HBird-workspace\pico_test_1\Debug/../src/start.S:41
	addi a0, a0, 4
    107c:	0511                	addi	a0,a0,4
D:\Hummingbird\HBird-workspace\pico_test_1\Debug/../src/start.S:42
	blt a0, sp, setmemloop
    107e:	fe254ee3          	blt	a0,sp,107a <setmemloop>
D:\Hummingbird\HBird-workspace\pico_test_1\Debug/../src/start.S:45

	# copy data section
	la a0, _sidata
    1082:	00003517          	auipc	a0,0x3
    1086:	a0a50513          	addi	a0,a0,-1526 # 3a8c <_etext>
D:\Hummingbird\HBird-workspace\pico_test_1\Debug/../src/start.S:46
	la a1, _sdata
    108a:	00000593          	li	a1,0
D:\Hummingbird\HBird-workspace\pico_test_1\Debug/../src/start.S:47
	la a2, _edata
    108e:	43000613          	li	a2,1072
D:\Hummingbird\HBird-workspace\pico_test_1\Debug/../src/start.S:48
	bge a1, a2, end_init_data
    1092:	00c5d863          	ble	a2,a1,10a2 <end_init_data>

00001096 <loop_init_data>:
loop_init_data():
D:\Hummingbird\HBird-workspace\pico_test_1\Debug/../src/start.S:50
loop_init_data:
	lw a3, 0(a0)
    1096:	4114                	lw	a3,0(a0)
D:\Hummingbird\HBird-workspace\pico_test_1\Debug/../src/start.S:51
	sw a3, 0(a1)
    1098:	c194                	sw	a3,0(a1)
D:\Hummingbird\HBird-workspace\pico_test_1\Debug/../src/start.S:52
	addi a0, a0, 4
    109a:	0511                	addi	a0,a0,4
D:\Hummingbird\HBird-workspace\pico_test_1\Debug/../src/start.S:53
	addi a1, a1, 4
    109c:	0591                	addi	a1,a1,4
D:\Hummingbird\HBird-workspace\pico_test_1\Debug/../src/start.S:54
	blt a1, a2, loop_init_data
    109e:	fec5cce3          	blt	a1,a2,1096 <loop_init_data>

000010a2 <end_init_data>:
end_init_data():
D:\Hummingbird\HBird-workspace\pico_test_1\Debug/../src/start.S:58
end_init_data:

	# zero-init bss section
	la a0, _sbss
    10a2:	43000513          	li	a0,1072
D:\Hummingbird\HBird-workspace\pico_test_1\Debug/../src/start.S:59
	la a1, _ebss
    10a6:	6a400593          	li	a1,1700
D:\Hummingbird\HBird-workspace\pico_test_1\Debug/../src/start.S:60
	bge a0, a1, end_init_bss
    10aa:	00b55763          	ble	a1,a0,10b8 <end_init_bss>

000010ae <loop_init_bss>:
loop_init_bss():
D:\Hummingbird\HBird-workspace\pico_test_1\Debug/../src/start.S:62
loop_init_bss:
	sw zero, 0(a0)
    10ae:	00052023          	sw	zero,0(a0)
D:\Hummingbird\HBird-workspace\pico_test_1\Debug/../src/start.S:63
	addi a0, a0, 4
    10b2:	0511                	addi	a0,a0,4
D:\Hummingbird\HBird-workspace\pico_test_1\Debug/../src/start.S:64
	blt a0, a1, loop_init_bss
    10b4:	feb54de3          	blt	a0,a1,10ae <loop_init_bss>

000010b8 <end_init_bss>:
end_init_bss():
D:\Hummingbird\HBird-workspace\pico_test_1\Debug/../src/start.S:69
end_init_bss:


	/* jump to main C code */
	jal ra,main
    10b8:	508000ef          	jal	ra,15c0 <main>
D:\Hummingbird\HBird-workspace\pico_test_1\Debug/../src/start.S:72

1:
	j 1b
    10bc:	a001                	j	10bc <end_init_bss+0x4>
D:\Hummingbird\HBird-workspace\pico_test_1\Debug/../src/start.S:75

	/* trap */
	ebreak
    10be:	9002                	ebreak

000010c0 <hdmi_draw_test>:
hdmi_draw_test():
D:\Hummingbird\HBird-workspace\pico_test_1\Debug/../src/hdmidraw.c:14
/***************************************************************************
 ** 作用：显示春日影
 ** 参数：x:屏幕x坐标,y:屏幕y坐标
 ** 注:仅用作测试
****************************************************************************/
void hdmi_draw_test(u32 x,u32 y){
    10c0:	1141                	addi	sp,sp,-16
    10c2:	c622                	sw	s0,12(sp)
D:\Hummingbird\HBird-workspace\pico_test_1\Debug/../src/hdmidraw.c:17
	u8 i;u8 j;
	u64 cursor;
	u16 x0 = x; u16 y0 = y;
    10c4:	01051e93          	slli	t4,a0,0x10
    10c8:	640d                	lui	s0,0x3
    10ca:	6a840413          	addi	s0,s0,1704 # 36a8 <bitmap_bytes>
    10ce:	010ede93          	srli	t4,t4,0x10
hdmi_draw_point():
D:\Hummingbird\HBird-workspace\pico_test_1\Debug/../src/hdmidraw.c:46
void hdmi_draw_point(u16 x, u16 y, u8 color){
	u64 temp_ramaddress= 0;
	u32 temp_ramdata= 0;
	temp_ramaddress = 320*y+x;
	ram_address = temp_ramaddress;
	ram_data_address = color+(0b1<<31);
    10d2:	80000fb7          	lui	t6,0x80000
hdmi_draw_test():
D:\Hummingbird\HBird-workspace\pico_test_1\Debug/../src/hdmidraw.c:17
	u16 x0 = x; u16 y0 = y;
    10d6:	05c2                	slli	a1,a1,0x10
    10d8:	00140393          	addi	t2,s0,1
    10dc:	81c1                	srli	a1,a1,0x10
    10de:	06040413          	addi	s0,s0,96
    10e2:	8776                	mv	a4,t4
    10e4:	4885                	li	a7,1
hdmi_draw_point():
D:\Hummingbird\HBird-workspace\pico_test_1\Debug/../src/hdmidraw.c:45
	ram_address = temp_ramaddress;
    10e6:	6821                	lui	a6,0x8
    10e8:	007f8293          	addi	t0,t6,7 # 80000007 <_etext+0x7fffc57b>
hdmi_draw_test():
D:\Hummingbird\HBird-workspace\pico_test_1\Debug/../src/hdmidraw.c:27
			if(x0>319 || x0>47+x){
    10ec:	13f00e13          	li	t3,319
    10f0:	02f50f13          	addi	t5,a0,47
D:\Hummingbird\HBird-workspace\pico_test_1\Debug/../src/hdmidraw.c:20
		for(j = 0; j< 8; j++){
    10f4:	537d                	li	t1,-1
D:\Hummingbird\HBird-workspace\pico_test_1\Debug/../src/hdmidraw.c:19
		cursor = bitmap_bytes[i];//春日影
    10f6:	469d                	li	a3,7
    10f8:	00259793          	slli	a5,a1,0x2
    10fc:	97ae                	add	a5,a5,a1
    10fe:	079a                	slli	a5,a5,0x6
    1100:	97ba                	add	a5,a5,a4
D:\Hummingbird\HBird-workspace\pico_test_1\Debug/../src/hdmidraw.c:21
			if(((cursor>>(7-j))&0x01)){
    1102:	00d8d633          	srl	a2,a7,a3
    1106:	0206f513          	andi	a0,a3,32
hdmi_draw_point():
D:\Hummingbird\HBird-workspace\pico_test_1\Debug/../src/hdmidraw.c:45
	ram_address = temp_ramaddress;
    110a:	06f82023          	sw	a5,96(a6) # 8060 <_etext+0x45d4>
hdmi_draw_test():
D:\Hummingbird\HBird-workspace\pico_test_1\Debug/../src/hdmidraw.c:21
			if(((cursor>>(7-j))&0x01)){
    110e:	8a05                	andi	a2,a2,1
    1110:	ed05                	bnez	a0,1148 <hdmi_draw_test+0x88>
    1112:	40d28533          	sub	a0,t0,a3
    1116:	ca0d                	beqz	a2,1148 <hdmi_draw_test+0x88>
hdmi_draw_point():
D:\Hummingbird\HBird-workspace\pico_test_1\Debug/../src/hdmidraw.c:46
	ram_data_address = color+(0b1<<31);
    1118:	06a82823          	sw	a0,112(a6)
hdmi_draw_test():
D:\Hummingbird\HBird-workspace\pico_test_1\Debug/../src/hdmidraw.c:26
			x0++;
    111c:	0705                	addi	a4,a4,1
    111e:	0742                	slli	a4,a4,0x10
    1120:	8341                	srli	a4,a4,0x10
    1122:	16fd                	addi	a3,a3,-1
D:\Hummingbird\HBird-workspace\pico_test_1\Debug/../src/hdmidraw.c:28
				x0 = x;y0++;
    1124:	00158793          	addi	a5,a1,1
D:\Hummingbird\HBird-workspace\pico_test_1\Debug/../src/hdmidraw.c:27
			if(x0>319 || x0>47+x){
    1128:	00ee6463          	bltu	t3,a4,1130 <hdmi_draw_test+0x70>
D:\Hummingbird\HBird-workspace\pico_test_1\Debug/../src/hdmidraw.c:27 (discriminator 1)
    112c:	00ef7663          	bleu	a4,t5,1138 <hdmi_draw_test+0x78>
D:\Hummingbird\HBird-workspace\pico_test_1\Debug/../src/hdmidraw.c:28
				x0 = x;y0++;
    1130:	01079593          	slli	a1,a5,0x10
    1134:	81c1                	srli	a1,a1,0x10
    1136:	8776                	mv	a4,t4
D:\Hummingbird\HBird-workspace\pico_test_1\Debug/../src/hdmidraw.c:20 (discriminator 2)
		for(j = 0; j< 8; j++){
    1138:	fc6690e3          	bne	a3,t1,10f8 <hdmi_draw_test+0x38>
D:\Hummingbird\HBird-workspace\pico_test_1\Debug/../src/hdmidraw.c:18 (discriminator 2)
	for(i = 0;i< 96; i++){
    113c:	00740963          	beq	s0,t2,114e <hdmi_draw_test+0x8e>
    1140:	0003c883          	lbu	a7,0(t2)
    1144:	0385                	addi	t2,t2,1
    1146:	bf45                	j	10f6 <hdmi_draw_test+0x36>
hdmi_draw_point():
D:\Hummingbird\HBird-workspace\pico_test_1\Debug/../src/hdmidraw.c:46
	ram_data_address = color+(0b1<<31);
    1148:	07f82823          	sw	t6,112(a6)
    114c:	bfc1                	j	111c <hdmi_draw_test+0x5c>
hdmi_draw_test():
D:\Hummingbird\HBird-workspace\pico_test_1\Debug/../src/hdmidraw.c:32
}
    114e:	4432                	lw	s0,12(sp)
    1150:	0141                	addi	sp,sp,16
    1152:	8082                	ret

00001154 <hdmi_draw_point>:
hdmi_draw_point():
D:\Hummingbird\HBird-workspace\pico_test_1\Debug/../src/hdmidraw.c:44
	temp_ramaddress = 320*y+x;
    1154:	00259793          	slli	a5,a1,0x2
    1158:	95be                	add	a1,a1,a5
    115a:	059a                	slli	a1,a1,0x6
D:\Hummingbird\HBird-workspace\pico_test_1\Debug/../src/hdmidraw.c:45
	ram_address = temp_ramaddress;
    115c:	6721                	lui	a4,0x8
D:\Hummingbird\HBird-workspace\pico_test_1\Debug/../src/hdmidraw.c:44
	temp_ramaddress = 320*y+x;
    115e:	95aa                	add	a1,a1,a0
D:\Hummingbird\HBird-workspace\pico_test_1\Debug/../src/hdmidraw.c:46
	ram_data_address = color+(0b1<<31);
    1160:	800007b7          	lui	a5,0x80000
D:\Hummingbird\HBird-workspace\pico_test_1\Debug/../src/hdmidraw.c:45
	ram_address = temp_ramaddress;
    1164:	d32c                	sw	a1,96(a4)
D:\Hummingbird\HBird-workspace\pico_test_1\Debug/../src/hdmidraw.c:46
	ram_data_address = color+(0b1<<31);
    1166:	963e                	add	a2,a2,a5
    1168:	db30                	sw	a2,112(a4)
D:\Hummingbird\HBird-workspace\pico_test_1\Debug/../src/hdmidraw.c:47
}
    116a:	8082                	ret

0000116c <hdmi_draw_char>:
hdmi_draw_char():
D:\Hummingbird\HBird-workspace\pico_test_1\Debug/../src/hdmidraw.c:55
 ** 参数：x:屏幕x坐标,y:屏幕y坐标,c:要显示的字母或符号,color:颜色索引
 ** 注:c仅出现ascii码里的
****************************************************************************/
void hdmi_draw_char(u16 x, u16 y, u8 c, u8 color){
	u8 i;u8 j;
	u8 ch = c - 32;
    116c:	fe060793          	addi	a5,a2,-32
    1170:	6f0d                	lui	t5,0x3
    1172:	0b8f0f13          	addi	t5,t5,184 # 30b8 <F8X16>
D:\Hummingbird\HBird-workspace\pico_test_1\Debug/../src/hdmidraw.c:59
	u8 cursor;
	u16 x0 = x; u16 y0 = y;
	for(i = 0; i < 16; i++){
		cursor = F8X16[16*ch+i];
    1176:	0ff7f793          	andi	a5,a5,255
    117a:	0792                	slli	a5,a5,0x4
    117c:	010f0393          	addi	t2,t5,16
hdmi_draw_point():
D:\Hummingbird\HBird-workspace\pico_test_1\Debug/../src/hdmidraw.c:46
	ram_data_address = color+(0b1<<31);
    1180:	80000fb7          	lui	t6,0x80000
    1184:	9f3e                	add	t5,t5,a5
    1186:	93be                	add	t2,t2,a5
hdmi_draw_char():
D:\Hummingbird\HBird-workspace\pico_test_1\Debug/../src/hdmidraw.c:57
	u16 x0 = x; u16 y0 = y;
    1188:	872a                	mv	a4,a0
hdmi_draw_point():
D:\Hummingbird\HBird-workspace\pico_test_1\Debug/../src/hdmidraw.c:45
	ram_address = temp_ramaddress;
    118a:	68a1                	lui	a7,0x8
D:\Hummingbird\HBird-workspace\pico_test_1\Debug/../src/hdmidraw.c:46
	ram_data_address = color+(0b1<<31);
    118c:	96fe                	add	a3,a3,t6
hdmi_draw_char():
D:\Hummingbird\HBird-workspace\pico_test_1\Debug/../src/hdmidraw.c:68
			}else{
				hdmi_draw_point(x0,y0,0);
			}
//			printk("x0:%d,y0:%d\n",x0,y0);
			x0++;
			if(x0>319 || x0>7+x){
    118e:	13f00e93          	li	t4,319
    1192:	00750293          	addi	t0,a0,7
D:\Hummingbird\HBird-workspace\pico_test_1\Debug/../src/hdmidraw.c:60
		for(j = 0; j< 8; j++){
    1196:	5e7d                	li	t3,-1
    1198:	000f4303          	lbu	t1,0(t5)
D:\Hummingbird\HBird-workspace\pico_test_1\Debug/../src/hdmidraw.c:59
		cursor = F8X16[16*ch+i];
    119c:	481d                	li	a6,7
    119e:	00259793          	slli	a5,a1,0x2
    11a2:	97ae                	add	a5,a5,a1
    11a4:	079a                	slli	a5,a5,0x6
D:\Hummingbird\HBird-workspace\pico_test_1\Debug/../src/hdmidraw.c:61
			if(((cursor>>(7-j))&0x01)){
    11a6:	41035633          	sra	a2,t1,a6
    11aa:	97ba                	add	a5,a5,a4
    11ac:	8a05                	andi	a2,a2,1
hdmi_draw_point():
D:\Hummingbird\HBird-workspace\pico_test_1\Debug/../src/hdmidraw.c:45
	ram_address = temp_ramaddress;
    11ae:	06f8a023          	sw	a5,96(a7) # 8060 <_etext+0x45d4>
hdmi_draw_char():
D:\Hummingbird\HBird-workspace\pico_test_1\Debug/../src/hdmidraw.c:61
			if(((cursor>>(7-j))&0x01)){
    11b2:	c61d                	beqz	a2,11e0 <hdmi_draw_char+0x74>
hdmi_draw_point():
D:\Hummingbird\HBird-workspace\pico_test_1\Debug/../src/hdmidraw.c:46
	ram_data_address = color+(0b1<<31);
    11b4:	06d8a823          	sw	a3,112(a7)
hdmi_draw_char():
D:\Hummingbird\HBird-workspace\pico_test_1\Debug/../src/hdmidraw.c:67
			x0++;
    11b8:	0705                	addi	a4,a4,1
    11ba:	0742                	slli	a4,a4,0x10
    11bc:	8341                	srli	a4,a4,0x10
    11be:	187d                	addi	a6,a6,-1
D:\Hummingbird\HBird-workspace\pico_test_1\Debug/../src/hdmidraw.c:69
				x0 = x;y0++;
    11c0:	00158793          	addi	a5,a1,1
D:\Hummingbird\HBird-workspace\pico_test_1\Debug/../src/hdmidraw.c:68
			if(x0>319 || x0>7+x){
    11c4:	00eee463          	bltu	t4,a4,11cc <hdmi_draw_char+0x60>
D:\Hummingbird\HBird-workspace\pico_test_1\Debug/../src/hdmidraw.c:68 (discriminator 1)
    11c8:	00e2d663          	ble	a4,t0,11d4 <hdmi_draw_char+0x68>
D:\Hummingbird\HBird-workspace\pico_test_1\Debug/../src/hdmidraw.c:69
				x0 = x;y0++;
    11cc:	01079593          	slli	a1,a5,0x10
    11d0:	81c1                	srli	a1,a1,0x10
    11d2:	872a                	mv	a4,a0
D:\Hummingbird\HBird-workspace\pico_test_1\Debug/../src/hdmidraw.c:60 (discriminator 2)
		for(j = 0; j< 8; j++){
    11d4:	fdc815e3          	bne	a6,t3,119e <hdmi_draw_char+0x32>
    11d8:	0f05                	addi	t5,t5,1
D:\Hummingbird\HBird-workspace\pico_test_1\Debug/../src/hdmidraw.c:58 (discriminator 2)
	for(i = 0; i < 16; i++){
    11da:	fbe39fe3          	bne	t2,t5,1198 <hdmi_draw_char+0x2c>
D:\Hummingbird\HBird-workspace\pico_test_1\Debug/../src/hdmidraw.c:73
			}
		}
	}
}
    11de:	8082                	ret
hdmi_draw_point():
D:\Hummingbird\HBird-workspace\pico_test_1\Debug/../src/hdmidraw.c:46
	ram_data_address = color+(0b1<<31);
    11e0:	07f8a823          	sw	t6,112(a7)
    11e4:	bfd1                	j	11b8 <hdmi_draw_char+0x4c>

000011e6 <hdmi_draw_string>:
hdmi_draw_string():
D:\Hummingbird\HBird-workspace\pico_test_1\Debug/../src/hdmidraw.c:79
/***************************************************************************
 ** 作用：显示字符串
 ** 参数：x:屏幕x坐标,y:屏幕y坐标,*str:要显示的字母或符号,color:颜色索引
 ** 注:str仅出现ascii码里的
****************************************************************************/
void hdmi_draw_string(u16 x, u16 y, u8 *str, u8 color){
    11e6:	1101                	addi	sp,sp,-32
    11e8:	cc22                	sw	s0,24(sp)
    11ea:	ca26                	sw	s1,20(sp)
    11ec:	c84a                	sw	s2,16(sp)
    11ee:	c64e                	sw	s3,12(sp)
    11f0:	c452                	sw	s4,8(sp)
    11f2:	c256                	sw	s5,4(sp)
    11f4:	c05a                	sw	s6,0(sp)
    11f6:	ce06                	sw	ra,28(sp)
    11f8:	8b2a                	mv	s6,a0
    11fa:	892e                	mv	s2,a1
    11fc:	84b2                	mv	s1,a2
    11fe:	8a36                	mv	s4,a3
D:\Hummingbird\HBird-workspace\pico_test_1\Debug/../src/hdmidraw.c:81
	u8 i;u8 j;
	u16 x0 = x;u16 y0 = y;
    1200:	842a                	mv	s0,a0
D:\Hummingbird\HBird-workspace\pico_test_1\Debug/../src/hdmidraw.c:82
	while((*str<='~')&&(*str>=' ')){
    1202:	05e00993          	li	s3,94
D:\Hummingbird\HBird-workspace\pico_test_1\Debug/../src/hdmidraw.c:86
		hdmi_draw_char(x0,y0,*str,color);
		str = str + 1;
		x0 = x0 + 8;
		if(x0>319){
    1206:	13f00a93          	li	s5,319
D:\Hummingbird\HBird-workspace\pico_test_1\Debug/../src/hdmidraw.c:82
	while((*str<='~')&&(*str>=' ')){
    120a:	0004c783          	lbu	a5,0(s1)
D:\Hummingbird\HBird-workspace\pico_test_1\Debug/../src/hdmidraw.c:83
		hdmi_draw_char(x0,y0,*str,color);
    120e:	85ca                	mv	a1,s2
    1210:	8522                	mv	a0,s0
    1212:	863e                	mv	a2,a5
D:\Hummingbird\HBird-workspace\pico_test_1\Debug/../src/hdmidraw.c:82
	while((*str<='~')&&(*str>=' ')){
    1214:	1781                	addi	a5,a5,-32
    1216:	0ff7f793          	andi	a5,a5,255
D:\Hummingbird\HBird-workspace\pico_test_1\Debug/../src/hdmidraw.c:83
		hdmi_draw_char(x0,y0,*str,color);
    121a:	86d2                	mv	a3,s4
D:\Hummingbird\HBird-workspace\pico_test_1\Debug/../src/hdmidraw.c:82
	while((*str<='~')&&(*str>=' ')){
    121c:	02f9eb63          	bltu	s3,a5,1252 <hdmi_draw_string+0x6c>
D:\Hummingbird\HBird-workspace\pico_test_1\Debug/../src/hdmidraw.c:85
		x0 = x0 + 8;
    1220:	0421                	addi	s0,s0,8
    1222:	0442                	slli	s0,s0,0x10
D:\Hummingbird\HBird-workspace\pico_test_1\Debug/../src/hdmidraw.c:83
		hdmi_draw_char(x0,y0,*str,color);
    1224:	37a1                	jal	116c <hdmi_draw_char>
D:\Hummingbird\HBird-workspace\pico_test_1\Debug/../src/hdmidraw.c:85
		x0 = x0 + 8;
    1226:	8041                	srli	s0,s0,0x10
D:\Hummingbird\HBird-workspace\pico_test_1\Debug/../src/hdmidraw.c:88
			x0 = x;
			y0 = y0+16;
    1228:	01090793          	addi	a5,s2,16
D:\Hummingbird\HBird-workspace\pico_test_1\Debug/../src/hdmidraw.c:84
		str = str + 1;
    122c:	0485                	addi	s1,s1,1
D:\Hummingbird\HBird-workspace\pico_test_1\Debug/../src/hdmidraw.c:86
		if(x0>319){
    122e:	fc8afee3          	bleu	s0,s5,120a <hdmi_draw_string+0x24>
D:\Hummingbird\HBird-workspace\pico_test_1\Debug/../src/hdmidraw.c:88
			y0 = y0+16;
    1232:	01079913          	slli	s2,a5,0x10
D:\Hummingbird\HBird-workspace\pico_test_1\Debug/../src/hdmidraw.c:82
	while((*str<='~')&&(*str>=' ')){
    1236:	0004c783          	lbu	a5,0(s1)
D:\Hummingbird\HBird-workspace\pico_test_1\Debug/../src/hdmidraw.c:88
			y0 = y0+16;
    123a:	01095913          	srli	s2,s2,0x10
D:\Hummingbird\HBird-workspace\pico_test_1\Debug/../src/hdmidraw.c:87
			x0 = x;
    123e:	845a                	mv	s0,s6
D:\Hummingbird\HBird-workspace\pico_test_1\Debug/../src/hdmidraw.c:83
		hdmi_draw_char(x0,y0,*str,color);
    1240:	863e                	mv	a2,a5
D:\Hummingbird\HBird-workspace\pico_test_1\Debug/../src/hdmidraw.c:82
	while((*str<='~')&&(*str>=' ')){
    1242:	1781                	addi	a5,a5,-32
    1244:	0ff7f793          	andi	a5,a5,255
D:\Hummingbird\HBird-workspace\pico_test_1\Debug/../src/hdmidraw.c:83
		hdmi_draw_char(x0,y0,*str,color);
    1248:	85ca                	mv	a1,s2
    124a:	8522                	mv	a0,s0
    124c:	86d2                	mv	a3,s4
D:\Hummingbird\HBird-workspace\pico_test_1\Debug/../src/hdmidraw.c:82
	while((*str<='~')&&(*str>=' ')){
    124e:	fcf9f9e3          	bleu	a5,s3,1220 <hdmi_draw_string+0x3a>
D:\Hummingbird\HBird-workspace\pico_test_1\Debug/../src/hdmidraw.c:91
		}
	}
}
    1252:	40f2                	lw	ra,28(sp)
    1254:	4462                	lw	s0,24(sp)
    1256:	44d2                	lw	s1,20(sp)
    1258:	4942                	lw	s2,16(sp)
    125a:	49b2                	lw	s3,12(sp)
    125c:	4a22                	lw	s4,8(sp)
    125e:	4a92                	lw	s5,4(sp)
    1260:	4b02                	lw	s6,0(sp)
    1262:	6105                	addi	sp,sp,32
    1264:	8082                	ret

00001266 <hdmi_draw_num>:
hdmi_draw_num():
D:\Hummingbird\HBird-workspace\pico_test_1\Debug/../src/hdmidraw.c:97
/***************************************************************************
 ** 作用：画矩形
 ** 参数：x:x坐标,y:y坐标,num要显示的数,len:数的位数,color:颜色索引
 ** 注:
****************************************************************************/
void hdmi_draw_num(u16 x, u16 y, u16 num,u8 len ,u8 color){
    1266:	1101                	addi	sp,sp,-32
D:\Hummingbird\HBird-workspace\pico_test_1\Debug/../src/hdmidraw.c:98
	u16 x0 = x+8*(len-1);u16 y0 = y;
    1268:	fff68793          	addi	a5,a3,-1
D:\Hummingbird\HBird-workspace\pico_test_1\Debug/../src/hdmidraw.c:97
void hdmi_draw_num(u16 x, u16 y, u16 num,u8 len ,u8 color){
    126c:	cc22                	sw	s0,24(sp)
    126e:	ca26                	sw	s1,20(sp)
D:\Hummingbird\HBird-workspace\pico_test_1\Debug/../src/hdmidraw.c:98
	u16 x0 = x+8*(len-1);u16 y0 = y;
    1270:	00379413          	slli	s0,a5,0x3
D:\Hummingbird\HBird-workspace\pico_test_1\Debug/../src/hdmidraw.c:97
void hdmi_draw_num(u16 x, u16 y, u16 num,u8 len ,u8 color){
    1274:	84b2                	mv	s1,a2
    1276:	ce06                	sw	ra,28(sp)
D:\Hummingbird\HBird-workspace\pico_test_1\Debug/../src/hdmidraw.c:99
	u8 cnt = len;u8 numget = num%10;u16 num2 = num;
    1278:	4629                	li	a2,10
D:\Hummingbird\HBird-workspace\pico_test_1\Debug/../src/hdmidraw.c:97
void hdmi_draw_num(u16 x, u16 y, u16 num,u8 len ,u8 color){
    127a:	c84a                	sw	s2,16(sp)
    127c:	c64e                	sw	s3,12(sp)
    127e:	c452                	sw	s4,8(sp)
    1280:	c256                	sw	s5,4(sp)
D:\Hummingbird\HBird-workspace\pico_test_1\Debug/../src/hdmidraw.c:98
	u16 x0 = x+8*(len-1);u16 y0 = y;
    1282:	942a                	add	s0,s0,a0
D:\Hummingbird\HBird-workspace\pico_test_1\Debug/../src/hdmidraw.c:99
	u8 cnt = len;u8 numget = num%10;u16 num2 = num;
    1284:	02c4f633          	remu	a2,s1,a2
D:\Hummingbird\HBird-workspace\pico_test_1\Debug/../src/hdmidraw.c:100
	while(cnt--){
    1288:	ce95                	beqz	a3,12c4 <hdmi_draw_num+0x5e>
    128a:	0442                	slli	s0,s0,0x10
    128c:	0ff7f793          	andi	a5,a5,255
    1290:	8041                	srli	s0,s0,0x10
    1292:	078e                	slli	a5,a5,0x3
    1294:	40f40933          	sub	s2,s0,a5
    1298:	1961                	addi	s2,s2,-8
    129a:	0942                	slli	s2,s2,0x10
    129c:	89ae                	mv	s3,a1
    129e:	8a3a                	mv	s4,a4
    12a0:	01095913          	srli	s2,s2,0x10
D:\Hummingbird\HBird-workspace\pico_test_1\Debug/../src/hdmidraw.c:107
		x0 = x0-8;
		if(x0 < 0){
			x0 = 319;
			y0++;
		}
		num2 = num2/10;
    12a4:	4aa9                	li	s5,10
D:\Hummingbird\HBird-workspace\pico_test_1\Debug/../src/hdmidraw.c:101
		hdmi_draw_char(x0,y0, numget+48,color);
    12a6:	03060613          	addi	a2,a2,48
    12aa:	8522                	mv	a0,s0
    12ac:	86d2                	mv	a3,s4
    12ae:	85ce                	mv	a1,s3
    12b0:	3d75                	jal	116c <hdmi_draw_char>
D:\Hummingbird\HBird-workspace\pico_test_1\Debug/../src/hdmidraw.c:102
		x0 = x0-8;
    12b2:	1461                	addi	s0,s0,-8
    12b4:	0442                	slli	s0,s0,0x10
    12b6:	8041                	srli	s0,s0,0x10
D:\Hummingbird\HBird-workspace\pico_test_1\Debug/../src/hdmidraw.c:107
		num2 = num2/10;
    12b8:	0354d4b3          	divu	s1,s1,s5
D:\Hummingbird\HBird-workspace\pico_test_1\Debug/../src/hdmidraw.c:108
		numget = num2%10;
    12bc:	0354f633          	remu	a2,s1,s5
D:\Hummingbird\HBird-workspace\pico_test_1\Debug/../src/hdmidraw.c:100
	while(cnt--){
    12c0:	fe8913e3          	bne	s2,s0,12a6 <hdmi_draw_num+0x40>
D:\Hummingbird\HBird-workspace\pico_test_1\Debug/../src/hdmidraw.c:110
	}
}
    12c4:	40f2                	lw	ra,28(sp)
    12c6:	4462                	lw	s0,24(sp)
    12c8:	44d2                	lw	s1,20(sp)
    12ca:	4942                	lw	s2,16(sp)
    12cc:	49b2                	lw	s3,12(sp)
    12ce:	4a22                	lw	s4,8(sp)
    12d0:	4a92                	lw	s5,4(sp)
    12d2:	6105                	addi	sp,sp,32
    12d4:	8082                	ret

000012d6 <hdmi_draw_fill>:
hdmi_draw_fill():
D:\Hummingbird\HBird-workspace\pico_test_1\Debug/../src/hdmidraw.c:118
 ** 参数：sx:屏幕左上角x坐标,sy:屏幕左上角y坐标,ex:屏幕右下角x坐标,ey:屏幕右下角y坐标,
 ** 	color:颜色索引
 ** 注:
****************************************************************************/
void hdmi_draw_fill(u16 sx,u16 sy,u16 ex,u16 ey,u16 color)
{
    12d6:	0605                	addi	a2,a2,1
    12d8:	01061313          	slli	t1,a2,0x10
    12dc:	01035313          	srli	t1,t1,0x10
D:\Hummingbird\HBird-workspace\pico_test_1\Debug/../src/hdmidraw.c:122
	u16 i,j;
	u16 x0 = sx;u16 y0 = sy;
	u16 xlen=0;
	xlen=ex-sx+1;
    12e0:	40a30e33          	sub	t3,t1,a0
    12e4:	0e42                	slli	t3,t3,0x10
    12e6:	010e5e13          	srli	t3,t3,0x10
D:\Hummingbird\HBird-workspace\pico_test_1\Debug/../src/hdmidraw.c:123
	for(i=sy;i<=ey;i++)
    12ea:	02b6ee63          	bltu	a3,a1,1326 <hdmi_draw_fill+0x50>
    12ee:	0ff77713          	andi	a4,a4,255
    12f2:	800008b7          	lui	a7,0x80000
    12f6:	98ba                	add	a7,a7,a4
hdmi_draw_point():
D:\Hummingbird\HBird-workspace\pico_test_1\Debug/../src/hdmidraw.c:45
	ram_address = temp_ramaddress;
    12f8:	6721                	lui	a4,0x8
hdmi_draw_fill():
D:\Hummingbird\HBird-workspace\pico_test_1\Debug/../src/hdmidraw.c:125
	{
		for(j=0;j<xlen;j++){
    12fa:	020e0163          	beqz	t3,131c <hdmi_draw_fill+0x46>
hdmi_draw_point():
D:\Hummingbird\HBird-workspace\pico_test_1\Debug/../src/hdmidraw.c:44
	temp_ramaddress = 320*y+x;
    12fe:	00259813          	slli	a6,a1,0x2
    1302:	982e                	add	a6,a6,a1
    1304:	081a                	slli	a6,a6,0x6
    1306:	87aa                	mv	a5,a0
D:\Hummingbird\HBird-workspace\pico_test_1\Debug/../src/hdmidraw.c:44 (discriminator 3)
    1308:	01078633          	add	a2,a5,a6
hdmi_draw_fill():
D:\Hummingbird\HBird-workspace\pico_test_1\Debug/../src/hdmidraw.c:127 (discriminator 3)
			hdmi_draw_point(x0,y0,color);
			x0++;
    130c:	0785                	addi	a5,a5,1
hdmi_draw_point():
D:\Hummingbird\HBird-workspace\pico_test_1\Debug/../src/hdmidraw.c:45 (discriminator 3)
	ram_address = temp_ramaddress;
    130e:	d330                	sw	a2,96(a4)
hdmi_draw_fill():
D:\Hummingbird\HBird-workspace\pico_test_1\Debug/../src/hdmidraw.c:127 (discriminator 3)
			x0++;
    1310:	07c2                	slli	a5,a5,0x10
hdmi_draw_point():
D:\Hummingbird\HBird-workspace\pico_test_1\Debug/../src/hdmidraw.c:46 (discriminator 3)
	ram_data_address = color+(0b1<<31);
    1312:	07172823          	sw	a7,112(a4) # 8070 <_etext+0x45e4>
hdmi_draw_fill():
D:\Hummingbird\HBird-workspace\pico_test_1\Debug/../src/hdmidraw.c:127 (discriminator 3)
			x0++;
    1316:	83c1                	srli	a5,a5,0x10
D:\Hummingbird\HBird-workspace\pico_test_1\Debug/../src/hdmidraw.c:125 (discriminator 3)
		for(j=0;j<xlen;j++){
    1318:	fe6798e3          	bne	a5,t1,1308 <hdmi_draw_fill+0x32>
D:\Hummingbird\HBird-workspace\pico_test_1\Debug/../src/hdmidraw.c:130
		}
		x0 = sx;
		y0++;
    131c:	0585                	addi	a1,a1,1
    131e:	05c2                	slli	a1,a1,0x10
    1320:	81c1                	srli	a1,a1,0x10
D:\Hummingbird\HBird-workspace\pico_test_1\Debug/../src/hdmidraw.c:123
	for(i=sy;i<=ey;i++)
    1322:	fcb6fce3          	bleu	a1,a3,12fa <hdmi_draw_fill+0x24>
D:\Hummingbird\HBird-workspace\pico_test_1\Debug/../src/hdmidraw.c:132
	}
}
    1326:	8082                	ret

00001328 <hdmi_drawLine>:
hdmi_drawLine():
D:\Hummingbird\HBird-workspace\pico_test_1\Debug/../src/hdmidraw.c:139
 ** 作用：线
 ** 参数：x1:x起始坐标,y1:y起始坐标,color:颜色索引
 ** 注:
****************************************************************************/
void hdmi_drawLine(u16 x1, u16 y1, u16 x2, u16 y2,u8 color)
{
    1328:	1141                	addi	sp,sp,-16
    132a:	c622                	sw	s0,12(sp)
D:\Hummingbird\HBird-workspace\pico_test_1\Debug/../src/hdmidraw.c:143
	u16 t;
	int xerr=0,yerr=0,delta_x,delta_y,distance;
	int incx,incy,uRow,uCol;
	delta_x=x2-x1;
    132c:	8e09                	sub	a2,a2,a0
D:\Hummingbird\HBird-workspace\pico_test_1\Debug/../src/hdmidraw.c:144
	delta_y=y2-y1;
    132e:	8e8d                	sub	a3,a3,a1
D:\Hummingbird\HBird-workspace\pico_test_1\Debug/../src/hdmidraw.c:147
	uRow=x1;
	uCol=y1;
	if(delta_x>0)incx=1;
    1330:	4385                	li	t2,1
    1332:	06c05663          	blez	a2,139e <hdmi_drawLine+0x76>
D:\Hummingbird\HBird-workspace\pico_test_1\Debug/../src/hdmidraw.c:150
	else if(delta_x==0)incx=0;
	else {incx=-1;delta_x=-delta_x;}
	if(delta_y>0)incy=1;
    1336:	4405                	li	s0,1
    1338:	06d05b63          	blez	a3,13ae <hdmi_drawLine+0x86>
    133c:	8eb2                	mv	t4,a2
    133e:	00d65363          	ble	a3,a2,1344 <hdmi_drawLine+0x1c>
    1342:	8eb6                	mv	t4,a3
    1344:	800007b7          	lui	a5,0x80000
hdmi_draw_point():
D:\Hummingbird\HBird-workspace\pico_test_1\Debug/../src/hdmidraw.c:44
	temp_ramaddress = 320*y+x;
    1348:	6f41                	lui	t5,0x10
hdmi_drawLine():
D:\Hummingbird\HBird-workspace\pico_test_1\Debug/../src/hdmidraw.c:155
	else if(delta_y==0)incy=0;
	else{incy=-1;delta_y=-delta_y;}
	if( delta_x>delta_y)distance=delta_x;
	else distance=delta_y;
	for(t=0;t<=distance+1;t++ )
    134a:	001e8293          	addi	t0,t4,1
    134e:	973e                	add	a4,a4,a5
D:\Hummingbird\HBird-workspace\pico_test_1\Debug/../src/hdmidraw.c:141
	int xerr=0,yerr=0,delta_x,delta_y,distance;
    1350:	4e01                	li	t3,0
    1352:	4301                	li	t1,0
D:\Hummingbird\HBird-workspace\pico_test_1\Debug/../src/hdmidraw.c:155
	for(t=0;t<=distance+1;t++ )
    1354:	4881                	li	a7,0
hdmi_draw_point():
D:\Hummingbird\HBird-workspace\pico_test_1\Debug/../src/hdmidraw.c:44
	temp_ramaddress = 320*y+x;
    1356:	1f7d                	addi	t5,t5,-1
D:\Hummingbird\HBird-workspace\pico_test_1\Debug/../src/hdmidraw.c:45
	ram_address = temp_ramaddress;
    1358:	6fa1                	lui	t6,0x8
D:\Hummingbird\HBird-workspace\pico_test_1\Debug/../src/hdmidraw.c:44
	temp_ramaddress = 320*y+x;
    135a:	01e5f7b3          	and	a5,a1,t5
    135e:	00279813          	slli	a6,a5,0x2
    1362:	983e                	add	a6,a6,a5
    1364:	081a                	slli	a6,a6,0x6
    1366:	01e577b3          	and	a5,a0,t5
    136a:	97c2                	add	a5,a5,a6
D:\Hummingbird\HBird-workspace\pico_test_1\Debug/../src/hdmidraw.c:45
	ram_address = temp_ramaddress;
    136c:	06ffa023          	sw	a5,96(t6) # 8060 <_etext+0x45d4>
hdmi_drawLine():
D:\Hummingbird\HBird-workspace\pico_test_1\Debug/../src/hdmidraw.c:155
	for(t=0;t<=distance+1;t++ )
    1370:	0885                	addi	a7,a7,1
    1372:	08c2                	slli	a7,a7,0x10
hdmi_draw_point():
D:\Hummingbird\HBird-workspace\pico_test_1\Debug/../src/hdmidraw.c:46
	ram_data_address = color+(0b1<<31);
    1374:	06efa823          	sw	a4,112(t6)
hdmi_drawLine():
D:\Hummingbird\HBird-workspace\pico_test_1\Debug/../src/hdmidraw.c:158
	{
		hdmi_draw_point(uRow,uCol,color);
		xerr+=delta_x ;
    1378:	9332                	add	t1,t1,a2
D:\Hummingbird\HBird-workspace\pico_test_1\Debug/../src/hdmidraw.c:155
	for(t=0;t<=distance+1;t++ )
    137a:	0108d893          	srli	a7,a7,0x10
D:\Hummingbird\HBird-workspace\pico_test_1\Debug/../src/hdmidraw.c:159
		yerr+=delta_y ;
    137e:	9e36                	add	t3,t3,a3
D:\Hummingbird\HBird-workspace\pico_test_1\Debug/../src/hdmidraw.c:160
		if(xerr>distance)
    1380:	006ed563          	ble	t1,t4,138a <hdmi_drawLine+0x62>
D:\Hummingbird\HBird-workspace\pico_test_1\Debug/../src/hdmidraw.c:162
		{
			xerr-=distance;
    1384:	41d30333          	sub	t1,t1,t4
D:\Hummingbird\HBird-workspace\pico_test_1\Debug/../src/hdmidraw.c:163
			uRow+=incx;
    1388:	951e                	add	a0,a0,t2
D:\Hummingbird\HBird-workspace\pico_test_1\Debug/../src/hdmidraw.c:165
		}
		if(yerr>distance)
    138a:	01ced563          	ble	t3,t4,1394 <hdmi_drawLine+0x6c>
D:\Hummingbird\HBird-workspace\pico_test_1\Debug/../src/hdmidraw.c:167
		{
			yerr-=distance;
    138e:	41de0e33          	sub	t3,t3,t4
D:\Hummingbird\HBird-workspace\pico_test_1\Debug/../src/hdmidraw.c:168
			uCol+=incy;
    1392:	95a2                	add	a1,a1,s0
D:\Hummingbird\HBird-workspace\pico_test_1\Debug/../src/hdmidraw.c:155 (discriminator 2)
	for(t=0;t<=distance+1;t++ )
    1394:	fd12d3e3          	ble	a7,t0,135a <hdmi_drawLine+0x32>
D:\Hummingbird\HBird-workspace\pico_test_1\Debug/../src/hdmidraw.c:171
		}
	}
}
    1398:	4432                	lw	s0,12(sp)
    139a:	0141                	addi	sp,sp,16
    139c:	8082                	ret
D:\Hummingbird\HBird-workspace\pico_test_1\Debug/../src/hdmidraw.c:148
	else if(delta_x==0)incx=0;
    139e:	4381                	li	t2,0
    13a0:	da59                	beqz	a2,1336 <hdmi_drawLine+0xe>
D:\Hummingbird\HBird-workspace\pico_test_1\Debug/../src/hdmidraw.c:149
	else {incx=-1;delta_x=-delta_x;}
    13a2:	40c00633          	neg	a2,a2
    13a6:	53fd                	li	t2,-1
D:\Hummingbird\HBird-workspace\pico_test_1\Debug/../src/hdmidraw.c:150
	if(delta_y>0)incy=1;
    13a8:	4405                	li	s0,1
    13aa:	f8d049e3          	bgtz	a3,133c <hdmi_drawLine+0x14>
D:\Hummingbird\HBird-workspace\pico_test_1\Debug/../src/hdmidraw.c:151
	else if(delta_y==0)incy=0;
    13ae:	4401                	li	s0,0
    13b0:	d6d1                	beqz	a3,133c <hdmi_drawLine+0x14>
D:\Hummingbird\HBird-workspace\pico_test_1\Debug/../src/hdmidraw.c:152
	else{incy=-1;delta_y=-delta_y;}
    13b2:	40d006b3          	neg	a3,a3
    13b6:	547d                	li	s0,-1
    13b8:	b751                	j	133c <hdmi_drawLine+0x14>

000013ba <hdmi_draw_dircle_solid>:
hdmi_draw_dircle_solid():
D:\Hummingbird\HBird-workspace\pico_test_1\Debug/../src/hdmidraw.c:178
 ** 作用：画圆
 ** 参数：x0:x坐标,y0:y坐标,r:半径
 ** 注:
****************************************************************************/
void hdmi_draw_dircle_solid(u16 x0,u16 y0,u8 r,u8 color)
{
    13ba:	715d                	addi	sp,sp,-80
D:\Hummingbird\HBird-workspace\pico_test_1\Debug/../src/hdmidraw.c:182
	int a,b;
	int di;
	a=0;b=r;
	di=3-(r<<1);
    13bc:	00161793          	slli	a5,a2,0x1
D:\Hummingbird\HBird-workspace\pico_test_1\Debug/../src/hdmidraw.c:178
{
    13c0:	d06a                	sw	s10,32(sp)
D:\Hummingbird\HBird-workspace\pico_test_1\Debug/../src/hdmidraw.c:182
	di=3-(r<<1);
    13c2:	4d0d                	li	s10,3
    13c4:	40fd0d33          	sub	s10,s10,a5
    13c8:	40b507b3          	sub	a5,a0,a1
    13cc:	c43e                	sw	a5,8(sp)
    13ce:	40a587b3          	sub	a5,a1,a0
D:\Hummingbird\HBird-workspace\pico_test_1\Debug/../src/hdmidraw.c:178
{
    13d2:	c2a6                	sw	s1,68(sp)
    13d4:	c0ca                	sw	s2,64(sp)
    13d6:	dc52                	sw	s4,56(sp)
    13d8:	da56                	sw	s5,52(sp)
    13da:	d462                	sw	s8,40(sp)
    13dc:	d266                	sw	s9,36(sp)
    13de:	ce6e                	sw	s11,28(sp)
    13e0:	c686                	sw	ra,76(sp)
    13e2:	c4a2                	sw	s0,72(sp)
    13e4:	de4e                	sw	s3,60(sp)
    13e6:	d85a                	sw	s6,48(sp)
    13e8:	d65e                	sw	s7,44(sp)
D:\Hummingbird\HBird-workspace\pico_test_1\Debug/../src/hdmidraw.c:181
	a=0;b=r;
    13ea:	8c32                	mv	s8,a2
D:\Hummingbird\HBird-workspace\pico_test_1\Debug/../src/hdmidraw.c:178
{
    13ec:	8aaa                	mv	s5,a0
    13ee:	8dae                	mv	s11,a1
    13f0:	8a36                	mv	s4,a3
D:\Hummingbird\HBird-workspace\pico_test_1\Debug/../src/hdmidraw.c:182
	di=3-(r<<1);
    13f2:	892a                	mv	s2,a0
    13f4:	84ae                	mv	s1,a1
D:\Hummingbird\HBird-workspace\pico_test_1\Debug/../src/hdmidraw.c:181
	a=0;b=r;
    13f6:	4c81                	li	s9,0
    13f8:	c63e                	sw	a5,12(sp)
    13fa:	a821                	j	1412 <hdmi_draw_dircle_solid+0x58>
    13fc:	0485                	addi	s1,s1,1
    13fe:	197d                	addi	s2,s2,-1
    1400:	04c2                	slli	s1,s1,0x10
    1402:	0942                	slli	s2,s2,0x10
D:\Hummingbird\HBird-workspace\pico_test_1\Debug/../src/hdmidraw.c:195

		if(di<0)di +=4*a+6;
		else
		{
			di+=10+4*(a-b);
			b--;
    1404:	1c7d                	addi	s8,s8,-1
D:\Hummingbird\HBird-workspace\pico_test_1\Debug/../src/hdmidraw.c:194
			di+=10+4*(a-b);
    1406:	9d3e                	add	s10,s10,a5
    1408:	80c1                	srli	s1,s1,0x10
    140a:	01095913          	srli	s2,s2,0x10
D:\Hummingbird\HBird-workspace\pico_test_1\Debug/../src/hdmidraw.c:183
	while(a<=b)
    140e:	099c4d63          	blt	s8,s9,14a8 <hdmi_draw_dircle_solid+0xee>
    1412:	47a2                	lw	a5,8(sp)
D:\Hummingbird\HBird-workspace\pico_test_1\Debug/../src/hdmidraw.c:185
		hdmi_drawLine(x0+a,y0-b,x0+a,y0+b,color);             //5
    1414:	010c1413          	slli	s0,s8,0x10
    1418:	8041                	srli	s0,s0,0x10
    141a:	01b40833          	add	a6,s0,s11
    141e:	00f48633          	add	a2,s1,a5
    1422:	408d87b3          	sub	a5,s11,s0
    1426:	01081b93          	slli	s7,a6,0x10
    142a:	01079b13          	slli	s6,a5,0x10
    142e:	0642                	slli	a2,a2,0x10
    1430:	8241                	srli	a2,a2,0x10
    1432:	010b5b13          	srli	s6,s6,0x10
    1436:	010bdb93          	srli	s7,s7,0x10
    143a:	8532                	mv	a0,a2
    143c:	8752                	mv	a4,s4
    143e:	86de                	mv	a3,s7
    1440:	85da                	mv	a1,s6
    1442:	35dd                	jal	1328 <hdmi_drawLine>
    1444:	47b2                	lw	a5,12(sp)
D:\Hummingbird\HBird-workspace\pico_test_1\Debug/../src/hdmidraw.c:186
		hdmi_drawLine(x0+b,y0-a,x0+b,y0+a,color);             //0
    1446:	01540633          	add	a2,s0,s5
    144a:	0642                	slli	a2,a2,0x10
    144c:	00f909b3          	add	s3,s2,a5
    1450:	09c2                	slli	s3,s3,0x10
    1452:	8241                	srli	a2,a2,0x10
    1454:	0109d993          	srli	s3,s3,0x10
    1458:	8532                	mv	a0,a2
    145a:	86a6                	mv	a3,s1
    145c:	8752                	mv	a4,s4
    145e:	85ce                	mv	a1,s3
    1460:	35e1                	jal	1328 <hdmi_drawLine>
D:\Hummingbird\HBird-workspace\pico_test_1\Debug/../src/hdmidraw.c:187
		hdmi_drawLine(x0-a,y0-b,x0-a,y0+b,color);             //4
    1462:	8752                	mv	a4,s4
    1464:	86de                	mv	a3,s7
    1466:	864a                	mv	a2,s2
    1468:	85da                	mv	a1,s6
    146a:	854a                	mv	a0,s2
    146c:	3d75                	jal	1328 <hdmi_drawLine>
D:\Hummingbird\HBird-workspace\pico_test_1\Debug/../src/hdmidraw.c:188
		hdmi_drawLine(x0-b,y0-a,x0-b,y0+a,color);             //6
    146e:	408a8633          	sub	a2,s5,s0
    1472:	0642                	slli	a2,a2,0x10
    1474:	8241                	srli	a2,a2,0x10
    1476:	86a6                	mv	a3,s1
    1478:	8752                	mv	a4,s4
    147a:	85ce                	mv	a1,s3
    147c:	8532                	mv	a0,a2
    147e:	356d                	jal	1328 <hdmi_drawLine>
D:\Hummingbird\HBird-workspace\pico_test_1\Debug/../src/hdmidraw.c:189
		a++;
    1480:	0c85                	addi	s9,s9,1
D:\Hummingbird\HBird-workspace\pico_test_1\Debug/../src/hdmidraw.c:194
			di+=10+4*(a-b);
    1482:	418c87b3          	sub	a5,s9,s8
    1486:	078a                	slli	a5,a5,0x2
    1488:	07a9                	addi	a5,a5,10
D:\Hummingbird\HBird-workspace\pico_test_1\Debug/../src/hdmidraw.c:191
		if(di<0)di +=4*a+6;
    148a:	f60d59e3          	bgez	s10,13fc <hdmi_draw_dircle_solid+0x42>
D:\Hummingbird\HBird-workspace\pico_test_1\Debug/../src/hdmidraw.c:191 (discriminator 1)
    148e:	002c9793          	slli	a5,s9,0x2
    1492:	0485                	addi	s1,s1,1
    1494:	197d                	addi	s2,s2,-1
    1496:	0799                	addi	a5,a5,6
    1498:	04c2                	slli	s1,s1,0x10
    149a:	0942                	slli	s2,s2,0x10
    149c:	9d3e                	add	s10,s10,a5
    149e:	80c1                	srli	s1,s1,0x10
    14a0:	01095913          	srli	s2,s2,0x10
D:\Hummingbird\HBird-workspace\pico_test_1\Debug/../src/hdmidraw.c:183 (discriminator 1)
	while(a<=b)
    14a4:	f79c57e3          	ble	s9,s8,1412 <hdmi_draw_dircle_solid+0x58>
D:\Hummingbird\HBird-workspace\pico_test_1\Debug/../src/hdmidraw.c:199
		}
	}

}
    14a8:	40b6                	lw	ra,76(sp)
    14aa:	4426                	lw	s0,72(sp)
    14ac:	4496                	lw	s1,68(sp)
    14ae:	4906                	lw	s2,64(sp)
    14b0:	59f2                	lw	s3,60(sp)
    14b2:	5a62                	lw	s4,56(sp)
    14b4:	5ad2                	lw	s5,52(sp)
    14b6:	5b42                	lw	s6,48(sp)
    14b8:	5bb2                	lw	s7,44(sp)
    14ba:	5c22                	lw	s8,40(sp)
    14bc:	5c92                	lw	s9,36(sp)
    14be:	5d02                	lw	s10,32(sp)
    14c0:	4df2                	lw	s11,28(sp)
    14c2:	6161                	addi	sp,sp,80
    14c4:	8082                	ret

000014c6 <hdmi_drawrectangle>:
hdmi_drawrectangle():
D:\Hummingbird\HBird-workspace\pico_test_1\Debug/../src/hdmidraw.c:206
 ** 作用：画矩形
 ** 参数：x1:x坐标,y1:y坐标
 ** 注:
****************************************************************************/
void hdmi_drawrectangle(u16 x1, u16 y1, u16 x2, u16 y2,u8 color)
{
    14c6:	1101                	addi	sp,sp,-32
    14c8:	cc22                	sw	s0,24(sp)
    14ca:	8436                	mv	s0,a3
D:\Hummingbird\HBird-workspace\pico_test_1\Debug/../src/hdmidraw.c:207
	hdmi_drawLine(x1,y1,x2,y1,color);
    14cc:	86ae                	mv	a3,a1
D:\Hummingbird\HBird-workspace\pico_test_1\Debug/../src/hdmidraw.c:206
{
    14ce:	ce06                	sw	ra,28(sp)
    14d0:	ca26                	sw	s1,20(sp)
    14d2:	c84a                	sw	s2,16(sp)
    14d4:	c64e                	sw	s3,12(sp)
    14d6:	c452                	sw	s4,8(sp)
    14d8:	893a                	mv	s2,a4
    14da:	8a32                	mv	s4,a2
    14dc:	89aa                	mv	s3,a0
    14de:	84ae                	mv	s1,a1
D:\Hummingbird\HBird-workspace\pico_test_1\Debug/../src/hdmidraw.c:207
	hdmi_drawLine(x1,y1,x2,y1,color);
    14e0:	35a1                	jal	1328 <hdmi_drawLine>
D:\Hummingbird\HBird-workspace\pico_test_1\Debug/../src/hdmidraw.c:208
	hdmi_drawLine(x1,y1,x1,y2,color);
    14e2:	874a                	mv	a4,s2
    14e4:	86a2                	mv	a3,s0
    14e6:	864e                	mv	a2,s3
    14e8:	85a6                	mv	a1,s1
    14ea:	854e                	mv	a0,s3
    14ec:	3d35                	jal	1328 <hdmi_drawLine>
D:\Hummingbird\HBird-workspace\pico_test_1\Debug/../src/hdmidraw.c:209
	hdmi_drawLine(x1,y2,x2,y2,color);
    14ee:	874a                	mv	a4,s2
    14f0:	86a2                	mv	a3,s0
    14f2:	8652                	mv	a2,s4
    14f4:	85a2                	mv	a1,s0
    14f6:	854e                	mv	a0,s3
    14f8:	3d05                	jal	1328 <hdmi_drawLine>
D:\Hummingbird\HBird-workspace\pico_test_1\Debug/../src/hdmidraw.c:210
	hdmi_drawLine(x2,y1,x2,y2,color);
    14fa:	86a2                	mv	a3,s0
D:\Hummingbird\HBird-workspace\pico_test_1\Debug/../src/hdmidraw.c:211
}
    14fc:	4462                	lw	s0,24(sp)
    14fe:	40f2                	lw	ra,28(sp)
    1500:	49b2                	lw	s3,12(sp)
D:\Hummingbird\HBird-workspace\pico_test_1\Debug/../src/hdmidraw.c:210
	hdmi_drawLine(x2,y1,x2,y2,color);
    1502:	874a                	mv	a4,s2
    1504:	8652                	mv	a2,s4
D:\Hummingbird\HBird-workspace\pico_test_1\Debug/../src/hdmidraw.c:211
}
    1506:	4942                	lw	s2,16(sp)
D:\Hummingbird\HBird-workspace\pico_test_1\Debug/../src/hdmidraw.c:210
	hdmi_drawLine(x2,y1,x2,y2,color);
    1508:	85a6                	mv	a1,s1
    150a:	8552                	mv	a0,s4
D:\Hummingbird\HBird-workspace\pico_test_1\Debug/../src/hdmidraw.c:211
}
    150c:	44d2                	lw	s1,20(sp)
    150e:	4a22                	lw	s4,8(sp)
    1510:	6105                	addi	sp,sp,32
D:\Hummingbird\HBird-workspace\pico_test_1\Debug/../src/hdmidraw.c:210
	hdmi_drawLine(x2,y1,x2,y2,color);
    1512:	bd19                	j	1328 <hdmi_drawLine>

00001514 <ps2_test>:
ps2_test():
D:\Hummingbird\HBird-workspace\pico_test_1\Debug/../src/main.c:17
 ** 输出参数：无
 ** 返回参数：无
 ********************************************************************/

void ps2_test(){
	int getps2 = *ps2ctrl_point;
    1514:	67a1                	lui	a5,0x8
    1516:	1007a583          	lw	a1,256(a5) # 8100 <_etext+0x4674>
D:\Hummingbird\HBird-workspace\pico_test_1\Debug/../src/main.c:18
	printk("getps2 = %d\n",getps2);
    151a:	00003537          	lui	a0,0x3
    151e:	7a850513          	addi	a0,a0,1960 # 37a8 <bitmap_bytes+0x100>
    1522:	05f0006f          	j	1d80 <printk>

00001526 <draw_point_test>:
draw_point_test():
D:\Hummingbird\HBird-workspace\pico_test_1\Debug/../src/main.c:25


void draw_point_test(int x,int y){
	u32 addr_temp;
	u32 data_temp;
	addr_temp = 40*y + x;
    1526:	00259793          	slli	a5,a1,0x2
    152a:	95be                	add	a1,a1,a5
    152c:	058e                	slli	a1,a1,0x3
    152e:	95aa                	add	a1,a1,a0
D:\Hummingbird\HBird-workspace\pico_test_1\Debug/../src/main.c:26
	ram_address = addr_temp;
    1530:	6721                	lui	a4,0x8
D:\Hummingbird\HBird-workspace\pico_test_1\Debug/../src/main.c:27
	ram_data_address = 0b00010011+(0b1<<31);
    1532:	800007b7          	lui	a5,0x80000
D:\Hummingbird\HBird-workspace\pico_test_1\Debug/../src/main.c:26
	ram_address = addr_temp;
    1536:	d32c                	sw	a1,96(a4)
D:\Hummingbird\HBird-workspace\pico_test_1\Debug/../src/main.c:27
	ram_data_address = 0b00010011+(0b1<<31);
    1538:	07cd                	addi	a5,a5,19
D:\Hummingbird\HBird-workspace\pico_test_1\Debug/../src/main.c:29
	data_temp = 0b00010011+(0b1<<31);
	printk("we_valid:%d",data_temp>>31);
    153a:	00003537          	lui	a0,0x3
D:\Hummingbird\HBird-workspace\pico_test_1\Debug/../src/main.c:27
	ram_data_address = 0b00010011+(0b1<<31);
    153e:	db3c                	sw	a5,112(a4)
D:\Hummingbird\HBird-workspace\pico_test_1\Debug/../src/main.c:29
	printk("we_valid:%d",data_temp>>31);
    1540:	4585                	li	a1,1
    1542:	70850513          	addi	a0,a0,1800 # 3708 <bitmap_bytes+0x60>
    1546:	03b0006f          	j	1d80 <printk>

0000154a <rgb_test>:
rgb_test():
D:\Hummingbird\HBird-workspace\pico_test_1\Debug/../src/main.c:32
}

void rgb_test(){
    154a:	1141                	addi	sp,sp,-16
D:\Hummingbird\HBird-workspace\pico_test_1\Debug/../src/main.c:38
	u32 cut = 0;
	u32 addr = 0;
	u32 color = 0;
	u32 i;
	for(i = 0;i < 86400;i++){
		ram_address = i;
    154c:	6721                	lui	a4,0x8
D:\Hummingbird\HBird-workspace\pico_test_1\Debug/../src/main.c:37
	for(i = 0;i < 86400;i++){
    154e:	65d5                	lui	a1,0x15
D:\Hummingbird\HBird-workspace\pico_test_1\Debug/../src/main.c:32
void rgb_test(){
    1550:	c606                	sw	ra,12(sp)
D:\Hummingbird\HBird-workspace\pico_test_1\Debug/../src/main.c:37
	for(i = 0;i < 86400;i++){
    1552:	4781                	li	a5,0
D:\Hummingbird\HBird-workspace\pico_test_1\Debug/../src/main.c:39
		ram_data_address = (0+(0b1<<31));
    1554:	07070693          	addi	a3,a4,112 # 8070 <_etext+0x45e4>
    1558:	80000837          	lui	a6,0x80000
    155c:	80000537          	lui	a0,0x80000
D:\Hummingbird\HBird-workspace\pico_test_1\Debug/../src/main.c:37
	for(i = 0;i < 86400;i++){
    1560:	18058593          	addi	a1,a1,384 # 15180 <_etext+0x116f4>
D:\Hummingbird\HBird-workspace\pico_test_1\Debug/../src/main.c:38 (discriminator 3)
		ram_address = i;
    1564:	d33c                	sw	a5,96(a4)
D:\Hummingbird\HBird-workspace\pico_test_1\Debug/../src/main.c:39 (discriminator 3)
		ram_data_address = (0+(0b1<<31));
    1566:	c288                	sw	a0,0(a3)
D:\Hummingbird\HBird-workspace\pico_test_1\Debug/../src/main.c:37 (discriminator 3)
	for(i = 0;i < 86400;i++){
    1568:	0785                	addi	a5,a5,1
    156a:	feb79de3          	bne	a5,a1,1564 <rgb_test+0x1a>
D:\Hummingbird\HBird-workspace\pico_test_1\Debug/../src/main.c:41
	}
	ram_address = 0;
    156e:	06072023          	sw	zero,96(a4)
D:\Hummingbird\HBird-workspace\pico_test_1\Debug/../src/main.c:42
	ram_data_address = (5+(0b1<<31));
    1572:	00580793          	addi	a5,a6,5 # 80000005 <_etext+0x7fffc579>
    1576:	c29c                	sw	a5,0(a3)
D:\Hummingbird\HBird-workspace\pico_test_1\Debug/../src/main.c:43
	ram_address = 50;
    1578:	03200793          	li	a5,50
    157c:	d33c                	sw	a5,96(a4)
D:\Hummingbird\HBird-workspace\pico_test_1\Debug/../src/main.c:44
	ram_data_address = (50+(0b1<<31));
    157e:	03280793          	addi	a5,a6,50
    1582:	c29c                	sw	a5,0(a3)
D:\Hummingbird\HBird-workspace\pico_test_1\Debug/../src/main.c:45
	ram_address = 20000;
    1584:	6795                	lui	a5,0x5
    1586:	e2078793          	addi	a5,a5,-480 # 4e20 <_etext+0x1394>
    158a:	d33c                	sw	a5,96(a4)
D:\Hummingbird\HBird-workspace\pico_test_1\Debug/../src/main.c:46
	ram_data_address = (150+(0b1<<31));
    158c:	09680813          	addi	a6,a6,150
    1590:	0106a023          	sw	a6,0(a3)
D:\Hummingbird\HBird-workspace\pico_test_1\Debug/../src/main.c:47
	hdmi_draw_point(20,50,1);
    1594:	4605                	li	a2,1
    1596:	03200593          	li	a1,50
    159a:	4551                	li	a0,20
    159c:	3e65                	jal	1154 <hdmi_draw_point>
D:\Hummingbird\HBird-workspace\pico_test_1\Debug/../src/main.c:48
	hdmi_draw_point(20,60,2);
    159e:	4609                	li	a2,2
    15a0:	03c00593          	li	a1,60
    15a4:	4551                	li	a0,20
    15a6:	367d                	jal	1154 <hdmi_draw_point>
D:\Hummingbird\HBird-workspace\pico_test_1\Debug/../src/main.c:49
	hdmi_draw_point(20,70,3);
    15a8:	460d                	li	a2,3
    15aa:	04600593          	li	a1,70
    15ae:	4551                	li	a0,20
    15b0:	3655                	jal	1154 <hdmi_draw_point>
D:\Hummingbird\HBird-workspace\pico_test_1\Debug/../src/main.c:63
//			printk("color:%x\n",(color+1)*(0xffff+1));
//			ram_address = addr;
//			ram_data_address = (color+(0b1<<31));
//		}
//	}
}
    15b2:	40b2                	lw	ra,12(sp)
D:\Hummingbird\HBird-workspace\pico_test_1\Debug/../src/main.c:50
	hdmi_draw_point(20,80,4);
    15b4:	4611                	li	a2,4
    15b6:	05000593          	li	a1,80
    15ba:	4551                	li	a0,20
D:\Hummingbird\HBird-workspace\pico_test_1\Debug/../src/main.c:63
}
    15bc:	0141                	addi	sp,sp,16
D:\Hummingbird\HBird-workspace\pico_test_1\Debug/../src/main.c:50
	hdmi_draw_point(20,80,4);
    15be:	be59                	j	1154 <hdmi_draw_point>

000015c0 <main>:
main():
D:\Hummingbird\HBird-workspace\pico_test_1\Debug/../src/main.c:66

int main(void)
{
    15c0:	1141                	addi	sp,sp,-16
D:\Hummingbird\HBird-workspace\pico_test_1\Debug/../src/main.c:67
	reg_uart_clkdiv = BAUND_9600;
    15c2:	6785                	lui	a5,0x1
D:\Hummingbird\HBird-workspace\pico_test_1\Debug/../src/main.c:66
{
    15c4:	c606                	sw	ra,12(sp)
D:\Hummingbird\HBird-workspace\pico_test_1\Debug/../src/main.c:67
	reg_uart_clkdiv = BAUND_9600;
    15c6:	6721                	lui	a4,0x8
    15c8:	45878793          	addi	a5,a5,1112 # 1458 <hdmi_draw_dircle_solid+0x9e>
D:\Hummingbird\HBird-workspace\pico_test_1\Debug/../src/main.c:68
	printk("Hello Risc-V Pango 2019\n");
    15cc:	00003537          	lui	a0,0x3
D:\Hummingbird\HBird-workspace\pico_test_1\Debug/../src/main.c:67
	reg_uart_clkdiv = BAUND_9600;
    15d0:	c31c                	sw	a5,0(a4)
D:\Hummingbird\HBird-workspace\pico_test_1\Debug/../src/main.c:68
	printk("Hello Risc-V Pango 2019\n");
    15d2:	72850513          	addi	a0,a0,1832 # 3728 <bitmap_bytes+0x80>
    15d6:	7aa000ef          	jal	ra,1d80 <printk>
D:\Hummingbird\HBird-workspace\pico_test_1\Debug/../src/main.c:69
	printk("test data = %d,%f,%s,0x = %x\n", 100,33.456,"2019",100);
    15da:	000037b7          	lui	a5,0x3
    15de:	7187a603          	lw	a2,1816(a5) # 3718 <bitmap_bytes+0x70>
    15e2:	71c7a683          	lw	a3,1820(a5)
    15e6:	00003737          	lui	a4,0x3
    15ea:	00003537          	lui	a0,0x3
    15ee:	06400793          	li	a5,100
    15f2:	74470713          	addi	a4,a4,1860 # 3744 <bitmap_bytes+0x9c>
    15f6:	06400593          	li	a1,100
    15fa:	74c50513          	addi	a0,a0,1868 # 374c <bitmap_bytes+0xa4>
    15fe:	782000ef          	jal	ra,1d80 <printk>
D:\Hummingbird\HBird-workspace\pico_test_1\Debug/../src/main.c:70
	printk("simple compute : 50*10 = %d,100/3 = %f,100%3 = %d\n", 50*10,(double)100/3,(int)100%3);
    1602:	000037b7          	lui	a5,0x3
    1606:	7207a603          	lw	a2,1824(a5) # 3720 <bitmap_bytes+0x78>
    160a:	7247a683          	lw	a3,1828(a5)
    160e:	00003537          	lui	a0,0x3
    1612:	4705                	li	a4,1
    1614:	1f400593          	li	a1,500
    1618:	76c50513          	addi	a0,a0,1900 # 376c <bitmap_bytes+0xc4>
    161c:	764000ef          	jal	ra,1d80 <printk>
D:\Hummingbird\HBird-workspace\pico_test_1\Debug/../src/main.c:71
	printk("test\n");
    1620:	00003537          	lui	a0,0x3
    1624:	7a050513          	addi	a0,a0,1952 # 37a0 <bitmap_bytes+0xf8>
    1628:	758000ef          	jal	ra,1d80 <printk>
D:\Hummingbird\HBird-workspace\pico_test_1\Debug/../src/main.c:72
	GameStart();
    162c:	29c5                	jal	1b1c <GameStart>
D:\Hummingbird\HBird-workspace\pico_test_1\Debug/../src/main.c:88
//		}
//	}//X
//	getps2 = 0;
//	goto loop;
	return 0;
}
    162e:	40b2                	lw	ra,12(sp)
    1630:	4501                	li	a0,0
    1632:	0141                	addi	sp,sp,16
    1634:	8082                	ret

00001636 <refresh.part.0>:
refresh():
D:\Hummingbird\HBird-workspace\pico_test_1\Debug/../src/newsnake.c:103
}
/*
刷新屏幕上蛇和食物的位置
*/

void refresh(){
    1636:	1141                	addi	sp,sp,-16
    1638:	c226                	sw	s1,4(sp)
D:\Hummingbird\HBird-workspace\pico_test_1\Debug/../src/newsnake.c:106
	if(snake.life==1){
		u8 i;
		hdmi_draw_fill(11,11,229,229,255);
    163a:	0ff00713          	li	a4,255
    163e:	0e500693          	li	a3,229
    1642:	0e500613          	li	a2,229
    1646:	45ad                	li	a1,11
    1648:	452d                	li	a0,11
D:\Hummingbird\HBird-workspace\pico_test_1\Debug/../src/newsnake.c:103
void refresh(){
    164a:	c606                	sw	ra,12(sp)
    164c:	c422                	sw	s0,8(sp)
D:\Hummingbird\HBird-workspace\pico_test_1\Debug/../src/newsnake.c:107
		for(i=0;i<snake.length;i++){//画蛇
    164e:	43000493          	li	s1,1072
D:\Hummingbird\HBird-workspace\pico_test_1\Debug/../src/newsnake.c:106
		hdmi_draw_fill(11,11,229,229,255);
    1652:	3151                	jal	12d6 <hdmi_draw_fill>
D:\Hummingbird\HBird-workspace\pico_test_1\Debug/../src/newsnake.c:107
		for(i=0;i<snake.length;i++){//画蛇
    1654:	25b4c783          	lbu	a5,603(s1)
    1658:	c395                	beqz	a5,167c <refresh.part.0+0x46>
    165a:	4401                	li	s0,0
D:\Hummingbird\HBird-workspace\pico_test_1\Debug/../src/newsnake.c:108
			hdmi_draw_dircle_solid(snake.snakeX[i],snake.snakeY[i],5,snakecolor);  //以算的蛇的坐标画半径为5的实心圆
    165c:	008487b3          	add	a5,s1,s0
    1660:	12f7c583          	lbu	a1,303(a5)
    1664:	0037c503          	lbu	a0,3(a5)
    1668:	46a9                	li	a3,10
    166a:	4615                	li	a2,5
    166c:	33b9                	jal	13ba <hdmi_draw_dircle_solid>
D:\Hummingbird\HBird-workspace\pico_test_1\Debug/../src/newsnake.c:107
		for(i=0;i<snake.length;i++){//画蛇
    166e:	25b4c783          	lbu	a5,603(s1)
    1672:	0405                	addi	s0,s0,1
    1674:	0ff47413          	andi	s0,s0,255
    1678:	fef462e3          	bltu	s0,a5,165c <refresh.part.0+0x26>
D:\Hummingbird\HBird-workspace\pico_test_1\Debug/../src/newsnake.c:110
		}
		hdmi_draw_dircle_solid(snake.foodX,snake.foodY,5,36);//画食物
    167c:	2654c583          	lbu	a1,613(s1)
    1680:	2644c503          	lbu	a0,612(s1)
    1684:	02400693          	li	a3,36
    1688:	4615                	li	a2,5
    168a:	3b05                	jal	13ba <hdmi_draw_dircle_solid>
D:\Hummingbird\HBird-workspace\pico_test_1\Debug/../src/newsnake.c:111
		hdmi_draw_string(250,70,"Score:",22);
    168c:	00003637          	lui	a2,0x3
    1690:	46d9                	li	a3,22
    1692:	7d860613          	addi	a2,a2,2008 # 37d8 <bitmap_bytes+0x130>
    1696:	04600593          	li	a1,70
    169a:	0fa00513          	li	a0,250
    169e:	36a1                	jal	11e6 <hdmi_draw_string>
D:\Hummingbird\HBird-workspace\pico_test_1\Debug/../src/newsnake.c:114
		hdmi_draw_num(260,90,score,2,23);
	}
}
    16a0:	4422                	lw	s0,8(sp)
    16a2:	40b2                	lw	ra,12(sp)
    16a4:	4492                	lw	s1,4(sp)
D:\Hummingbird\HBird-workspace\pico_test_1\Debug/../src/newsnake.c:112
		hdmi_draw_num(260,90,score,2,23);
    16a6:	6a205603          	lhu	a2,1698(zero) # 6a2 <score>
    16aa:	475d                	li	a4,23
    16ac:	4689                	li	a3,2
    16ae:	05a00593          	li	a1,90
    16b2:	10400513          	li	a0,260
D:\Hummingbird\HBird-workspace\pico_test_1\Debug/../src/newsnake.c:114
}
    16b6:	0141                	addi	sp,sp,16
D:\Hummingbird\HBird-workspace\pico_test_1\Debug/../src/newsnake.c:112
		hdmi_draw_num(260,90,score,2,23);
    16b8:	b67d                	j	1266 <hdmi_draw_num>

000016ba <snakeDelay>:
snakeDelay():
D:\Hummingbird\HBird-workspace\pico_test_1\Debug/../src/newsnake.c:13
void snakeDelay(){
    16ba:	6a100513          	li	a0,1697
    16be:	00054583          	lbu	a1,0(a0)
    16c2:	00049737          	lui	a4,0x49
    16c6:	3e070713          	addi	a4,a4,992 # 493e0 <_etext+0x45954>
    16ca:	4601                	li	a2,0
D:\Hummingbird\HBird-workspace\pico_test_1\Debug/../src/newsnake.c:16
		getps2 = *ps2ctrl_point;
    16cc:	66a1                	lui	a3,0x8
    16ce:	1006a783          	lw	a5,256(a3) # 8100 <_etext+0x4674>
    16d2:	177d                	addi	a4,a4,-1
    16d4:	0ff7f793          	andi	a5,a5,255
D:\Hummingbird\HBird-workspace\pico_test_1\Debug/../src/newsnake.c:17
		if(getps2 != 0) key_val = (getps2>>4);
    16d8:	c781                	beqz	a5,16e0 <snakeDelay+0x26>
D:\Hummingbird\HBird-workspace\pico_test_1\Debug/../src/newsnake.c:17 (discriminator 1)
    16da:	0047d593          	srli	a1,a5,0x4
    16de:	4605                	li	a2,1
D:\Hummingbird\HBird-workspace\pico_test_1\Debug/../src/newsnake.c:15
	while(delaycnt--){
    16e0:	f77d                	bnez	a4,16ce <snakeDelay+0x14>
    16e2:	e601                	bnez	a2,16ea <snakeDelay+0x30>
    16e4:	6af00023          	sb	a5,1696(zero) # 6a0 <getps2>
D:\Hummingbird\HBird-workspace\pico_test_1\Debug/../src/newsnake.c:19
}
    16e8:	8082                	ret
    16ea:	00b50023          	sb	a1,0(a0)
    16ee:	bfdd                	j	16e4 <snakeDelay+0x2a>

000016f0 <refresh>:
refresh():
D:\Hummingbird\HBird-workspace\pico_test_1\Debug/../src/newsnake.c:104
	if(snake.life==1){
    16f0:	43004703          	lbu	a4,1072(zero) # 430 <_edata>
    16f4:	4785                	li	a5,1
    16f6:	00f70363          	beq	a4,a5,16fc <refresh+0xc>
D:\Hummingbird\HBird-workspace\pico_test_1\Debug/../src/newsnake.c:114
}
    16fa:	8082                	ret
    16fc:	bf2d                	j	1636 <refresh.part.0>

000016fe <isCover>:
isCover():
D:\Hummingbird\HBird-workspace\pico_test_1\Debug/../src/newsnake.c:148
/*
判断随机产生的食物是否处于蛇体内
*/
u8 isCover(u8 snakeX[],u8 snakeY[],u8 foodX,u8 foodY){
	u8 i;
	for(i=0;i<snake.length;i++){
    16fe:	68b04783          	lbu	a5,1675(zero) # 68b <_edata+0x25b>
    1702:	c785                	beqz	a5,172a <isCover+0x2c>
    1704:	17fd                	addi	a5,a5,-1
    1706:	0ff7f793          	andi	a5,a5,255
    170a:	0785                	addi	a5,a5,1
    170c:	97aa                	add	a5,a5,a0
    170e:	a021                	j	1716 <isCover+0x18>
    1710:	0585                	addi	a1,a1,1
D:\Hummingbird\HBird-workspace\pico_test_1\Debug/../src/newsnake.c:148 (discriminator 2)
    1712:	00f50e63          	beq	a0,a5,172e <isCover+0x30>
D:\Hummingbird\HBird-workspace\pico_test_1\Debug/../src/newsnake.c:149
		if(snakeX[i]==foodX&&snakeY[i]==foodY)
    1716:	00054703          	lbu	a4,0(a0)
    171a:	0505                	addi	a0,a0,1
    171c:	fec71ae3          	bne	a4,a2,1710 <isCover+0x12>
D:\Hummingbird\HBird-workspace\pico_test_1\Debug/../src/newsnake.c:149 (discriminator 1)
    1720:	0005c703          	lbu	a4,0(a1)
    1724:	fed716e3          	bne	a4,a3,1710 <isCover+0x12>
D:\Hummingbird\HBird-workspace\pico_test_1\Debug/../src/newsnake.c:151
		{
		return 1;
    1728:	4785                	li	a5,1
D:\Hummingbird\HBird-workspace\pico_test_1\Debug/../src/newsnake.c:155
		}
	}
	return 0;
}
    172a:	853e                	mv	a0,a5
    172c:	8082                	ret
D:\Hummingbird\HBird-workspace\pico_test_1\Debug/../src/newsnake.c:154
	return 0;
    172e:	4781                	li	a5,0
D:\Hummingbird\HBird-workspace\pico_test_1\Debug/../src/newsnake.c:155
}
    1730:	853e                	mv	a0,a5
    1732:	8082                	ret

00001734 <isNearSelf>:
isNearSelf():
D:\Hummingbird\HBird-workspace\pico_test_1\Debug/../src/newsnake.c:162
/*
判断是否头部是否触碰到自己
*/
u8 isNearSelf(){
	u8 i;
	for(i=1;i<snake.length;i++){
    1734:	43000793          	li	a5,1072
    1738:	25b7c683          	lbu	a3,603(a5)
    173c:	4705                	li	a4,1
    173e:	02d77b63          	bleu	a3,a4,1774 <isNearSelf+0x40>
    1742:	16f9                	addi	a3,a3,-2
    1744:	00578713          	addi	a4,a5,5
    1748:	0ff6f693          	andi	a3,a3,255
D:\Hummingbird\HBird-workspace\pico_test_1\Debug/../src/newsnake.c:163
		if(snake.snakeX[i]==snake.headX&&snake.snakeY[i]==snake.headY)
    174c:	0017c603          	lbu	a2,1(a5)
    1750:	0027c583          	lbu	a1,2(a5)
    1754:	96ba                	add	a3,a3,a4
    1756:	0791                	addi	a5,a5,4
    1758:	a021                	j	1760 <isNearSelf+0x2c>
    175a:	0785                	addi	a5,a5,1
D:\Hummingbird\HBird-workspace\pico_test_1\Debug/../src/newsnake.c:162 (discriminator 2)
	for(i=1;i<snake.length;i++){
    175c:	00d78c63          	beq	a5,a3,1774 <isNearSelf+0x40>
D:\Hummingbird\HBird-workspace\pico_test_1\Debug/../src/newsnake.c:163
		if(snake.snakeX[i]==snake.headX&&snake.snakeY[i]==snake.headY)
    1760:	0007c703          	lbu	a4,0(a5)
    1764:	fec71be3          	bne	a4,a2,175a <isNearSelf+0x26>
D:\Hummingbird\HBird-workspace\pico_test_1\Debug/../src/newsnake.c:163 (discriminator 1)
    1768:	12c7c703          	lbu	a4,300(a5)
    176c:	feb717e3          	bne	a4,a1,175a <isNearSelf+0x26>
D:\Hummingbird\HBird-workspace\pico_test_1\Debug/../src/newsnake.c:165
		{
		return 0;
    1770:	4501                	li	a0,0
D:\Hummingbird\HBird-workspace\pico_test_1\Debug/../src/newsnake.c:169
		}
	}
	return 1;
}
    1772:	8082                	ret
D:\Hummingbird\HBird-workspace\pico_test_1\Debug/../src/newsnake.c:168
	return 1;
    1774:	4505                	li	a0,1
    1776:	8082                	ret

00001778 <generateFood>:
generateFood():
D:\Hummingbird\HBird-workspace\pico_test_1\Debug/../src/newsnake.c:173
/*
产生随机的食物坐标
*/
void generateFood(){
    1778:	1101                	addi	sp,sp,-32
    177a:	ce06                	sw	ra,28(sp)
    177c:	cc22                	sw	s0,24(sp)
    177e:	ca26                	sw	s1,20(sp)
    1780:	c84a                	sw	s2,16(sp)
    1782:	c64e                	sw	s3,12(sp)
D:\Hummingbird\HBird-workspace\pico_test_1\Debug/../src/newsnake.c:174
		unsigned int ran=rand()%22+1; //因为贪吃蛇运动区域为10<x<230，10<y<230，取得1到22的随机数
    1784:	4959                	li	s2,22
    1786:	0d7010ef          	jal	ra,305c <rand>
    178a:	032567b3          	rem	a5,a0,s2
D:\Hummingbird\HBird-workspace\pico_test_1\Debug/../src/newsnake.c:175
		snake.foodX=(ran*2+1)*5;  //随机数取奇数再乘以5
    178e:	43000993          	li	s3,1072
    1792:	00498493          	addi	s1,s3,4
D:\Hummingbird\HBird-workspace\pico_test_1\Debug/../src/newsnake.c:179
		ran=rand()%22+1;
		snake.foodY=(ran*2+1)*5;
	while(isCover(snake.snakeX,snake.snakeY,snake.foodX,snake.foodY)){
		ran=rand()%22+1; //因为贪吃蛇运动区域为10<x<230，10<y<230，取得1到22的随机数
    1796:	4459                	li	s0,22
D:\Hummingbird\HBird-workspace\pico_test_1\Debug/../src/newsnake.c:174
		unsigned int ran=rand()%22+1; //因为贪吃蛇运动区域为10<x<230，10<y<230，取得1到22的随机数
    1798:	0785                	addi	a5,a5,1
D:\Hummingbird\HBird-workspace\pico_test_1\Debug/../src/newsnake.c:175
		snake.foodX=(ran*2+1)*5;  //随机数取奇数再乘以5
    179a:	00279713          	slli	a4,a5,0x2
    179e:	97ba                	add	a5,a5,a4
    17a0:	0786                	slli	a5,a5,0x1
    17a2:	0795                	addi	a5,a5,5
    17a4:	26f98223          	sb	a5,612(s3)
D:\Hummingbird\HBird-workspace\pico_test_1\Debug/../src/newsnake.c:176
		ran=rand()%22+1;
    17a8:	0b5010ef          	jal	ra,305c <rand>
    17ac:	032567b3          	rem	a5,a0,s2
isCover():
D:\Hummingbird\HBird-workspace\pico_test_1\Debug/../src/newsnake.c:148
	for(i=0;i<snake.length;i++){
    17b0:	25b9c683          	lbu	a3,603(s3)
generateFood():
D:\Hummingbird\HBird-workspace\pico_test_1\Debug/../src/newsnake.c:178
	while(isCover(snake.snakeX,snake.snakeY,snake.foodX,snake.foodY)){
    17b4:	2649c583          	lbu	a1,612(s3)
D:\Hummingbird\HBird-workspace\pico_test_1\Debug/../src/newsnake.c:176
		ran=rand()%22+1;
    17b8:	0785                	addi	a5,a5,1
D:\Hummingbird\HBird-workspace\pico_test_1\Debug/../src/newsnake.c:177
		snake.foodY=(ran*2+1)*5;
    17ba:	00279613          	slli	a2,a5,0x2
    17be:	963e                	add	a2,a2,a5
    17c0:	0606                	slli	a2,a2,0x1
    17c2:	0615                	addi	a2,a2,5
    17c4:	0ff67613          	andi	a2,a2,255
    17c8:	26c982a3          	sb	a2,613(s3)
isCover():
D:\Hummingbird\HBird-workspace\pico_test_1\Debug/../src/newsnake.c:148
	for(i=0;i<snake.length;i++){
    17cc:	c2b5                	beqz	a3,1830 <generateFood+0xb8>
    17ce:	16fd                	addi	a3,a3,-1
    17d0:	0ff6f693          	andi	a3,a3,255
    17d4:	00398793          	addi	a5,s3,3
    17d8:	96a6                	add	a3,a3,s1
    17da:	a021                	j	17e2 <generateFood+0x6a>
    17dc:	0785                	addi	a5,a5,1
    17de:	04d78963          	beq	a5,a3,1830 <generateFood+0xb8>
D:\Hummingbird\HBird-workspace\pico_test_1\Debug/../src/newsnake.c:149
		if(snakeX[i]==foodX&&snakeY[i]==foodY)
    17e2:	0007c703          	lbu	a4,0(a5)
    17e6:	feb71be3          	bne	a4,a1,17dc <generateFood+0x64>
    17ea:	12c7c703          	lbu	a4,300(a5)
    17ee:	fec717e3          	bne	a4,a2,17dc <generateFood+0x64>
generateFood():
D:\Hummingbird\HBird-workspace\pico_test_1\Debug/../src/newsnake.c:179
		ran=rand()%22+1; //因为贪吃蛇运动区域为10<x<230，10<y<230，取得1到22的随机数
    17f2:	06b010ef          	jal	ra,305c <rand>
    17f6:	02856533          	rem	a0,a0,s0
    17fa:	0505                	addi	a0,a0,1
D:\Hummingbird\HBird-workspace\pico_test_1\Debug/../src/newsnake.c:180
		snake.foodX=(ran*2+1)*5;  //随机数取奇数再乘以5
    17fc:	00251793          	slli	a5,a0,0x2
    1800:	953e                	add	a0,a0,a5
    1802:	0506                	slli	a0,a0,0x1
    1804:	0515                	addi	a0,a0,5
    1806:	26a98223          	sb	a0,612(s3)
D:\Hummingbird\HBird-workspace\pico_test_1\Debug/../src/newsnake.c:181
		ran=rand()%22+1;
    180a:	053010ef          	jal	ra,305c <rand>
    180e:	02856533          	rem	a0,a0,s0
isCover():
D:\Hummingbird\HBird-workspace\pico_test_1\Debug/../src/newsnake.c:148
	for(i=0;i<snake.length;i++){
    1812:	25b9c683          	lbu	a3,603(s3)
generateFood():
D:\Hummingbird\HBird-workspace\pico_test_1\Debug/../src/newsnake.c:178
	while(isCover(snake.snakeX,snake.snakeY,snake.foodX,snake.foodY)){
    1816:	2649c583          	lbu	a1,612(s3)
D:\Hummingbird\HBird-workspace\pico_test_1\Debug/../src/newsnake.c:181
		ran=rand()%22+1;
    181a:	0505                	addi	a0,a0,1
D:\Hummingbird\HBird-workspace\pico_test_1\Debug/../src/newsnake.c:182
		snake.foodY=(ran*2+1)*5;
    181c:	00251613          	slli	a2,a0,0x2
    1820:	962a                	add	a2,a2,a0
    1822:	0606                	slli	a2,a2,0x1
    1824:	0615                	addi	a2,a2,5
    1826:	0ff67613          	andi	a2,a2,255
    182a:	26c982a3          	sb	a2,613(s3)
isCover():
D:\Hummingbird\HBird-workspace\pico_test_1\Debug/../src/newsnake.c:148
	for(i=0;i<snake.length;i++){
    182e:	f2c5                	bnez	a3,17ce <generateFood+0x56>
generateFood():
D:\Hummingbird\HBird-workspace\pico_test_1\Debug/../src/newsnake.c:185
	}

}
    1830:	40f2                	lw	ra,28(sp)
    1832:	4462                	lw	s0,24(sp)
    1834:	44d2                	lw	s1,20(sp)
    1836:	4942                	lw	s2,16(sp)
    1838:	49b2                	lw	s3,12(sp)
    183a:	6105                	addi	sp,sp,32
    183c:	8082                	ret

0000183e <snakeInit>:
snakeInit():
D:\Hummingbird\HBird-workspace\pico_test_1\Debug/../src/newsnake.c:25
void snakeInit(){
    183e:	1141                	addi	sp,sp,-16
    1840:	c422                	sw	s0,8(sp)
    1842:	c226                	sw	s1,4(sp)
    1844:	c606                	sw	ra,12(sp)
D:\Hummingbird\HBird-workspace\pico_test_1\Debug/../src/newsnake.c:26
	snake.length=3;           //初始长度为3
    1846:	43000413          	li	s0,1072
    184a:	478d                	li	a5,3
    184c:	24f40da3          	sb	a5,603(s0)
D:\Hummingbird\HBird-workspace\pico_test_1\Debug/../src/newsnake.c:32
	snake.snakeY[0]=55;
    1850:	03700793          	li	a5,55
    1854:	12f407a3          	sb	a5,303(s0)
D:\Hummingbird\HBird-workspace\pico_test_1\Debug/../src/newsnake.c:33
	snake.snakeY[1]=65;
    1858:	04100793          	li	a5,65
    185c:	12f40823          	sb	a5,304(s0)
D:\Hummingbird\HBird-workspace\pico_test_1\Debug/../src/newsnake.c:34
	snake.snakeY[2]=75;
    1860:	04b00793          	li	a5,75
    1864:	12f408a3          	sb	a5,305(s0)
D:\Hummingbird\HBird-workspace\pico_test_1\Debug/../src/newsnake.c:41
	snake.life=1; //1：蛇还活着；0：蛇死亡
    1868:	373737b7          	lui	a5,0x37373
    186c:	70178793          	addi	a5,a5,1793 # 37373701 <_etext+0x3736fc75>
    1870:	c01c                	sw	a5,0(s0)
D:\Hummingbird\HBird-workspace\pico_test_1\Debug/../src/newsnake.c:28
	snake.snakeX[0]=55;
    1872:	678d                	lui	a5,0x3
    1874:	73778793          	addi	a5,a5,1847 # 3737 <bitmap_bytes+0x8f>
D:\Hummingbird\HBird-workspace\pico_test_1\Debug/../src/newsnake.c:38
	snake.dir=1;  //设置运动方向
    1878:	4485                	li	s1,1
D:\Hummingbird\HBird-workspace\pico_test_1\Debug/../src/newsnake.c:28
	snake.snakeX[0]=55;
    187a:	00f41223          	sh	a5,4(s0)
D:\Hummingbird\HBird-workspace\pico_test_1\Debug/../src/newsnake.c:38
	snake.dir=1;  //设置运动方向
    187e:	24942e23          	sw	s1,604(s0)
D:\Hummingbird\HBird-workspace\pico_test_1\Debug/../src/newsnake.c:39
	snake.tpdir=1;//设置初始按键方向
    1882:	26942023          	sw	s1,608(s0)
D:\Hummingbird\HBird-workspace\pico_test_1\Debug/../src/newsnake.c:43
	generateFood();//生成食物
    1886:	3dcd                	jal	1778 <generateFood>
refresh():
D:\Hummingbird\HBird-workspace\pico_test_1\Debug/../src/newsnake.c:104
	if(snake.life==1){
    1888:	00044783          	lbu	a5,0(s0)
    188c:	00978763          	beq	a5,s1,189a <snakeInit+0x5c>
snakeInit():
D:\Hummingbird\HBird-workspace\pico_test_1\Debug/../src/newsnake.c:46
}
    1890:	40b2                	lw	ra,12(sp)
    1892:	4422                	lw	s0,8(sp)
    1894:	4492                	lw	s1,4(sp)
    1896:	0141                	addi	sp,sp,16
    1898:	8082                	ret
    189a:	4422                	lw	s0,8(sp)
    189c:	40b2                	lw	ra,12(sp)
    189e:	4492                	lw	s1,4(sp)
    18a0:	0141                	addi	sp,sp,16
refresh():
    18a2:	bb51                	j	1636 <refresh.part.0>

000018a4 <dead>:
dead():
D:\Hummingbird\HBird-workspace\pico_test_1\Debug/../src/newsnake.c:190

/*
在头部撞到墙之后执行死亡程序
*/
void dead(){
    18a4:	1101                	addi	sp,sp,-32
    18a6:	c84a                	sw	s2,16(sp)
D:\Hummingbird\HBird-workspace\pico_test_1\Debug/../src/newsnake.c:206
	snake.headX=snake.snakeX[0];
	snake.headY=snake.snakeY[0];
	snake.dir=0;

	snake.life=0;
	hdmi_draw_string(80,50,"You dead!!!",20);
    18a8:	00003637          	lui	a2,0x3
D:\Hummingbird\HBird-workspace\pico_test_1\Debug/../src/newsnake.c:191
	snake.length=0;
    18ac:	43000913          	li	s2,1072
D:\Hummingbird\HBird-workspace\pico_test_1\Debug/../src/newsnake.c:206
	hdmi_draw_string(80,50,"You dead!!!",20);
    18b0:	46d1                	li	a3,20
    18b2:	7b860613          	addi	a2,a2,1976 # 37b8 <bitmap_bytes+0x110>
    18b6:	03200593          	li	a1,50
    18ba:	05000513          	li	a0,80
D:\Hummingbird\HBird-workspace\pico_test_1\Debug/../src/newsnake.c:190
void dead(){
    18be:	ce06                	sw	ra,28(sp)
    18c0:	cc22                	sw	s0,24(sp)
    18c2:	ca26                	sw	s1,20(sp)
    18c4:	c64e                	sw	s3,12(sp)
    18c6:	c452                	sw	s4,8(sp)
D:\Hummingbird\HBird-workspace\pico_test_1\Debug/../src/newsnake.c:191
	snake.length=0;
    18c8:	24090da3          	sb	zero,603(s2)
D:\Hummingbird\HBird-workspace\pico_test_1\Debug/../src/newsnake.c:197
	snake.snakeY[0]=0;
    18cc:	120907a3          	sb	zero,303(s2)
D:\Hummingbird\HBird-workspace\pico_test_1\Debug/../src/newsnake.c:198
	snake.snakeY[1]=0;
    18d0:	12090823          	sb	zero,304(s2)
D:\Hummingbird\HBird-workspace\pico_test_1\Debug/../src/newsnake.c:199
	snake.snakeY[2]=0;
    18d4:	120908a3          	sb	zero,305(s2)
D:\Hummingbird\HBird-workspace\pico_test_1\Debug/../src/newsnake.c:203
	snake.dir=0;
    18d8:	24092e23          	sw	zero,604(s2)
D:\Hummingbird\HBird-workspace\pico_test_1\Debug/../src/newsnake.c:205
	snake.life=0;
    18dc:	00092023          	sw	zero,0(s2)
D:\Hummingbird\HBird-workspace\pico_test_1\Debug/../src/newsnake.c:193
	snake.snakeX[0]=0;
    18e0:	00091223          	sh	zero,4(s2)
D:\Hummingbird\HBird-workspace\pico_test_1\Debug/../src/newsnake.c:206
	hdmi_draw_string(80,50,"You dead!!!",20);
    18e4:	3209                	jal	11e6 <hdmi_draw_string>
D:\Hummingbird\HBird-workspace\pico_test_1\Debug/../src/newsnake.c:207
	hdmi_draw_string(50,70,"Press 'X'to restart",20);
    18e6:	00003637          	lui	a2,0x3
    18ea:	46d1                	li	a3,20
    18ec:	7c460613          	addi	a2,a2,1988 # 37c4 <bitmap_bytes+0x11c>
    18f0:	04600593          	li	a1,70
    18f4:	03200513          	li	a0,50
    18f8:	30fd                	jal	11e6 <hdmi_draw_string>
D:\Hummingbird\HBird-workspace\pico_test_1\Debug/../src/newsnake.c:208
	hdmi_draw_string(250,70,"Score:",22);
    18fa:	00003637          	lui	a2,0x3
    18fe:	46d9                	li	a3,22
    1900:	7d860613          	addi	a2,a2,2008 # 37d8 <bitmap_bytes+0x130>
    1904:	04600593          	li	a1,70
    1908:	0fa00513          	li	a0,250
    190c:	38e9                	jal	11e6 <hdmi_draw_string>
D:\Hummingbird\HBird-workspace\pico_test_1\Debug/../src/newsnake.c:209
	hdmi_draw_num(260,90,score,2,23);
    190e:	6a200413          	li	s0,1698
    1912:	00045603          	lhu	a2,0(s0)
    1916:	475d                	li	a4,23
    1918:	4689                	li	a3,2
    191a:	05a00593          	li	a1,90
    191e:	10400513          	li	a0,260
    1922:	3291                	jal	1266 <hdmi_draw_num>
D:\Hummingbird\HBird-workspace\pico_test_1\Debug/../src/newsnake.c:210
	getps2 = 0;
    1924:	6a000993          	li	s3,1696
D:\Hummingbird\HBird-workspace\pico_test_1\Debug/../src/newsnake.c:211
	score = 0;
    1928:	00041023          	sh	zero,0(s0)
D:\Hummingbird\HBird-workspace\pico_test_1\Debug/../src/newsnake.c:210
	getps2 = 0;
    192c:	00098023          	sb	zero,0(s3)
D:\Hummingbird\HBird-workspace\pico_test_1\Debug/../src/newsnake.c:212
	while(getps2 == 0){
    1930:	4781                	li	a5,0
D:\Hummingbird\HBird-workspace\pico_test_1\Debug/../src/newsnake.c:213
		getps2 = *ps2ctrl_point;
    1932:	64a1                	lui	s1,0x8
D:\Hummingbird\HBird-workspace\pico_test_1\Debug/../src/newsnake.c:214
		if(getps2  == 0b00000010){
    1934:	4409                	li	s0,2
    1936:	4a05                	li	s4,1
D:\Hummingbird\HBird-workspace\pico_test_1\Debug/../src/newsnake.c:212
	while(getps2 == 0){
    1938:	4701                	li	a4,0
    193a:	e38d                	bnez	a5,195c <dead+0xb8>
D:\Hummingbird\HBird-workspace\pico_test_1\Debug/../src/newsnake.c:213
		getps2 = *ps2ctrl_point;
    193c:	1004a783          	lw	a5,256(s1) # 8100 <_etext+0x4674>
    1940:	4705                	li	a4,1
    1942:	0ff7f793          	andi	a5,a5,255
D:\Hummingbird\HBird-workspace\pico_test_1\Debug/../src/newsnake.c:214
		if(getps2  == 0b00000010){
    1946:	fe879ae3          	bne	a5,s0,193a <dead+0x96>
    194a:	00f98023          	sb	a5,0(s3)
D:\Hummingbird\HBird-workspace\pico_test_1\Debug/../src/newsnake.c:215
			snake.life=1;  //死了之后点击重新开始
    194e:	01490023          	sb	s4,0(s2)
D:\Hummingbird\HBird-workspace\pico_test_1\Debug/../src/newsnake.c:216
			snakeInit();
    1952:	35f5                	jal	183e <snakeInit>
    1954:	0009c783          	lbu	a5,0(s3)
D:\Hummingbird\HBird-workspace\pico_test_1\Debug/../src/newsnake.c:212
	while(getps2 == 0){
    1958:	4701                	li	a4,0
    195a:	b7c5                	j	193a <dead+0x96>
    195c:	eb09                	bnez	a4,196e <dead+0xca>
D:\Hummingbird\HBird-workspace\pico_test_1\Debug/../src/newsnake.c:219
		}
	}
}
    195e:	40f2                	lw	ra,28(sp)
    1960:	4462                	lw	s0,24(sp)
    1962:	44d2                	lw	s1,20(sp)
    1964:	4942                	lw	s2,16(sp)
    1966:	49b2                	lw	s3,12(sp)
    1968:	4a22                	lw	s4,8(sp)
    196a:	6105                	addi	sp,sp,32
    196c:	8082                	ret
    196e:	00f98023          	sb	a5,0(s3)
    1972:	b7f5                	j	195e <dead+0xba>

00001974 <snakeGo>:
snakeGo():
D:\Hummingbird\HBird-workspace\pico_test_1\Debug/../src/newsnake.c:50
void snakeGo(int direct){
    1974:	1141                	addi	sp,sp,-16
    1976:	c422                	sw	s0,8(sp)
    1978:	c606                	sw	ra,12(sp)
D:\Hummingbird\HBird-workspace\pico_test_1\Debug/../src/newsnake.c:52
	if(snake.life==1){
    197a:	43000413          	li	s0,1072
    197e:	00044703          	lbu	a4,0(s0)
    1982:	4785                	li	a5,1
    1984:	06f70263          	beq	a4,a5,19e8 <snakeGo+0x74>
    1988:	00244603          	lbu	a2,2(s0)
D:\Hummingbird\HBird-workspace\pico_test_1\Debug/../src/newsnake.c:92
	if(snake.headY<230&&snake.headY>10&&snake.headX<230&&snake.headX>10&&isNearSelf()){
    198c:	ff560793          	addi	a5,a2,-11
    1990:	0ff7f793          	andi	a5,a5,255
    1994:	0da00713          	li	a4,218
    1998:	04f76463          	bltu	a4,a5,19e0 <snakeGo+0x6c>
D:\Hummingbird\HBird-workspace\pico_test_1\Debug/../src/newsnake.c:92 (discriminator 1)
    199c:	00144683          	lbu	a3,1(s0)
    19a0:	ff568793          	addi	a5,a3,-11
    19a4:	0ff7f793          	andi	a5,a5,255
    19a8:	02f76c63          	bltu	a4,a5,19e0 <snakeGo+0x6c>
isNearSelf():
D:\Hummingbird\HBird-workspace\pico_test_1\Debug/../src/newsnake.c:162
	for(i=1;i<snake.length;i++){
    19ac:	25b44583          	lbu	a1,603(s0)
    19b0:	4785                	li	a5,1
    19b2:	0eb7f463          	bleu	a1,a5,1a9a <snakeGo+0x126>
    19b6:	ffe58713          	addi	a4,a1,-2
    19ba:	0ff77713          	andi	a4,a4,255
    19be:	00540593          	addi	a1,s0,5
    19c2:	00440793          	addi	a5,s0,4
    19c6:	95ba                	add	a1,a1,a4
    19c8:	a021                	j	19d0 <snakeGo+0x5c>
    19ca:	0785                	addi	a5,a5,1
    19cc:	0cb78763          	beq	a5,a1,1a9a <snakeGo+0x126>
D:\Hummingbird\HBird-workspace\pico_test_1\Debug/../src/newsnake.c:163
		if(snake.snakeX[i]==snake.headX&&snake.snakeY[i]==snake.headY)
    19d0:	0007c703          	lbu	a4,0(a5)
    19d4:	fed71be3          	bne	a4,a3,19ca <snakeGo+0x56>
    19d8:	12c7c703          	lbu	a4,300(a5)
    19dc:	fec717e3          	bne	a4,a2,19ca <snakeGo+0x56>
snakeGo():
D:\Hummingbird\HBird-workspace\pico_test_1\Debug/../src/newsnake.c:98
}
    19e0:	4422                	lw	s0,8(sp)
    19e2:	40b2                	lw	ra,12(sp)
    19e4:	0141                	addi	sp,sp,16
D:\Hummingbird\HBird-workspace\pico_test_1\Debug/../src/newsnake.c:96
		dead();
    19e6:	bd7d                	j	18a4 <dead>
D:\Hummingbird\HBird-workspace\pico_test_1\Debug/../src/newsnake.c:53
		if(abs(direct)!=abs(snake.dir) && direct != 0){	//如果按下的方向不是和运动的方向相同或相反
    19e8:	25c42783          	lw	a5,604(s0)
    19ec:	41f55593          	srai	a1,a0,0x1f
    19f0:	00a5c6b3          	xor	a3,a1,a0
    19f4:	41f7d613          	srai	a2,a5,0x1f
    19f8:	00f64733          	xor	a4,a2,a5
    19fc:	8e8d                	sub	a3,a3,a1
    19fe:	8f11                	sub	a4,a4,a2
    1a00:	00e68363          	beq	a3,a4,1a06 <snakeGo+0x92>
D:\Hummingbird\HBird-workspace\pico_test_1\Debug/../src/newsnake.c:53 (discriminator 1)
    1a04:	ed35                	bnez	a0,1a80 <snakeGo+0x10c>
D:\Hummingbird\HBird-workspace\pico_test_1\Debug/../src/newsnake.c:58
		switch(direct){
    1a06:	577d                	li	a4,-1
    1a08:	0ee78e63          	beq	a5,a4,1b04 <snakeGo+0x190>
    1a0c:	0607ce63          	bltz	a5,1a88 <snakeGo+0x114>
    1a10:	4705                	li	a4,1
    1a12:	0ee78f63          	beq	a5,a4,1b10 <snakeGo+0x19c>
    1a16:	4709                	li	a4,2
    1a18:	00e79763          	bne	a5,a4,1a26 <snakeGo+0xb2>
D:\Hummingbird\HBird-workspace\pico_test_1\Debug/../src/newsnake.c:66
				snake.headX-=10;  //左：蛇的身体是有半径为5的圆组成，每运动一格的单位为10
    1a1c:	00144783          	lbu	a5,1(s0)
    1a20:	17d9                	addi	a5,a5,-10
    1a22:	00f400a3          	sb	a5,1(s0)
D:\Hummingbird\HBird-workspace\pico_test_1\Debug/../src/newsnake.c:72
		if(snake.headX==snake.foodX&&snake.headY==snake.foodY){ //如果吃到了食物
    1a26:	401c                	lw	a5,0(s0)
    1a28:	26441683          	lh	a3,612(s0)
    1a2c:	6741                	lui	a4,0x10
    1a2e:	07a2                	slli	a5,a5,0x8
    1a30:	177d                	addi	a4,a4,-1
    1a32:	87c1                	srai	a5,a5,0x10
    1a34:	8ff9                	and	a5,a5,a4
    1a36:	8ef9                	and	a3,a3,a4
    1a38:	25b44703          	lbu	a4,603(s0)
    1a3c:	06d78663          	beq	a5,a3,1aa8 <snakeGo+0x134>
D:\Hummingbird\HBird-workspace\pico_test_1\Debug/../src/newsnake.c:83
			for(i=1;i<snake.length;i++){
    1a40:	4785                	li	a5,1
    1a42:	02e7f663          	bleu	a4,a5,1a6e <snakeGo+0xfa>
    1a46:	ffe70693          	addi	a3,a4,-2 # fffe <_etext+0xc572>
    1a4a:	00170793          	addi	a5,a4,1
    1a4e:	0ff6f693          	andi	a3,a3,255
    1a52:	9722                	add	a4,a4,s0
    1a54:	97a2                	add	a5,a5,s0
    1a56:	8f15                	sub	a4,a4,a3
D:\Hummingbird\HBird-workspace\pico_test_1\Debug/../src/newsnake.c:84 (discriminator 3)
				snake.snakeX[snake.length-i]=snake.snakeX[snake.length-i-1];
    1a58:	0007c603          	lbu	a2,0(a5)
D:\Hummingbird\HBird-workspace\pico_test_1\Debug/../src/newsnake.c:85 (discriminator 3)
				snake.snakeY[snake.length-i]=snake.snakeY[snake.length-i-1];
    1a5c:	12c7c683          	lbu	a3,300(a5)
    1a60:	17fd                	addi	a5,a5,-1
D:\Hummingbird\HBird-workspace\pico_test_1\Debug/../src/newsnake.c:84 (discriminator 3)
				snake.snakeX[snake.length-i]=snake.snakeX[snake.length-i-1];
    1a62:	00c78123          	sb	a2,2(a5)
D:\Hummingbird\HBird-workspace\pico_test_1\Debug/../src/newsnake.c:85 (discriminator 3)
				snake.snakeY[snake.length-i]=snake.snakeY[snake.length-i-1];
    1a66:	12d78723          	sb	a3,302(a5)
D:\Hummingbird\HBird-workspace\pico_test_1\Debug/../src/newsnake.c:83 (discriminator 3)
			for(i=1;i<snake.length;i++){
    1a6a:	fee797e3          	bne	a5,a4,1a58 <snakeGo+0xe4>
D:\Hummingbird\HBird-workspace\pico_test_1\Debug/../src/newsnake.c:87
			snake.snakeX[0]=snake.headX;
    1a6e:	00144783          	lbu	a5,1(s0)
D:\Hummingbird\HBird-workspace\pico_test_1\Debug/../src/newsnake.c:88
			snake.snakeY[0]=snake.headY;
    1a72:	00244603          	lbu	a2,2(s0)
D:\Hummingbird\HBird-workspace\pico_test_1\Debug/../src/newsnake.c:87
			snake.snakeX[0]=snake.headX;
    1a76:	00f401a3          	sb	a5,3(s0)
D:\Hummingbird\HBird-workspace\pico_test_1\Debug/../src/newsnake.c:88
			snake.snakeY[0]=snake.headY;
    1a7a:	12c407a3          	sb	a2,303(s0)
    1a7e:	b739                	j	198c <snakeGo+0x18>
D:\Hummingbird\HBird-workspace\pico_test_1\Debug/../src/newsnake.c:54
			snake.dir=direct; //将蛇运动的方向改变为按下的方向
    1a80:	24a42e23          	sw	a0,604(s0)
    1a84:	87aa                	mv	a5,a0
    1a86:	b741                	j	1a06 <snakeGo+0x92>
D:\Hummingbird\HBird-workspace\pico_test_1\Debug/../src/newsnake.c:58
		switch(direct){
    1a88:	5779                	li	a4,-2
    1a8a:	f8e79ee3          	bne	a5,a4,1a26 <snakeGo+0xb2>
D:\Hummingbird\HBird-workspace\pico_test_1\Debug/../src/newsnake.c:69
				snake.headX+=10;  //右：蛇的身体是有半径为5的圆组成，每运动一格的单位为10
    1a8e:	00144783          	lbu	a5,1(s0)
    1a92:	07a9                	addi	a5,a5,10
    1a94:	00f400a3          	sb	a5,1(s0)
D:\Hummingbird\HBird-workspace\pico_test_1\Debug/../src/newsnake.c:70
			break;
    1a98:	b779                	j	1a26 <snakeGo+0xb2>
D:\Hummingbird\HBird-workspace\pico_test_1\Debug/../src/newsnake.c:93
		snake.life=1;
    1a9a:	4785                	li	a5,1
    1a9c:	00f40023          	sb	a5,0(s0)
D:\Hummingbird\HBird-workspace\pico_test_1\Debug/../src/newsnake.c:98
}
    1aa0:	40b2                	lw	ra,12(sp)
    1aa2:	4422                	lw	s0,8(sp)
    1aa4:	0141                	addi	sp,sp,16
    1aa6:	8082                	ret
D:\Hummingbird\HBird-workspace\pico_test_1\Debug/../src/newsnake.c:74
			score++;
    1aa8:	6a200793          	li	a5,1698
    1aac:	0007d603          	lhu	a2,0(a5)
D:\Hummingbird\HBird-workspace\pico_test_1\Debug/../src/newsnake.c:73
			snake.length++;  //长度加1
    1ab0:	00170693          	addi	a3,a4,1
    1ab4:	0ff6f693          	andi	a3,a3,255
D:\Hummingbird\HBird-workspace\pico_test_1\Debug/../src/newsnake.c:74
			score++;
    1ab8:	0605                	addi	a2,a2,1
    1aba:	00c79023          	sh	a2,0(a5)
D:\Hummingbird\HBird-workspace\pico_test_1\Debug/../src/newsnake.c:73
			snake.length++;  //长度加1
    1abe:	24d40da3          	sb	a3,603(s0)
D:\Hummingbird\HBird-workspace\pico_test_1\Debug/../src/newsnake.c:75
			for(i=1;i<snake.length;i++){ //除头部以外的坐标前移
    1ac2:	4785                	li	a5,1
    1ac4:	02d7f663          	bleu	a3,a5,1af0 <snakeGo+0x17c>
    1ac8:	177d                	addi	a4,a4,-1
    1aca:	00168793          	addi	a5,a3,1
    1ace:	0ff77713          	andi	a4,a4,255
    1ad2:	96a2                	add	a3,a3,s0
    1ad4:	97a2                	add	a5,a5,s0
    1ad6:	40e68733          	sub	a4,a3,a4
D:\Hummingbird\HBird-workspace\pico_test_1\Debug/../src/newsnake.c:76 (discriminator 3)
				snake.snakeX[snake.length-i]=snake.snakeX[snake.length-i-1];
    1ada:	0007c603          	lbu	a2,0(a5)
D:\Hummingbird\HBird-workspace\pico_test_1\Debug/../src/newsnake.c:77 (discriminator 3)
				snake.snakeY[snake.length-i]=snake.snakeY[snake.length-i-1];
    1ade:	12c7c683          	lbu	a3,300(a5)
    1ae2:	17fd                	addi	a5,a5,-1
D:\Hummingbird\HBird-workspace\pico_test_1\Debug/../src/newsnake.c:76 (discriminator 3)
				snake.snakeX[snake.length-i]=snake.snakeX[snake.length-i-1];
    1ae4:	00c78123          	sb	a2,2(a5)
D:\Hummingbird\HBird-workspace\pico_test_1\Debug/../src/newsnake.c:77 (discriminator 3)
				snake.snakeY[snake.length-i]=snake.snakeY[snake.length-i-1];
    1ae8:	12d78723          	sb	a3,302(a5)
D:\Hummingbird\HBird-workspace\pico_test_1\Debug/../src/newsnake.c:75 (discriminator 3)
			for(i=1;i<snake.length;i++){ //除头部以外的坐标前移
    1aec:	fee797e3          	bne	a5,a4,1ada <snakeGo+0x166>
D:\Hummingbird\HBird-workspace\pico_test_1\Debug/../src/newsnake.c:79
			snake.snakeX[0]=snake.foodX; //头部坐标等于食物的坐标
    1af0:	26444703          	lbu	a4,612(s0)
D:\Hummingbird\HBird-workspace\pico_test_1\Debug/../src/newsnake.c:80
			snake.snakeY[0]=snake.foodY;
    1af4:	26544783          	lbu	a5,613(s0)
D:\Hummingbird\HBird-workspace\pico_test_1\Debug/../src/newsnake.c:79
			snake.snakeX[0]=snake.foodX; //头部坐标等于食物的坐标
    1af8:	00e401a3          	sb	a4,3(s0)
D:\Hummingbird\HBird-workspace\pico_test_1\Debug/../src/newsnake.c:80
			snake.snakeY[0]=snake.foodY;
    1afc:	12f407a3          	sb	a5,303(s0)
D:\Hummingbird\HBird-workspace\pico_test_1\Debug/../src/newsnake.c:81
			generateFood();  //再生成一个食物
    1b00:	39a5                	jal	1778 <generateFood>
    1b02:	b559                	j	1988 <snakeGo+0x14>
D:\Hummingbird\HBird-workspace\pico_test_1\Debug/../src/newsnake.c:63
				snake.headY+=10;  //下：蛇的身体是有半径为5的圆组成，每运动一格的单位为10
    1b04:	00244783          	lbu	a5,2(s0)
    1b08:	07a9                	addi	a5,a5,10
    1b0a:	00f40123          	sb	a5,2(s0)
D:\Hummingbird\HBird-workspace\pico_test_1\Debug/../src/newsnake.c:64
			break;
    1b0e:	bf21                	j	1a26 <snakeGo+0xb2>
D:\Hummingbird\HBird-workspace\pico_test_1\Debug/../src/newsnake.c:60
				snake.headY-=10;  //上：蛇的身体是有半径为5的圆组成，每运动一格的单位为10
    1b10:	00244783          	lbu	a5,2(s0)
    1b14:	17d9                	addi	a5,a5,-10
    1b16:	00f40123          	sb	a5,2(s0)
D:\Hummingbird\HBird-workspace\pico_test_1\Debug/../src/newsnake.c:61
			break;
    1b1a:	b731                	j	1a26 <snakeGo+0xb2>

00001b1c <GameStart>:
GameStart():
D:\Hummingbird\HBird-workspace\pico_test_1\Debug/../src/newsnake.c:124
void GameStart(){
    1b1c:	7179                	addi	sp,sp,-48
D:\Hummingbird\HBird-workspace\pico_test_1\Debug/../src/newsnake.c:125
	hdmi_drawrectangle(10,10,230,230,25);
    1b1e:	4765                	li	a4,25
    1b20:	0e600693          	li	a3,230
    1b24:	0e600613          	li	a2,230
    1b28:	45a9                	li	a1,10
    1b2a:	4529                	li	a0,10
D:\Hummingbird\HBird-workspace\pico_test_1\Debug/../src/newsnake.c:124
void GameStart(){
    1b2c:	d606                	sw	ra,44(sp)
    1b2e:	d226                	sw	s1,36(sp)
    1b30:	d04a                	sw	s2,32(sp)
    1b32:	ce4e                	sw	s3,28(sp)
    1b34:	cc52                	sw	s4,24(sp)
    1b36:	ca56                	sw	s5,20(sp)
    1b38:	c85a                	sw	s6,16(sp)
    1b3a:	c462                	sw	s8,8(sp)
    1b3c:	d422                	sw	s0,40(sp)
    1b3e:	c65e                	sw	s7,12(sp)
    1b40:	c266                	sw	s9,4(sp)
D:\Hummingbird\HBird-workspace\pico_test_1\Debug/../src/newsnake.c:125
	hdmi_drawrectangle(10,10,230,230,25);
    1b42:	3251                	jal	14c6 <hdmi_drawrectangle>
D:\Hummingbird\HBird-workspace\pico_test_1\Debug/../src/newsnake.c:126
	hdmi_draw_string(250,70,"Score:",22);
    1b44:	00003637          	lui	a2,0x3
    1b48:	46d9                	li	a3,22
    1b4a:	7d860613          	addi	a2,a2,2008 # 37d8 <bitmap_bytes+0x130>
    1b4e:	04600593          	li	a1,70
    1b52:	0fa00513          	li	a0,250
    1b56:	e90ff0ef          	jal	ra,11e6 <hdmi_draw_string>
D:\Hummingbird\HBird-workspace\pico_test_1\Debug/../src/newsnake.c:127
	hdmi_draw_num(260,90,score,2,23);
    1b5a:	6a205603          	lhu	a2,1698(zero) # 6a2 <score>
    1b5e:	475d                	li	a4,23
    1b60:	4689                	li	a3,2
    1b62:	05a00593          	li	a1,90
    1b66:	10400513          	li	a0,260
    1b6a:	efcff0ef          	jal	ra,1266 <hdmi_draw_num>
    1b6e:	6a100993          	li	s3,1697
D:\Hummingbird\HBird-workspace\pico_test_1\Debug/../src/newsnake.c:128
	snakeInit();
    1b72:	31f1                	jal	183e <snakeInit>
    1b74:	6a000b13          	li	s6,1696
    1b78:	43000493          	li	s1,1072
D:\Hummingbird\HBird-workspace\pico_test_1\Debug/../src/newsnake.c:124
void GameStart(){
    1b7c:	00049a37          	lui	s4,0x49
snakeDelay():
D:\Hummingbird\HBird-workspace\pico_test_1\Debug/../src/newsnake.c:17
		if(getps2 != 0) key_val = (getps2>>4);
    1b80:	4905                	li	s2,1
GameStart():
D:\Hummingbird\HBird-workspace\pico_test_1\Debug/../src/newsnake.c:135
			case 2:snake.tpdir = -1;break;//下
    1b82:	5c7d                	li	s8,-1
D:\Hummingbird\HBird-workspace\pico_test_1\Debug/../src/newsnake.c:133
		switch(key_val){
    1b84:	4a91                	li	s5,4
snakeDelay():
D:\Hummingbird\HBird-workspace\pico_test_1\Debug/../src/newsnake.c:16
		getps2 = *ps2ctrl_point;
    1b86:	6421                	lui	s0,0x8
GameStart():
D:\Hummingbird\HBird-workspace\pico_test_1\Debug/../src/newsnake.c:133
		switch(key_val){
    1b88:	4c89                	li	s9,2
    1b8a:	4ba1                	li	s7,8
    1b8c:	0009c583          	lbu	a1,0(s3)
D:\Hummingbird\HBird-workspace\pico_test_1\Debug/../src/newsnake.c:124
void GameStart(){
    1b90:	3e0a0713          	addi	a4,s4,992 # 493e0 <_etext+0x45954>
    1b94:	4601                	li	a2,0
    1b96:	86ae                	mv	a3,a1
snakeDelay():
D:\Hummingbird\HBird-workspace\pico_test_1\Debug/../src/newsnake.c:16
		getps2 = *ps2ctrl_point;
    1b98:	10042783          	lw	a5,256(s0) # 8100 <_etext+0x4674>
    1b9c:	177d                	addi	a4,a4,-1
    1b9e:	0ff7f793          	andi	a5,a5,255
D:\Hummingbird\HBird-workspace\pico_test_1\Debug/../src/newsnake.c:17
		if(getps2 != 0) key_val = (getps2>>4);
    1ba2:	c781                	beqz	a5,1baa <GameStart+0x8e>
    1ba4:	0047d693          	srli	a3,a5,0x4
    1ba8:	4605                	li	a2,1
D:\Hummingbird\HBird-workspace\pico_test_1\Debug/../src/newsnake.c:15
	while(delaycnt--){
    1baa:	f77d                	bnez	a4,1b98 <GameStart+0x7c>
    1bac:	00fb0023          	sb	a5,0(s6)
    1bb0:	e629                	bnez	a2,1bfa <GameStart+0xde>
GameStart():
D:\Hummingbird\HBird-workspace\pico_test_1\Debug/../src/newsnake.c:133
		switch(key_val){
    1bb2:	05958063          	beq	a1,s9,1bf2 <GameStart+0xd6>
    1bb6:	02bcf163          	bleu	a1,s9,1bd8 <GameStart+0xbc>
    1bba:	03558863          	beq	a1,s5,1bea <GameStart+0xce>
    1bbe:	03759363          	bne	a1,s7,1be4 <GameStart+0xc8>
D:\Hummingbird\HBird-workspace\pico_test_1\Debug/../src/newsnake.c:137
			case 8:snake.tpdir = -2;break;//右
    1bc2:	57f9                	li	a5,-2
    1bc4:	26f4a023          	sw	a5,608(s1)
    1bc8:	5579                	li	a0,-2
D:\Hummingbird\HBird-workspace\pico_test_1\Debug/../src/newsnake.c:139
		snakeGo(snake.tpdir);
    1bca:	336d                	jal	1974 <snakeGo>
refresh():
D:\Hummingbird\HBird-workspace\pico_test_1\Debug/../src/newsnake.c:104
	if(snake.life==1){
    1bcc:	0004c783          	lbu	a5,0(s1)
    1bd0:	fb279ee3          	bne	a5,s2,1b8c <GameStart+0x70>
    1bd4:	348d                	jal	1636 <refresh.part.0>
    1bd6:	bf45                	j	1b86 <GameStart+0x6a>
GameStart():
D:\Hummingbird\HBird-workspace\pico_test_1\Debug/../src/newsnake.c:133
		switch(key_val){
    1bd8:	01259663          	bne	a1,s2,1be4 <GameStart+0xc8>
D:\Hummingbird\HBird-workspace\pico_test_1\Debug/../src/newsnake.c:134
			case 1:snake.tpdir = 1;break;//上
    1bdc:	2724a023          	sw	s2,608(s1)
    1be0:	4505                	li	a0,1
    1be2:	b7e5                	j	1bca <GameStart+0xae>
    1be4:	2604a503          	lw	a0,608(s1)
    1be8:	b7cd                	j	1bca <GameStart+0xae>
D:\Hummingbird\HBird-workspace\pico_test_1\Debug/../src/newsnake.c:136
			case 4:snake.tpdir = 2;break;//左
    1bea:	2794a023          	sw	s9,608(s1)
    1bee:	4509                	li	a0,2
    1bf0:	bfe9                	j	1bca <GameStart+0xae>
D:\Hummingbird\HBird-workspace\pico_test_1\Debug/../src/newsnake.c:135
			case 2:snake.tpdir = -1;break;//下
    1bf2:	2784a023          	sw	s8,608(s1)
    1bf6:	557d                	li	a0,-1
    1bf8:	bfc9                	j	1bca <GameStart+0xae>
    1bfa:	00d98023          	sb	a3,0(s3)
snakeDelay():
D:\Hummingbird\HBird-workspace\pico_test_1\Debug/../src/newsnake.c:15
	while(delaycnt--){
    1bfe:	85b6                	mv	a1,a3
    1c00:	bf4d                	j	1bb2 <GameStart+0x96>

00001c02 <print_num>:
print_num():
D:\Hummingbird\HBird-workspace\pico_test_1\Debug/../src/uart.c:14
 ** 输出参数：无
 ** 返回参数：无
 ********************************************************************/
void print_num(uint32_t num, int base)
{
	if(num == 0)
    1c02:	e111                	bnez	a0,1c06 <print_num+0x4>
D:\Hummingbird\HBird-workspace\pico_test_1\Debug/../src/uart.c:20
	{
		return;
	}
	print_num(num/base, base);
	put_char("0123456789abcdef"[num%base]);							//逆序打印结果
}
    1c04:	8082                	ret
    1c06:	a009                	j	1c08 <print_num.part.0>

00001c08 <print_num.part.0>:
D:\Hummingbird\HBird-workspace\pico_test_1\Debug/../src/uart.c:12
void print_num(uint32_t num, int base)
    1c08:	1141                	addi	sp,sp,-16
    1c0a:	c422                	sw	s0,8(sp)
    1c0c:	842a                	mv	s0,a0
D:\Hummingbird\HBird-workspace\pico_test_1\Debug/../src/uart.c:18
	print_num(num/base, base);
    1c0e:	02b55533          	divu	a0,a0,a1
D:\Hummingbird\HBird-workspace\pico_test_1\Debug/../src/uart.c:12
void print_num(uint32_t num, int base)
    1c12:	c226                	sw	s1,4(sp)
    1c14:	84ae                	mv	s1,a1
    1c16:	c606                	sw	ra,12(sp)
D:\Hummingbird\HBird-workspace\pico_test_1\Debug/../src/uart.c:18
	print_num(num/base, base);
    1c18:	37ed                	jal	1c02 <print_num>
D:\Hummingbird\HBird-workspace\pico_test_1\Debug/../src/uart.c:19
	put_char("0123456789abcdef"[num%base]);							//逆序打印结果
    1c1a:	02947433          	remu	s0,s0,s1
    1c1e:	000047b7          	lui	a5,0x4
    1c22:	93878793          	addi	a5,a5,-1736 # 3938 <bitmap_bytes+0x290>
put_char():
D:\Hummingbird\HBird-workspace\pico_test_1\Debug/../src/uart.c:31
 ** 输出参数：无
 ** 返回参数：无
 ********************************************************************/
void put_char(char c)
{
	if (c == '\n')
    1c26:	4729                	li	a4,10
print_num():
D:\Hummingbird\HBird-workspace\pico_test_1\Debug/../src/uart.c:19
	put_char("0123456789abcdef"[num%base]);							//逆序打印结果
    1c28:	943e                	add	s0,s0,a5
    1c2a:	00040783          	lb	a5,0(s0)
put_char():
D:\Hummingbird\HBird-workspace\pico_test_1\Debug/../src/uart.c:31
	if (c == '\n')
    1c2e:	00e78963          	beq	a5,a4,1c40 <print_num.part.0+0x38>
print_num():
D:\Hummingbird\HBird-workspace\pico_test_1\Debug/../src/uart.c:20
}
    1c32:	40b2                	lw	ra,12(sp)
    1c34:	4422                	lw	s0,8(sp)
put_char():
D:\Hummingbird\HBird-workspace\pico_test_1\Debug/../src/uart.c:33
		put_char('\r');
	reg_uart_data = c;
    1c36:	6721                	lui	a4,0x8
    1c38:	cb1c                	sw	a5,16(a4)
print_num():
D:\Hummingbird\HBird-workspace\pico_test_1\Debug/../src/uart.c:20
}
    1c3a:	4492                	lw	s1,4(sp)
    1c3c:	0141                	addi	sp,sp,16
    1c3e:	8082                	ret
put_char():
D:\Hummingbird\HBird-workspace\pico_test_1\Debug/../src/uart.c:33
	reg_uart_data = c;
    1c40:	6721                	lui	a4,0x8
print_num():
D:\Hummingbird\HBird-workspace\pico_test_1\Debug/../src/uart.c:20
}
    1c42:	40b2                	lw	ra,12(sp)
    1c44:	4422                	lw	s0,8(sp)
put_char():
D:\Hummingbird\HBird-workspace\pico_test_1\Debug/../src/uart.c:33
	reg_uart_data = c;
    1c46:	46b5                	li	a3,13
    1c48:	cb14                	sw	a3,16(a4)
    1c4a:	6721                	lui	a4,0x8
    1c4c:	cb1c                	sw	a5,16(a4)
print_num():
D:\Hummingbird\HBird-workspace\pico_test_1\Debug/../src/uart.c:20
}
    1c4e:	4492                	lw	s1,4(sp)
    1c50:	0141                	addi	sp,sp,16
    1c52:	8082                	ret

00001c54 <put_char>:
put_char():
D:\Hummingbird\HBird-workspace\pico_test_1\Debug/../src/uart.c:30
{
    1c54:	1141                	addi	sp,sp,-16
    1c56:	c422                	sw	s0,8(sp)
    1c58:	c606                	sw	ra,12(sp)
D:\Hummingbird\HBird-workspace\pico_test_1\Debug/../src/uart.c:31
	if (c == '\n')
    1c5a:	47a9                	li	a5,10
D:\Hummingbird\HBird-workspace\pico_test_1\Debug/../src/uart.c:30
{
    1c5c:	842a                	mv	s0,a0
D:\Hummingbird\HBird-workspace\pico_test_1\Debug/../src/uart.c:31
	if (c == '\n')
    1c5e:	00f50863          	beq	a0,a5,1c6e <put_char+0x1a>
D:\Hummingbird\HBird-workspace\pico_test_1\Debug/../src/uart.c:33
	reg_uart_data = c;
    1c62:	67a1                	lui	a5,0x8
    1c64:	cb80                	sw	s0,16(a5)
D:\Hummingbird\HBird-workspace\pico_test_1\Debug/../src/uart.c:34
}
    1c66:	40b2                	lw	ra,12(sp)
    1c68:	4422                	lw	s0,8(sp)
    1c6a:	0141                	addi	sp,sp,16
    1c6c:	8082                	ret
D:\Hummingbird\HBird-workspace\pico_test_1\Debug/../src/uart.c:32
		put_char('\r');
    1c6e:	4535                	li	a0,13
    1c70:	37d5                	jal	1c54 <put_char>
    1c72:	bfc5                	j	1c62 <put_char+0xe>

00001c74 <print_str>:
print_str():
D:\Hummingbird\HBird-workspace\pico_test_1\Debug/../src/uart.c:45
 ** 输出参数：无
 ** 返回参数：无
 ********************************************************************/
void print_str(const char *p)
{
	while (*p)
    1c74:	00050783          	lb	a5,0(a0)
    1c78:	c38d                	beqz	a5,1c9a <print_str+0x26>
put_char():
D:\Hummingbird\HBird-workspace\pico_test_1\Debug/../src/uart.c:31
	if (c == '\n')
    1c7a:	46a9                	li	a3,10
D:\Hummingbird\HBird-workspace\pico_test_1\Debug/../src/uart.c:33
	reg_uart_data = c;
    1c7c:	6721                	lui	a4,0x8
    1c7e:	4635                	li	a2,13
    1c80:	a029                	j	1c8a <print_str+0x16>
    1c82:	cb1c                	sw	a5,16(a4)
print_str():
D:\Hummingbird\HBird-workspace\pico_test_1\Debug/../src/uart.c:45
	while (*p)
    1c84:	00050783          	lb	a5,0(a0)
    1c88:	cb89                	beqz	a5,1c9a <print_str+0x26>
D:\Hummingbird\HBird-workspace\pico_test_1\Debug/../src/uart.c:46
		put_char(*(p++));
    1c8a:	0505                	addi	a0,a0,1
put_char():
D:\Hummingbird\HBird-workspace\pico_test_1\Debug/../src/uart.c:31
	if (c == '\n')
    1c8c:	fed79be3          	bne	a5,a3,1c82 <print_str+0xe>
D:\Hummingbird\HBird-workspace\pico_test_1\Debug/../src/uart.c:33
	reg_uart_data = c;
    1c90:	cb10                	sw	a2,16(a4)
    1c92:	cb1c                	sw	a5,16(a4)
print_str():
D:\Hummingbird\HBird-workspace\pico_test_1\Debug/../src/uart.c:45
	while (*p)
    1c94:	00050783          	lb	a5,0(a0)
    1c98:	fbed                	bnez	a5,1c8a <print_str+0x16>
D:\Hummingbird\HBird-workspace\pico_test_1\Debug/../src/uart.c:47
}
    1c9a:	8082                	ret

00001c9c <print_hex>:
print_hex():
D:\Hummingbird\HBird-workspace\pico_test_1\Debug/../src/uart.c:58
 ** 		digits：数据类型（十进制、十六进制、八进制）
 ** 输出参数：无
 ** 返回参数：无
 ********************************************************************/
void print_hex(uint32_t v, int digits)
{
    1c9c:	000046b7          	lui	a3,0x4
D:\Hummingbird\HBird-workspace\pico_test_1\Debug/../src/uart.c:59
	for (int i = 7; i >= 0; i--)
    1ca0:	471d                	li	a4,7
    1ca2:	93868693          	addi	a3,a3,-1736 # 3938 <bitmap_bytes+0x290>
D:\Hummingbird\HBird-workspace\pico_test_1\Debug/../src/uart.c:62
	{
		char c = "0123456789abcdef"[(v >> (4*i)) & 15];
		if (c == '0' && i >= digits)
    1ca6:	03000893          	li	a7,48
put_char():
D:\Hummingbird\HBird-workspace\pico_test_1\Debug/../src/uart.c:33
	reg_uart_data = c;
    1caa:	6621                	lui	a2,0x8
D:\Hummingbird\HBird-workspace\pico_test_1\Debug/../src/uart.c:31
	if (c == '\n')
    1cac:	4329                	li	t1,10
D:\Hummingbird\HBird-workspace\pico_test_1\Debug/../src/uart.c:33
	reg_uart_data = c;
    1cae:	4e35                	li	t3,13
print_hex():
D:\Hummingbird\HBird-workspace\pico_test_1\Debug/../src/uart.c:59
	for (int i = 7; i >= 0; i--)
    1cb0:	587d                	li	a6,-1
    1cb2:	a801                	j	1cc2 <print_hex+0x26>
put_char():
D:\Hummingbird\HBird-workspace\pico_test_1\Debug/../src/uart.c:31
	if (c == '\n')
    1cb4:	02678763          	beq	a5,t1,1ce2 <print_hex+0x46>
D:\Hummingbird\HBird-workspace\pico_test_1\Debug/../src/uart.c:33
	reg_uart_data = c;
    1cb8:	85ba                	mv	a1,a4
    1cba:	ca1c                	sw	a5,16(a2)
print_hex():
D:\Hummingbird\HBird-workspace\pico_test_1\Debug/../src/uart.c:59
	for (int i = 7; i >= 0; i--)
    1cbc:	177d                	addi	a4,a4,-1
    1cbe:	03070163          	beq	a4,a6,1ce0 <print_hex+0x44>
D:\Hummingbird\HBird-workspace\pico_test_1\Debug/../src/uart.c:61
		char c = "0123456789abcdef"[(v >> (4*i)) & 15];
    1cc2:	00271793          	slli	a5,a4,0x2
    1cc6:	00f557b3          	srl	a5,a0,a5
    1cca:	8bbd                	andi	a5,a5,15
    1ccc:	97b6                	add	a5,a5,a3
    1cce:	00078783          	lb	a5,0(a5) # 8000 <_etext+0x4574>
D:\Hummingbird\HBird-workspace\pico_test_1\Debug/../src/uart.c:62
		if (c == '0' && i >= digits)
    1cd2:	ff1791e3          	bne	a5,a7,1cb4 <print_hex+0x18>
D:\Hummingbird\HBird-workspace\pico_test_1\Debug/../src/uart.c:62 (discriminator 1)
    1cd6:	feb741e3          	blt	a4,a1,1cb8 <print_hex+0x1c>
D:\Hummingbird\HBird-workspace\pico_test_1\Debug/../src/uart.c:59
	for (int i = 7; i >= 0; i--)
    1cda:	177d                	addi	a4,a4,-1
    1cdc:	ff0713e3          	bne	a4,a6,1cc2 <print_hex+0x26>
D:\Hummingbird\HBird-workspace\pico_test_1\Debug/../src/uart.c:67
			continue;
		put_char(c);
		digits = i;
	}
}
    1ce0:	8082                	ret
put_char():
D:\Hummingbird\HBird-workspace\pico_test_1\Debug/../src/uart.c:33
	reg_uart_data = c;
    1ce2:	01c62823          	sw	t3,16(a2) # 8010 <_etext+0x4584>
    1ce6:	bfc9                	j	1cb8 <print_hex+0x1c>

00001ce8 <print_hex2>:
print_hex2():
D:\Hummingbird\HBird-workspace\pico_test_1\Debug/../src/uart.c:78
 ** 输出参数：无
 ** 返回参数：无
 ********************************************************************/
void print_hex2(uint32_t hex)
{
	if(0 == hex)
    1ce8:	e511                	bnez	a0,1cf4 <print_hex2+0xc>
put_char():
D:\Hummingbird\HBird-workspace\pico_test_1\Debug/../src/uart.c:33
	reg_uart_data = c;
    1cea:	67a1                	lui	a5,0x8
    1cec:	03000713          	li	a4,48
    1cf0:	cb98                	sw	a4,16(a5)
print_hex2():
D:\Hummingbird\HBird-workspace\pico_test_1\Debug/../src/uart.c:87
	}
	else
	{
		print_num(hex, 16);											//打印十六进制数
	}
}
    1cf2:	8082                	ret
print_num():
    1cf4:	45c1                	li	a1,16
    1cf6:	bf09                	j	1c08 <print_num.part.0>

00001cf8 <print_dec>:
print_dec():
D:\Hummingbird\HBird-workspace\pico_test_1\Debug/../src/uart.c:97
 ** 输出参数：无
 ** 返回参数：无
 ********************************************************************/
void print_dec(uint32_t v)
{
	if(0 == v)
    1cf8:	e511                	bnez	a0,1d04 <print_dec+0xc>
put_char():
D:\Hummingbird\HBird-workspace\pico_test_1\Debug/../src/uart.c:33
	reg_uart_data = c;
    1cfa:	67a1                	lui	a5,0x8
    1cfc:	03000713          	li	a4,48
    1d00:	cb98                	sw	a4,16(a5)
print_dec():
D:\Hummingbird\HBird-workspace\pico_test_1\Debug/../src/uart.c:106
	}
	else
	{
		print_num(v, 10);											//打印十进制数
	}
}
    1d02:	8082                	ret
print_num():
    1d04:	45a9                	li	a1,10
    1d06:	b709                	j	1c08 <print_num.part.0>

00001d08 <print_flt>:
print_flt():
D:\Hummingbird\HBird-workspace\pico_test_1\Debug/../src/uart.c:116
 ** 输入参数：flt:打印的浮点数
 ** 输出参数：无
 ** 返回参数：无
 ********************************************************************/
void print_flt(double flt)
{
    1d08:	1101                	addi	sp,sp,-32
    1d0a:	cc22                	sw	s0,24(sp)
    1d0c:	c84a                	sw	s2,16(sp)
    1d0e:	c64e                	sw	s3,12(sp)
    1d10:	ce06                	sw	ra,28(sp)
    1d12:	ca26                	sw	s1,20(sp)
    1d14:	892a                	mv	s2,a0
    1d16:	89ae                	mv	s3,a1
D:\Hummingbird\HBird-workspace\pico_test_1\Debug/../src/uart.c:120
	uint32_t icnt = 0;
	uint32_t tmpint = 0;

	tmpint = (int)(flt);
    1d18:	158010ef          	jal	ra,2e70 <__fixdfsi>
    1d1c:	842a                	mv	s0,a0
print_dec():
D:\Hummingbird\HBird-workspace\pico_test_1\Debug/../src/uart.c:97
	if(0 == v)
    1d1e:	ed31                	bnez	a0,1d7a <print_flt+0x72>
put_char():
D:\Hummingbird\HBird-workspace\pico_test_1\Debug/../src/uart.c:33
	reg_uart_data = c;
    1d20:	67a1                	lui	a5,0x8
    1d22:	03000713          	li	a4,48
    1d26:	cb98                	sw	a4,16(a5)
    1d28:	02e00793          	li	a5,46
    1d2c:	64a1                	lui	s1,0x8
    1d2e:	c89c                	sw	a5,16(s1)
print_flt():
D:\Hummingbird\HBird-workspace\pico_test_1\Debug/../src/uart.c:123
	print_dec(tmpint);
	put_char('.');
	flt = flt - tmpint;
    1d30:	8522                	mv	a0,s0
    1d32:	1c2010ef          	jal	ra,2ef4 <__floatunsidf>
    1d36:	862a                	mv	a2,a0
    1d38:	86ae                	mv	a3,a1
    1d3a:	854a                	mv	a0,s2
    1d3c:	85ce                	mv	a1,s3
    1d3e:	0b3000ef          	jal	ra,25f0 <__subdf3>
D:\Hummingbird\HBird-workspace\pico_test_1\Debug/../src/uart.c:124
	tmpint = (int)(flt * 1000000);
    1d42:	000047b7          	lui	a5,0x4
    1d46:	9307a603          	lw	a2,-1744(a5) # 3930 <bitmap_bytes+0x288>
    1d4a:	9347a683          	lw	a3,-1740(a5)
    1d4e:	2c19                	jal	1f64 <__muldf3>
    1d50:	120010ef          	jal	ra,2e70 <__fixdfsi>
print_dec():
D:\Hummingbird\HBird-workspace\pico_test_1\Debug/../src/uart.c:97
	if(0 == v)
    1d54:	e919                	bnez	a0,1d6a <print_flt+0x62>
print_flt():
D:\Hummingbird\HBird-workspace\pico_test_1\Debug/../src/uart.c:126
	print_dec(tmpint);
}
    1d56:	40f2                	lw	ra,28(sp)
    1d58:	4462                	lw	s0,24(sp)
put_char():
D:\Hummingbird\HBird-workspace\pico_test_1\Debug/../src/uart.c:33
	reg_uart_data = c;
    1d5a:	03000793          	li	a5,48
    1d5e:	c89c                	sw	a5,16(s1)
print_flt():
D:\Hummingbird\HBird-workspace\pico_test_1\Debug/../src/uart.c:126
}
    1d60:	4942                	lw	s2,16(sp)
    1d62:	44d2                	lw	s1,20(sp)
    1d64:	49b2                	lw	s3,12(sp)
    1d66:	6105                	addi	sp,sp,32
    1d68:	8082                	ret
    1d6a:	4462                	lw	s0,24(sp)
    1d6c:	40f2                	lw	ra,28(sp)
    1d6e:	44d2                	lw	s1,20(sp)
    1d70:	4942                	lw	s2,16(sp)
    1d72:	49b2                	lw	s3,12(sp)
print_num():
    1d74:	45a9                	li	a1,10
print_flt():
    1d76:	6105                	addi	sp,sp,32
print_num():
    1d78:	bd41                	j	1c08 <print_num.part.0>
    1d7a:	45a9                	li	a1,10
    1d7c:	3571                	jal	1c08 <print_num.part.0>
    1d7e:	b76d                	j	1d28 <print_flt+0x20>

00001d80 <printk>:
printk():
D:\Hummingbird\HBird-workspace\pico_test_1\Debug/../src/uart.c:136
 ** 输入参数：fmt：打印的字符串内容
 ** 输出参数：无
 ** 返回参数：无
 ********************************************************************/
void printk(char *fmt, ...)
{
    1d80:	715d                	addi	sp,sp,-80
    1d82:	c0ba                	sw	a4,64(sp)
    1d84:	d606                	sw	ra,44(sp)
    1d86:	d422                	sw	s0,40(sp)
    1d88:	d226                	sw	s1,36(sp)
    1d8a:	d04a                	sw	s2,32(sp)
    1d8c:	ce4e                	sw	s3,28(sp)
    1d8e:	cc52                	sw	s4,24(sp)
    1d90:	ca56                	sw	s5,20(sp)
    1d92:	c85a                	sw	s6,16(sp)
    1d94:	da2e                	sw	a1,52(sp)
    1d96:	dc32                	sw	a2,56(sp)
    1d98:	de36                	sw	a3,60(sp)
    1d9a:	c2be                	sw	a5,68(sp)
    1d9c:	c4c2                	sw	a6,72(sp)
    1d9e:	c6c6                	sw	a7,76(sp)
D:\Hummingbird\HBird-workspace\pico_test_1\Debug/../src/uart.c:143
	va_list vp;

	va_start(vp, fmt);
	pfmt = fmt;

	while(*pfmt)
    1da0:	00050783          	lb	a5,0(a0)
D:\Hummingbird\HBird-workspace\pico_test_1\Debug/../src/uart.c:140
	va_start(vp, fmt);
    1da4:	1858                	addi	a4,sp,52
    1da6:	c63a                	sw	a4,12(sp)
D:\Hummingbird\HBird-workspace\pico_test_1\Debug/../src/uart.c:143
	while(*pfmt)
    1da8:	c3b9                	beqz	a5,1dee <printk+0x6e>
D:\Hummingbird\HBird-workspace\pico_test_1\Debug/../src/uart.c:149
	{
		switch(*pfmt)
		{
			case '%':
			{
				switch(*(pfmt + 1))
    1daa:	6a8d                	lui	s5,0x3
    1dac:	84aa                	mv	s1,a0
D:\Hummingbird\HBird-workspace\pico_test_1\Debug/../src/uart.c:145
		switch(*pfmt)
    1dae:	4929                	li	s2,10
put_char():
D:\Hummingbird\HBird-workspace\pico_test_1\Debug/../src/uart.c:33
	reg_uart_data = c;
    1db0:	69a1                	lui	s3,0x8
    1db2:	4b35                	li	s6,13
printk():
D:\Hummingbird\HBird-workspace\pico_test_1\Debug/../src/uart.c:145
		switch(*pfmt)
    1db4:	02500a13          	li	s4,37
D:\Hummingbird\HBird-workspace\pico_test_1\Debug/../src/uart.c:149
				switch(*(pfmt + 1))
    1db8:	7e0a8a93          	addi	s5,s5,2016 # 37e0 <bitmap_bytes+0x138>
    1dbc:	a819                	j	1dd2 <printk+0x52>
D:\Hummingbird\HBird-workspace\pico_test_1\Debug/../src/uart.c:145
		switch(*pfmt)
    1dbe:	05478263          	beq	a5,s4,1e02 <printk+0x82>
put_char():
D:\Hummingbird\HBird-workspace\pico_test_1\Debug/../src/uart.c:33
	reg_uart_data = c;
    1dc2:	8722                	mv	a4,s0
    1dc4:	00f9a823          	sw	a5,16(s3) # 8010 <_etext+0x4584>
    1dc8:	8426                	mv	s0,s1
    1dca:	84ba                	mv	s1,a4
printk():
D:\Hummingbird\HBird-workspace\pico_test_1\Debug/../src/uart.c:143
	while(*pfmt)
    1dcc:	00140783          	lb	a5,1(s0)
    1dd0:	cf99                	beqz	a5,1dee <printk+0x6e>
    1dd2:	00148413          	addi	s0,s1,1 # 8001 <_etext+0x4575>
D:\Hummingbird\HBird-workspace\pico_test_1\Debug/../src/uart.c:145
		switch(*pfmt)
    1dd6:	ff2794e3          	bne	a5,s2,1dbe <printk+0x3e>
put_char():
D:\Hummingbird\HBird-workspace\pico_test_1\Debug/../src/uart.c:33
	reg_uart_data = c;
    1dda:	0169a823          	sw	s6,16(s3)
    1dde:	87a2                	mv	a5,s0
    1de0:	0129a823          	sw	s2,16(s3)
    1de4:	8426                	mv	s0,s1
    1de6:	84be                	mv	s1,a5
printk():
D:\Hummingbird\HBird-workspace\pico_test_1\Debug/../src/uart.c:143
	while(*pfmt)
    1de8:	00140783          	lb	a5,1(s0)
    1dec:	f3fd                	bnez	a5,1dd2 <printk+0x52>
D:\Hummingbird\HBird-workspace\pico_test_1\Debug/../src/uart.c:201
				break;
		}
		pfmt++;
	}
	va_end(vp);
}
    1dee:	50b2                	lw	ra,44(sp)
    1df0:	5422                	lw	s0,40(sp)
    1df2:	5492                	lw	s1,36(sp)
    1df4:	5902                	lw	s2,32(sp)
    1df6:	49f2                	lw	s3,28(sp)
    1df8:	4a62                	lw	s4,24(sp)
    1dfa:	4ad2                	lw	s5,20(sp)
    1dfc:	4b42                	lw	s6,16(sp)
    1dfe:	6161                	addi	sp,sp,80
    1e00:	8082                	ret
D:\Hummingbird\HBird-workspace\pico_test_1\Debug/../src/uart.c:149
				switch(*(pfmt + 1))
    1e02:	0014c783          	lbu	a5,1(s1)
    1e06:	05300713          	li	a4,83
    1e0a:	fdb78793          	addi	a5,a5,-37
    1e0e:	0ff7f793          	andi	a5,a5,255
    1e12:	00f76663          	bltu	a4,a5,1e1e <printk+0x9e>
    1e16:	078a                	slli	a5,a5,0x2
    1e18:	97d6                	add	a5,a5,s5
    1e1a:	439c                	lw	a5,0(a5)
    1e1c:	8782                	jr	a5
put_char():
D:\Hummingbird\HBird-workspace\pico_test_1\Debug/../src/uart.c:33
	reg_uart_data = c;
    1e1e:	87a2                	mv	a5,s0
    1e20:	0149a823          	sw	s4,16(s3)
    1e24:	8426                	mv	s0,s1
    1e26:	84be                	mv	s1,a5
    1e28:	b755                	j	1dcc <printk+0x4c>
printk():
D:\Hummingbird\HBird-workspace\pico_test_1\Debug/../src/uart.c:152
						put_char(va_arg(vp, int));
    1e2a:	47b2                	lw	a5,12(sp)
    1e2c:	00078703          	lb	a4,0(a5)
    1e30:	0791                	addi	a5,a5,4
    1e32:	c63e                	sw	a5,12(sp)
put_char():
D:\Hummingbird\HBird-workspace\pico_test_1\Debug/../src/uart.c:31
	if (c == '\n')
    1e34:	07270d63          	beq	a4,s2,1eae <printk+0x12e>
D:\Hummingbird\HBird-workspace\pico_test_1\Debug/../src/uart.c:33
	reg_uart_data = c;
    1e38:	00e9a823          	sw	a4,16(s3)
    1e3c:	0489                	addi	s1,s1,2
printk():
D:\Hummingbird\HBird-workspace\pico_test_1\Debug/../src/uart.c:154
						break;
    1e3e:	b779                	j	1dcc <printk+0x4c>
D:\Hummingbird\HBird-workspace\pico_test_1\Debug/../src/uart.c:175
						print_hex2(va_arg(vp, int));
    1e40:	47b2                	lw	a5,12(sp)
    1e42:	4388                	lw	a0,0(a5)
    1e44:	0791                	addi	a5,a5,4
    1e46:	c63e                	sw	a5,12(sp)
print_hex2():
D:\Hummingbird\HBird-workspace\pico_test_1\Debug/../src/uart.c:78
	if(0 == hex)
    1e48:	ed39                	bnez	a0,1ea6 <printk+0x126>
put_char():
D:\Hummingbird\HBird-workspace\pico_test_1\Debug/../src/uart.c:33
	reg_uart_data = c;
    1e4a:	03000793          	li	a5,48
    1e4e:	00f9a823          	sw	a5,16(s3)
    1e52:	0489                	addi	s1,s1,2
printk():
D:\Hummingbird\HBird-workspace\pico_test_1\Debug/../src/uart.c:177
						break;
    1e54:	bfa5                	j	1dcc <printk+0x4c>
D:\Hummingbird\HBird-workspace\pico_test_1\Debug/../src/uart.c:158
						print_dec(va_arg(vp, int));
    1e56:	47b2                	lw	a5,12(sp)
    1e58:	4388                	lw	a0,0(a5)
    1e5a:	0791                	addi	a5,a5,4
    1e5c:	c63e                	sw	a5,12(sp)
print_dec():
D:\Hummingbird\HBird-workspace\pico_test_1\Debug/../src/uart.c:97
	if(0 == v)
    1e5e:	d575                	beqz	a0,1e4a <printk+0xca>
print_num():
    1e60:	45a9                	li	a1,10
    1e62:	335d                	jal	1c08 <print_num.part.0>
    1e64:	0489                	addi	s1,s1,2
    1e66:	b79d                	j	1dcc <printk+0x4c>
printk():
D:\Hummingbird\HBird-workspace\pico_test_1\Debug/../src/uart.c:169
						print_str(va_arg(vp, char*));
    1e68:	47b2                	lw	a5,12(sp)
    1e6a:	4398                	lw	a4,0(a5)
    1e6c:	0791                	addi	a5,a5,4
    1e6e:	c63e                	sw	a5,12(sp)
print_str():
D:\Hummingbird\HBird-workspace\pico_test_1\Debug/../src/uart.c:45
	while (*p)
    1e70:	00070783          	lb	a5,0(a4) # 8000 <_etext+0x4574>
    1e74:	dff9                	beqz	a5,1e52 <printk+0xd2>
D:\Hummingbird\HBird-workspace\pico_test_1\Debug/../src/uart.c:46
		put_char(*(p++));
    1e76:	0705                	addi	a4,a4,1
put_char():
D:\Hummingbird\HBird-workspace\pico_test_1\Debug/../src/uart.c:31
	if (c == '\n')
    1e78:	01278a63          	beq	a5,s2,1e8c <printk+0x10c>
D:\Hummingbird\HBird-workspace\pico_test_1\Debug/../src/uart.c:33
	reg_uart_data = c;
    1e7c:	00f9a823          	sw	a5,16(s3)
print_str():
D:\Hummingbird\HBird-workspace\pico_test_1\Debug/../src/uart.c:45
	while (*p)
    1e80:	00070783          	lb	a5,0(a4)
    1e84:	d7f9                	beqz	a5,1e52 <printk+0xd2>
D:\Hummingbird\HBird-workspace\pico_test_1\Debug/../src/uart.c:46
		put_char(*(p++));
    1e86:	0705                	addi	a4,a4,1
put_char():
D:\Hummingbird\HBird-workspace\pico_test_1\Debug/../src/uart.c:31
	if (c == '\n')
    1e88:	ff279ae3          	bne	a5,s2,1e7c <printk+0xfc>
D:\Hummingbird\HBird-workspace\pico_test_1\Debug/../src/uart.c:33
	reg_uart_data = c;
    1e8c:	0169a823          	sw	s6,16(s3)
    1e90:	b7f5                	j	1e7c <printk+0xfc>
printk():
D:\Hummingbird\HBird-workspace\pico_test_1\Debug/../src/uart.c:163
						print_flt(va_arg(vp, double));
    1e92:	47b2                	lw	a5,12(sp)
    1e94:	0489                	addi	s1,s1,2
    1e96:	079d                	addi	a5,a5,7
    1e98:	9be1                	andi	a5,a5,-8
    1e9a:	4388                	lw	a0,0(a5)
    1e9c:	43cc                	lw	a1,4(a5)
    1e9e:	07a1                	addi	a5,a5,8
    1ea0:	c63e                	sw	a5,12(sp)
    1ea2:	359d                	jal	1d08 <print_flt>
D:\Hummingbird\HBird-workspace\pico_test_1\Debug/../src/uart.c:165
						break;
    1ea4:	b725                	j	1dcc <printk+0x4c>
print_num():
    1ea6:	45c1                	li	a1,16
    1ea8:	3385                	jal	1c08 <print_num.part.0>
    1eaa:	0489                	addi	s1,s1,2
    1eac:	b705                	j	1dcc <printk+0x4c>
put_char():
D:\Hummingbird\HBird-workspace\pico_test_1\Debug/../src/uart.c:33
	reg_uart_data = c;
    1eae:	0169a823          	sw	s6,16(s3)
    1eb2:	b759                	j	1e38 <printk+0xb8>

00001eb4 <getchar_prompt>:
getchar_prompt():
D:\Hummingbird\HBird-workspace\pico_test_1\Debug/../src/uart.c:215
char getchar_prompt(char *prompt)
{
	int32_t c = -1;

	uint32_t cycles_begin, cycles_now, cycles;
	__asm__ volatile ("rdcycle %0" : "=r"(cycles_begin));
    1eb4:	c00025f3          	rdcycle	a1
D:\Hummingbird\HBird-workspace\pico_test_1\Debug/../src/uart.c:217

	if (prompt)
    1eb8:	c515                	beqz	a0,1ee4 <getchar_prompt+0x30>
print_str():
D:\Hummingbird\HBird-workspace\pico_test_1\Debug/../src/uart.c:45
	while (*p)
    1eba:	00050783          	lb	a5,0(a0)
    1ebe:	c39d                	beqz	a5,1ee4 <getchar_prompt+0x30>
    1ec0:	872a                	mv	a4,a0
put_char():
D:\Hummingbird\HBird-workspace\pico_test_1\Debug/../src/uart.c:31
	if (c == '\n')
    1ec2:	4629                	li	a2,10
D:\Hummingbird\HBird-workspace\pico_test_1\Debug/../src/uart.c:33
	reg_uart_data = c;
    1ec4:	66a1                	lui	a3,0x8
    1ec6:	4835                	li	a6,13
    1ec8:	a029                	j	1ed2 <getchar_prompt+0x1e>
    1eca:	ca9c                	sw	a5,16(a3)
print_str():
D:\Hummingbird\HBird-workspace\pico_test_1\Debug/../src/uart.c:45
	while (*p)
    1ecc:	00070783          	lb	a5,0(a4)
    1ed0:	cb91                	beqz	a5,1ee4 <getchar_prompt+0x30>
D:\Hummingbird\HBird-workspace\pico_test_1\Debug/../src/uart.c:46
		put_char(*(p++));
    1ed2:	0705                	addi	a4,a4,1
put_char():
D:\Hummingbird\HBird-workspace\pico_test_1\Debug/../src/uart.c:31
	if (c == '\n')
    1ed4:	fec79be3          	bne	a5,a2,1eca <getchar_prompt+0x16>
D:\Hummingbird\HBird-workspace\pico_test_1\Debug/../src/uart.c:33
	reg_uart_data = c;
    1ed8:	0106a823          	sw	a6,16(a3) # 8010 <_etext+0x4584>
    1edc:	ca9c                	sw	a5,16(a3)
print_str():
D:\Hummingbird\HBird-workspace\pico_test_1\Debug/../src/uart.c:45
	while (*p)
    1ede:	00070783          	lb	a5,0(a4)
    1ee2:	fbe5                	bnez	a5,1ed2 <getchar_prompt+0x1e>
getchar_prompt():
D:\Hummingbird\HBird-workspace\pico_test_1\Debug/../src/uart.c:224

	while (c == -1)
	{
		__asm__ volatile ("rdcycle %0" : "=r"(cycles_now));
		cycles = cycles_now - cycles_begin;
		if (cycles > 12000000)
    1ee4:	00b728b7          	lui	a7,0xb72
    1ee8:	b0088893          	addi	a7,a7,-1280 # b71b00 <_etext+0xb6e074>
put_char():
D:\Hummingbird\HBird-workspace\pico_test_1\Debug/../src/uart.c:31
	if (c == '\n')
    1eec:	4829                	li	a6,10
D:\Hummingbird\HBird-workspace\pico_test_1\Debug/../src/uart.c:33
	reg_uart_data = c;
    1eee:	66a1                	lui	a3,0x8
    1ef0:	4e35                	li	t3,13
getchar_prompt():
D:\Hummingbird\HBird-workspace\pico_test_1\Debug/../src/uart.c:220
	while (c == -1)
    1ef2:	537d                	li	t1,-1
D:\Hummingbird\HBird-workspace\pico_test_1\Debug/../src/uart.c:222
		__asm__ volatile ("rdcycle %0" : "=r"(cycles_now));
    1ef4:	c0002673          	rdcycle	a2
D:\Hummingbird\HBird-workspace\pico_test_1\Debug/../src/uart.c:223
		cycles = cycles_now - cycles_begin;
    1ef8:	40b607b3          	sub	a5,a2,a1
D:\Hummingbird\HBird-workspace\pico_test_1\Debug/../src/uart.c:224
		if (cycles > 12000000)
    1efc:	02f8f763          	bleu	a5,a7,1f2a <getchar_prompt+0x76>
D:\Hummingbird\HBird-workspace\pico_test_1\Debug/../src/uart.c:230
		{
			if (prompt)
			{
				print_str(prompt);
			}
			cycles_begin = cycles_now;
    1f00:	85b2                	mv	a1,a2
D:\Hummingbird\HBird-workspace\pico_test_1\Debug/../src/uart.c:226
			if (prompt)
    1f02:	c505                	beqz	a0,1f2a <getchar_prompt+0x76>
print_str():
D:\Hummingbird\HBird-workspace\pico_test_1\Debug/../src/uart.c:45
	while (*p)
    1f04:	00050783          	lb	a5,0(a0)
    1f08:	c38d                	beqz	a5,1f2a <getchar_prompt+0x76>
    1f0a:	872a                	mv	a4,a0
    1f0c:	a029                	j	1f16 <getchar_prompt+0x62>
put_char():
D:\Hummingbird\HBird-workspace\pico_test_1\Debug/../src/uart.c:33
	reg_uart_data = c;
    1f0e:	ca9c                	sw	a5,16(a3)
print_str():
D:\Hummingbird\HBird-workspace\pico_test_1\Debug/../src/uart.c:45
	while (*p)
    1f10:	00070783          	lb	a5,0(a4)
    1f14:	cb91                	beqz	a5,1f28 <getchar_prompt+0x74>
D:\Hummingbird\HBird-workspace\pico_test_1\Debug/../src/uart.c:46
		put_char(*(p++));
    1f16:	0705                	addi	a4,a4,1
put_char():
D:\Hummingbird\HBird-workspace\pico_test_1\Debug/../src/uart.c:31
	if (c == '\n')
    1f18:	ff079be3          	bne	a5,a6,1f0e <getchar_prompt+0x5a>
D:\Hummingbird\HBird-workspace\pico_test_1\Debug/../src/uart.c:33
	reg_uart_data = c;
    1f1c:	01c6a823          	sw	t3,16(a3) # 8010 <_etext+0x4584>
    1f20:	ca9c                	sw	a5,16(a3)
print_str():
D:\Hummingbird\HBird-workspace\pico_test_1\Debug/../src/uart.c:45
	while (*p)
    1f22:	00070783          	lb	a5,0(a4)
    1f26:	fbe5                	bnez	a5,1f16 <getchar_prompt+0x62>
getchar_prompt():
D:\Hummingbird\HBird-workspace\pico_test_1\Debug/../src/uart.c:230
			cycles_begin = cycles_now;
    1f28:	85b2                	mv	a1,a2
D:\Hummingbird\HBird-workspace\pico_test_1\Debug/../src/uart.c:232
		}
		c = reg_uart_data;
    1f2a:	4a9c                	lw	a5,16(a3)
D:\Hummingbird\HBird-workspace\pico_test_1\Debug/../src/uart.c:220
	while (c == -1)
    1f2c:	fc6784e3          	beq	a5,t1,1ef4 <getchar_prompt+0x40>
D:\Hummingbird\HBird-workspace\pico_test_1\Debug/../src/uart.c:236
	}

	return c;
}
    1f30:	01879513          	slli	a0,a5,0x18
    1f34:	8561                	srai	a0,a0,0x18
    1f36:	8082                	ret

00001f38 <get_char>:
get_char():
D:\Hummingbird\HBird-workspace\pico_test_1\Debug/../src/uart.c:246
 ** 输入参数：无
 ** 输出参数：无
 ** 返回参数：输出的字符
 ********************************************************************/
char get_char()
{
    1f38:	1141                	addi	sp,sp,-16
D:\Hummingbird\HBird-workspace\pico_test_1\Debug/../src/uart.c:248
//	return getchar_prompt(0);
	put_char(getchar_prompt(0));
    1f3a:	4501                	li	a0,0
D:\Hummingbird\HBird-workspace\pico_test_1\Debug/../src/uart.c:246
{
    1f3c:	c606                	sw	ra,12(sp)
D:\Hummingbird\HBird-workspace\pico_test_1\Debug/../src/uart.c:248
	put_char(getchar_prompt(0));
    1f3e:	3f9d                	jal	1eb4 <getchar_prompt>
put_char():
D:\Hummingbird\HBird-workspace\pico_test_1\Debug/../src/uart.c:31
	if (c == '\n')
    1f40:	4729                	li	a4,10
get_char():
D:\Hummingbird\HBird-workspace\pico_test_1\Debug/../src/uart.c:248
	put_char(getchar_prompt(0));
    1f42:	87aa                	mv	a5,a0
put_char():
D:\Hummingbird\HBird-workspace\pico_test_1\Debug/../src/uart.c:31
	if (c == '\n')
    1f44:	00e50763          	beq	a0,a4,1f52 <get_char+0x1a>
get_char():
D:\Hummingbird\HBird-workspace\pico_test_1\Debug/../src/uart.c:249
}
    1f48:	40b2                	lw	ra,12(sp)
put_char():
D:\Hummingbird\HBird-workspace\pico_test_1\Debug/../src/uart.c:33
	reg_uart_data = c;
    1f4a:	6721                	lui	a4,0x8
    1f4c:	cb1c                	sw	a5,16(a4)
get_char():
D:\Hummingbird\HBird-workspace\pico_test_1\Debug/../src/uart.c:249
}
    1f4e:	0141                	addi	sp,sp,16
    1f50:	8082                	ret
put_char():
D:\Hummingbird\HBird-workspace\pico_test_1\Debug/../src/uart.c:33
	reg_uart_data = c;
    1f52:	6721                	lui	a4,0x8
get_char():
D:\Hummingbird\HBird-workspace\pico_test_1\Debug/../src/uart.c:249
}
    1f54:	40b2                	lw	ra,12(sp)
put_char():
D:\Hummingbird\HBird-workspace\pico_test_1\Debug/../src/uart.c:33
	reg_uart_data = c;
    1f56:	46b5                	li	a3,13
    1f58:	cb14                	sw	a3,16(a4)
    1f5a:	6721                	lui	a4,0x8
    1f5c:	cb1c                	sw	a5,16(a4)
get_char():
D:\Hummingbird\HBird-workspace\pico_test_1\Debug/../src/uart.c:249
}
    1f5e:	0141                	addi	sp,sp,16
    1f60:	8082                	ret
	...

00001f64 <__muldf3>:
__muldf3():
    1f64:	fc010113          	addi	sp,sp,-64
    1f68:	02812c23          	sw	s0,56(sp)
    1f6c:	0145d793          	srli	a5,a1,0x14
    1f70:	00100437          	lui	s0,0x100
    1f74:	02912a23          	sw	s1,52(sp)
    1f78:	03312623          	sw	s3,44(sp)
    1f7c:	00050493          	mv	s1,a0
    1f80:	fff40413          	addi	s0,s0,-1 # fffff <_etext+0xfc573>
    1f84:	02112e23          	sw	ra,60(sp)
    1f88:	03212823          	sw	s2,48(sp)
    1f8c:	03412423          	sw	s4,40(sp)
    1f90:	03512223          	sw	s5,36(sp)
    1f94:	03612023          	sw	s6,32(sp)
    1f98:	01712e23          	sw	s7,28(sp)
    1f9c:	7ff7f513          	andi	a0,a5,2047
    1fa0:	00b47433          	and	s0,s0,a1
    1fa4:	01f5d993          	srli	s3,a1,0x1f
    1fa8:	1e050e63          	beqz	a0,21a4 <__muldf3+0x240>
    1fac:	7ff00793          	li	a5,2047
    1fb0:	0af50063          	beq	a0,a5,2050 <__muldf3+0xec>
    1fb4:	00341413          	slli	s0,s0,0x3
    1fb8:	008007b7          	lui	a5,0x800
    1fbc:	01d4db13          	srli	s6,s1,0x1d
    1fc0:	00f46433          	or	s0,s0,a5
    1fc4:	00349a13          	slli	s4,s1,0x3
    1fc8:	008b6b33          	or	s6,s6,s0
    1fcc:	c0150a93          	addi	s5,a0,-1023
    1fd0:	00000493          	li	s1,0
    1fd4:	00000b93          	li	s7,0
    1fd8:	0146d893          	srli	a7,a3,0x14
    1fdc:	00100437          	lui	s0,0x100
    1fe0:	fff40413          	addi	s0,s0,-1 # fffff <_etext+0xfc573>
    1fe4:	7ff8f893          	andi	a7,a7,2047
    1fe8:	00060813          	mv	a6,a2
    1fec:	00d47433          	and	s0,s0,a3
    1ff0:	01f6d913          	srli	s2,a3,0x1f
    1ff4:	08088a63          	beqz	a7,2088 <__muldf3+0x124>
    1ff8:	7ff00793          	li	a5,2047
    1ffc:	20f88463          	beq	a7,a5,2204 <__muldf3+0x2a0>
    2000:	00800737          	lui	a4,0x800
    2004:	00341413          	slli	s0,s0,0x3
    2008:	00e46433          	or	s0,s0,a4
    200c:	c0188893          	addi	a7,a7,-1023
    2010:	01d65713          	srli	a4,a2,0x1d
    2014:	00876733          	or	a4,a4,s0
    2018:	00361813          	slli	a6,a2,0x3
    201c:	011a8ab3          	add	s5,s5,a7
    2020:	00000513          	li	a0,0
    2024:	00f00693          	li	a3,15
    2028:	0129c7b3          	xor	a5,s3,s2
    202c:	001a8593          	addi	a1,s5,1
    2030:	1e96e863          	bltu	a3,s1,2220 <__muldf3+0x2bc>
    2034:	00002617          	auipc	a2,0x2
    2038:	91860613          	addi	a2,a2,-1768 # 394c <bitmap_bytes+0x2a4>
    203c:	00249493          	slli	s1,s1,0x2
    2040:	00c484b3          	add	s1,s1,a2
    2044:	0004a683          	lw	a3,0(s1)
    2048:	00c686b3          	add	a3,a3,a2
    204c:	00068067          	jr	a3
    2050:	00946b33          	or	s6,s0,s1
    2054:	400b1663          	bnez	s6,2460 <__muldf3+0x4fc>
    2058:	0146d893          	srli	a7,a3,0x14
    205c:	00100437          	lui	s0,0x100
    2060:	fff40413          	addi	s0,s0,-1 # fffff <_etext+0xfc573>
    2064:	7ff8f893          	andi	a7,a7,2047
    2068:	00800493          	li	s1,8
    206c:	00000a13          	li	s4,0
    2070:	7ff00a93          	li	s5,2047
    2074:	00200b93          	li	s7,2
    2078:	00060813          	mv	a6,a2
    207c:	00d47433          	and	s0,s0,a3
    2080:	01f6d913          	srli	s2,a3,0x1f
    2084:	f6089ae3          	bnez	a7,1ff8 <__muldf3+0x94>
    2088:	00c46733          	or	a4,s0,a2
    208c:	3e070663          	beqz	a4,2478 <__muldf3+0x514>
    2090:	4a040463          	beqz	s0,2538 <__muldf3+0x5d4>
    2094:	00040513          	mv	a0,s0
    2098:	00c12423          	sw	a2,8(sp)
    209c:	719000ef          	jal	ra,2fb4 <__clzsi2>
    20a0:	00812603          	lw	a2,8(sp)
    20a4:	ff550793          	addi	a5,a0,-11
    20a8:	01c00713          	li	a4,28
    20ac:	44f74a63          	blt	a4,a5,2500 <__muldf3+0x59c>
    20b0:	01d00713          	li	a4,29
    20b4:	ff850813          	addi	a6,a0,-8
    20b8:	40f70733          	sub	a4,a4,a5
    20bc:	01041433          	sll	s0,s0,a6
    20c0:	00e65733          	srl	a4,a2,a4
    20c4:	00876733          	or	a4,a4,s0
    20c8:	01061833          	sll	a6,a2,a6
    20cc:	40aa8533          	sub	a0,s5,a0
    20d0:	c0d50a93          	addi	s5,a0,-1011
    20d4:	00000513          	li	a0,0
    20d8:	f4dff06f          	j	2024 <__muldf3+0xc0>
    20dc:	00000613          	li	a2,0
    20e0:	7ff00713          	li	a4,2047
    20e4:	000807b7          	lui	a5,0x80
    20e8:	00000813          	li	a6,0
    20ec:	001006b7          	lui	a3,0x100
    20f0:	fff68693          	addi	a3,a3,-1 # fffff <_etext+0xfc573>
    20f4:	00d7f7b3          	and	a5,a5,a3
    20f8:	801006b7          	lui	a3,0x80100
    20fc:	fff68693          	addi	a3,a3,-1 # 800fffff <_etext+0x800fc573>
    2100:	00d7f7b3          	and	a5,a5,a3
    2104:	03c12083          	lw	ra,60(sp)
    2108:	03812403          	lw	s0,56(sp)
    210c:	01471713          	slli	a4,a4,0x14
    2110:	01f61693          	slli	a3,a2,0x1f
    2114:	00e7e7b3          	or	a5,a5,a4
    2118:	00d7e7b3          	or	a5,a5,a3
    211c:	03412483          	lw	s1,52(sp)
    2120:	03012903          	lw	s2,48(sp)
    2124:	02c12983          	lw	s3,44(sp)
    2128:	02812a03          	lw	s4,40(sp)
    212c:	02412a83          	lw	s5,36(sp)
    2130:	02012b03          	lw	s6,32(sp)
    2134:	01c12b83          	lw	s7,28(sp)
    2138:	00080513          	mv	a0,a6
    213c:	00078593          	mv	a1,a5
    2140:	04010113          	addi	sp,sp,64
    2144:	00008067          	ret
    2148:	00090793          	mv	a5,s2
    214c:	00200693          	li	a3,2
    2150:	02d51863          	bne	a0,a3,2180 <__muldf3+0x21c>
    2154:	00078613          	mv	a2,a5
    2158:	7ff00713          	li	a4,2047
    215c:	00000793          	li	a5,0
    2160:	00000813          	li	a6,0
    2164:	f89ff06f          	j	20ec <__muldf3+0x188>
    2168:	00098793          	mv	a5,s3
    216c:	000b8513          	mv	a0,s7
    2170:	00200693          	li	a3,2
    2174:	000b0713          	mv	a4,s6
    2178:	000a0813          	mv	a6,s4
    217c:	fcd50ce3          	beq	a0,a3,2154 <__muldf3+0x1f0>
    2180:	00300693          	li	a3,3
    2184:	f4d50ce3          	beq	a0,a3,20dc <__muldf3+0x178>
    2188:	00100693          	li	a3,1
    218c:	24d51a63          	bne	a0,a3,23e0 <__muldf3+0x47c>
    2190:	00078613          	mv	a2,a5
    2194:	00000713          	li	a4,0
    2198:	00000793          	li	a5,0
    219c:	00000813          	li	a6,0
    21a0:	f4dff06f          	j	20ec <__muldf3+0x188>
    21a4:	00946b33          	or	s6,s0,s1
    21a8:	2a0b0263          	beqz	s6,244c <__muldf3+0x4e8>
    21ac:	00d12623          	sw	a3,12(sp)
    21b0:	00c12423          	sw	a2,8(sp)
    21b4:	36040663          	beqz	s0,2520 <__muldf3+0x5bc>
    21b8:	00040513          	mv	a0,s0
    21bc:	5f9000ef          	jal	ra,2fb4 <__clzsi2>
    21c0:	00812603          	lw	a2,8(sp)
    21c4:	00c12683          	lw	a3,12(sp)
    21c8:	ff550793          	addi	a5,a0,-11
    21cc:	01c00713          	li	a4,28
    21d0:	34f74063          	blt	a4,a5,2510 <__muldf3+0x5ac>
    21d4:	01d00b13          	li	s6,29
    21d8:	ff850a13          	addi	s4,a0,-8
    21dc:	40fb0b33          	sub	s6,s6,a5
    21e0:	01441433          	sll	s0,s0,s4
    21e4:	0164db33          	srl	s6,s1,s6
    21e8:	008b6b33          	or	s6,s6,s0
    21ec:	01449a33          	sll	s4,s1,s4
    21f0:	c0d00a93          	li	s5,-1011
    21f4:	40aa8ab3          	sub	s5,s5,a0
    21f8:	00000493          	li	s1,0
    21fc:	00000b93          	li	s7,0
    2200:	dd9ff06f          	j	1fd8 <__muldf3+0x74>
    2204:	00c46733          	or	a4,s0,a2
    2208:	7ffa8a93          	addi	s5,s5,2047
    220c:	26071e63          	bnez	a4,2488 <__muldf3+0x524>
    2210:	0024e493          	ori	s1,s1,2
    2214:	00000813          	li	a6,0
    2218:	00200513          	li	a0,2
    221c:	e09ff06f          	j	2024 <__muldf3+0xc0>
    2220:	00010eb7          	lui	t4,0x10
    2224:	fffe8613          	addi	a2,t4,-1 # ffff <_etext+0xc573>
    2228:	010a5693          	srli	a3,s4,0x10
    222c:	01085313          	srli	t1,a6,0x10
    2230:	00ca7a33          	and	s4,s4,a2
    2234:	00c87833          	and	a6,a6,a2
    2238:	03480633          	mul	a2,a6,s4
    223c:	03068e33          	mul	t3,a3,a6
    2240:	01065513          	srli	a0,a2,0x10
    2244:	034308b3          	mul	a7,t1,s4
    2248:	01c888b3          	add	a7,a7,t3
    224c:	01150533          	add	a0,a0,a7
    2250:	02668f33          	mul	t5,a3,t1
    2254:	01c57463          	bleu	t3,a0,225c <__muldf3+0x2f8>
    2258:	01df0f33          	add	t5,t5,t4
    225c:	00010e37          	lui	t3,0x10
    2260:	fffe0893          	addi	a7,t3,-1 # ffff <_etext+0xc573>
    2264:	011773b3          	and	t2,a4,a7
    2268:	01075293          	srli	t0,a4,0x10
    226c:	01157733          	and	a4,a0,a7
    2270:	011678b3          	and	a7,a2,a7
    2274:	01071713          	slli	a4,a4,0x10
    2278:	03438633          	mul	a2,t2,s4
    227c:	011708b3          	add	a7,a4,a7
    2280:	01055513          	srli	a0,a0,0x10
    2284:	02768eb3          	mul	t4,a3,t2
    2288:	01065713          	srli	a4,a2,0x10
    228c:	03428a33          	mul	s4,t0,s4
    2290:	01da0a33          	add	s4,s4,t4
    2294:	01470a33          	add	s4,a4,s4
    2298:	025686b3          	mul	a3,a3,t0
    229c:	01da7463          	bleu	t4,s4,22a4 <__muldf3+0x340>
    22a0:	01c686b3          	add	a3,a3,t3
    22a4:	00010937          	lui	s2,0x10
    22a8:	fff90713          	addi	a4,s2,-1 # ffff <_etext+0xc573>
    22ac:	010b5f93          	srli	t6,s6,0x10
    22b0:	00eb7433          	and	s0,s6,a4
    22b4:	00ea7eb3          	and	t4,s4,a4
    22b8:	00e67633          	and	a2,a2,a4
    22bc:	010e9e93          	slli	t4,t4,0x10
    22c0:	028804b3          	mul	s1,a6,s0
    22c4:	010a5a13          	srli	s4,s4,0x10
    22c8:	00ce8eb3          	add	t4,t4,a2
    22cc:	00da0a33          	add	s4,s4,a3
    22d0:	01d50533          	add	a0,a0,t4
    22d4:	02830733          	mul	a4,t1,s0
    22d8:	0104de13          	srli	t3,s1,0x10
    22dc:	030f8833          	mul	a6,t6,a6
    22e0:	01070733          	add	a4,a4,a6
    22e4:	00ee0e33          	add	t3,t3,a4
    22e8:	03f30333          	mul	t1,t1,t6
    22ec:	010e7463          	bleu	a6,t3,22f4 <__muldf3+0x390>
    22f0:	01230333          	add	t1,t1,s2
    22f4:	00010937          	lui	s2,0x10
    22f8:	fff90613          	addi	a2,s2,-1 # ffff <_etext+0xc573>
    22fc:	00ce76b3          	and	a3,t3,a2
    2300:	010e5e13          	srli	t3,t3,0x10
    2304:	006e0333          	add	t1,t3,t1
    2308:	01069693          	slli	a3,a3,0x10
    230c:	00c4f4b3          	and	s1,s1,a2
    2310:	02838e33          	mul	t3,t2,s0
    2314:	00968633          	add	a2,a3,s1
    2318:	027f8833          	mul	a6,t6,t2
    231c:	010e5713          	srli	a4,t3,0x10
    2320:	02828433          	mul	s0,t0,s0
    2324:	01040433          	add	s0,s0,a6
    2328:	00870433          	add	s0,a4,s0
    232c:	03f28fb3          	mul	t6,t0,t6
    2330:	01047463          	bleu	a6,s0,2338 <__muldf3+0x3d4>
    2334:	012f8fb3          	add	t6,t6,s2
    2338:	00010737          	lui	a4,0x10
    233c:	fff70713          	addi	a4,a4,-1 # ffff <_etext+0xc573>
    2340:	00e476b3          	and	a3,s0,a4
    2344:	01069693          	slli	a3,a3,0x10
    2348:	00ee7733          	and	a4,t3,a4
    234c:	01e50533          	add	a0,a0,t5
    2350:	00e686b3          	add	a3,a3,a4
    2354:	01d53eb3          	sltu	t4,a0,t4
    2358:	01468733          	add	a4,a3,s4
    235c:	00c50533          	add	a0,a0,a2
    2360:	01d70833          	add	a6,a4,t4
    2364:	00c536b3          	sltu	a3,a0,a2
    2368:	00680e33          	add	t3,a6,t1
    236c:	00de0633          	add	a2,t3,a3
    2370:	01d83eb3          	sltu	t4,a6,t4
    2374:	01473733          	sltu	a4,a4,s4
    2378:	01d76733          	or	a4,a4,t4
    237c:	01045413          	srli	s0,s0,0x10
    2380:	006e3333          	sltu	t1,t3,t1
    2384:	00d636b3          	sltu	a3,a2,a3
    2388:	00d366b3          	or	a3,t1,a3
    238c:	00870733          	add	a4,a4,s0
    2390:	00d70733          	add	a4,a4,a3
    2394:	00951813          	slli	a6,a0,0x9
    2398:	01186833          	or	a6,a6,a7
    239c:	01f70733          	add	a4,a4,t6
    23a0:	00971713          	slli	a4,a4,0x9
    23a4:	01765893          	srli	a7,a2,0x17
    23a8:	01003833          	snez	a6,a6
    23ac:	01755513          	srli	a0,a0,0x17
    23b0:	00961693          	slli	a3,a2,0x9
    23b4:	00a86833          	or	a6,a6,a0
    23b8:	01176733          	or	a4,a4,a7
    23bc:	00d86833          	or	a6,a6,a3
    23c0:	00771693          	slli	a3,a4,0x7
    23c4:	1806d663          	bgez	a3,2550 <__muldf3+0x5ec>
    23c8:	00185693          	srli	a3,a6,0x1
    23cc:	00187813          	andi	a6,a6,1
    23d0:	01f71613          	slli	a2,a4,0x1f
    23d4:	0106e833          	or	a6,a3,a6
    23d8:	00c86833          	or	a6,a6,a2
    23dc:	00175713          	srli	a4,a4,0x1
    23e0:	3ff58693          	addi	a3,a1,1023
    23e4:	00078613          	mv	a2,a5
    23e8:	0ad05863          	blez	a3,2498 <__muldf3+0x534>
    23ec:	00787793          	andi	a5,a6,7
    23f0:	02078063          	beqz	a5,2410 <__muldf3+0x4ac>
    23f4:	00f87793          	andi	a5,a6,15
    23f8:	00400513          	li	a0,4
    23fc:	00a78a63          	beq	a5,a0,2410 <__muldf3+0x4ac>
    2400:	00480793          	addi	a5,a6,4
    2404:	0107b833          	sltu	a6,a5,a6
    2408:	01070733          	add	a4,a4,a6
    240c:	00078813          	mv	a6,a5
    2410:	00771793          	slli	a5,a4,0x7
    2414:	0007da63          	bgez	a5,2428 <__muldf3+0x4c4>
    2418:	ff0007b7          	lui	a5,0xff000
    241c:	fff78793          	addi	a5,a5,-1 # feffffff <_etext+0xfeffc573>
    2420:	00f77733          	and	a4,a4,a5
    2424:	40058693          	addi	a3,a1,1024
    2428:	7fe00793          	li	a5,2046
    242c:	12d7c663          	blt	a5,a3,2558 <__muldf3+0x5f4>
    2430:	00385793          	srli	a5,a6,0x3
    2434:	01d71813          	slli	a6,a4,0x1d
    2438:	00971713          	slli	a4,a4,0x9
    243c:	00f86833          	or	a6,a6,a5
    2440:	00c75793          	srli	a5,a4,0xc
    2444:	7ff6f713          	andi	a4,a3,2047
    2448:	ca5ff06f          	j	20ec <__muldf3+0x188>
    244c:	00400493          	li	s1,4
    2450:	00000a13          	li	s4,0
    2454:	00000a93          	li	s5,0
    2458:	00100b93          	li	s7,1
    245c:	b7dff06f          	j	1fd8 <__muldf3+0x74>
    2460:	00048a13          	mv	s4,s1
    2464:	00040b13          	mv	s6,s0
    2468:	00c00493          	li	s1,12
    246c:	7ff00a93          	li	s5,2047
    2470:	00300b93          	li	s7,3
    2474:	b65ff06f          	j	1fd8 <__muldf3+0x74>
    2478:	0014e493          	ori	s1,s1,1
    247c:	00000813          	li	a6,0
    2480:	00100513          	li	a0,1
    2484:	ba1ff06f          	j	2024 <__muldf3+0xc0>
    2488:	0034e493          	ori	s1,s1,3
    248c:	00040713          	mv	a4,s0
    2490:	00300513          	li	a0,3
    2494:	b91ff06f          	j	2024 <__muldf3+0xc0>
    2498:	00100793          	li	a5,1
    249c:	40d787b3          	sub	a5,a5,a3
    24a0:	0c069463          	bnez	a3,2568 <__muldf3+0x604>
    24a4:	41e58593          	addi	a1,a1,1054
    24a8:	00b816b3          	sll	a3,a6,a1
    24ac:	00b715b3          	sll	a1,a4,a1
    24b0:	00f85833          	srl	a6,a6,a5
    24b4:	00d036b3          	snez	a3,a3
    24b8:	0105e5b3          	or	a1,a1,a6
    24bc:	00d5e5b3          	or	a1,a1,a3
    24c0:	0075f693          	andi	a3,a1,7
    24c4:	00f75733          	srl	a4,a4,a5
    24c8:	02068063          	beqz	a3,24e8 <__muldf3+0x584>
    24cc:	00f5f793          	andi	a5,a1,15
    24d0:	00400693          	li	a3,4
    24d4:	00d78a63          	beq	a5,a3,24e8 <__muldf3+0x584>
    24d8:	00058813          	mv	a6,a1
    24dc:	00480593          	addi	a1,a6,4
    24e0:	0105b833          	sltu	a6,a1,a6
    24e4:	01070733          	add	a4,a4,a6
    24e8:	00871793          	slli	a5,a4,0x8
    24ec:	0e07d263          	bgez	a5,25d0 <__muldf3+0x66c>
    24f0:	00100713          	li	a4,1
    24f4:	00000793          	li	a5,0
    24f8:	00000813          	li	a6,0
    24fc:	bf1ff06f          	j	20ec <__muldf3+0x188>
    2500:	fd850713          	addi	a4,a0,-40
    2504:	00e61733          	sll	a4,a2,a4
    2508:	00000813          	li	a6,0
    250c:	bc1ff06f          	j	20cc <__muldf3+0x168>
    2510:	fd850413          	addi	s0,a0,-40
    2514:	00849b33          	sll	s6,s1,s0
    2518:	00000a13          	li	s4,0
    251c:	cd5ff06f          	j	21f0 <__muldf3+0x28c>
    2520:	00048513          	mv	a0,s1
    2524:	291000ef          	jal	ra,2fb4 <__clzsi2>
    2528:	02050513          	addi	a0,a0,32
    252c:	00c12683          	lw	a3,12(sp)
    2530:	00812603          	lw	a2,8(sp)
    2534:	c95ff06f          	j	21c8 <__muldf3+0x264>
    2538:	00060513          	mv	a0,a2
    253c:	00c12423          	sw	a2,8(sp)
    2540:	275000ef          	jal	ra,2fb4 <__clzsi2>
    2544:	02050513          	addi	a0,a0,32
    2548:	00812603          	lw	a2,8(sp)
    254c:	b59ff06f          	j	20a4 <__muldf3+0x140>
    2550:	000a8593          	mv	a1,s5
    2554:	e8dff06f          	j	23e0 <__muldf3+0x47c>
    2558:	7ff00713          	li	a4,2047
    255c:	00000793          	li	a5,0
    2560:	00000813          	li	a6,0
    2564:	b89ff06f          	j	20ec <__muldf3+0x188>
    2568:	03800513          	li	a0,56
    256c:	00f55a63          	ble	a5,a0,2580 <__muldf3+0x61c>
    2570:	00000713          	li	a4,0
    2574:	00000793          	li	a5,0
    2578:	00000813          	li	a6,0
    257c:	b71ff06f          	j	20ec <__muldf3+0x188>
    2580:	01f00513          	li	a0,31
    2584:	f2f550e3          	ble	a5,a0,24a4 <__muldf3+0x540>
    2588:	fe100513          	li	a0,-31
    258c:	40d506b3          	sub	a3,a0,a3
    2590:	02000513          	li	a0,32
    2594:	00d756b3          	srl	a3,a4,a3
    2598:	00a78863          	beq	a5,a0,25a8 <__muldf3+0x644>
    259c:	43e58593          	addi	a1,a1,1086
    25a0:	00b71733          	sll	a4,a4,a1
    25a4:	00e86833          	or	a6,a6,a4
    25a8:	01003833          	snez	a6,a6
    25ac:	00d86833          	or	a6,a6,a3
    25b0:	00787713          	andi	a4,a6,7
    25b4:	00000793          	li	a5,0
    25b8:	02070463          	beqz	a4,25e0 <__muldf3+0x67c>
    25bc:	00f87793          	andi	a5,a6,15
    25c0:	00400693          	li	a3,4
    25c4:	00000713          	li	a4,0
    25c8:	00080593          	mv	a1,a6
    25cc:	f0d798e3          	bne	a5,a3,24dc <__muldf3+0x578>
    25d0:	00971693          	slli	a3,a4,0x9
    25d4:	00c6d793          	srli	a5,a3,0xc
    25d8:	01d71713          	slli	a4,a4,0x1d
    25dc:	00058813          	mv	a6,a1
    25e0:	00385813          	srli	a6,a6,0x3
    25e4:	00e86833          	or	a6,a6,a4
    25e8:	00000713          	li	a4,0
    25ec:	b01ff06f          	j	20ec <__muldf3+0x188>

000025f0 <__subdf3>:
__subdf3():
    25f0:	00100837          	lui	a6,0x100
    25f4:	fff80813          	addi	a6,a6,-1 # fffff <_etext+0xfc573>
    25f8:	fe010113          	addi	sp,sp,-32
    25fc:	00b877b3          	and	a5,a6,a1
    2600:	0146d893          	srli	a7,a3,0x14
    2604:	00d87833          	and	a6,a6,a3
    2608:	00379313          	slli	t1,a5,0x3
    260c:	00812c23          	sw	s0,24(sp)
    2610:	01d55793          	srli	a5,a0,0x1d
    2614:	00912a23          	sw	s1,20(sp)
    2618:	01212823          	sw	s2,16(sp)
    261c:	0145d493          	srli	s1,a1,0x14
    2620:	01d65913          	srli	s2,a2,0x1d
    2624:	00381813          	slli	a6,a6,0x3
    2628:	00112e23          	sw	ra,28(sp)
    262c:	01312623          	sw	s3,12(sp)
    2630:	7ff8f893          	andi	a7,a7,2047
    2634:	7ff00713          	li	a4,2047
    2638:	01f5d413          	srli	s0,a1,0x1f
    263c:	7ff4f493          	andi	s1,s1,2047
    2640:	0067e7b3          	or	a5,a5,t1
    2644:	00351513          	slli	a0,a0,0x3
    2648:	01f6d693          	srli	a3,a3,0x1f
    264c:	010965b3          	or	a1,s2,a6
    2650:	00361613          	slli	a2,a2,0x3
    2654:	0ae88663          	beq	a7,a4,2700 <__subdf3+0x110>
    2658:	0016c693          	xori	a3,a3,1
    265c:	41148833          	sub	a6,s1,a7
    2660:	0a868863          	beq	a3,s0,2710 <__subdf3+0x120>
    2664:	0f005463          	blez	a6,274c <__subdf3+0x15c>
    2668:	12089463          	bnez	a7,2790 <__subdf3+0x1a0>
    266c:	00c5e733          	or	a4,a1,a2
    2670:	24071c63          	bnez	a4,28c8 <__subdf3+0x2d8>
    2674:	7ff00713          	li	a4,2047
    2678:	38e80e63          	beq	a6,a4,2a14 <__subdf3+0x424>
    267c:	01d79693          	slli	a3,a5,0x1d
    2680:	00355513          	srli	a0,a0,0x3
    2684:	00d569b3          	or	s3,a0,a3
    2688:	0037d793          	srli	a5,a5,0x3
    268c:	7ff00713          	li	a4,2047
    2690:	56e80063          	beq	a6,a4,2bf0 <__subdf3+0x600>
    2694:	00100737          	lui	a4,0x100
    2698:	fff70713          	addi	a4,a4,-1 # fffff <_etext+0xfc573>
    269c:	00e7f7b3          	and	a5,a5,a4
    26a0:	7ff87813          	andi	a6,a6,2047
    26a4:	00147593          	andi	a1,s0,1
    26a8:	00100737          	lui	a4,0x100
    26ac:	fff70713          	addi	a4,a4,-1 # fffff <_etext+0xfc573>
    26b0:	00e7f7b3          	and	a5,a5,a4
    26b4:	80100737          	lui	a4,0x80100
    26b8:	fff70713          	addi	a4,a4,-1 # 800fffff <_etext+0x800fc573>
    26bc:	00e7f7b3          	and	a5,a5,a4
    26c0:	01481813          	slli	a6,a6,0x14
    26c4:	80000737          	lui	a4,0x80000
    26c8:	01c12083          	lw	ra,28(sp)
    26cc:	01812403          	lw	s0,24(sp)
    26d0:	0107e7b3          	or	a5,a5,a6
    26d4:	fff74713          	not	a4,a4
    26d8:	01f59593          	slli	a1,a1,0x1f
    26dc:	00e7f7b3          	and	a5,a5,a4
    26e0:	00b7e7b3          	or	a5,a5,a1
    26e4:	00098513          	mv	a0,s3
    26e8:	01412483          	lw	s1,20(sp)
    26ec:	01012903          	lw	s2,16(sp)
    26f0:	00c12983          	lw	s3,12(sp)
    26f4:	00078593          	mv	a1,a5
    26f8:	02010113          	addi	sp,sp,32
    26fc:	00008067          	ret
    2700:	00c5e733          	or	a4,a1,a2
    2704:	f4070ae3          	beqz	a4,2658 <__subdf3+0x68>
    2708:	41148833          	sub	a6,s1,a7
    270c:	f4869ce3          	bne	a3,s0,2664 <__subdf3+0x74>
    2710:	33005063          	blez	a6,2a30 <__subdf3+0x440>
    2714:	0c089263          	bnez	a7,27d8 <__subdf3+0x1e8>
    2718:	00c5e733          	or	a4,a1,a2
    271c:	f4070ce3          	beqz	a4,2674 <__subdf3+0x84>
    2720:	fff80713          	addi	a4,a6,-1
    2724:	48071c63          	bnez	a4,2bbc <__subdf3+0x5cc>
    2728:	00c509b3          	add	s3,a0,a2
    272c:	00b78933          	add	s2,a5,a1
    2730:	00a9b533          	sltu	a0,s3,a0
    2734:	00a90333          	add	t1,s2,a0
    2738:	00831793          	slli	a5,t1,0x8
    273c:	00100493          	li	s1,1
    2740:	2a07d663          	bgez	a5,29ec <__subdf3+0x3fc>
    2744:	00200493          	li	s1,2
    2748:	0f80006f          	j	2840 <__subdf3+0x250>
    274c:	22081063          	bnez	a6,296c <__subdf3+0x37c>
    2750:	00148713          	addi	a4,s1,1
    2754:	7ff77713          	andi	a4,a4,2047
    2758:	00100813          	li	a6,1
    275c:	36e85663          	ble	a4,a6,2ac8 <__subdf3+0x4d8>
    2760:	40c509b3          	sub	s3,a0,a2
    2764:	01353733          	sltu	a4,a0,s3
    2768:	40b78933          	sub	s2,a5,a1
    276c:	40e90933          	sub	s2,s2,a4
    2770:	00891713          	slli	a4,s2,0x8
    2774:	3a074a63          	bltz	a4,2b28 <__subdf3+0x538>
    2778:	0129e7b3          	or	a5,s3,s2
    277c:	16079e63          	bnez	a5,28f8 <__subdf3+0x308>
    2780:	00000413          	li	s0,0
    2784:	00000993          	li	s3,0
    2788:	00040813          	mv	a6,s0
    278c:	f09ff06f          	j	2694 <__subdf3+0xa4>
    2790:	008006b7          	lui	a3,0x800
    2794:	7ff00713          	li	a4,2047
    2798:	00d5e5b3          	or	a1,a1,a3
    279c:	22e48c63          	beq	s1,a4,29d4 <__subdf3+0x3e4>
    27a0:	03800713          	li	a4,56
    27a4:	31074663          	blt	a4,a6,2ab0 <__subdf3+0x4c0>
    27a8:	01f00713          	li	a4,31
    27ac:	3b075063          	ble	a6,a4,2b4c <__subdf3+0x55c>
    27b0:	02000713          	li	a4,32
    27b4:	0105d6b3          	srl	a3,a1,a6
    27b8:	00e80a63          	beq	a6,a4,27cc <__subdf3+0x1dc>
    27bc:	04000913          	li	s2,64
    27c0:	41090833          	sub	a6,s2,a6
    27c4:	01059933          	sll	s2,a1,a6
    27c8:	01266633          	or	a2,a2,s2
    27cc:	00c03633          	snez	a2,a2
    27d0:	00d666b3          	or	a3,a2,a3
    27d4:	2e40006f          	j	2ab8 <__subdf3+0x4c8>
    27d8:	008006b7          	lui	a3,0x800
    27dc:	7ff00713          	li	a4,2047
    27e0:	00d5e5b3          	or	a1,a1,a3
    27e4:	1ee48863          	beq	s1,a4,29d4 <__subdf3+0x3e4>
    27e8:	03800713          	li	a4,56
    27ec:	35074a63          	blt	a4,a6,2b40 <__subdf3+0x550>
    27f0:	01f00713          	li	a4,31
    27f4:	4b074663          	blt	a4,a6,2ca0 <__subdf3+0x6b0>
    27f8:	02000713          	li	a4,32
    27fc:	41070733          	sub	a4,a4,a6
    2800:	010656b3          	srl	a3,a2,a6
    2804:	00e599b3          	sll	s3,a1,a4
    2808:	00e61633          	sll	a2,a2,a4
    280c:	00d9e9b3          	or	s3,s3,a3
    2810:	0105d933          	srl	s2,a1,a6
    2814:	00c036b3          	snez	a3,a2
    2818:	00d9e6b3          	or	a3,s3,a3
    281c:	012787b3          	add	a5,a5,s2
    2820:	00a689b3          	add	s3,a3,a0
    2824:	00a9b533          	sltu	a0,s3,a0
    2828:	00f50333          	add	t1,a0,a5
    282c:	00831793          	slli	a5,t1,0x8
    2830:	1a07de63          	bgez	a5,29ec <__subdf3+0x3fc>
    2834:	00148493          	addi	s1,s1,1
    2838:	7ff00793          	li	a5,2047
    283c:	1ef48063          	beq	s1,a5,2a1c <__subdf3+0x42c>
    2840:	ff800937          	lui	s2,0xff800
    2844:	fff90913          	addi	s2,s2,-1 # ff7fffff <_etext+0xff7fc573>
    2848:	0019d793          	srli	a5,s3,0x1
    284c:	01237933          	and	s2,t1,s2
    2850:	0019f693          	andi	a3,s3,1
    2854:	00d7e6b3          	or	a3,a5,a3
    2858:	01f91993          	slli	s3,s2,0x1f
    285c:	00d9e9b3          	or	s3,s3,a3
    2860:	00195313          	srli	t1,s2,0x1
    2864:	0079f793          	andi	a5,s3,7
    2868:	02078063          	beqz	a5,2888 <__subdf3+0x298>
    286c:	00f9f593          	andi	a1,s3,15
    2870:	00400793          	li	a5,4
    2874:	00f58a63          	beq	a1,a5,2888 <__subdf3+0x298>
    2878:	00498713          	addi	a4,s3,4
    287c:	013736b3          	sltu	a3,a4,s3
    2880:	00d30333          	add	t1,t1,a3
    2884:	00070993          	mv	s3,a4
    2888:	00831793          	slli	a5,t1,0x8
    288c:	5c07da63          	bgez	a5,2e60 <__subdf3+0x870>
    2890:	00148813          	addi	a6,s1,1
    2894:	7ff00793          	li	a5,2047
    2898:	00147593          	andi	a1,s0,1
    289c:	18f80263          	beq	a6,a5,2a20 <__subdf3+0x430>
    28a0:	ff800737          	lui	a4,0xff800
    28a4:	fff70713          	addi	a4,a4,-1 # ff7fffff <_etext+0xff7fc573>
    28a8:	00e37733          	and	a4,t1,a4
    28ac:	0039d693          	srli	a3,s3,0x3
    28b0:	00971793          	slli	a5,a4,0x9
    28b4:	01d71993          	slli	s3,a4,0x1d
    28b8:	00d9e9b3          	or	s3,s3,a3
    28bc:	00c7d793          	srli	a5,a5,0xc
    28c0:	7ff87813          	andi	a6,a6,2047
    28c4:	de5ff06f          	j	26a8 <__subdf3+0xb8>
    28c8:	fff80713          	addi	a4,a6,-1
    28cc:	14071063          	bnez	a4,2a0c <__subdf3+0x41c>
    28d0:	40c509b3          	sub	s3,a0,a2
    28d4:	40b78933          	sub	s2,a5,a1
    28d8:	01353533          	sltu	a0,a0,s3
    28dc:	40a90333          	sub	t1,s2,a0
    28e0:	00100493          	li	s1,1
    28e4:	00831793          	slli	a5,t1,0x8
    28e8:	1007d263          	bgez	a5,29ec <__subdf3+0x3fc>
    28ec:	00800937          	lui	s2,0x800
    28f0:	fff90913          	addi	s2,s2,-1 # 7fffff <_etext+0x7fc573>
    28f4:	01237933          	and	s2,t1,s2
    28f8:	1a090463          	beqz	s2,2aa0 <__subdf3+0x4b0>
    28fc:	00090513          	mv	a0,s2
    2900:	6b4000ef          	jal	ra,2fb4 <__clzsi2>
    2904:	ff850813          	addi	a6,a0,-8
    2908:	01f00793          	li	a5,31
    290c:	1707c663          	blt	a5,a6,2a78 <__subdf3+0x488>
    2910:	02000313          	li	t1,32
    2914:	41030333          	sub	t1,t1,a6
    2918:	0069d333          	srl	t1,s3,t1
    291c:	01091933          	sll	s2,s2,a6
    2920:	01236933          	or	s2,t1,s2
    2924:	010999b3          	sll	s3,s3,a6
    2928:	16984063          	blt	a6,s1,2a88 <__subdf3+0x498>
    292c:	40980833          	sub	a6,a6,s1
    2930:	00180713          	addi	a4,a6,1
    2934:	01f00793          	li	a5,31
    2938:	1ae7cc63          	blt	a5,a4,2af0 <__subdf3+0x500>
    293c:	02000793          	li	a5,32
    2940:	40e787b3          	sub	a5,a5,a4
    2944:	00f996b3          	sll	a3,s3,a5
    2948:	00e9d633          	srl	a2,s3,a4
    294c:	00f917b3          	sll	a5,s2,a5
    2950:	00c7e7b3          	or	a5,a5,a2
    2954:	00d036b3          	snez	a3,a3
    2958:	00d7e9b3          	or	s3,a5,a3
    295c:	00e95333          	srl	t1,s2,a4
    2960:	0079f793          	andi	a5,s3,7
    2964:	00000493          	li	s1,0
    2968:	f01ff06f          	j	2868 <__subdf3+0x278>
    296c:	20048663          	beqz	s1,2b78 <__subdf3+0x588>
    2970:	7ff00713          	li	a4,2047
    2974:	30e88863          	beq	a7,a4,2c84 <__subdf3+0x694>
    2978:	00800737          	lui	a4,0x800
    297c:	41000833          	neg	a6,a6
    2980:	00e7e7b3          	or	a5,a5,a4
    2984:	03800713          	li	a4,56
    2988:	3b074063          	blt	a4,a6,2d28 <__subdf3+0x738>
    298c:	01f00713          	li	a4,31
    2990:	43074e63          	blt	a4,a6,2dcc <__subdf3+0x7dc>
    2994:	02000713          	li	a4,32
    2998:	41070733          	sub	a4,a4,a6
    299c:	00e799b3          	sll	s3,a5,a4
    29a0:	01055333          	srl	t1,a0,a6
    29a4:	00e51733          	sll	a4,a0,a4
    29a8:	0069e9b3          	or	s3,s3,t1
    29ac:	00e03733          	snez	a4,a4
    29b0:	0107d833          	srl	a6,a5,a6
    29b4:	00e9e9b3          	or	s3,s3,a4
    29b8:	410585b3          	sub	a1,a1,a6
    29bc:	413609b3          	sub	s3,a2,s3
    29c0:	01363633          	sltu	a2,a2,s3
    29c4:	40c58333          	sub	t1,a1,a2
    29c8:	00088493          	mv	s1,a7
    29cc:	00068413          	mv	s0,a3
    29d0:	f15ff06f          	j	28e4 <__subdf3+0x2f4>
    29d4:	00a7e733          	or	a4,a5,a0
    29d8:	04070263          	beqz	a4,2a1c <__subdf3+0x42c>
    29dc:	7ff00813          	li	a6,2047
    29e0:	c9dff06f          	j	267c <__subdf3+0x8c>
    29e4:	0069e7b3          	or	a5,s3,t1
    29e8:	d8078ce3          	beqz	a5,2780 <__subdf3+0x190>
    29ec:	0079f793          	andi	a5,s3,7
    29f0:	e6079ee3          	bnez	a5,286c <__subdf3+0x27c>
    29f4:	01d31793          	slli	a5,t1,0x1d
    29f8:	0039d693          	srli	a3,s3,0x3
    29fc:	00f6e9b3          	or	s3,a3,a5
    2a00:	00048813          	mv	a6,s1
    2a04:	00335793          	srli	a5,t1,0x3
    2a08:	c85ff06f          	j	268c <__subdf3+0x9c>
    2a0c:	7ff00693          	li	a3,2047
    2a10:	18d81663          	bne	a6,a3,2b9c <__subdf3+0x5ac>
    2a14:	00a7e733          	or	a4,a5,a0
    2a18:	c60712e3          	bnez	a4,267c <__subdf3+0x8c>
    2a1c:	00147593          	andi	a1,s0,1
    2a20:	7ff00813          	li	a6,2047
    2a24:	00000793          	li	a5,0
    2a28:	00000993          	li	s3,0
    2a2c:	c7dff06f          	j	26a8 <__subdf3+0xb8>
    2a30:	18081e63          	bnez	a6,2bcc <__subdf3+0x5dc>
    2a34:	00148893          	addi	a7,s1,1
    2a38:	7ff8f813          	andi	a6,a7,2047
    2a3c:	00100713          	li	a4,1
    2a40:	1d075663          	ble	a6,a4,2c0c <__subdf3+0x61c>
    2a44:	7ff00713          	li	a4,2047
    2a48:	fce88ae3          	beq	a7,a4,2a1c <__subdf3+0x42c>
    2a4c:	00c50633          	add	a2,a0,a2
    2a50:	00b78933          	add	s2,a5,a1
    2a54:	00a63533          	sltu	a0,a2,a0
    2a58:	00a90533          	add	a0,s2,a0
    2a5c:	01f51693          	slli	a3,a0,0x1f
    2a60:	00165613          	srli	a2,a2,0x1
    2a64:	00c6e9b3          	or	s3,a3,a2
    2a68:	00155313          	srli	t1,a0,0x1
    2a6c:	0079f793          	andi	a5,s3,7
    2a70:	00088493          	mv	s1,a7
    2a74:	df5ff06f          	j	2868 <__subdf3+0x278>
    2a78:	fd850913          	addi	s2,a0,-40
    2a7c:	01299933          	sll	s2,s3,s2
    2a80:	00000993          	li	s3,0
    2a84:	ea9854e3          	ble	s1,a6,292c <__subdf3+0x33c>
    2a88:	ff800737          	lui	a4,0xff800
    2a8c:	fff70713          	addi	a4,a4,-1 # ff7fffff <_etext+0xff7fc573>
    2a90:	410484b3          	sub	s1,s1,a6
    2a94:	00e97333          	and	t1,s2,a4
    2a98:	0079f793          	andi	a5,s3,7
    2a9c:	dcdff06f          	j	2868 <__subdf3+0x278>
    2aa0:	00098513          	mv	a0,s3
    2aa4:	510000ef          	jal	ra,2fb4 <__clzsi2>
    2aa8:	02050513          	addi	a0,a0,32
    2aac:	e59ff06f          	j	2904 <__subdf3+0x314>
    2ab0:	00c5e633          	or	a2,a1,a2
    2ab4:	00c036b3          	snez	a3,a2
    2ab8:	40d509b3          	sub	s3,a0,a3
    2abc:	01353533          	sltu	a0,a0,s3
    2ac0:	40a78333          	sub	t1,a5,a0
    2ac4:	e21ff06f          	j	28e4 <__subdf3+0x2f4>
    2ac8:	00a7e733          	or	a4,a5,a0
    2acc:	00c5e9b3          	or	s3,a1,a2
    2ad0:	0c049a63          	bnez	s1,2ba4 <__subdf3+0x5b4>
    2ad4:	2a071a63          	bnez	a4,2d88 <__subdf3+0x798>
    2ad8:	32098c63          	beqz	s3,2e10 <__subdf3+0x820>
    2adc:	00058793          	mv	a5,a1
    2ae0:	00060513          	mv	a0,a2
    2ae4:	00048813          	mv	a6,s1
    2ae8:	00068413          	mv	s0,a3
    2aec:	b91ff06f          	j	267c <__subdf3+0x8c>
    2af0:	fe180813          	addi	a6,a6,-31
    2af4:	02000793          	li	a5,32
    2af8:	01095833          	srl	a6,s2,a6
    2afc:	00f70a63          	beq	a4,a5,2b10 <__subdf3+0x520>
    2b00:	04000313          	li	t1,64
    2b04:	40e30333          	sub	t1,t1,a4
    2b08:	00691933          	sll	s2,s2,t1
    2b0c:	0129e9b3          	or	s3,s3,s2
    2b10:	013036b3          	snez	a3,s3
    2b14:	0106e9b3          	or	s3,a3,a6
    2b18:	0079f793          	andi	a5,s3,7
    2b1c:	00000313          	li	t1,0
    2b20:	00000493          	li	s1,0
    2b24:	ecdff06f          	j	29f0 <__subdf3+0x400>
    2b28:	40a609b3          	sub	s3,a2,a0
    2b2c:	40f58933          	sub	s2,a1,a5
    2b30:	01363633          	sltu	a2,a2,s3
    2b34:	40c90933          	sub	s2,s2,a2
    2b38:	00068413          	mv	s0,a3
    2b3c:	dbdff06f          	j	28f8 <__subdf3+0x308>
    2b40:	00c5e633          	or	a2,a1,a2
    2b44:	00c036b3          	snez	a3,a2
    2b48:	cd9ff06f          	j	2820 <__subdf3+0x230>
    2b4c:	02000713          	li	a4,32
    2b50:	41070733          	sub	a4,a4,a6
    2b54:	010656b3          	srl	a3,a2,a6
    2b58:	00e599b3          	sll	s3,a1,a4
    2b5c:	00e61633          	sll	a2,a2,a4
    2b60:	00d9e9b3          	or	s3,s3,a3
    2b64:	0105d933          	srl	s2,a1,a6
    2b68:	00c036b3          	snez	a3,a2
    2b6c:	00d9e6b3          	or	a3,s3,a3
    2b70:	412787b3          	sub	a5,a5,s2
    2b74:	f45ff06f          	j	2ab8 <__subdf3+0x4c8>
    2b78:	00a7e733          	or	a4,a5,a0
    2b7c:	0e071a63          	bnez	a4,2c70 <__subdf3+0x680>
    2b80:	7ff00793          	li	a5,2047
    2b84:	10f88063          	beq	a7,a5,2c84 <__subdf3+0x694>
    2b88:	00088813          	mv	a6,a7
    2b8c:	00068413          	mv	s0,a3
    2b90:	00058793          	mv	a5,a1
    2b94:	00060513          	mv	a0,a2
    2b98:	ae5ff06f          	j	267c <__subdf3+0x8c>
    2b9c:	00070813          	mv	a6,a4
    2ba0:	c01ff06f          	j	27a0 <__subdf3+0x1b0>
    2ba4:	1a071663          	bnez	a4,2d50 <__subdf3+0x760>
    2ba8:	1a099063          	bnez	s3,2d48 <__subdf3+0x758>
    2bac:	00000593          	li	a1,0
    2bb0:	7ff00813          	li	a6,2047
    2bb4:	000807b7          	lui	a5,0x80
    2bb8:	af1ff06f          	j	26a8 <__subdf3+0xb8>
    2bbc:	7ff00693          	li	a3,2047
    2bc0:	e4d80ae3          	beq	a6,a3,2a14 <__subdf3+0x424>
    2bc4:	00070813          	mv	a6,a4
    2bc8:	c21ff06f          	j	27e8 <__subdf3+0x1f8>
    2bcc:	0e049e63          	bnez	s1,2cc8 <__subdf3+0x6d8>
    2bd0:	00a7e733          	or	a4,a5,a0
    2bd4:	18071463          	bnez	a4,2d5c <__subdf3+0x76c>
    2bd8:	7ff00793          	li	a5,2047
    2bdc:	18f88a63          	beq	a7,a5,2d70 <__subdf3+0x780>
    2be0:	00088813          	mv	a6,a7
    2be4:	00058793          	mv	a5,a1
    2be8:	00060513          	mv	a0,a2
    2bec:	a91ff06f          	j	267c <__subdf3+0x8c>
    2bf0:	0137e7b3          	or	a5,a5,s3
    2bf4:	e20784e3          	beqz	a5,2a1c <__subdf3+0x42c>
    2bf8:	00000593          	li	a1,0
    2bfc:	7ff00813          	li	a6,2047
    2c00:	000807b7          	lui	a5,0x80
    2c04:	00000993          	li	s3,0
    2c08:	aa1ff06f          	j	26a8 <__subdf3+0xb8>
    2c0c:	00a7e733          	or	a4,a5,a0
    2c10:	12049263          	bnez	s1,2d34 <__subdf3+0x744>
    2c14:	04070463          	beqz	a4,2c5c <__subdf3+0x66c>
    2c18:	00c5e733          	or	a4,a1,a2
    2c1c:	02070c63          	beqz	a4,2c54 <__subdf3+0x664>
    2c20:	00c509b3          	add	s3,a0,a2
    2c24:	00b78933          	add	s2,a5,a1
    2c28:	00a9b533          	sltu	a0,s3,a0
    2c2c:	00a90333          	add	t1,s2,a0
    2c30:	00831713          	slli	a4,t1,0x8
    2c34:	0079f793          	andi	a5,s3,7
    2c38:	da075ce3          	bgez	a4,29f0 <__subdf3+0x400>
    2c3c:	ff800737          	lui	a4,0xff800
    2c40:	fff70713          	addi	a4,a4,-1 # ff7fffff <_etext+0xff7fc573>
    2c44:	00e37333          	and	t1,t1,a4
    2c48:	00100493          	li	s1,1
    2c4c:	c1dff06f          	j	2868 <__subdf3+0x278>
    2c50:	00040693          	mv	a3,s0
    2c54:	00078593          	mv	a1,a5
    2c58:	00050613          	mv	a2,a0
    2c5c:	00048813          	mv	a6,s1
    2c60:	00068413          	mv	s0,a3
    2c64:	00058793          	mv	a5,a1
    2c68:	00060513          	mv	a0,a2
    2c6c:	a11ff06f          	j	267c <__subdf3+0x8c>
    2c70:	fff00713          	li	a4,-1
    2c74:	18e80063          	beq	a6,a4,2df4 <__subdf3+0x804>
    2c78:	7ff00713          	li	a4,2047
    2c7c:	fff84813          	not	a6,a6
    2c80:	d0e892e3          	bne	a7,a4,2984 <__subdf3+0x394>
    2c84:	00c5e7b3          	or	a5,a1,a2
    2c88:	00068413          	mv	s0,a3
    2c8c:	d80788e3          	beqz	a5,2a1c <__subdf3+0x42c>
    2c90:	00058793          	mv	a5,a1
    2c94:	00060513          	mv	a0,a2
    2c98:	7ff00813          	li	a6,2047
    2c9c:	9e1ff06f          	j	267c <__subdf3+0x8c>
    2ca0:	02000713          	li	a4,32
    2ca4:	0105d6b3          	srl	a3,a1,a6
    2ca8:	00e80a63          	beq	a6,a4,2cbc <__subdf3+0x6cc>
    2cac:	04000913          	li	s2,64
    2cb0:	41090833          	sub	a6,s2,a6
    2cb4:	01059933          	sll	s2,a1,a6
    2cb8:	01266633          	or	a2,a2,s2
    2cbc:	00c03633          	snez	a2,a2
    2cc0:	00d666b3          	or	a3,a2,a3
    2cc4:	b5dff06f          	j	2820 <__subdf3+0x230>
    2cc8:	7ff00713          	li	a4,2047
    2ccc:	0ae88263          	beq	a7,a4,2d70 <__subdf3+0x780>
    2cd0:	00800737          	lui	a4,0x800
    2cd4:	41000833          	neg	a6,a6
    2cd8:	00e7e7b3          	or	a5,a5,a4
    2cdc:	03800713          	li	a4,56
    2ce0:	0f074063          	blt	a4,a6,2dc0 <__subdf3+0x7d0>
    2ce4:	01f00713          	li	a4,31
    2ce8:	13074c63          	blt	a4,a6,2e20 <__subdf3+0x830>
    2cec:	02000713          	li	a4,32
    2cf0:	41070733          	sub	a4,a4,a6
    2cf4:	01055333          	srl	t1,a0,a6
    2cf8:	00e796b3          	sll	a3,a5,a4
    2cfc:	00e51533          	sll	a0,a0,a4
    2d00:	0066e6b3          	or	a3,a3,t1
    2d04:	00a039b3          	snez	s3,a0
    2d08:	0107d833          	srl	a6,a5,a6
    2d0c:	0136e6b3          	or	a3,a3,s3
    2d10:	010585b3          	add	a1,a1,a6
    2d14:	00c689b3          	add	s3,a3,a2
    2d18:	00c9b633          	sltu	a2,s3,a2
    2d1c:	00b60333          	add	t1,a2,a1
    2d20:	00088493          	mv	s1,a7
    2d24:	b09ff06f          	j	282c <__subdf3+0x23c>
    2d28:	00a7e533          	or	a0,a5,a0
    2d2c:	00a039b3          	snez	s3,a0
    2d30:	c8dff06f          	j	29bc <__subdf3+0x3cc>
    2d34:	00070a63          	beqz	a4,2d48 <__subdf3+0x758>
    2d38:	00c5e633          	or	a2,a1,a2
    2d3c:	ea061ee3          	bnez	a2,2bf8 <__subdf3+0x608>
    2d40:	7ff00813          	li	a6,2047
    2d44:	939ff06f          	j	267c <__subdf3+0x8c>
    2d48:	7ff00493          	li	s1,2047
    2d4c:	f11ff06f          	j	2c5c <__subdf3+0x66c>
    2d50:	ea0994e3          	bnez	s3,2bf8 <__subdf3+0x608>
    2d54:	7ff00813          	li	a6,2047
    2d58:	925ff06f          	j	267c <__subdf3+0x8c>
    2d5c:	fff00713          	li	a4,-1
    2d60:	0ee80463          	beq	a6,a4,2e48 <__subdf3+0x858>
    2d64:	7ff00713          	li	a4,2047
    2d68:	fff84813          	not	a6,a6
    2d6c:	f6e898e3          	bne	a7,a4,2cdc <__subdf3+0x6ec>
    2d70:	00c5e7b3          	or	a5,a1,a2
    2d74:	ca0784e3          	beqz	a5,2a1c <__subdf3+0x42c>
    2d78:	00058793          	mv	a5,a1
    2d7c:	00060513          	mv	a0,a2
    2d80:	7ff00813          	li	a6,2047
    2d84:	8f9ff06f          	j	267c <__subdf3+0x8c>
    2d88:	ec0984e3          	beqz	s3,2c50 <__subdf3+0x660>
    2d8c:	40c509b3          	sub	s3,a0,a2
    2d90:	40b78333          	sub	t1,a5,a1
    2d94:	01353933          	sltu	s2,a0,s3
    2d98:	41230333          	sub	t1,t1,s2
    2d9c:	00831713          	slli	a4,t1,0x8
    2da0:	c40752e3          	bgez	a4,29e4 <__subdf3+0x3f4>
    2da4:	40a609b3          	sub	s3,a2,a0
    2da8:	40f58933          	sub	s2,a1,a5
    2dac:	01363633          	sltu	a2,a2,s3
    2db0:	40c90333          	sub	t1,s2,a2
    2db4:	0079f793          	andi	a5,s3,7
    2db8:	00068413          	mv	s0,a3
    2dbc:	aadff06f          	j	2868 <__subdf3+0x278>
    2dc0:	00a7e533          	or	a0,a5,a0
    2dc4:	00a036b3          	snez	a3,a0
    2dc8:	f4dff06f          	j	2d14 <__subdf3+0x724>
    2dcc:	02000713          	li	a4,32
    2dd0:	0107d9b3          	srl	s3,a5,a6
    2dd4:	00e80a63          	beq	a6,a4,2de8 <__subdf3+0x7f8>
    2dd8:	04000713          	li	a4,64
    2ddc:	41070833          	sub	a6,a4,a6
    2de0:	010797b3          	sll	a5,a5,a6
    2de4:	00f56533          	or	a0,a0,a5
    2de8:	00a03533          	snez	a0,a0
    2dec:	013569b3          	or	s3,a0,s3
    2df0:	bcdff06f          	j	29bc <__subdf3+0x3cc>
    2df4:	40a609b3          	sub	s3,a2,a0
    2df8:	40f58933          	sub	s2,a1,a5
    2dfc:	01363633          	sltu	a2,a2,s3
    2e00:	40c90333          	sub	t1,s2,a2
    2e04:	00088493          	mv	s1,a7
    2e08:	00068413          	mv	s0,a3
    2e0c:	ad9ff06f          	j	28e4 <__subdf3+0x2f4>
    2e10:	00000413          	li	s0,0
    2e14:	00040813          	mv	a6,s0
    2e18:	00000793          	li	a5,0
    2e1c:	879ff06f          	j	2694 <__subdf3+0xa4>
    2e20:	02000713          	li	a4,32
    2e24:	0107d6b3          	srl	a3,a5,a6
    2e28:	00e80a63          	beq	a6,a4,2e3c <__subdf3+0x84c>
    2e2c:	04000713          	li	a4,64
    2e30:	41070833          	sub	a6,a4,a6
    2e34:	010797b3          	sll	a5,a5,a6
    2e38:	00f56533          	or	a0,a0,a5
    2e3c:	00a03533          	snez	a0,a0
    2e40:	00d566b3          	or	a3,a0,a3
    2e44:	ed1ff06f          	j	2d14 <__subdf3+0x724>
    2e48:	00c509b3          	add	s3,a0,a2
    2e4c:	00b78933          	add	s2,a5,a1
    2e50:	00c9b633          	sltu	a2,s3,a2
    2e54:	00c90333          	add	t1,s2,a2
    2e58:	00088493          	mv	s1,a7
    2e5c:	9d1ff06f          	j	282c <__subdf3+0x23c>
    2e60:	00048813          	mv	a6,s1
    2e64:	00030793          	mv	a5,t1
    2e68:	00098513          	mv	a0,s3
    2e6c:	811ff06f          	j	267c <__subdf3+0x8c>

00002e70 <__fixdfsi>:
__fixdfsi():
    2e70:	0145d793          	srli	a5,a1,0x14
    2e74:	001006b7          	lui	a3,0x100
    2e78:	fff68713          	addi	a4,a3,-1 # fffff <_etext+0xfc573>
    2e7c:	7ff7f793          	andi	a5,a5,2047
    2e80:	3fe00613          	li	a2,1022
    2e84:	00b77733          	and	a4,a4,a1
    2e88:	01f5d593          	srli	a1,a1,0x1f
    2e8c:	04f65663          	ble	a5,a2,2ed8 <__fixdfsi+0x68>
    2e90:	41d00613          	li	a2,1053
    2e94:	02f64a63          	blt	a2,a5,2ec8 <__fixdfsi+0x58>
    2e98:	43300613          	li	a2,1075
    2e9c:	40f60633          	sub	a2,a2,a5
    2ea0:	01f00813          	li	a6,31
    2ea4:	00d76733          	or	a4,a4,a3
    2ea8:	02c85c63          	ble	a2,a6,2ee0 <__fixdfsi+0x70>
    2eac:	41300693          	li	a3,1043
    2eb0:	40f687b3          	sub	a5,a3,a5
    2eb4:	00f757b3          	srl	a5,a4,a5
    2eb8:	40f00533          	neg	a0,a5
    2ebc:	02059063          	bnez	a1,2edc <__fixdfsi+0x6c>
    2ec0:	00078513          	mv	a0,a5
    2ec4:	00008067          	ret
    2ec8:	80000537          	lui	a0,0x80000
    2ecc:	fff54513          	not	a0,a0
    2ed0:	00a58533          	add	a0,a1,a0
    2ed4:	00008067          	ret
    2ed8:	00000513          	li	a0,0
    2edc:	00008067          	ret
    2ee0:	bed78793          	addi	a5,a5,-1043 # 7fbed <_etext+0x7c161>
    2ee4:	00f717b3          	sll	a5,a4,a5
    2ee8:	00c55533          	srl	a0,a0,a2
    2eec:	00a7e7b3          	or	a5,a5,a0
    2ef0:	fc9ff06f          	j	2eb8 <__fixdfsi+0x48>

00002ef4 <__floatunsidf>:
__floatunsidf():
    2ef4:	ff010113          	addi	sp,sp,-16
    2ef8:	00112623          	sw	ra,12(sp)
    2efc:	00812423          	sw	s0,8(sp)
    2f00:	0a050263          	beqz	a0,2fa4 <__floatunsidf+0xb0>
    2f04:	00050413          	mv	s0,a0
    2f08:	0ac000ef          	jal	ra,2fb4 <__clzsi2>
    2f0c:	41e00693          	li	a3,1054
    2f10:	40a686b3          	sub	a3,a3,a0
    2f14:	00a00793          	li	a5,10
    2f18:	7ff6f693          	andi	a3,a3,2047
    2f1c:	06a7d263          	ble	a0,a5,2f80 <__floatunsidf+0x8c>
    2f20:	ff550793          	addi	a5,a0,-11 # 7ffffff5 <_etext+0x7fffc569>
    2f24:	00100737          	lui	a4,0x100
    2f28:	00f417b3          	sll	a5,s0,a5
    2f2c:	fff70713          	addi	a4,a4,-1 # fffff <_etext+0xfc573>
    2f30:	00e7f7b3          	and	a5,a5,a4
    2f34:	00000513          	li	a0,0
    2f38:	00100737          	lui	a4,0x100
    2f3c:	fff70713          	addi	a4,a4,-1 # fffff <_etext+0xfc573>
    2f40:	00e7f7b3          	and	a5,a5,a4
    2f44:	80100737          	lui	a4,0x80100
    2f48:	fff70713          	addi	a4,a4,-1 # 800fffff <_etext+0x800fc573>
    2f4c:	01469693          	slli	a3,a3,0x14
    2f50:	00e7f733          	and	a4,a5,a4
    2f54:	00d76733          	or	a4,a4,a3
    2f58:	00c12083          	lw	ra,12(sp)
    2f5c:	00812403          	lw	s0,8(sp)
    2f60:	800006b7          	lui	a3,0x80000
    2f64:	fff6c693          	not	a3,a3
    2f68:	00050793          	mv	a5,a0
    2f6c:	00d77733          	and	a4,a4,a3
    2f70:	00078513          	mv	a0,a5
    2f74:	00070593          	mv	a1,a4
    2f78:	01010113          	addi	sp,sp,16
    2f7c:	00008067          	ret
    2f80:	00b00793          	li	a5,11
    2f84:	40a787b3          	sub	a5,a5,a0
    2f88:	00100737          	lui	a4,0x100
    2f8c:	01550513          	addi	a0,a0,21
    2f90:	00f457b3          	srl	a5,s0,a5
    2f94:	fff70713          	addi	a4,a4,-1 # fffff <_etext+0xfc573>
    2f98:	00a41533          	sll	a0,s0,a0
    2f9c:	00e7f7b3          	and	a5,a5,a4
    2fa0:	f99ff06f          	j	2f38 <__floatunsidf+0x44>
    2fa4:	00000693          	li	a3,0
    2fa8:	00000793          	li	a5,0
    2fac:	00000513          	li	a0,0
    2fb0:	f89ff06f          	j	2f38 <__floatunsidf+0x44>

00002fb4 <__clzsi2>:
__clzsi2():
    2fb4:	000107b7          	lui	a5,0x10
    2fb8:	02f57463          	bleu	a5,a0,2fe0 <__clzsi2+0x2c>
    2fbc:	0ff00793          	li	a5,255
    2fc0:	02000713          	li	a4,32
    2fc4:	04a7e263          	bltu	a5,a0,3008 <__clzsi2+0x54>
    2fc8:	00001797          	auipc	a5,0x1
    2fcc:	9c478793          	addi	a5,a5,-1596 # 398c <__clz_tab>
    2fd0:	00a78533          	add	a0,a5,a0
    2fd4:	00054503          	lbu	a0,0(a0)
    2fd8:	40a70533          	sub	a0,a4,a0
    2fdc:	00008067          	ret
    2fe0:	010007b7          	lui	a5,0x1000
    2fe4:	04f56263          	bltu	a0,a5,3028 <__clzsi2+0x74>
    2fe8:	00001797          	auipc	a5,0x1
    2fec:	9a478793          	addi	a5,a5,-1628 # 398c <__clz_tab>
    2ff0:	01855513          	srli	a0,a0,0x18
    2ff4:	00a78533          	add	a0,a5,a0
    2ff8:	00054503          	lbu	a0,0(a0)
    2ffc:	00800713          	li	a4,8
    3000:	40a70533          	sub	a0,a4,a0
    3004:	00008067          	ret
    3008:	00001797          	auipc	a5,0x1
    300c:	98478793          	addi	a5,a5,-1660 # 398c <__clz_tab>
    3010:	00855513          	srli	a0,a0,0x8
    3014:	00a78533          	add	a0,a5,a0
    3018:	00054503          	lbu	a0,0(a0)
    301c:	01800713          	li	a4,24
    3020:	40a70533          	sub	a0,a4,a0
    3024:	00008067          	ret
    3028:	00001797          	auipc	a5,0x1
    302c:	96478793          	addi	a5,a5,-1692 # 398c <__clz_tab>
    3030:	01055513          	srli	a0,a0,0x10
    3034:	00a78533          	add	a0,a5,a0
    3038:	00054503          	lbu	a0,0(a0)
    303c:	01000713          	li	a4,16
    3040:	40a70533          	sub	a0,a4,a0
    3044:	00008067          	ret

00003048 <srand>:
srand():
    3048:	42c00793          	li	a5,1068
    304c:	0007a783          	lw	a5,0(a5)
    3050:	0aa7a423          	sw	a0,168(a5)
    3054:	0a07a623          	sw	zero,172(a5)
    3058:	00008067          	ret

0000305c <rand>:
rand():
    305c:	42c00793          	li	a5,1068
    3060:	0007a583          	lw	a1,0(a5)
    3064:	4c958637          	lui	a2,0x4c958
    3068:	f2d60613          	addi	a2,a2,-211 # 4c957f2d <_etext+0x4c9544a1>
    306c:	0a85a703          	lw	a4,168(a1)
    3070:	0ac5a503          	lw	a0,172(a1)
    3074:	02c707b3          	mul	a5,a4,a2
    3078:	00178693          	addi	a3,a5,1
    307c:	00f6b7b3          	sltu	a5,a3,a5
    3080:	0ad5a423          	sw	a3,168(a1)
    3084:	5851f6b7          	lui	a3,0x5851f
    3088:	42d68693          	addi	a3,a3,1069 # 5851f42d <_etext+0x5851b9a1>
    308c:	02d706b3          	mul	a3,a4,a3
    3090:	02c50533          	mul	a0,a0,a2
    3094:	02c73733          	mulhu	a4,a4,a2
    3098:	00d50533          	add	a0,a0,a3
    309c:	00e50533          	add	a0,a0,a4
    30a0:	00a787b3          	add	a5,a5,a0
    30a4:	80000537          	lui	a0,0x80000
    30a8:	fff54513          	not	a0,a0
    30ac:	0af5a623          	sw	a5,172(a1)
    30b0:	00a7f533          	and	a0,a5,a0
    30b4:	00008067          	ret

000030b8 <F8X16>:
	...
    30c8:	40000000 40404040 00004040 00004040     ...@@@@@@@..@@..
    30d8:	28787800 00005050 00000000 00000000     .xx(PP..........
    30e8:	50000000 60f05050 60f06060 00006060     ...PPP.```.```..
    30f8:	60200000 60a0b0b0 b0303020 202060b0     .. `...` 00..`  
    3108:	44000000 b0a8a8a4 2a2a1a54 0000444a     ...D....T.**JD..
    3118:	30000000 50484848 9894a46e 00007689     ...0HHHPn....v..
    3128:	08181800 00002010 00000000 00000000     ..... ..........
    3138:	08040200 10101008 08101010 00020408     ................
    3148:	10204000 08080810 10080808 00402010     .@ .......... @.
    3158:	00000000 38d61010 1010d638 00000000     .......88.......
    3168:	00000000 08080800 0808087f 00000000     ................
	...
    3184:	40202060 00000000 00000000 0000007e     `  @........~...
	...
    31a4:	00006060 04020000 08080404 20101010     ``............. 
    31b4:	00404020 18000000 42424224 42424242      @@.....$BBBBBBB
    31c4:	00001824 08000000 08080838 08080808     $.......8.......
    31d4:	00003e08 3c000000 02424242 20100804     .>.....<BBB.... 
    31e4:	00007e42 3c000000 04024242 42020418     B~.....<BB.....B
    31f4:	00003c42 04000000 24140c0c 047f4424     B<.........$$D..
    3204:	00001f04 7e000000 78404040 42020244     .......~@@@xD..B
    3214:	00003844 18000000 5c404024 42424262     D8......$@@\bBBB
    3224:	00001c22 7e000000 08040442 10101008     "......~B.......
    3234:	00001010 3c000000 24424242 42422418     .......<BBB$.$BB
    3244:	00003c42 38000000 42424244 02023a46     B<.....8DBBBF:..
    3254:	00001824 00000000 18180000 00000000     $...............
    3264:	00001818 00000000 10000000 00000000     ................
    3274:	10101000 02000000 20100804 08102040     ........... @ ..
    3284:	00000204 00000000 007e0000 00007e00     ..........~..~..
    3294:	00000000 40000000 04081020 10080402     .......@ .......
    32a4:	00004020 3c000000 04624242 00080808      @.....<BBb.....
    32b4:	00001818 38000000 aaaa5a44 5caaaaaa     .......8DZ.....\
    32c4:	00003c42 10000000 28281810 42443c24     B<........(($<DB
    32d4:	0000e742 f8000000 78444444 42424244     B.......DDDxDBBB
    32e4:	0000f844 3e000000 80804242 42808080     D......>BB.....B
    32f4:	00003844 f8000000 42424244 42424242     D8......DBBBBBBB
    3304:	0000f844 fc000000 78484842 42404848     D.......BHHxHH@B
    3314:	0000fc42 fc000000 78484842 40404848     B.......BHHxHH@@
    3324:	0000e040 3c000000 80804444 44848e80     @......<DD.....D
    3334:	00003844 e7000000 42424242 4242427e     D8......BBBB~BBB
    3344:	0000e742 7c000000 10101010 10101010     B......|........
    3354:	00007c10 3e000000 08080808 08080808     .|.....>........
    3364:	f0880808 ee000000 70504844 44484850     ........DHPpPHHD
    3374:	0000ee44 e0000000 40404040 40404040     D.......@@@@@@@@
    3384:	0000fe42 ee000000 6c6c6c6c 5454546c     B.......lllllTTT
    3394:	0000d654 c7000000 52526262 464a4a4a     T.......bbRRJJJF
    33a4:	0000e246 38000000 82828244 82828282     F......8D.......
    33b4:	00003844 fc000000 42424242 4040407c     D8......BBBB|@@@
    33c4:	0000e040 38000000 82828244 b2828282     @......8D.......
    33d4:	0006384c fc000000 7c424242 44444848     L8......BBB|HHDD
    33e4:	0000e342 3e000000 20404242 42020418     B......>BB@ ...B
    33f4:	00007c42 fe000000 10101092 10101010     B|..............
    3404:	00003810 e7000000 42424242 42424242     .8......BBBBBBBB
    3414:	00003c42 e7000000 24444242 18282824     B<......BBD$$((.
    3424:	00001010 d6000000 54545454 28286c54     ........TTTTTl((
    3434:	00002828 e7000000 18242442 24241818     ((......B$$...$$
    3444:	0000e742 ee000000 28284444 10101010     B.......DD((....
    3454:	00003810 7e000000 08080484 42202010     .8.....~.....  B
    3464:	0000fc42 10101e00 10101010 10101010     B...............
    3474:	001e1010 20400000 10102020 04080810     ......@   ......
    3484:	02020404 08087800 08080808 08080808     .....x..........
    3494:	00780808 00241800 00000000 00000000     ..x...$.........
	...
    34b4:	ff000000 00106000 00000000 00000000     .....`..........
	...
    34cc:	38000000 44340c44 0000364c 00000000     ...8D.4DL6......
    34dc:	584040c0 42424264 00005864 00000000     .@@XdBBBdX......
    34ec:	1c000000 40404022 00001c22 00000000     ...."@@@".......
    34fc:	3e020206 42424242 00003b46 00000000     ...>BBBBF;......
    350c:	3c000000 407e4242 00003c42 00000000     ...<BB~@B<......
    351c:	7c10120c 10101010 00007c10 00000000     ...|.....|......
    352c:	3e000000 40384444 3c42423c 00000000     ...>DD8@<BB<....
    353c:	5c4040c0 42424262 0000e742 30000000     .@@\bBBBB......0
    354c:	70000030 10101010 00007c10 0c000000     0..p.....|......
    355c:	1c00000c 04040404 78440404 00000000     ..........Dx....
    356c:	4e4040c0 48705048 0000ee44 10000000     .@@NHPpHD.......
    357c:	10101070 10101010 00007c10 00000000     p........|......
    358c:	fe000000 49494949 0000ed49 00000000     ....IIIII.......
    359c:	dc000000 42424262 0000e742 00000000     ....bBBBB.......
    35ac:	3c000000 42424242 00003c42 00000000     ...<BBBBB<......
    35bc:	d8000000 42424264 e0405864 00000000     ....dBBBdX@.....
    35cc:	1a000000 42424226 07021a26 00000000     ....&BBB&.......
    35dc:	ee000000 20202032 0000f820 00000000     ....2    .......
    35ec:	3e000000 023c4042 00007c42 00000000     ...>B@<.B|......
    35fc:	7c101000 10101010 00000c12 00000000     ...|............
    360c:	c6000000 42424242 00003b46 00000000     ....BBBBF;......
    361c:	ee000000 28284444 00001010 00000000     ....DD((........
    362c:	db000000 545a4a89 00002424 00000000     .....JZT$$......
    363c:	76000000 18181824 00006e24 00000000     ...v$...$n......
    364c:	e7000000 18242442 60101018 00000000     ....B$$....`....
    365c:	7e000000 10100844 00007e22 04040300     ...~D..."~......
    366c:	04040404 04040408 00030404 08080808     ................
    367c:	08080808 08080808 08080808 2020c000     ..............  
    368c:	20202020 20202010 00c02020 00045a20         .     .. Z..
	...

000036a8 <bitmap_bytes>:
    36a8:	00000001 00010000 047ff01f 1010fc7f     ................
    36b8:	00010441 087f1010 1010f83f 00021041     A.......?...A...
    36c8:	227f1010 1010feff 20080208 c4fff01f     ..."....... ....
    36d8:	10101010 e82f0800 107f1010 101026c8     ....../......&..
    36e8:	20082241 027f1010 1010e00f 20080408     A". ........... 
    36f8:	08491010 f01f2008 e00f9088 60181010     ..I.. .........`
    3708:	765f6577 64696c61 0064253a 00000000     we_valid:%d.....
    3718:	353f7cee 4040ba5e aaaaaaab 4040aaaa     .|?5^.@@......@@
    3728:	6c6c6548 6952206f 562d6373 6e615020     Hello Risc-V Pan
    3738:	32206f67 0a393130 00000000 39313032     go 2019.....2019
    3748:	00000000 74736574 74616420 203d2061     ....test data = 
    3758:	252c6425 73252c66 2078302c 7825203d     %d,%f,%s,0x = %x
    3768:	0000000a 706d6973 6320656c 75706d6f     ....simple compu
    3778:	3a206574 2a303520 3d203031 2c642520     te : 50*10 = %d,
    3788:	2f303031 203d2033 312c6625 33253030     100/3 = %f,100%3
    3798:	25203d20 00000a64 74736574 0000000a      = %d...test....
    37a8:	70746567 3d203273 0a642520 00000000     getps2 = %d.....
    37b8:	20756f59 64616564 00212121 73657250     You dead!!!.Pres
    37c8:	58272073 206f7427 74736572 00747261     s 'X'to restart.
    37d8:	726f6353 00003a65 00001e1e 00001e1e     Score:..........
    37e8:	00001e1e 00001e1e 00001e1e 00001e1e     ................
    37f8:	00001e1e 00001e1e 00001e1e 00001e1e     ................
    3808:	00001e1e 00001e1e 00001e1e 00001e1e     ................
    3818:	00001e1e 00001e1e 00001e1e 00001e1e     ................
    3828:	00001e1e 00001e1e 00001e1e 00001e1e     ................
    3838:	00001e1e 00001e1e 00001e1e 00001e1e     ................
    3848:	00001e1e 00001e1e 00001e1e 00001e1e     ................
    3858:	00001e1e 00001e56 00001e1e 00001e1e     ....V...........
    3868:	00001e1e 00001e1e 00001e1e 00001e1e     ................
    3878:	00001e1e 00001e1e 00001e1e 00001e1e     ................
    3888:	00001e1e 00001e1e 00001e1e 00001e1e     ................
    3898:	00001e68 00001e1e 00001e1e 00001e1e     h...............
    38a8:	00001e1e 00001e40 00001e1e 00001e1e     ....@...........
    38b8:	00001e1e 00001e1e 00001e1e 00001e1e     ................
    38c8:	00001e1e 00001e1e 00001e1e 00001e1e     ................
    38d8:	00001e2a 00001e56 00001e1e 00001e92     *...V...........
    38e8:	00001e1e 00001e1e 00001e56 00001e1e     ........V.......
    38f8:	00001e1e 00001e1e 00001e1e 00001e1e     ................
    3908:	00001e1e 00001e1e 00001e1e 00001e1e     ................
    3918:	00001e68 00001e1e 00001e1e 00001e1e     h...............
    3928:	00001e1e 00001e40 00000000 412e8480     ....@..........A
    3938:	33323130 37363534 62613938 66656463     0123456789abcdef
    3948:	00000000 ffffe8d4 ffffe800 ffffe800     ................
    3958:	ffffe7fc ffffe820 ffffe820 ffffe790     .... ... .......
    3968:	ffffe7fc ffffe820 ffffe790 ffffe820     .... ....... ...
    3978:	ffffe7fc ffffe81c ffffe81c ffffe81c     ................
    3988:	ffffe790                                ....

0000398c <__clz_tab>:
    398c:	02020100 03030303 04040404 04040404     ................
    399c:	05050505 05050505 05050505 05050505     ................
    39ac:	06060606 06060606 06060606 06060606     ................
    39bc:	06060606 06060606 06060606 06060606     ................
    39cc:	07070707 07070707 07070707 07070707     ................
    39dc:	07070707 07070707 07070707 07070707     ................
    39ec:	07070707 07070707 07070707 07070707     ................
    39fc:	07070707 07070707 07070707 07070707     ................
    3a0c:	08080808 08080808 08080808 08080808     ................
    3a1c:	08080808 08080808 08080808 08080808     ................
    3a2c:	08080808 08080808 08080808 08080808     ................
    3a3c:	08080808 08080808 08080808 08080808     ................
    3a4c:	08080808 08080808 08080808 08080808     ................
    3a5c:	08080808 08080808 08080808 08080808     ................
    3a6c:	08080808 08080808 08080808 08080808     ................
    3a7c:	08080808 08080808 08080808 08080808     ................
