
pico_test_1.elf:     file format elf32-littleriscv
pico_test_1.elf
architecture: riscv:rv32, flags 0x00000112:
EXEC_P, HAS_SYMS, D_PAGED
start address 0x00001000

Program Header:
    LOAD off    0x00001000 vaddr 0x00001000 paddr 0x00001000 align 2**12
         filesz 0x00003974 memsz 0x00003974 flags r-x
    LOAD off    0x00005000 vaddr 0x00000000 paddr 0x00004974 align 2**12
         filesz 0x00000430 memsz 0x00000f44 flags rw-

Sections:
Idx Name           Size      VMA       LMA       File off  Algn  Flags
  0 .text          00003974  00001000  00001000  00001000  2**3  CONTENTS, ALLOC, LOAD, READONLY, CODE
  1 .data          00000430  00000000  00004974  00005000  2**3  CONTENTS, ALLOC, LOAD, DATA
  2 .bss           00000b14  00000430  00004da4  00005430  2**2  ALLOC
  3 .heap          00000000  00000f44  00000f44  00005430  2**0  CONTENTS
  4 .debug_info    00006dcc  00000000  00000000  00005430  2**0  CONTENTS, READONLY, DEBUGGING
  5 .debug_abbrev  000011cf  00000000  00000000  0000c1fc  2**0  CONTENTS, READONLY, DEBUGGING
  6 .debug_loc     00002a42  00000000  00000000  0000d3cb  2**0  CONTENTS, READONLY, DEBUGGING
  7 .debug_aranges 00000240  00000000  00000000  0000fe10  2**3  CONTENTS, READONLY, DEBUGGING
  8 .debug_ranges  00000af8  00000000  00000000  00010050  2**0  CONTENTS, READONLY, DEBUGGING
  9 .debug_line    00002b34  00000000  00000000  00010b48  2**0  CONTENTS, READONLY, DEBUGGING
 10 .debug_str     00000a80  00000000  00000000  0001367c  2**0  CONTENTS, READONLY, DEBUGGING
 11 .comment       0000003a  00000000  00000000  000140fc  2**0  CONTENTS, READONLY
 12 .debug_frame   000009a4  00000000  00000000  00014138  2**2  CONTENTS, READONLY, DEBUGGING
SYMBOL TABLE:
00001000 l    d  .text	00000000 .text
00000000 l    d  .data	00000000 .data
00000430 l    d  .bss	00000000 .bss
00000f44 l    d  .heap	00000000 .heap
00000000 l    d  .debug_info	00000000 .debug_info
00000000 l    d  .debug_abbrev	00000000 .debug_abbrev
00000000 l    d  .debug_loc	00000000 .debug_loc
00000000 l    d  .debug_aranges	00000000 .debug_aranges
00000000 l    d  .debug_ranges	00000000 .debug_ranges
00000000 l    d  .debug_line	00000000 .debug_line
00000000 l    d  .debug_str	00000000 .debug_str
00000000 l    d  .comment	00000000 .comment
00000000 l    d  .debug_frame	00000000 .debug_frame
00000000 l    df *ABS*	00000000 Tetris.c
00000000 l    df *ABS*	00000000 hdmidraw.c
00003f88 l     O .text	000005f0 F8X16
00004578 l     O .text	00000060 bitmap_bytes
00000000 l    df *ABS*	00000000 main.c
00000000 l    df *ABS*	00000000 newsnake.c
0000247a l     F .text	0000008c refresh.part.0
00000000 l    df *ABS*	00000000 ./src/start.o
00001000 l       .text	00000000 start
0000107a l       .text	00000000 setmemloop
000010a2 l       .text	00000000 end_init_data
00001096 l       .text	00000000 loop_init_data
000010bc l       .text	00000000 end_init_bss
000010b2 l       .text	00000000 loop_init_bss
00000000 l    df *ABS*	00000000 uart.c
00002a94 l     F .text	0000004c print_num.part.0
00000000 l    df *ABS*	00000000 muldf3.c
00000000 l    df *ABS*	00000000 subdf3.c
00000000 l    df *ABS*	00000000 fixdfsi.c
00000000 l    df *ABS*	00000000 floatunsidf.c
00000000 l    df *ABS*	00000000 libgcc2.c
00000000 l    df *ABS*	00000000 libgcc2.c
00000000 l    df *ABS*	00000000 rand.c
00000000 l    df *ABS*	00000000 impure.c
00000000 l     O .data	00000428 impure_data
00001464 g     F .text	00000056 IsLegal
000013d4 g     F .text	00000090 DrawSpace
00000cbc g     O .bss	00000268 snake
00002b94 g     F .text	00000078 print_flt
000027f2 g     F .text	000001ac snakeGo
00000430 g     O .bss	000001c0 block
000005f0 g     O .bss	000006cc face
00004974 g       .text	00000000 _sidata
0000299e g     F .text	000000f0 GameStart
00000f38 g     O .bss	00000004 delaycnt
000012fe g     F .text	000000d6 DrawBlock
00004974 g       .text	00000000 _etext
00000f40 g     O .bss	00000001 getps2
00000430 g       .bss	00000000 _sbss
000020e6 g     F .text	0000010c hdmi_draw_dircle_solid_vertical
000010d4 g     F .text	00000146 InitInterface
000021f2 g     F .text	0000010c hdmi_draw_dircle_solid
00002d40 g     F .text	00000084 getchar_prompt
00002b00 g     F .text	00000028 print_str
00000f30 g     O .bss	00000004 pos
00002044 g     F .text	000000a2 hdmi_drawLine_vertical
00001d1c g     F .text	00000080 hdmi_draw_string
00000000 g       .data	00000000 _sdata
00002b84 g     F .text	00000010 print_dec
00001c86 g     F .text	00000096 hdmi_draw_char_back_vertical
0000121a g     F .text	000000e2 InitBlockInfo
00001d9c g     F .text	00000074 hdmi_draw_string_back_verticlal
00000428 g     O .data	00000004 _global_impure_ptr
00003d80 g     F .text	000000c0 .hidden __floatunsidf
00001b44 g     F .text	00000094 hdmi_draw_test
00001f66 g     F .text	0000004c hdmi_draw_square_vertical
00000f41 g     O .bss	00000001 key_val
00000f44 g       .bss	00000000 _ebss
00003cfc g     F .text	00000084 .hidden __fixdfsi
00000f44 g       .heap	00000000 _heap_start
00000f42 g     O .bss	00000002 score
00000f3c g     O .bss	00000004 uart_data
000014ba g     F .text	00000214 JudeFunc
000016ce g     F .text	00000010 TetrisDelay
00000000 g       .data	00000000 _ram_start
00002dc4 g     F .text	0000002a get_char
00000f24 g     O .bss	00000001 end
00003e40 g     F .text	00000094 .hidden __clzsi2
000026fe g     F .text	000000f4 dead
00001e10 g     F .text	0000001c hdmi_draw_clear
0000234c g     F .text	00000012 ps2_test
00003ee8 g     F .text	0000005c rand
00001c0c g     F .text	0000007a hdmi_draw_char
00000f28 g     O .bss	00000004 grade
00002382 g     F .text	0000007e rgb_test
00000f2c g     O .bss	00000004 max
000022fe g     F .text	0000004e hdmi_drawrectangle
00002c0c g     F .text	00000134 printk
00002df0 g     F .text	0000068c .hidden __muldf3
00001e2c g     F .text	00000070 hdmi_draw_num
00002b74 g     F .text	00000010 print_hex2
00002400 g     F .text	0000007a main
00001e9c g     F .text	00000078 hdmi_draw_num_back_vertical
00003ed4 g     F .text	00000014 srand
00001bf0 g     F .text	0000001c hdmi_draw_point_vertical
00001f14 g     F .text	00000052 hdmi_draw_fill
00002550 g     F .text	00000038 isCover
00001fb2 g     F .text	00000092 hdmi_drawLine
00002b28 g     F .text	0000004c print_hex
00002540 g     F .text	00000010 refresh
000012fc g     F .text	00000002 color
00000f34 g     O .bss	00000001 tetriskey
00004874 g     O .text	00000100 .hidden __clz_tab
000025ce g     F .text	000000c8 generateFood
0000042c g     O .data	00000004 _impure_ptr
00002a8e g     F .text	00000006 print_num
00001b20 g     F .text	00000024 Tetris
00001bd8 g     F .text	00000018 hdmi_draw_point
00000430 g       .data	00000000 _edata
000010c4 g     F .text	00000010 CursorJump
00002588 g     F .text	00000046 isNearSelf
00002696 g     F .text	00000068 snakeInit
0000235e g     F .text	00000024 draw_point_test
0000347c g     F .text	00000880 .hidden __subdf3
00002506 g     F .text	0000003a snakeDelay
00002ae0 g     F .text	00000020 put_char
000016de g     F .text	00000442 StartGame



Disassembly of section .text:

00001000 <start>:
start():
D:\Hummingbird\HBird-workspace\pico_test_1\Debug/../src/start.S:5
	.section .text

start:
	# zero-initialize register file
	addi x1, zero, 0
    1000:	00000093          	li	ra,0
D:\Hummingbird\HBird-workspace\pico_test_1\Debug/../src/start.S:7
	# x2 (sp) is initialized by reset
	addi x3, zero, 0
    1004:	00000193          	li	gp,0
D:\Hummingbird\HBird-workspace\pico_test_1\Debug/../src/start.S:8
	addi x4, zero, 0
    1008:	00000213          	li	tp,0
D:\Hummingbird\HBird-workspace\pico_test_1\Debug/../src/start.S:9
	addi x5, zero, 0
    100c:	00000293          	li	t0,0
D:\Hummingbird\HBird-workspace\pico_test_1\Debug/../src/start.S:10
	addi x6, zero, 0
    1010:	00000313          	li	t1,0
D:\Hummingbird\HBird-workspace\pico_test_1\Debug/../src/start.S:11
	addi x7, zero, 0
    1014:	00000393          	li	t2,0
D:\Hummingbird\HBird-workspace\pico_test_1\Debug/../src/start.S:12
	addi x8, zero, 0
    1018:	00000413          	li	s0,0
D:\Hummingbird\HBird-workspace\pico_test_1\Debug/../src/start.S:13
	addi x9, zero, 0
    101c:	00000493          	li	s1,0
D:\Hummingbird\HBird-workspace\pico_test_1\Debug/../src/start.S:14
	addi x10, zero, 0
    1020:	00000513          	li	a0,0
D:\Hummingbird\HBird-workspace\pico_test_1\Debug/../src/start.S:15
	addi x11, zero, 0
    1024:	00000593          	li	a1,0
D:\Hummingbird\HBird-workspace\pico_test_1\Debug/../src/start.S:16
	addi x12, zero, 0
    1028:	00000613          	li	a2,0
D:\Hummingbird\HBird-workspace\pico_test_1\Debug/../src/start.S:17
	addi x13, zero, 0
    102c:	00000693          	li	a3,0
D:\Hummingbird\HBird-workspace\pico_test_1\Debug/../src/start.S:18
	addi x14, zero, 0
    1030:	00000713          	li	a4,0
D:\Hummingbird\HBird-workspace\pico_test_1\Debug/../src/start.S:19
	addi x15, zero, 0
    1034:	00000793          	li	a5,0
D:\Hummingbird\HBird-workspace\pico_test_1\Debug/../src/start.S:20
	addi x16, zero, 0
    1038:	00000813          	li	a6,0
D:\Hummingbird\HBird-workspace\pico_test_1\Debug/../src/start.S:21
	addi x17, zero, 0
    103c:	00000893          	li	a7,0
D:\Hummingbird\HBird-workspace\pico_test_1\Debug/../src/start.S:22
	addi x18, zero, 0
    1040:	00000913          	li	s2,0
D:\Hummingbird\HBird-workspace\pico_test_1\Debug/../src/start.S:23
	addi x19, zero, 0
    1044:	00000993          	li	s3,0
D:\Hummingbird\HBird-workspace\pico_test_1\Debug/../src/start.S:24
	addi x20, zero, 0
    1048:	00000a13          	li	s4,0
D:\Hummingbird\HBird-workspace\pico_test_1\Debug/../src/start.S:25
	addi x21, zero, 0
    104c:	00000a93          	li	s5,0
D:\Hummingbird\HBird-workspace\pico_test_1\Debug/../src/start.S:26
	addi x22, zero, 0
    1050:	00000b13          	li	s6,0
D:\Hummingbird\HBird-workspace\pico_test_1\Debug/../src/start.S:27
	addi x23, zero, 0
    1054:	00000b93          	li	s7,0
D:\Hummingbird\HBird-workspace\pico_test_1\Debug/../src/start.S:28
	addi x24, zero, 0
    1058:	00000c13          	li	s8,0
D:\Hummingbird\HBird-workspace\pico_test_1\Debug/../src/start.S:29
	addi x25, zero, 0
    105c:	00000c93          	li	s9,0
D:\Hummingbird\HBird-workspace\pico_test_1\Debug/../src/start.S:30
	addi x26, zero, 0
    1060:	00000d13          	li	s10,0
D:\Hummingbird\HBird-workspace\pico_test_1\Debug/../src/start.S:31
	addi x27, zero, 0
    1064:	00000d93          	li	s11,0
D:\Hummingbird\HBird-workspace\pico_test_1\Debug/../src/start.S:32
	addi x28, zero, 0
    1068:	00000e13          	li	t3,0
D:\Hummingbird\HBird-workspace\pico_test_1\Debug/../src/start.S:33
	addi x29, zero, 0
    106c:	00000e93          	li	t4,0
D:\Hummingbird\HBird-workspace\pico_test_1\Debug/../src/start.S:34
	addi x30, zero, 0
    1070:	00000f13          	li	t5,0
D:\Hummingbird\HBird-workspace\pico_test_1\Debug/../src/start.S:35
	addi x31, zero, 0
    1074:	00000f93          	li	t6,0
D:\Hummingbird\HBird-workspace\pico_test_1\Debug/../src/start.S:38

	# zero initialize entire scratchpad memory
	li a0, 0x00000000
    1078:	4501                	li	a0,0

0000107a <setmemloop>:
setmemloop():
D:\Hummingbird\HBird-workspace\pico_test_1\Debug/../src/start.S:40
setmemloop:
	sw a0, 0(a0)
    107a:	c108                	sw	a0,0(a0)
D:\Hummingbird\HBird-workspace\pico_test_1\Debug/../src/start.S:41
	addi a0, a0, 4
    107c:	0511                	addi	a0,a0,4
D:\Hummingbird\HBird-workspace\pico_test_1\Debug/../src/start.S:42
	blt a0, sp, setmemloop
    107e:	fe254ee3          	blt	a0,sp,107a <setmemloop>
D:\Hummingbird\HBird-workspace\pico_test_1\Debug/../src/start.S:45

	# copy data section
	la a0, _sidata
    1082:	00004517          	auipc	a0,0x4
    1086:	8f250513          	addi	a0,a0,-1806 # 4974 <_etext>
D:\Hummingbird\HBird-workspace\pico_test_1\Debug/../src/start.S:46
	la a1, _sdata
    108a:	00000593          	li	a1,0
D:\Hummingbird\HBird-workspace\pico_test_1\Debug/../src/start.S:47
	la a2, _edata
    108e:	43000613          	li	a2,1072
D:\Hummingbird\HBird-workspace\pico_test_1\Debug/../src/start.S:48
	bge a1, a2, end_init_data
    1092:	00c5d863          	ble	a2,a1,10a2 <end_init_data>

00001096 <loop_init_data>:
loop_init_data():
D:\Hummingbird\HBird-workspace\pico_test_1\Debug/../src/start.S:50
loop_init_data:
	lw a3, 0(a0)
    1096:	4114                	lw	a3,0(a0)
D:\Hummingbird\HBird-workspace\pico_test_1\Debug/../src/start.S:51
	sw a3, 0(a1)
    1098:	c194                	sw	a3,0(a1)
D:\Hummingbird\HBird-workspace\pico_test_1\Debug/../src/start.S:52
	addi a0, a0, 4
    109a:	0511                	addi	a0,a0,4
D:\Hummingbird\HBird-workspace\pico_test_1\Debug/../src/start.S:53
	addi a1, a1, 4
    109c:	0591                	addi	a1,a1,4
D:\Hummingbird\HBird-workspace\pico_test_1\Debug/../src/start.S:54
	blt a1, a2, loop_init_data
    109e:	fec5cce3          	blt	a1,a2,1096 <loop_init_data>

000010a2 <end_init_data>:
end_init_data():
D:\Hummingbird\HBird-workspace\pico_test_1\Debug/../src/start.S:58
end_init_data:

	# zero-init bss section
	la a0, _sbss
    10a2:	43000513          	li	a0,1072
D:\Hummingbird\HBird-workspace\pico_test_1\Debug/../src/start.S:59
	la a1, _ebss
    10a6:	00000597          	auipc	a1,0x0
    10aa:	e9e58593          	addi	a1,a1,-354 # f44 <_ebss>
D:\Hummingbird\HBird-workspace\pico_test_1\Debug/../src/start.S:60
	bge a0, a1, end_init_bss
    10ae:	00b55763          	ble	a1,a0,10bc <end_init_bss>

000010b2 <loop_init_bss>:
loop_init_bss():
D:\Hummingbird\HBird-workspace\pico_test_1\Debug/../src/start.S:62
loop_init_bss:
	sw zero, 0(a0)
    10b2:	00052023          	sw	zero,0(a0)
D:\Hummingbird\HBird-workspace\pico_test_1\Debug/../src/start.S:63
	addi a0, a0, 4
    10b6:	0511                	addi	a0,a0,4
D:\Hummingbird\HBird-workspace\pico_test_1\Debug/../src/start.S:64
	blt a0, a1, loop_init_bss
    10b8:	feb54de3          	blt	a0,a1,10b2 <loop_init_bss>

000010bc <end_init_bss>:
end_init_bss():
D:\Hummingbird\HBird-workspace\pico_test_1\Debug/../src/start.S:69
end_init_bss:


	/* jump to main C code */
	jal ra,main
    10bc:	344010ef          	jal	ra,2400 <main>
D:\Hummingbird\HBird-workspace\pico_test_1\Debug/../src/start.S:72

1:
	j 1b
    10c0:	a001                	j	10c0 <end_init_bss+0x4>
D:\Hummingbird\HBird-workspace\pico_test_1\Debug/../src/start.S:75

	/* trap */
	ebreak
    10c2:	9002                	ebreak

000010c4 <CursorJump>:
CursorJump():
D:\Hummingbird\HBird-workspace\pico_test_1\Debug/../src/Tetris.c:52

//光标跳转
void CursorJump(int x, int y)
{
	 //定义光标位置的结构体变量
	pos.X = x; //横坐标设置
    10c4:	6785                	lui	a5,0x1
    10c6:	f3078793          	addi	a5,a5,-208 # f30 <pos>
    10ca:	00a79023          	sh	a0,0(a5)
D:\Hummingbird\HBird-workspace\pico_test_1\Debug/../src/Tetris.c:53
	pos.Y = y; //纵坐标设置
    10ce:	00b79123          	sh	a1,2(a5)
D:\Hummingbird\HBird-workspace\pico_test_1\Debug/../src/Tetris.c:54
}
    10d2:	8082                	ret

000010d4 <InitInterface>:
InitInterface():
D:\Hummingbird\HBird-workspace\pico_test_1\Debug/../src/Tetris.c:57
//初始化界面
void InitInterface()
{
    10d4:	7179                	addi	sp,sp,-48
D:\Hummingbird\HBird-workspace\pico_test_1\Debug/../src/Tetris.c:58
	hdmi_draw_clear(255);
    10d6:	0ff00513          	li	a0,255
D:\Hummingbird\HBird-workspace\pico_test_1\Debug/../src/Tetris.c:57
{
    10da:	ce4e                	sw	s3,28(sp)
    10dc:	d606                	sw	ra,44(sp)
    10de:	d422                	sw	s0,40(sp)
    10e0:	d226                	sw	s1,36(sp)
    10e2:	d04a                	sw	s2,32(sp)
    10e4:	cc52                	sw	s4,24(sp)
    10e6:	ca56                	sw	s5,20(sp)
    10e8:	c85a                	sw	s6,16(sp)
    10ea:	c65e                	sw	s7,12(sp)
D:\Hummingbird\HBird-workspace\pico_test_1\Debug/../src/Tetris.c:58
	hdmi_draw_clear(255);
    10ec:	525000ef          	jal	ra,1e10 <hdmi_draw_clear>
D:\Hummingbird\HBird-workspace\pico_test_1\Debug/../src/Tetris.c:63
	for (int i = 0; i < ROW; i++)
	{
		for (int j = 0; j < COL + 10; j++)
		{
			if (j == 0 || j == COL - 1 || j == COL + 9)
    10f0:	200805b7          	lui	a1,0x20080
    10f4:	5f000993          	li	s3,1520
D:\Hummingbird\HBird-workspace\pico_test_1\Debug/../src/Tetris.c:58
	hdmi_draw_clear(255);
    10f8:	5f000313          	li	t1,1520
D:\Hummingbird\HBird-workspace\pico_test_1\Debug/../src/Tetris.c:59
	for (int i = 0; i < ROW; i++)
    10fc:	4601                	li	a2,0
D:\Hummingbird\HBird-workspace\pico_test_1\Debug/../src/Tetris.c:58
	hdmi_draw_clear(255);
    10fe:	5f000893          	li	a7,1520
D:\Hummingbird\HBird-workspace\pico_test_1\Debug/../src/Tetris.c:63
			if (j == 0 || j == COL - 1 || j == COL + 9)
    1102:	0585                	addi	a1,a1,1
D:\Hummingbird\HBird-workspace\pico_test_1\Debug/../src/Tetris.c:61
		for (int j = 0; j < COL + 10; j++)
    1104:	4579                	li	a0,30
D:\Hummingbird\HBird-workspace\pico_test_1\Debug/../src/Tetris.c:67
			{
				face.data[i][j] = 1; //标记该位置有方块
			}
			else if (i == ROW - 1)
    1106:	4871                	li	a6,28
D:\Hummingbird\HBird-workspace\pico_test_1\Debug/../src/Tetris.c:69
			{
				face.data[i][j] = 1; //标记该位置有方块
    1108:	4e05                	li	t3,1
D:\Hummingbird\HBird-workspace\pico_test_1\Debug/../src/Tetris.c:59
	for (int i = 0; i < ROW; i++)
    110a:	4ef5                	li	t4,29
D:\Hummingbird\HBird-workspace\pico_test_1\Debug/../src/Tetris.c:57
{
    110c:	86c6                	mv	a3,a7
D:\Hummingbird\HBird-workspace\pico_test_1\Debug/../src/Tetris.c:61
		for (int j = 0; j < COL + 10; j++)
    110e:	4781                	li	a5,0
    1110:	a809                	j	1122 <InitInterface+0x4e>
D:\Hummingbird\HBird-workspace\pico_test_1\Debug/../src/Tetris.c:67
			else if (i == ROW - 1)
    1112:	0f060b63          	beq	a2,a6,1208 <InitInterface+0x134>
D:\Hummingbird\HBird-workspace\pico_test_1\Debug/../src/Tetris.c:72
			}
			else
				face.data[i][j] = 0; //标记该位置无方块
    1116:	00068023          	sb	zero,0(a3)
D:\Hummingbird\HBird-workspace\pico_test_1\Debug/../src/Tetris.c:61
		for (int j = 0; j < COL + 10; j++)
    111a:	0785                	addi	a5,a5,1
    111c:	0685                	addi	a3,a3,1
    111e:	00a78c63          	beq	a5,a0,1136 <InitInterface+0x62>
D:\Hummingbird\HBird-workspace\pico_test_1\Debug/../src/Tetris.c:63
			if (j == 0 || j == COL - 1 || j == COL + 9)
    1122:	00f5d733          	srl	a4,a1,a5
    1126:	8b05                	andi	a4,a4,1
    1128:	d76d                	beqz	a4,1112 <InitInterface+0x3e>
D:\Hummingbird\HBird-workspace\pico_test_1\Debug/../src/Tetris.c:65
				face.data[i][j] = 1; //标记该位置有方块
    112a:	01c68023          	sb	t3,0(a3)
D:\Hummingbird\HBird-workspace\pico_test_1\Debug/../src/Tetris.c:61
		for (int j = 0; j < COL + 10; j++)
    112e:	0785                	addi	a5,a5,1
    1130:	0685                	addi	a3,a3,1
    1132:	fea798e3          	bne	a5,a0,1122 <InitInterface+0x4e>
D:\Hummingbird\HBird-workspace\pico_test_1\Debug/../src/Tetris.c:59 (discriminator 2)
	for (int i = 0; i < ROW; i++)
    1136:	0605                	addi	a2,a2,1
    1138:	08f9                	addi	a7,a7,30
    113a:	fdd619e3          	bne	a2,t4,110c <InitInterface+0x38>
    113e:	10430793          	addi	a5,t1,260
    1142:	10e98693          	addi	a3,s3,270
D:\Hummingbird\HBird-workspace\pico_test_1\Debug/../src/Tetris.c:77
		}
	}
	for (int i = COL; i < COL + 10; i++)
	{
		face.data[8][i] = 1; //标记该位置有方块
    1146:	4705                	li	a4,1
D:\Hummingbird\HBird-workspace\pico_test_1\Debug/../src/Tetris.c:77 (discriminator 3)
    1148:	00e78023          	sb	a4,0(a5)
    114c:	0785                	addi	a5,a5,1
D:\Hummingbird\HBird-workspace\pico_test_1\Debug/../src/Tetris.c:75 (discriminator 3)
	for (int i = COL; i < COL + 10; i++)
    114e:	fed79de3          	bne	a5,a3,1148 <InitInterface+0x74>
    1152:	4901                	li	s2,0
D:\Hummingbird\HBird-workspace\pico_test_1\Debug/../src/Tetris.c:83
	}
	//上色
	for (int i = 0; i < ROW; i++)
		{
			for (int j = 0; j < COL + 10; j++){
				if(face.data[i][j] == 1){
    1154:	4a85                	li	s5,1
D:\Hummingbird\HBird-workspace\pico_test_1\Debug/../src/Tetris.c:82
			for (int j = 0; j < COL + 10; j++){
    1156:	0f000a13          	li	s4,240
D:\Hummingbird\HBird-workspace\pico_test_1\Debug/../src/Tetris.c:80
	for (int i = 0; i < ROW; i++)
    115a:	0e800b93          	li	s7,232
    115e:	00190b13          	addi	s6,s2,1
    1162:	0b42                	slli	s6,s6,0x10
    1164:	010b5b13          	srli	s6,s6,0x10
D:\Hummingbird\HBird-workspace\pico_test_1\Debug/../src/Tetris.c:59
	for (int i = 0; i < ROW; i++)
    1168:	84ce                	mv	s1,s3
    116a:	4401                	li	s0,0
    116c:	a809                	j	117e <InitInterface+0xaa>
    116e:	0421                	addi	s0,s0,8
    1170:	0442                	slli	s0,s0,0x10
    1172:	8041                	srli	s0,s0,0x10
D:\Hummingbird\HBird-workspace\pico_test_1\Debug/../src/Tetris.c:88
					hdmi_draw_square_vertical(j*8,i*8,8,255);
					hdmi_draw_square_vertical(j*8+1,i*8+1,6,0);
				}
				else{
					hdmi_draw_square_vertical(j*8,i*8,8,255);
    1174:	5f3000ef          	jal	ra,1f66 <hdmi_draw_square_vertical>
    1178:	0485                	addi	s1,s1,1
D:\Hummingbird\HBird-workspace\pico_test_1\Debug/../src/Tetris.c:82
			for (int j = 0; j < COL + 10; j++){
    117a:	03440c63          	beq	s0,s4,11b2 <InitInterface+0xde>
D:\Hummingbird\HBird-workspace\pico_test_1\Debug/../src/Tetris.c:83
				if(face.data[i][j] == 1){
    117e:	0004c783          	lbu	a5,0(s1)
D:\Hummingbird\HBird-workspace\pico_test_1\Debug/../src/Tetris.c:88
					hdmi_draw_square_vertical(j*8,i*8,8,255);
    1182:	8522                	mv	a0,s0
    1184:	0ff00693          	li	a3,255
    1188:	4621                	li	a2,8
    118a:	85ca                	mv	a1,s2
D:\Hummingbird\HBird-workspace\pico_test_1\Debug/../src/Tetris.c:83
				if(face.data[i][j] == 1){
    118c:	ff5791e3          	bne	a5,s5,116e <InitInterface+0x9a>
D:\Hummingbird\HBird-workspace\pico_test_1\Debug/../src/Tetris.c:84
					hdmi_draw_square_vertical(j*8,i*8,8,255);
    1190:	5d7000ef          	jal	ra,1f66 <hdmi_draw_square_vertical>
D:\Hummingbird\HBird-workspace\pico_test_1\Debug/../src/Tetris.c:85
					hdmi_draw_square_vertical(j*8+1,i*8+1,6,0);
    1194:	00140513          	addi	a0,s0,1
    1198:	0421                	addi	s0,s0,8
    119a:	0542                	slli	a0,a0,0x10
    119c:	0442                	slli	s0,s0,0x10
    119e:	4681                	li	a3,0
    11a0:	4619                	li	a2,6
    11a2:	85da                	mv	a1,s6
    11a4:	8141                	srli	a0,a0,0x10
    11a6:	8041                	srli	s0,s0,0x10
    11a8:	5bf000ef          	jal	ra,1f66 <hdmi_draw_square_vertical>
    11ac:	0485                	addi	s1,s1,1
D:\Hummingbird\HBird-workspace\pico_test_1\Debug/../src/Tetris.c:82
			for (int j = 0; j < COL + 10; j++){
    11ae:	fd4418e3          	bne	s0,s4,117e <InitInterface+0xaa>
    11b2:	0921                	addi	s2,s2,8
    11b4:	0942                	slli	s2,s2,0x10
    11b6:	01095913          	srli	s2,s2,0x10
    11ba:	09f9                	addi	s3,s3,30
D:\Hummingbird\HBird-workspace\pico_test_1\Debug/../src/Tetris.c:80 (discriminator 2)
	for (int i = 0; i < ROW; i++)
    11bc:	fb7911e3          	bne	s2,s7,115e <InitInterface+0x8a>
D:\Hummingbird\HBird-workspace\pico_test_1\Debug/../src/Tetris.c:92
				}
			}
		}
	hdmi_draw_string_back_verticlal((COL + 1)*8,160,"SCORE:",0,255);
    11c0:	00004637          	lui	a2,0x4
    11c4:	0ff00713          	li	a4,255
    11c8:	4681                	li	a3,0
    11ca:	f4460613          	addi	a2,a2,-188 # 3f44 <rand+0x5c>
    11ce:	0a000593          	li	a1,160
    11d2:	0a800513          	li	a0,168
    11d6:	3c7000ef          	jal	ra,1d9c <hdmi_draw_string_back_verticlal>
D:\Hummingbird\HBird-workspace\pico_test_1\Debug/../src/Tetris.c:93
	hdmi_draw_num_back_vertical((COL + 1)*8,180,grade,3,0,255);
    11da:	6785                	lui	a5,0x1
D:\Hummingbird\HBird-workspace\pico_test_1\Debug/../src/Tetris.c:95
//功能区打印东西
}
    11dc:	5422                	lw	s0,40(sp)
D:\Hummingbird\HBird-workspace\pico_test_1\Debug/../src/Tetris.c:93
	hdmi_draw_num_back_vertical((COL + 1)*8,180,grade,3,0,255);
    11de:	f287d603          	lhu	a2,-216(a5) # f28 <grade>
D:\Hummingbird\HBird-workspace\pico_test_1\Debug/../src/Tetris.c:95
}
    11e2:	50b2                	lw	ra,44(sp)
    11e4:	5492                	lw	s1,36(sp)
    11e6:	5902                	lw	s2,32(sp)
    11e8:	49f2                	lw	s3,28(sp)
    11ea:	4a62                	lw	s4,24(sp)
    11ec:	4ad2                	lw	s5,20(sp)
    11ee:	4b42                	lw	s6,16(sp)
    11f0:	4bb2                	lw	s7,12(sp)
D:\Hummingbird\HBird-workspace\pico_test_1\Debug/../src/Tetris.c:93
	hdmi_draw_num_back_vertical((COL + 1)*8,180,grade,3,0,255);
    11f2:	0ff00793          	li	a5,255
    11f6:	4701                	li	a4,0
    11f8:	468d                	li	a3,3
    11fa:	0b400593          	li	a1,180
    11fe:	0a800513          	li	a0,168
D:\Hummingbird\HBird-workspace\pico_test_1\Debug/../src/Tetris.c:95
}
    1202:	6145                	addi	sp,sp,48
D:\Hummingbird\HBird-workspace\pico_test_1\Debug/../src/Tetris.c:93
	hdmi_draw_num_back_vertical((COL + 1)*8,180,grade,3,0,255);
    1204:	4990006f          	j	1e9c <hdmi_draw_num_back_vertical>
D:\Hummingbird\HBird-workspace\pico_test_1\Debug/../src/Tetris.c:69
				face.data[i][j] = 1; //标记该位置有方块
    1208:	00f30733          	add	a4,t1,a5
    120c:	35c70423          	sb	t3,840(a4)
D:\Hummingbird\HBird-workspace\pico_test_1\Debug/../src/Tetris.c:61
		for (int j = 0; j < COL + 10; j++)
    1210:	0785                	addi	a5,a5,1
    1212:	0685                	addi	a3,a3,1
    1214:	f0a797e3          	bne	a5,a0,1122 <InitInterface+0x4e>
    1218:	b71d                	j	113e <InitInterface+0x6a>

0000121a <InitBlockInfo>:
InitBlockInfo():
D:\Hummingbird\HBird-workspace\pico_test_1\Debug/../src/Tetris.c:101

void InitBlockInfo()
{
	//“T”形
	for (int i = 0; i <= 2; i++)
		block[0][0].space[1][i] = 1;
    121a:	43000793          	li	a5,1072
    121e:	4705                	li	a4,1
    1220:	10100693          	li	a3,257
D:\Hummingbird\HBird-workspace\pico_test_1\Debug/../src/Tetris.c:98
{
    1224:	7139                	addi	sp,sp,-64
    1226:	43000e93          	li	t4,1072
D:\Hummingbird\HBird-workspace\pico_test_1\Debug/../src/Tetris.c:101
		block[0][0].space[1][i] = 1;
    122a:	00d79223          	sh	a3,4(a5)
    122e:	00e78323          	sb	a4,6(a5)
D:\Hummingbird\HBird-workspace\pico_test_1\Debug/../src/Tetris.c:102
	block[0][0].space[2][1] = 1;
    1232:	00e784a3          	sb	a4,9(a5)
D:\Hummingbird\HBird-workspace\pico_test_1\Debug/../src/Tetris.c:106

	//“L”形
	for (int i = 1; i <= 3; i++)
		block[1][0].space[i][1] = 1;
    1236:	04e782a3          	sb	a4,69(a5)
    123a:	04e784a3          	sb	a4,73(a5)
    123e:	04e786a3          	sb	a4,77(a5)
D:\Hummingbird\HBird-workspace\pico_test_1\Debug/../src/Tetris.c:107
	block[1][0].space[3][2] = 1;
    1242:	04e78723          	sb	a4,78(a5)
D:\Hummingbird\HBird-workspace\pico_test_1\Debug/../src/Tetris.c:111

	//“J”形
	for (int i = 1; i <= 3; i++)
		block[2][0].space[i][2] = 1;
    1246:	08e78323          	sb	a4,134(a5)
    124a:	08e78523          	sb	a4,138(a5)
    124e:	08e78723          	sb	a4,142(a5)
D:\Hummingbird\HBird-workspace\pico_test_1\Debug/../src/Tetris.c:112
	block[2][0].space[3][1] = 1;
    1252:	08e786a3          	sb	a4,141(a5)
D:\Hummingbird\HBird-workspace\pico_test_1\Debug/../src/Tetris.c:118

	for (int i = 0; i <= 1; i++)
	{
		//“Z”形
		block[3][0].space[1][i] = 1;
		block[3][0].space[2][i + 1] = 1;
    1256:	0ce784a3          	sb	a4,201(a5)
D:\Hummingbird\HBird-workspace\pico_test_1\Debug/../src/Tetris.c:120
		//“S”形
		block[4][0].space[1][i + 1] = 1;
    125a:	10e782a3          	sb	a4,261(a5)
D:\Hummingbird\HBird-workspace\pico_test_1\Debug/../src/Tetris.c:123
		block[4][0].space[2][i] = 1;
		//“O”形
		block[5][0].space[1][i + 1] = 1;
    125e:	14e782a3          	sb	a4,325(a5)
D:\Hummingbird\HBird-workspace\pico_test_1\Debug/../src/Tetris.c:124
		block[5][0].space[2][i + 1] = 1;
    1262:	14e784a3          	sb	a4,329(a5)
D:\Hummingbird\HBird-workspace\pico_test_1\Debug/../src/Tetris.c:117
		block[3][0].space[1][i] = 1;
    1266:	0cd79223          	sh	a3,196(a5)
D:\Hummingbird\HBird-workspace\pico_test_1\Debug/../src/Tetris.c:118
		block[3][0].space[2][i + 1] = 1;
    126a:	0ce78523          	sb	a4,202(a5)
D:\Hummingbird\HBird-workspace\pico_test_1\Debug/../src/Tetris.c:120
		block[4][0].space[1][i + 1] = 1;
    126e:	10e78323          	sb	a4,262(a5)
D:\Hummingbird\HBird-workspace\pico_test_1\Debug/../src/Tetris.c:121
		block[4][0].space[2][i] = 1;
    1272:	10d79423          	sh	a3,264(a5)
D:\Hummingbird\HBird-workspace\pico_test_1\Debug/../src/Tetris.c:123
		block[5][0].space[1][i + 1] = 1;
    1276:	14e78323          	sb	a4,326(a5)
D:\Hummingbird\HBird-workspace\pico_test_1\Debug/../src/Tetris.c:124
		block[5][0].space[2][i + 1] = 1;
    127a:	14e78523          	sb	a4,330(a5)
D:\Hummingbird\HBird-workspace\pico_test_1\Debug/../src/Tetris.c:129
	}

	//“I”形
	for (int i = 0; i <= 3; i++)
		block[6][0].space[i][1] = 1;
    127e:	18e780a3          	sb	a4,385(a5)
    1282:	18e782a3          	sb	a4,389(a5)
    1286:	18e784a3          	sb	a4,393(a5)
    128a:	18e786a3          	sb	a4,397(a5)
    128e:	1c0e8f93          	addi	t6,t4,448
    1292:	04010e13          	addi	t3,sp,64
    1296:	01010313          	addi	t1,sp,16
    129a:	030e8f13          	addi	t5,t4,48
D:\Hummingbird\HBird-workspace\pico_test_1\Debug/../src/Tetris.c:137
	for (int shape = 0; shape < 7; shape++) //7种形状
	{
		for (int form = 0; form < 3; form++) //4种形态（已经有了一种，这里每个还需增加3种）
		{
			//获取第form种形态
			for (int i = 0; i < 4; i++)
    129e:	88f6                	mv	a7,t4
    12a0:	870a                	mv	a4,sp
D:\Hummingbird\HBird-workspace\pico_test_1\Debug/../src/Tetris.c:98
{
    12a2:	878a                	mv	a5,sp
    12a4:	86c6                	mv	a3,a7
D:\Hummingbird\HBird-workspace\pico_test_1\Debug/../src/Tetris.c:141
			{
				for (int j = 0; j < 4; j++)
				{
					temp[i][j] = block[shape][form].space[i][j];
    12a6:	0006c803          	lbu	a6,0(a3)
    12aa:	0016c503          	lbu	a0,1(a3)
    12ae:	0026c583          	lbu	a1,2(a3)
    12b2:	0036c603          	lbu	a2,3(a3)
    12b6:	0107a023          	sw	a6,0(a5)
    12ba:	c3c8                	sw	a0,4(a5)
    12bc:	c78c                	sw	a1,8(a5)
    12be:	c7d0                	sw	a2,12(a5)
    12c0:	07c1                	addi	a5,a5,16
    12c2:	0691                	addi	a3,a3,4
D:\Hummingbird\HBird-workspace\pico_test_1\Debug/../src/Tetris.c:137
			for (int i = 0; i < 4; i++)
    12c4:	ffc791e3          	bne	a5,t3,12a6 <InitBlockInfo+0x8c>
    12c8:	08c1                	addi	a7,a7,16
    12ca:	87c6                	mv	a5,a7
D:\Hummingbird\HBird-workspace\pico_test_1\Debug/../src/Tetris.c:149
			//将第form种形态顺时针旋转，得到第form+1种形态
			for (int i = 0; i < 4; i++)
			{
				for (int j = 0; j < 4; j++)
				{
					block[shape][form + 1].space[i][j] = temp[3 - j][i];
    12cc:	5b08                	lw	a0,48(a4)
    12ce:	530c                	lw	a1,32(a4)
    12d0:	4b10                	lw	a2,16(a4)
    12d2:	4314                	lw	a3,0(a4)
    12d4:	00a78023          	sb	a0,0(a5)
    12d8:	00b780a3          	sb	a1,1(a5)
    12dc:	00c78123          	sb	a2,2(a5)
    12e0:	00d781a3          	sb	a3,3(a5)
    12e4:	0711                	addi	a4,a4,4
    12e6:	0791                	addi	a5,a5,4
D:\Hummingbird\HBird-workspace\pico_test_1\Debug/../src/Tetris.c:145
			for (int i = 0; i < 4; i++)
    12e8:	fee312e3          	bne	t1,a4,12cc <InitBlockInfo+0xb2>
D:\Hummingbird\HBird-workspace\pico_test_1\Debug/../src/Tetris.c:134 (discriminator 2)
		for (int form = 0; form < 3; form++) //4种形态（已经有了一种，这里每个还需增加3种）
    12ec:	fbe89ae3          	bne	a7,t5,12a0 <InitBlockInfo+0x86>
    12f0:	040e8e93          	addi	t4,t4,64
D:\Hummingbird\HBird-workspace\pico_test_1\Debug/../src/Tetris.c:132 (discriminator 2)
	for (int shape = 0; shape < 7; shape++) //7种形状
    12f4:	fbfe93e3          	bne	t4,t6,129a <InitBlockInfo+0x80>
D:\Hummingbird\HBird-workspace\pico_test_1\Debug/../src/Tetris.c:154
				}
			}
		}
	}
}
    12f8:	6121                	addi	sp,sp,64
    12fa:	8082                	ret

000012fc <color>:
color():
D:\Hummingbird\HBird-workspace\pico_test_1\Debug/../src/Tetris.c:183
		c = 7; //其他默认设置为白色
		break;
	}
//		SetConsoleTextAttribute(GetStdHandle(STD_OUTPUT_HANDLE), c); //颜色设置
		//注：SetConsoleTextAttribute是一个API（应用程序编程接口）
}
    12fc:	8082                	ret

000012fe <DrawBlock>:
DrawBlock():
D:\Hummingbird\HBird-workspace\pico_test_1\Debug/../src/Tetris.c:185
void DrawBlock(int shape, int form, int x, int y)
{
    12fe:	7179                	addi	sp,sp,-48
    1300:	d04a                	sw	s2,32(sp)
    1302:	01069913          	slli	s2,a3,0x10
    1306:	01095913          	srli	s2,s2,0x10
    130a:	050a                	slli	a0,a0,0x2
    130c:	ce4e                	sw	s3,28(sp)
    130e:	cc52                	sw	s4,24(sp)
    1310:	c266                	sw	s9,4(sp)
    1312:	95aa                	add	a1,a1,a0
    1314:	00391993          	slli	s3,s2,0x3
    1318:	00490a13          	addi	s4,s2,4
    131c:	c65e                	sw	s7,12(sp)
    131e:	0592                	slli	a1,a1,0x4
    1320:	43000c93          	li	s9,1072
    1324:	09c2                	slli	s3,s3,0x10
    1326:	0a42                	slli	s4,s4,0x10
CursorJump():
D:\Hummingbird\HBird-workspace\pico_test_1\Debug/../src/Tetris.c:52
	pos.X = x; //横坐标设置
    1328:	6b85                	lui	s7,0x1
DrawBlock():
D:\Hummingbird\HBird-workspace\pico_test_1\Debug/../src/Tetris.c:185
{
    132a:	ca56                	sw	s5,20(sp)
    132c:	c85a                	sw	s6,16(sp)
    132e:	c462                	sw	s8,8(sp)
    1330:	d606                	sw	ra,44(sp)
    1332:	d422                	sw	s0,40(sp)
    1334:	d226                	sw	s1,36(sp)
    1336:	8ab2                	mv	s5,a2
    1338:	9cae                	add	s9,s9,a1
    133a:	0109d993          	srli	s3,s3,0x10
    133e:	010a5a13          	srli	s4,s4,0x10
D:\Hummingbird\HBird-workspace\pico_test_1\Debug/../src/Tetris.c:190
	for (int i = 0; i < 4; i++)
	{
		for (int j = 0; j < 4; j++)
		{
			if (block[shape][form].space[i][j] == 1) //如果该位置有方块
    1342:	4c05                	li	s8,1
CursorJump():
D:\Hummingbird\HBird-workspace\pico_test_1\Debug/../src/Tetris.c:52
	pos.X = x; //横坐标设置
    1344:	f30b8b93          	addi	s7,s7,-208 # f30 <pos>
DrawBlock():
D:\Hummingbird\HBird-workspace\pico_test_1\Debug/../src/Tetris.c:188
		for (int j = 0; j < 4; j++)
    1348:	4b11                	li	s6,4
D:\Hummingbird\HBird-workspace\pico_test_1\Debug/../src/Tetris.c:185
{
    134a:	84e6                	mv	s1,s9
D:\Hummingbird\HBird-workspace\pico_test_1\Debug/../src/Tetris.c:188
		for (int j = 0; j < 4; j++)
    134c:	4401                	li	s0,0
D:\Hummingbird\HBird-workspace\pico_test_1\Debug/../src/Tetris.c:190
			if (block[shape][form].space[i][j] == 1) //如果该位置有方块
    134e:	0004c783          	lbu	a5,0(s1)
    1352:	0485                	addi	s1,s1,1
    1354:	03878d63          	beq	a5,s8,138e <DrawBlock+0x90>
D:\Hummingbird\HBird-workspace\pico_test_1\Debug/../src/Tetris.c:188 (discriminator 2)
		for (int j = 0; j < 4; j++)
    1358:	0405                	addi	s0,s0,1
    135a:	ff641ae3          	bne	s0,s6,134e <DrawBlock+0x50>
    135e:	0905                	addi	s2,s2,1
    1360:	09a1                	addi	s3,s3,8
    1362:	0942                	slli	s2,s2,0x10
    1364:	09c2                	slli	s3,s3,0x10
    1366:	01095913          	srli	s2,s2,0x10
    136a:	0c91                	addi	s9,s9,4
    136c:	0109d993          	srli	s3,s3,0x10
D:\Hummingbird\HBird-workspace\pico_test_1\Debug/../src/Tetris.c:186 (discriminator 2)
	for (int i = 0; i < 4; i++)
    1370:	fd491de3          	bne	s2,s4,134a <DrawBlock+0x4c>
D:\Hummingbird\HBird-workspace\pico_test_1\Debug/../src/Tetris.c:199
				hdmi_draw_square_vertical(8*pos.X+1,8*pos.Y+1,6,ORANGE);
//				printf("■"); //输出方块
			}
		}
	}
}
    1374:	50b2                	lw	ra,44(sp)
    1376:	5422                	lw	s0,40(sp)
    1378:	5492                	lw	s1,36(sp)
    137a:	5902                	lw	s2,32(sp)
    137c:	49f2                	lw	s3,28(sp)
    137e:	4a62                	lw	s4,24(sp)
    1380:	4ad2                	lw	s5,20(sp)
    1382:	4b42                	lw	s6,16(sp)
    1384:	4bb2                	lw	s7,12(sp)
    1386:	4c22                	lw	s8,8(sp)
    1388:	4c92                	lw	s9,4(sp)
    138a:	6145                	addi	sp,sp,48
    138c:	8082                	ret
    138e:	008a87b3          	add	a5,s5,s0
    1392:	07c2                	slli	a5,a5,0x10
    1394:	83c1                	srli	a5,a5,0x10
D:\Hummingbird\HBird-workspace\pico_test_1\Debug/../src/Tetris.c:193
				hdmi_draw_square_vertical(8*pos.X,8*pos.Y,8,0);
    1396:	00379513          	slli	a0,a5,0x3
    139a:	0542                	slli	a0,a0,0x10
    139c:	85ce                	mv	a1,s3
    139e:	8141                	srli	a0,a0,0x10
    13a0:	4681                	li	a3,0
    13a2:	4621                	li	a2,8
CursorJump():
D:\Hummingbird\HBird-workspace\pico_test_1\Debug/../src/Tetris.c:52
	pos.X = x; //横坐标设置
    13a4:	00fb9023          	sh	a5,0(s7)
D:\Hummingbird\HBird-workspace\pico_test_1\Debug/../src/Tetris.c:53
	pos.Y = y; //纵坐标设置
    13a8:	012b9123          	sh	s2,2(s7)
DrawBlock():
D:\Hummingbird\HBird-workspace\pico_test_1\Debug/../src/Tetris.c:193
				hdmi_draw_square_vertical(8*pos.X,8*pos.Y,8,0);
    13ac:	3bb000ef          	jal	ra,1f66 <hdmi_draw_square_vertical>
D:\Hummingbird\HBird-workspace\pico_test_1\Debug/../src/Tetris.c:194
				hdmi_draw_square_vertical(8*pos.X+1,8*pos.Y+1,6,ORANGE);
    13b0:	002bd583          	lhu	a1,2(s7)
    13b4:	000bd503          	lhu	a0,0(s7)
    13b8:	06500693          	li	a3,101
    13bc:	058e                	slli	a1,a1,0x3
    13be:	050e                	slli	a0,a0,0x3
    13c0:	0585                	addi	a1,a1,1
    13c2:	0505                	addi	a0,a0,1
    13c4:	05c2                	slli	a1,a1,0x10
    13c6:	0542                	slli	a0,a0,0x10
    13c8:	4619                	li	a2,6
    13ca:	81c1                	srli	a1,a1,0x10
    13cc:	8141                	srli	a0,a0,0x10
    13ce:	399000ef          	jal	ra,1f66 <hdmi_draw_square_vertical>
    13d2:	b759                	j	1358 <DrawBlock+0x5a>

000013d4 <DrawSpace>:
DrawSpace():
D:\Hummingbird\HBird-workspace\pico_test_1\Debug/../src/Tetris.c:201
void DrawSpace(int shape, int form, int x, int y)
{
    13d4:	06c2                	slli	a3,a3,0x10
    13d6:	7179                	addi	sp,sp,-48
    13d8:	82c1                	srli	a3,a3,0x10
    13da:	c85a                	sw	s6,16(sp)
    13dc:	050a                	slli	a0,a0,0x2
    13de:	00468b13          	addi	s6,a3,4
    13e2:	c65e                	sw	s7,12(sp)
    13e4:	95aa                	add	a1,a1,a0
    13e6:	068e                	slli	a3,a3,0x3
    13e8:	0b0e                	slli	s6,s6,0x3
    13ea:	d04a                	sw	s2,32(sp)
    13ec:	0592                	slli	a1,a1,0x4
    13ee:	43000b93          	li	s7,1072
    13f2:	01069913          	slli	s2,a3,0x10
    13f6:	0b42                	slli	s6,s6,0x10
    13f8:	ce4e                	sw	s3,28(sp)
    13fa:	cc52                	sw	s4,24(sp)
    13fc:	ca56                	sw	s5,20(sp)
    13fe:	d606                	sw	ra,44(sp)
    1400:	d422                	sw	s0,40(sp)
    1402:	d226                	sw	s1,36(sp)
    1404:	8ab2                	mv	s5,a2
    1406:	9bae                	add	s7,s7,a1
    1408:	01095913          	srli	s2,s2,0x10
    140c:	010b5b13          	srli	s6,s6,0x10
D:\Hummingbird\HBird-workspace\pico_test_1\Debug/../src/Tetris.c:206
	for (int i = 0; i < 4; i++)
	{
		for (int j = 0; j < 4; j++)
		{
			if (block[shape][form].space[i][j] == 1) //如果该位置有方块
    1410:	4a05                	li	s4,1
D:\Hummingbird\HBird-workspace\pico_test_1\Debug/../src/Tetris.c:204
		for (int j = 0; j < 4; j++)
    1412:	4991                	li	s3,4
D:\Hummingbird\HBird-workspace\pico_test_1\Debug/../src/Tetris.c:201
{
    1414:	84de                	mv	s1,s7
D:\Hummingbird\HBird-workspace\pico_test_1\Debug/../src/Tetris.c:204
		for (int j = 0; j < 4; j++)
    1416:	4401                	li	s0,0
D:\Hummingbird\HBird-workspace\pico_test_1\Debug/../src/Tetris.c:206
			if (block[shape][form].space[i][j] == 1) //如果该位置有方块
    1418:	0004c783          	lbu	a5,0(s1)
    141c:	0485                	addi	s1,s1,1
    141e:	03478763          	beq	a5,s4,144c <DrawSpace+0x78>
D:\Hummingbird\HBird-workspace\pico_test_1\Debug/../src/Tetris.c:204 (discriminator 2)
		for (int j = 0; j < 4; j++)
    1422:	0405                	addi	s0,s0,1
    1424:	ff341ae3          	bne	s0,s3,1418 <DrawSpace+0x44>
    1428:	0921                	addi	s2,s2,8
    142a:	0942                	slli	s2,s2,0x10
    142c:	01095913          	srli	s2,s2,0x10
    1430:	0b91                	addi	s7,s7,4
D:\Hummingbird\HBird-workspace\pico_test_1\Debug/../src/Tetris.c:202 (discriminator 2)
	for (int i = 0; i < 4; i++)
    1432:	ff6911e3          	bne	s2,s6,1414 <DrawSpace+0x40>
D:\Hummingbird\HBird-workspace\pico_test_1\Debug/../src/Tetris.c:212
			{
				hdmi_draw_square_vertical(8*(x +j),8*(y+i),8,255);
			}
		}
	}
}
    1436:	50b2                	lw	ra,44(sp)
    1438:	5422                	lw	s0,40(sp)
    143a:	5492                	lw	s1,36(sp)
    143c:	5902                	lw	s2,32(sp)
    143e:	49f2                	lw	s3,28(sp)
    1440:	4a62                	lw	s4,24(sp)
    1442:	4ad2                	lw	s5,20(sp)
    1444:	4b42                	lw	s6,16(sp)
    1446:	4bb2                	lw	s7,12(sp)
    1448:	6145                	addi	sp,sp,48
    144a:	8082                	ret
D:\Hummingbird\HBird-workspace\pico_test_1\Debug/../src/Tetris.c:208
				hdmi_draw_square_vertical(8*(x +j),8*(y+i),8,255);
    144c:	008a8533          	add	a0,s5,s0
    1450:	050e                	slli	a0,a0,0x3
    1452:	0542                	slli	a0,a0,0x10
    1454:	8141                	srli	a0,a0,0x10
    1456:	0ff00693          	li	a3,255
    145a:	4621                	li	a2,8
    145c:	85ca                	mv	a1,s2
    145e:	309000ef          	jal	ra,1f66 <hdmi_draw_square_vertical>
    1462:	b7c1                	j	1422 <DrawSpace+0x4e>

00001464 <IsLegal>:
IsLegal():
D:\Hummingbird\HBird-workspace\pico_test_1\Debug/../src/Tetris.c:214
int IsLegal(int shape, int form, int x, int y)
{
    1464:	00469793          	slli	a5,a3,0x4
    1468:	40d786b3          	sub	a3,a5,a3
    146c:	050a                	slli	a0,a0,0x2
    146e:	95aa                	add	a1,a1,a0
    1470:	0686                	slli	a3,a3,0x1
    1472:	0592                	slli	a1,a1,0x4
    1474:	9636                	add	a2,a2,a3
    1476:	5f000793          	li	a5,1520
    147a:	43000513          	li	a0,1072
    147e:	952e                	add	a0,a0,a1
    1480:	963e                	add	a2,a2,a5
D:\Hummingbird\HBird-workspace\pico_test_1\Debug/../src/Tetris.c:215
	for (int i = 0; i < 4; i++)
    1482:	4881                	li	a7,0
D:\Hummingbird\HBird-workspace\pico_test_1\Debug/../src/Tetris.c:220
	{
		for (int j = 0; j < 4; j++)
		{
			//如果方块落下的位置本来就已经有方块了，则不合法
			if ((block[shape][form].space[i][j] == 1) && (face.data[y + i][x + j] == 1))
    1484:	4585                	li	a1,1
D:\Hummingbird\HBird-workspace\pico_test_1\Debug/../src/Tetris.c:217
		for (int j = 0; j < 4; j++)
    1486:	4811                	li	a6,4
D:\Hummingbird\HBird-workspace\pico_test_1\Debug/../src/Tetris.c:214
{
    1488:	872a                	mv	a4,a0
D:\Hummingbird\HBird-workspace\pico_test_1\Debug/../src/Tetris.c:217
		for (int j = 0; j < 4; j++)
    148a:	4781                	li	a5,0
D:\Hummingbird\HBird-workspace\pico_test_1\Debug/../src/Tetris.c:220
			if ((block[shape][form].space[i][j] == 1) && (face.data[y + i][x + j] == 1))
    148c:	00074683          	lbu	a3,0(a4)
    1490:	0705                	addi	a4,a4,1
    1492:	00b68c63          	beq	a3,a1,14aa <IsLegal+0x46>
D:\Hummingbird\HBird-workspace\pico_test_1\Debug/../src/Tetris.c:217 (discriminator 2)
		for (int j = 0; j < 4; j++)
    1496:	0785                	addi	a5,a5,1
    1498:	ff079ae3          	bne	a5,a6,148c <IsLegal+0x28>
D:\Hummingbird\HBird-workspace\pico_test_1\Debug/../src/Tetris.c:215 (discriminator 2)
	for (int i = 0; i < 4; i++)
    149c:	0885                	addi	a7,a7,1
    149e:	0679                	addi	a2,a2,30
    14a0:	0511                	addi	a0,a0,4
    14a2:	fef893e3          	bne	a7,a5,1488 <IsLegal+0x24>
D:\Hummingbird\HBird-workspace\pico_test_1\Debug/../src/Tetris.c:224
				return 0; //不合法
		}
	}
	return 1; //合法
    14a6:	4505                	li	a0,1
D:\Hummingbird\HBird-workspace\pico_test_1\Debug/../src/Tetris.c:225
}
    14a8:	8082                	ret
D:\Hummingbird\HBird-workspace\pico_test_1\Debug/../src/Tetris.c:220 (discriminator 1)
			if ((block[shape][form].space[i][j] == 1) && (face.data[y + i][x + j] == 1))
    14aa:	00f606b3          	add	a3,a2,a5
    14ae:	0006c683          	lbu	a3,0(a3)
    14b2:	feb692e3          	bne	a3,a1,1496 <IsLegal+0x32>
D:\Hummingbird\HBird-workspace\pico_test_1\Debug/../src/Tetris.c:221
				return 0; //不合法
    14b6:	4501                	li	a0,0
    14b8:	8082                	ret

000014ba <JudeFunc>:
JudeFunc():
D:\Hummingbird\HBird-workspace\pico_test_1\Debug/../src/Tetris.c:227
int JudeFunc()
{
    14ba:	7139                	addi	sp,sp,-64
    14bc:	d64e                	sw	s3,44(sp)
    14be:	5f000993          	li	s3,1520
    14c2:	c66e                	sw	s11,12(sp)
    14c4:	6d85                	lui	s11,0x1
    14c6:	dc22                	sw	s0,56(sp)
    14c8:	da26                	sw	s1,52(sp)
    14ca:	d84a                	sw	s2,48(sp)
    14cc:	d452                	sw	s4,40(sp)
    14ce:	d256                	sw	s5,36(sp)
    14d0:	ce5e                	sw	s7,28(sp)
    14d2:	de06                	sw	ra,60(sp)
    14d4:	d05a                	sw	s6,32(sp)
    14d6:	cc62                	sw	s8,24(sp)
    14d8:	ca66                	sw	s9,20(sp)
    14da:	c86a                	sw	s10,16(sp)
    14dc:	32b98b93          	addi	s7,s3,811
D:\Hummingbird\HBird-workspace\pico_test_1\Debug/../src/Tetris.c:257
				{
					sum += face.data[m - 1][n]; //统计上一行的方块个数
					face.data[m][n] = face.data[m - 1][n]; //将上一行方块的标识移到下一行
					face.color[m][n] = face.color[m - 1][n]; //将上一行方块的颜色编号移到下一行
				}
				if (sum == 0){ //上一行移下来的全是空格，无需再将上层的方块向下移动（移动结束）
    14e0:	44ed                	li	s1,27
D:\Hummingbird\HBird-workspace\pico_test_1\Debug/../src/Tetris.c:238
		if (sum == COL - 2) //该行全是方块，可得分
    14e2:	4a49                	li	s4,18
    14e4:	f30d8d93          	addi	s11,s11,-208 # f30 <pos>
D:\Hummingbird\HBird-workspace\pico_test_1\Debug/../src/Tetris.c:241
			for (int j = 1; j < COL - 1; j++) //清除得分行的方块信息
    14e8:	494d                	li	s2,19
    14ea:	00198413          	addi	s0,s3,1
D:\Hummingbird\HBird-workspace\pico_test_1\Debug/../src/Tetris.c:229
	for (int i = ROW - 2; i > 4; i--)//>4?
    14ee:	4a91                	li	s5,4
    14f0:	012b8613          	addi	a2,s7,18
D:\Hummingbird\HBird-workspace\pico_test_1\Debug/../src/Tetris.c:227
{
    14f4:	87de                	mv	a5,s7
D:\Hummingbird\HBird-workspace\pico_test_1\Debug/../src/Tetris.c:231
		int sum = 0; //记录第i行的方块个数
    14f6:	4701                	li	a4,0
D:\Hummingbird\HBird-workspace\pico_test_1\Debug/../src/Tetris.c:234 (discriminator 3)
			sum += face.data[i][j]; //统计第i行的方块个数
    14f8:	0007c683          	lbu	a3,0(a5)
    14fc:	0785                	addi	a5,a5,1
    14fe:	9736                	add	a4,a4,a3
D:\Hummingbird\HBird-workspace\pico_test_1\Debug/../src/Tetris.c:232 (discriminator 3)
		for (int j = 1; j < COL - 1; j++)
    1500:	fec79ce3          	bne	a5,a2,14f8 <JudeFunc+0x3e>
D:\Hummingbird\HBird-workspace\pico_test_1\Debug/../src/Tetris.c:236
		if (sum == 0) //该行没有方块，无需再判断其上的层次（无需再继续判断是否得分）
    1504:	cb19                	beqz	a4,151a <JudeFunc+0x60>
    1506:	fe2b8893          	addi	a7,s7,-30
D:\Hummingbird\HBird-workspace\pico_test_1\Debug/../src/Tetris.c:238
		if (sum == COL - 2) //该行全是方块，可得分
    150a:	0b470363          	beq	a4,s4,15b0 <JudeFunc+0xf6>
    150e:	14fd                	addi	s1,s1,-1
    1510:	04c2                	slli	s1,s1,0x10
    1512:	80c1                	srli	s1,s1,0x10
    1514:	8bc6                	mv	s7,a7
D:\Hummingbird\HBird-workspace\pico_test_1\Debug/../src/Tetris.c:229
	for (int i = ROW - 2; i > 4; i--)//>4?
    1516:	fd549de3          	bne	s1,s5,14f0 <JudeFunc+0x36>
    151a:	01f98793          	addi	a5,s3,31
D:\Hummingbird\HBird-workspace\pico_test_1\Debug/../src/Tetris.c:278
		}
	}//循环找得分结束
	//判断游戏是否结束
	for (int j = 1; j < COL - 1; j++)
	{
		if (face.data[1][j] == 1) //顶层有方块存在（以第1行为顶层，不是第0行）
    151e:	4685                	li	a3,1
    1520:	03198993          	addi	s3,s3,49
    1524:	a019                	j	152a <JudeFunc+0x70>
D:\Hummingbird\HBird-workspace\pico_test_1\Debug/../src/Tetris.c:276 (discriminator 2)
	for (int j = 1; j < COL - 1; j++)
    1526:	18f98d63          	beq	s3,a5,16c0 <JudeFunc+0x206>
D:\Hummingbird\HBird-workspace\pico_test_1\Debug/../src/Tetris.c:278
		if (face.data[1][j] == 1) //顶层有方块存在（以第1行为顶层，不是第0行）
    152a:	0007c703          	lbu	a4,0(a5)
    152e:	0785                	addi	a5,a5,1
    1530:	fed71be3          	bne	a4,a3,1526 <JudeFunc+0x6c>
D:\Hummingbird\HBird-workspace\pico_test_1\Debug/../src/Tetris.c:280
		{
			hdmi_draw_string_back_verticlal(20,120,"GAME OVER",RED,255);
    1534:	00004637          	lui	a2,0x4
    1538:	0ff00713          	li	a4,255
    153c:	06400693          	li	a3,100
    1540:	f4c60613          	addi	a2,a2,-180 # 3f4c <rand+0x64>
    1544:	07800593          	li	a1,120
    1548:	4551                	li	a0,20
    154a:	6405                	lui	s0,0x1
    154c:	051000ef          	jal	ra,1d9c <hdmi_draw_string_back_verticlal>
    1550:	000049b7          	lui	s3,0x4
    1554:	00004937          	lui	s2,0x4
    1558:	f3440413          	addi	s0,s0,-204 # f34 <tetriskey>
D:\Hummingbird\HBird-workspace\pico_test_1\Debug/../src/Tetris.c:286
			while (1)
			{//游戏结束等待键值返回
				hdmi_draw_string_back_verticlal(20,140,"PRESS'B'TO RESTART",PURPLE,255);
				hdmi_draw_string_back_verticlal(20,160,"PRESS'X'TO QUIT",PURPLE,255);
				u8 overkey = 0;
				tetriskey = *ps2ctrl_point;
    155c:	64c1                	lui	s1,0x10
D:\Hummingbird\HBird-workspace\pico_test_1\Debug/../src/Tetris.c:288
				if(tetriskey!=0)
					switch(tetriskey){
    155e:	4a09                	li	s4,2
    1560:	4a91                	li	s5,4
D:\Hummingbird\HBird-workspace\pico_test_1\Debug/../src/Tetris.c:283
				hdmi_draw_string_back_verticlal(20,140,"PRESS'B'TO RESTART",PURPLE,255);
    1562:	f5898613          	addi	a2,s3,-168 # 3f58 <rand+0x70>
    1566:	0ff00713          	li	a4,255
    156a:	06900693          	li	a3,105
    156e:	08c00593          	li	a1,140
    1572:	4551                	li	a0,20
    1574:	029000ef          	jal	ra,1d9c <hdmi_draw_string_back_verticlal>
D:\Hummingbird\HBird-workspace\pico_test_1\Debug/../src/Tetris.c:284
				hdmi_draw_string_back_verticlal(20,160,"PRESS'X'TO QUIT",PURPLE,255);
    1578:	0ff00713          	li	a4,255
    157c:	06900693          	li	a3,105
    1580:	f6c90613          	addi	a2,s2,-148 # 3f6c <rand+0x84>
    1584:	0a000593          	li	a1,160
    1588:	4551                	li	a0,20
    158a:	013000ef          	jal	ra,1d9c <hdmi_draw_string_back_verticlal>
D:\Hummingbird\HBird-workspace\pico_test_1\Debug/../src/Tetris.c:286
				tetriskey = *ps2ctrl_point;
    158e:	1004a783          	lw	a5,256(s1) # 10100 <_etext+0xb78c>
    1592:	0ff7f793          	andi	a5,a5,255
    1596:	00f40023          	sb	a5,0(s0)
D:\Hummingbird\HBird-workspace\pico_test_1\Debug/../src/Tetris.c:287
				if(tetriskey!=0)
    159a:	d7e1                	beqz	a5,1562 <JudeFunc+0xa8>
D:\Hummingbird\HBird-workspace\pico_test_1\Debug/../src/Tetris.c:288
					switch(tetriskey){
    159c:	13478463          	beq	a5,s4,16c4 <JudeFunc+0x20a>
    15a0:	fd5791e3          	bne	a5,s5,1562 <JudeFunc+0xa8>
D:\Hummingbird\HBird-workspace\pico_test_1\Debug/../src/Tetris.c:296
					}
				if(overkey == SPACE){
					end = 2;
					return 0;
				}else if(overkey == ESC){
					end = 1;
    15a4:	6785                	lui	a5,0x1
    15a6:	4705                	li	a4,1
    15a8:	f2e78223          	sb	a4,-220(a5) # f24 <end>
D:\Hummingbird\HBird-workspace\pico_test_1\Debug/../src/Tetris.c:297
					return 0;
    15ac:	4501                	li	a0,0
    15ae:	a8d5                	j	16a2 <JudeFunc+0x1e8>
D:\Hummingbird\HBird-workspace\pico_test_1\Debug/../src/Tetris.c:240
			grade += 10; //满一行加10分
    15b0:	6785                	lui	a5,0x1
    15b2:	f2878713          	addi	a4,a5,-216 # f28 <grade>
    15b6:	431c                	lw	a5,0(a4)
D:\Hummingbird\HBird-workspace\pico_test_1\Debug/../src/Tetris.c:245
				hdmi_draw_square_vertical(8*(pos.X +j),8*(pos.Y+i),8,255);
    15b8:	00449d13          	slli	s10,s1,0x4
    15bc:	0d42                	slli	s10,s10,0x10
D:\Hummingbird\HBird-workspace\pico_test_1\Debug/../src/Tetris.c:240
			grade += 10; //满一行加10分
    15be:	07a9                	addi	a5,a5,10
D:\Hummingbird\HBird-workspace\pico_test_1\Debug/../src/Tetris.c:245
				hdmi_draw_square_vertical(8*(pos.X +j),8*(pos.Y+i),8,255);
    15c0:	010d5d13          	srli	s10,s10,0x10
D:\Hummingbird\HBird-workspace\pico_test_1\Debug/../src/Tetris.c:240
			grade += 10; //满一行加10分
    15c4:	c31c                	sw	a5,0(a4)
D:\Hummingbird\HBird-workspace\pico_test_1\Debug/../src/Tetris.c:245
				hdmi_draw_square_vertical(8*(pos.X +j),8*(pos.Y+i),8,255);
    15c6:	8b5e                	mv	s6,s7
    15c8:	4c41                	li	s8,16
D:\Hummingbird\HBird-workspace\pico_test_1\Debug/../src/Tetris.c:241
			for (int j = 1; j < COL - 1; j++) //清除得分行的方块信息
    15ca:	4c85                	li	s9,1
D:\Hummingbird\HBird-workspace\pico_test_1\Debug/../src/Tetris.c:245 (discriminator 3)
				hdmi_draw_square_vertical(8*(pos.X +j),8*(pos.Y+i),8,255);
    15cc:	8562                	mv	a0,s8
    15ce:	0c41                	addi	s8,s8,16
D:\Hummingbird\HBird-workspace\pico_test_1\Debug/../src/Tetris.c:243 (discriminator 3)
				face.data[i][j] = 0; //该位置得分后被清除，标记为无方块
    15d0:	000b0023          	sb	zero,0(s6)
CursorJump():
D:\Hummingbird\HBird-workspace\pico_test_1\Debug/../src/Tetris.c:52 (discriminator 3)
	pos.X = x; //横坐标设置
    15d4:	019d9023          	sh	s9,0(s11)
JudeFunc():
D:\Hummingbird\HBird-workspace\pico_test_1\Debug/../src/Tetris.c:245 (discriminator 3)
				hdmi_draw_square_vertical(8*(pos.X +j),8*(pos.Y+i),8,255);
    15d8:	0ff00693          	li	a3,255
    15dc:	4621                	li	a2,8
    15de:	85ea                	mv	a1,s10
    15e0:	0c42                	slli	s8,s8,0x10
D:\Hummingbird\HBird-workspace\pico_test_1\Debug/../src/Tetris.c:241 (discriminator 3)
			for (int j = 1; j < COL - 1; j++) //清除得分行的方块信息
    15e2:	0c85                	addi	s9,s9,1
CursorJump():
D:\Hummingbird\HBird-workspace\pico_test_1\Debug/../src/Tetris.c:53 (discriminator 3)
	pos.Y = y; //纵坐标设置
    15e4:	009d9123          	sh	s1,2(s11)
    15e8:	0b05                	addi	s6,s6,1
JudeFunc():
D:\Hummingbird\HBird-workspace\pico_test_1\Debug/../src/Tetris.c:245 (discriminator 3)
				hdmi_draw_square_vertical(8*(pos.X +j),8*(pos.Y+i),8,255);
    15ea:	17d000ef          	jal	ra,1f66 <hdmi_draw_square_vertical>
    15ee:	010c5c13          	srli	s8,s8,0x10
D:\Hummingbird\HBird-workspace\pico_test_1\Debug/../src/Tetris.c:241 (discriminator 3)
			for (int j = 1; j < COL - 1; j++) //清除得分行的方块信息
    15f2:	fd2c9de3          	bne	s9,s2,15cc <JudeFunc+0x112>
    15f6:	fe2b8893          	addi	a7,s7,-30
    15fa:	8846                	mv	a6,a7
    15fc:	01e80713          	addi	a4,a6,30
    1600:	01280513          	addi	a0,a6,18
D:\Hummingbird\HBird-workspace\pico_test_1\Debug/../src/Tetris.c:241
    1604:	87c2                	mv	a5,a6
D:\Hummingbird\HBird-workspace\pico_test_1\Debug/../src/Tetris.c:250
				sum = 0; //记录上一行的方块个数
    1606:	4601                	li	a2,0
D:\Hummingbird\HBird-workspace\pico_test_1\Debug/../src/Tetris.c:253 (discriminator 3)
					sum += face.data[m - 1][n]; //统计上一行的方块个数
    1608:	0007c683          	lbu	a3,0(a5)
    160c:	0705                	addi	a4,a4,1
    160e:	0785                	addi	a5,a5,1
D:\Hummingbird\HBird-workspace\pico_test_1\Debug/../src/Tetris.c:254 (discriminator 3)
					face.data[m][n] = face.data[m - 1][n]; //将上一行方块的标识移到下一行
    1610:	fed70fa3          	sb	a3,-1(a4)
D:\Hummingbird\HBird-workspace\pico_test_1\Debug/../src/Tetris.c:255 (discriminator 3)
					face.color[m][n] = face.color[m - 1][n]; //将上一行方块的颜色编号移到下一行
    1614:	3657c583          	lbu	a1,869(a5)
D:\Hummingbird\HBird-workspace\pico_test_1\Debug/../src/Tetris.c:253 (discriminator 3)
					sum += face.data[m - 1][n]; //统计上一行的方块个数
    1618:	9636                	add	a2,a2,a3
D:\Hummingbird\HBird-workspace\pico_test_1\Debug/../src/Tetris.c:255 (discriminator 3)
					face.color[m][n] = face.color[m - 1][n]; //将上一行方块的颜色编号移到下一行
    161a:	36b702a3          	sb	a1,869(a4)
D:\Hummingbird\HBird-workspace\pico_test_1\Debug/../src/Tetris.c:251 (discriminator 3)
				for (int n = 1; n < COL - 1; n++)
    161e:	fea795e3          	bne	a5,a0,1608 <JudeFunc+0x14e>
D:\Hummingbird\HBird-workspace\pico_test_1\Debug/../src/Tetris.c:257
				if (sum == 0){ //上一行移下来的全是空格，无需再将上层的方块向下移动（移动结束）
    1622:	c609                	beqz	a2,162c <JudeFunc+0x172>
    1624:	1809                	addi	a6,a6,-30
D:\Hummingbird\HBird-workspace\pico_test_1\Debug/../src/Tetris.c:248 (discriminator 2)
			for (int m = i; m >1; m--)
    1626:	fc881be3          	bne	a6,s0,15fc <JudeFunc+0x142>
    162a:	b5d5                	j	150e <JudeFunc+0x54>
    162c:	8b22                	mv	s6,s0
D:\Hummingbird\HBird-workspace\pico_test_1\Debug/../src/Tetris.c:257
				if (sum == 0){ //上一行移下来的全是空格，无需再将上层的方块向下移动（移动结束）
    162e:	4901                	li	s2,0
D:\Hummingbird\HBird-workspace\pico_test_1\Debug/../src/Tetris.c:262
								if(face.data[i][j] == 1){
    1630:	4a05                	li	s4,1
D:\Hummingbird\HBird-workspace\pico_test_1\Debug/../src/Tetris.c:261
							for (int j = 1; j < COL - 1; j++){
    1632:	09800993          	li	s3,152
D:\Hummingbird\HBird-workspace\pico_test_1\Debug/../src/Tetris.c:259
					for (int i = 0; i < ROW - 1; i++)
    1636:	0e000b93          	li	s7,224
    163a:	00190a93          	addi	s5,s2,1
    163e:	0ac2                	slli	s5,s5,0x10
    1640:	010ada93          	srli	s5,s5,0x10
D:\Hummingbird\HBird-workspace\pico_test_1\Debug/../src/Tetris.c:250
				sum = 0; //记录上一行的方块个数
    1644:	84da                	mv	s1,s6
    1646:	4421                	li	s0,8
    1648:	a809                	j	165a <JudeFunc+0x1a0>
    164a:	0421                	addi	s0,s0,8
    164c:	0442                	slli	s0,s0,0x10
    164e:	8041                	srli	s0,s0,0x10
D:\Hummingbird\HBird-workspace\pico_test_1\Debug/../src/Tetris.c:267
									hdmi_draw_square_vertical(j*8,i*8,8,255);
    1650:	117000ef          	jal	ra,1f66 <hdmi_draw_square_vertical>
    1654:	0485                	addi	s1,s1,1
D:\Hummingbird\HBird-workspace\pico_test_1\Debug/../src/Tetris.c:261
							for (int j = 1; j < COL - 1; j++){
    1656:	03340e63          	beq	s0,s3,1692 <JudeFunc+0x1d8>
D:\Hummingbird\HBird-workspace\pico_test_1\Debug/../src/Tetris.c:262
								if(face.data[i][j] == 1){
    165a:	0004c783          	lbu	a5,0(s1)
D:\Hummingbird\HBird-workspace\pico_test_1\Debug/../src/Tetris.c:267
									hdmi_draw_square_vertical(j*8,i*8,8,255);
    165e:	8522                	mv	a0,s0
    1660:	0ff00693          	li	a3,255
    1664:	4621                	li	a2,8
    1666:	85ca                	mv	a1,s2
D:\Hummingbird\HBird-workspace\pico_test_1\Debug/../src/Tetris.c:262
								if(face.data[i][j] == 1){
    1668:	ff4791e3          	bne	a5,s4,164a <JudeFunc+0x190>
D:\Hummingbird\HBird-workspace\pico_test_1\Debug/../src/Tetris.c:263
									hdmi_draw_square_vertical(j*8,i*8,8,0);
    166c:	4681                	li	a3,0
    166e:	0f9000ef          	jal	ra,1f66 <hdmi_draw_square_vertical>
D:\Hummingbird\HBird-workspace\pico_test_1\Debug/../src/Tetris.c:264
									hdmi_draw_square_vertical(j*8+1,i*8+1,6,ORANGE);
    1672:	00140513          	addi	a0,s0,1
    1676:	0421                	addi	s0,s0,8
    1678:	0542                	slli	a0,a0,0x10
    167a:	0442                	slli	s0,s0,0x10
    167c:	06500693          	li	a3,101
    1680:	4619                	li	a2,6
    1682:	85d6                	mv	a1,s5
    1684:	8141                	srli	a0,a0,0x10
    1686:	8041                	srli	s0,s0,0x10
    1688:	0df000ef          	jal	ra,1f66 <hdmi_draw_square_vertical>
    168c:	0485                	addi	s1,s1,1
D:\Hummingbird\HBird-workspace\pico_test_1\Debug/../src/Tetris.c:261
							for (int j = 1; j < COL - 1; j++){
    168e:	fd3416e3          	bne	s0,s3,165a <JudeFunc+0x1a0>
    1692:	0921                	addi	s2,s2,8
    1694:	0942                	slli	s2,s2,0x10
    1696:	01095913          	srli	s2,s2,0x10
    169a:	0b79                	addi	s6,s6,30
D:\Hummingbird\HBird-workspace\pico_test_1\Debug/../src/Tetris.c:259 (discriminator 2)
					for (int i = 0; i < ROW - 1; i++)
    169c:	f9791fe3          	bne	s2,s7,163a <JudeFunc+0x180>
D:\Hummingbird\HBird-workspace\pico_test_1\Debug/../src/Tetris.c:270
					return 1; //返回1，表示还需调用该函数进行判断（移动下来的可能还有满行）
    16a0:	4505                	li	a0,1
D:\Hummingbird\HBird-workspace\pico_test_1\Debug/../src/Tetris.c:303
				}
			}
		}
	}
	return 0; //判断结束，无需再调用该函数进行判断
}
    16a2:	50f2                	lw	ra,60(sp)
    16a4:	5462                	lw	s0,56(sp)
    16a6:	54d2                	lw	s1,52(sp)
    16a8:	5942                	lw	s2,48(sp)
    16aa:	59b2                	lw	s3,44(sp)
    16ac:	5a22                	lw	s4,40(sp)
    16ae:	5a92                	lw	s5,36(sp)
    16b0:	5b02                	lw	s6,32(sp)
    16b2:	4bf2                	lw	s7,28(sp)
    16b4:	4c62                	lw	s8,24(sp)
    16b6:	4cd2                	lw	s9,20(sp)
    16b8:	4d42                	lw	s10,16(sp)
    16ba:	4db2                	lw	s11,12(sp)
    16bc:	6121                	addi	sp,sp,64
    16be:	8082                	ret
D:\Hummingbird\HBird-workspace\pico_test_1\Debug/../src/Tetris.c:302
	return 0; //判断结束，无需再调用该函数进行判断
    16c0:	4501                	li	a0,0
    16c2:	b7c5                	j	16a2 <JudeFunc+0x1e8>
D:\Hummingbird\HBird-workspace\pico_test_1\Debug/../src/Tetris.c:293
					end = 2;
    16c4:	6785                	lui	a5,0x1
    16c6:	f3478223          	sb	s4,-220(a5) # f24 <end>
D:\Hummingbird\HBird-workspace\pico_test_1\Debug/../src/Tetris.c:294
					return 0;
    16ca:	4501                	li	a0,0
    16cc:	bfd9                	j	16a2 <JudeFunc+0x1e8>

000016ce <TetrisDelay>:
TetrisDelay():
D:\Hummingbird\HBird-workspace\pico_test_1\Debug/../src/Tetris.c:304
void TetrisDelay(){
    16ce:	1f400793          	li	a5,500
D:\Hummingbird\HBird-workspace\pico_test_1\Debug/../src/Tetris.c:307
	u32 cnt = 500;
	while(cnt--)
		led_address = 0;
    16d2:	6741                	lui	a4,0x10
    16d4:	02072023          	sw	zero,32(a4) # 10020 <_etext+0xb6ac>
    16d8:	17fd                	addi	a5,a5,-1
D:\Hummingbird\HBird-workspace\pico_test_1\Debug/../src/Tetris.c:306
	while(cnt--)
    16da:	ffed                	bnez	a5,16d4 <TetrisDelay+0x6>
D:\Hummingbird\HBird-workspace\pico_test_1\Debug/../src/Tetris.c:308
}
    16dc:	8082                	ret

000016de <StartGame>:
StartGame():
D:\Hummingbird\HBird-workspace\pico_test_1\Debug/../src/Tetris.c:310
void StartGame()
{
    16de:	7159                	addi	sp,sp,-112
    16e0:	d686                	sw	ra,108(sp)
    16e2:	d4a2                	sw	s0,104(sp)
    16e4:	cece                	sw	s3,92(sp)
    16e6:	c4e2                	sw	s8,72(sp)
    16e8:	c2e6                	sw	s9,68(sp)
    16ea:	d2a6                	sw	s1,100(sp)
    16ec:	d0ca                	sw	s2,96(sp)
    16ee:	ccd2                	sw	s4,88(sp)
    16f0:	cad6                	sw	s5,84(sp)
    16f2:	c8da                	sw	s6,80(sp)
    16f4:	c6de                	sw	s7,76(sp)
    16f6:	c0ea                	sw	s10,64(sp)
    16f8:	de6e                	sw	s11,60(sp)
D:\Hummingbird\HBird-workspace\pico_test_1\Debug/../src/Tetris.c:311
	int shape = rand() % 7, form = rand() % 4; //随机获取方块的形状和形态
    16fa:	499d                	li	s3,7
    16fc:	7ec020ef          	jal	ra,3ee8 <rand>
    1700:	033569b3          	rem	s3,a0,s3
    1704:	7e4020ef          	jal	ra,3ee8 <rand>
    1708:	41f55793          	srai	a5,a0,0x1f
    170c:	83f9                	srli	a5,a5,0x1e
    170e:	00f50433          	add	s0,a0,a5
    1712:	880d                	andi	s0,s0,3
    1714:	8c1d                	sub	s0,s0,a5
    1716:	6785                	lui	a5,0x1
    1718:	f2878793          	addi	a5,a5,-216 # f28 <grade>
    171c:	cc3e                	sw	a5,24(sp)
    171e:	43000793          	li	a5,1072
    1722:	c63e                	sw	a5,12(sp)
    1724:	44000793          	li	a5,1088
    1728:	d23e                	sw	a5,36(sp)
    172a:	6785                	lui	a5,0x1
    172c:	f2478793          	addi	a5,a5,-220 # f24 <end>
    1730:	c83e                	sw	a5,16(sp)
D:\Hummingbird\HBird-workspace\pico_test_1\Debug/../src/Tetris.c:401
						y++; //纵坐标自增（总不能原地旋转吧）
						form = (form + 1) % 4; //方块的形态自增（下一次显示方块时就相当于旋转了）
					}
					break;
				case ESC: //Esc键
					hdmi_draw_string_back_verticlal(pos.X,pos.Y,"GAME END",255,0);
    1732:	6785                	lui	a5,0x1
    1734:	f3078793          	addi	a5,a5,-208 # f30 <pos>
    1738:	ca3e                	sw	a5,20(sp)
CursorJump():
D:\Hummingbird\HBird-workspace\pico_test_1\Debug/../src/Tetris.c:52
	pos.X = x; //横坐标设置
    173a:	001007b7          	lui	a5,0x100
    173e:	6c05                	lui	s8,0x1
    1740:	07d1                	addi	a5,a5,20
    1742:	f34c0c13          	addi	s8,s8,-204 # f34 <tetriskey>
    1746:	5f000c93          	li	s9,1520
    174a:	d43e                	sw	a5,40(sp)
StartGame():
D:\Hummingbird\HBird-workspace\pico_test_1\Debug/../src/Tetris.c:314
		hdmi_draw_num_back_vertical((COL + 1)*8,180,grade,3,0,255);
    174c:	47e2                	lw	a5,24(sp)
    174e:	468d                	li	a3,3
    1750:	0b400593          	li	a1,180
    1754:	0007d603          	lhu	a2,0(a5) # 100000 <_etext+0xfb68c>
    1758:	4701                	li	a4,0
    175a:	0ff00793          	li	a5,255
    175e:	0a800513          	li	a0,168
    1762:	2f2d                	jal	1e9c <hdmi_draw_num_back_vertical>
D:\Hummingbird\HBird-workspace\pico_test_1\Debug/../src/Tetris.c:316
		u32 nextShape = rand() % 7, nextForm = rand() % 4; //随机获取下一个方块的形状和形态
    1764:	784020ef          	jal	ra,3ee8 <rand>
    1768:	4d9d                	li	s11,7
    176a:	03b56d33          	rem	s10,a0,s11
D:\Hummingbird\HBird-workspace\pico_test_1\Debug/../src/Tetris.c:317
		u32 x = COL / 2 - 2, y = 0; //方块初始下落位置的横纵坐标
    176e:	4901                	li	s2,0
    1770:	44a1                	li	s1,8
D:\Hummingbird\HBird-workspace\pico_test_1\Debug/../src/Tetris.c:318
		DrawBlock(nextShape, nextForm, COL + 3, 3); //将下一个方块显示在右上角
    1772:	4b01                	li	s6,0
    1774:	4a85                	li	s5,1
    1776:	4a01                	li	s4,0
D:\Hummingbird\HBird-workspace\pico_test_1\Debug/../src/Tetris.c:316
		u32 nextShape = rand() % 7, nextForm = rand() % 4; //随机获取下一个方块的形状和形态
    1778:	ce6a                	sw	s10,28(sp)
    177a:	76e020ef          	jal	ra,3ee8 <rand>
    177e:	41f55793          	srai	a5,a0,0x1f
    1782:	83f9                	srli	a5,a5,0x1e
    1784:	00f50bb3          	add	s7,a0,a5
    1788:	003bfb93          	andi	s7,s7,3
    178c:	40fb87b3          	sub	a5,s7,a5
    1790:	d03e                	sw	a5,32(sp)
D:\Hummingbird\HBird-workspace\pico_test_1\Debug/../src/Tetris.c:318
		DrawBlock(nextShape, nextForm, COL + 3, 3); //将下一个方块显示在右上角
    1792:	85be                	mv	a1,a5
    1794:	468d                	li	a3,3
    1796:	00299793          	slli	a5,s3,0x2
    179a:	465d                	li	a2,23
    179c:	856a                	mv	a0,s10
    179e:	c43e                	sw	a5,8(sp)
D:\Hummingbird\HBird-workspace\pico_test_1\Debug/../src/Tetris.c:329
			switch(tetriskeyval){
    17a0:	4b91                	li	s7,4
D:\Hummingbird\HBird-workspace\pico_test_1\Debug/../src/Tetris.c:318
		DrawBlock(nextShape, nextForm, COL + 3, 3); //将下一个方块显示在右上角
    17a2:	3eb1                	jal	12fe <DrawBlock>
D:\Hummingbird\HBird-workspace\pico_test_1\Debug/../src/Tetris.c:323
			DrawBlock(shape, form, x, y); //将该方块显示在初始下落位置
    17a4:	86ca                	mv	a3,s2
    17a6:	8626                	mv	a2,s1
    17a8:	85a2                	mv	a1,s0
    17aa:	854e                	mv	a0,s3
    17ac:	3e89                	jal	12fe <DrawBlock>
    17ae:	000ab737          	lui	a4,0xab
    17b2:	8da6                	mv	s11,s1
    17b4:	8d4a                	mv	s10,s2
    17b6:	e5f70713          	addi	a4,a4,-417 # aae5f <_etext+0xa64eb>
D:\Hummingbird\HBird-workspace\pico_test_1\Debug/../src/Tetris.c:321
			tetriskeyval = 0;
    17ba:	4601                	li	a2,0
D:\Hummingbird\HBird-workspace\pico_test_1\Debug/../src/Tetris.c:325
				tetriskey = *ps2ctrl_point;
    17bc:	66c1                	lui	a3,0x10
    17be:	1006a783          	lw	a5,256(a3) # 10100 <_etext+0xb78c>
    17c2:	177d                	addi	a4,a4,-1
    17c4:	0ff7f793          	andi	a5,a5,255
D:\Hummingbird\HBird-workspace\pico_test_1\Debug/../src/Tetris.c:326
				if(tetriskey!=0)
    17c8:	c391                	beqz	a5,17cc <StartGame+0xee>
    17ca:	863e                	mv	a2,a5
D:\Hummingbird\HBird-workspace\pico_test_1\Debug/../src/Tetris.c:324
			while(--cnt){
    17cc:	fb6d                	bnez	a4,17be <StartGame+0xe0>
    17ce:	00fc0023          	sb	a5,0(s8)
    17d2:	88d6                	mv	a7,s5
D:\Hummingbird\HBird-workspace\pico_test_1\Debug/../src/Tetris.c:329
			switch(tetriskeyval){
    17d4:	1f760c63          	beq	a2,s7,19cc <StartGame+0x2ee>
    17d8:	0acbf863          	bleu	a2,s7,1888 <StartGame+0x1aa>
    17dc:	04000793          	li	a5,64
    17e0:	26f60963          	beq	a2,a5,1a52 <StartGame+0x374>
    17e4:	08000793          	li	a5,128
    17e8:	20f60463          	beq	a2,a5,19f0 <StartGame+0x312>
    17ec:	02000793          	li	a5,32
    17f0:	02f60f63          	beq	a2,a5,182e <StartGame+0x150>
D:\Hummingbird\HBird-workspace\pico_test_1\Debug/../src/Tetris.c:337
			if (key == 0) //键盘未被敲击
    17f4:	100b0e63          	beqz	s6,1910 <StartGame+0x232>
D:\Hummingbird\HBird-workspace\pico_test_1\Debug/../src/Tetris.c:365
				switch (key)
    17f8:	04b00793          	li	a5,75
    17fc:	24fb0b63          	beq	s6,a5,1a52 <StartGame+0x374>
    1800:	0167ef63          	bltu	a5,s6,181e <StartGame+0x140>
    1804:	47ed                	li	a5,27
    1806:	1cfb0363          	beq	s6,a5,19cc <StartGame+0x2ee>
    180a:	02000793          	li	a5,32
    180e:	08fb0163          	beq	s6,a5,1890 <StartGame+0x1b2>
D:\Hummingbird\HBird-workspace\pico_test_1\Debug/../src/Tetris.c:405
					CursorJump(COL, ROW / 2 + 2);break;
				}
			}
			DrawBlock(shape, form, x, y);
    1812:	86ea                	mv	a3,s10
    1814:	866e                	mv	a2,s11
    1816:	85a2                	mv	a1,s0
    1818:	854e                	mv	a0,s3
    181a:	34d5                	jal	12fe <DrawBlock>
D:\Hummingbird\HBird-workspace\pico_test_1\Debug/../src/Tetris.c:321
			tetriskeyval = 0;
    181c:	b761                	j	17a4 <StartGame+0xc6>
D:\Hummingbird\HBird-workspace\pico_test_1\Debug/../src/Tetris.c:365
				switch (key)
    181e:	04d00793          	li	a5,77
    1822:	1cfb0763          	beq	s6,a5,19f0 <StartGame+0x312>
    1826:	05000793          	li	a5,80
    182a:	fefb14e3          	bne	s6,a5,1812 <StartGame+0x134>
    182e:	47a2                	lw	a5,8(sp)
    1830:	412a05b3          	sub	a1,s4,s2
    1834:	0586                	slli	a1,a1,0x1
    1836:	00f40533          	add	a0,s0,a5
    183a:	47b2                	lw	a5,12(sp)
    183c:	95a6                	add	a1,a1,s1
    183e:	0512                	slli	a0,a0,0x4
    1840:	95e6                	add	a1,a1,s9
    1842:	953e                	add	a0,a0,a5
IsLegal():
D:\Hummingbird\HBird-workspace\pico_test_1\Debug/../src/Tetris.c:217
		for (int j = 0; j < 4; j++)
    1844:	4881                	li	a7,0
D:\Hummingbird\HBird-workspace\pico_test_1\Debug/../src/Tetris.c:220
			if ((block[shape][form].space[i][j] == 1) && (face.data[y + i][x + j] == 1))
    1846:	4605                	li	a2,1
D:\Hummingbird\HBird-workspace\pico_test_1\Debug/../src/Tetris.c:217
		for (int j = 0; j < 4; j++)
    1848:	872a                	mv	a4,a0
    184a:	4781                	li	a5,0
D:\Hummingbird\HBird-workspace\pico_test_1\Debug/../src/Tetris.c:220
			if ((block[shape][form].space[i][j] == 1) && (face.data[y + i][x + j] == 1))
    184c:	00074683          	lbu	a3,0(a4)
    1850:	0705                	addi	a4,a4,1
    1852:	02c68263          	beq	a3,a2,1876 <StartGame+0x198>
D:\Hummingbird\HBird-workspace\pico_test_1\Debug/../src/Tetris.c:217
		for (int j = 0; j < 4; j++)
    1856:	0785                	addi	a5,a5,1
    1858:	ff779ae3          	bne	a5,s7,184c <StartGame+0x16e>
D:\Hummingbird\HBird-workspace\pico_test_1\Debug/../src/Tetris.c:215
	for (int i = 0; i < 4; i++)
    185c:	0885                	addi	a7,a7,1
    185e:	05f9                	addi	a1,a1,30
    1860:	0511                	addi	a0,a0,4
    1862:	ff7893e3          	bne	a7,s7,1848 <StartGame+0x16a>
StartGame():
D:\Hummingbird\HBird-workspace\pico_test_1\Debug/../src/Tetris.c:371
						DrawSpace(shape, form, x, y); //用空格覆盖当前方块所在位置
    1866:	86ca                	mv	a3,s2
    1868:	8626                	mv	a2,s1
    186a:	85a2                	mv	a1,s0
    186c:	854e                	mv	a0,s3
    186e:	369d                	jal	13d4 <DrawSpace>
    1870:	05000b13          	li	s6,80
    1874:	bf79                	j	1812 <StartGame+0x134>
IsLegal():
D:\Hummingbird\HBird-workspace\pico_test_1\Debug/../src/Tetris.c:220
			if ((block[shape][form].space[i][j] == 1) && (face.data[y + i][x + j] == 1))
    1876:	00f586b3          	add	a3,a1,a5
    187a:	01e6c683          	lbu	a3,30(a3)
    187e:	fcc69ce3          	bne	a3,a2,1856 <StartGame+0x178>
StartGame():
D:\Hummingbird\HBird-workspace\pico_test_1\Debug/../src/Tetris.c:371
						DrawSpace(shape, form, x, y); //用空格覆盖当前方块所在位置
    1882:	05000b13          	li	s6,80
    1886:	b771                	j	1812 <StartGame+0x134>
D:\Hummingbird\HBird-workspace\pico_test_1\Debug/../src/Tetris.c:329
			switch(tetriskeyval){
    1888:	c641                	beqz	a2,1910 <StartGame+0x232>
    188a:	4789                	li	a5,2
    188c:	f6f614e3          	bne	a2,a5,17f4 <StartGame+0x116>
D:\Hummingbird\HBird-workspace\pico_test_1\Debug/../src/Tetris.c:392
					if (IsLegal(shape, (form + 1) % 4, x, y + 1) == 1) //判断方块旋转后是否合法
    1890:	00140793          	addi	a5,s0,1
    1894:	41f7d713          	srai	a4,a5,0x1f
    1898:	8379                	srli	a4,a4,0x1e
    189a:	00e78b33          	add	s6,a5,a4
    189e:	47a2                	lw	a5,8(sp)
    18a0:	003b7b13          	andi	s6,s6,3
    18a4:	40eb0b33          	sub	s6,s6,a4
    18a8:	00fb0533          	add	a0,s6,a5
    18ac:	412a05b3          	sub	a1,s4,s2
    18b0:	47b2                	lw	a5,12(sp)
    18b2:	0586                	slli	a1,a1,0x1
    18b4:	95a6                	add	a1,a1,s1
    18b6:	0512                	slli	a0,a0,0x4
    18b8:	95e6                	add	a1,a1,s9
    18ba:	953e                	add	a0,a0,a5
IsLegal():
D:\Hummingbird\HBird-workspace\pico_test_1\Debug/../src/Tetris.c:215
	for (int i = 0; i < 4; i++)
    18bc:	4301                	li	t1,0
D:\Hummingbird\HBird-workspace\pico_test_1\Debug/../src/Tetris.c:220
			if ((block[shape][form].space[i][j] == 1) && (face.data[y + i][x + j] == 1))
    18be:	4605                	li	a2,1
D:\Hummingbird\HBird-workspace\pico_test_1\Debug/../src/Tetris.c:215
	for (int i = 0; i < 4; i++)
    18c0:	872a                	mv	a4,a0
D:\Hummingbird\HBird-workspace\pico_test_1\Debug/../src/Tetris.c:217
		for (int j = 0; j < 4; j++)
    18c2:	4781                	li	a5,0
D:\Hummingbird\HBird-workspace\pico_test_1\Debug/../src/Tetris.c:220
			if ((block[shape][form].space[i][j] == 1) && (face.data[y + i][x + j] == 1))
    18c4:	00074683          	lbu	a3,0(a4)
    18c8:	0705                	addi	a4,a4,1
    18ca:	02c68a63          	beq	a3,a2,18fe <StartGame+0x220>
D:\Hummingbird\HBird-workspace\pico_test_1\Debug/../src/Tetris.c:217
		for (int j = 0; j < 4; j++)
    18ce:	0785                	addi	a5,a5,1
    18d0:	ff779ae3          	bne	a5,s7,18c4 <StartGame+0x1e6>
D:\Hummingbird\HBird-workspace\pico_test_1\Debug/../src/Tetris.c:215
	for (int i = 0; i < 4; i++)
    18d4:	0305                	addi	t1,t1,1
    18d6:	05f9                	addi	a1,a1,30
    18d8:	0511                	addi	a0,a0,4
    18da:	ff7313e3          	bne	t1,s7,18c0 <StartGame+0x1e2>
StartGame():
D:\Hummingbird\HBird-workspace\pico_test_1\Debug/../src/Tetris.c:395
						DrawSpace(shape, form, x, y); //用空格覆盖当前方块所在位置
    18de:	86ca                	mv	a3,s2
    18e0:	85a2                	mv	a1,s0
    18e2:	8626                	mv	a2,s1
    18e4:	854e                	mv	a0,s3
    18e6:	d646                	sw	a7,44(sp)
    18e8:	34f5                	jal	13d4 <DrawSpace>
    18ea:	58b2                	lw	a7,44(sp)
    18ec:	8d56                	mv	s10,s5
D:\Hummingbird\HBird-workspace\pico_test_1\Debug/../src/Tetris.c:396
						y++; //纵坐标自增（总不能原地旋转吧）
    18ee:	8956                	mv	s2,s5
D:\Hummingbird\HBird-workspace\pico_test_1\Debug/../src/Tetris.c:397
						form = (form + 1) % 4; //方块的形态自增（下一次显示方块时就相当于旋转了）
    18f0:	845a                	mv	s0,s6
    18f2:	0a85                	addi	s5,s5,1
D:\Hummingbird\HBird-workspace\pico_test_1\Debug/../src/Tetris.c:395
						DrawSpace(shape, form, x, y); //用空格覆盖当前方块所在位置
    18f4:	02000b13          	li	s6,32
    18f8:	00489a13          	slli	s4,a7,0x4
    18fc:	bf19                	j	1812 <StartGame+0x134>
IsLegal():
D:\Hummingbird\HBird-workspace\pico_test_1\Debug/../src/Tetris.c:220
			if ((block[shape][form].space[i][j] == 1) && (face.data[y + i][x + j] == 1))
    18fe:	00f586b3          	add	a3,a1,a5
    1902:	01e6c683          	lbu	a3,30(a3)
    1906:	fcc694e3          	bne	a3,a2,18ce <StartGame+0x1f0>
    190a:	02000b13          	li	s6,32
    190e:	b711                	j	1812 <StartGame+0x134>
    1910:	47a2                	lw	a5,8(sp)
    1912:	412a05b3          	sub	a1,s4,s2
    1916:	0586                	slli	a1,a1,0x1
    1918:	00f40f33          	add	t5,s0,a5
    191c:	47b2                	lw	a5,12(sp)
    191e:	95a6                	add	a1,a1,s1
    1920:	0f12                	slli	t5,t5,0x4
    1922:	95e6                	add	a1,a1,s9
    1924:	01e78fb3          	add	t6,a5,t5
D:\Hummingbird\HBird-workspace\pico_test_1\Debug/../src/Tetris.c:217
		for (int j = 0; j < 4; j++)
    1928:	887e                	mv	a6,t6
    192a:	852e                	mv	a0,a1
    192c:	4301                	li	t1,0
D:\Hummingbird\HBird-workspace\pico_test_1\Debug/../src/Tetris.c:220
			if ((block[shape][form].space[i][j] == 1) && (face.data[y + i][x + j] == 1))
    192e:	4605                	li	a2,1
StartGame():
    1930:	8742                	mv	a4,a6
IsLegal():
D:\Hummingbird\HBird-workspace\pico_test_1\Debug/../src/Tetris.c:217
		for (int j = 0; j < 4; j++)
    1932:	4781                	li	a5,0
D:\Hummingbird\HBird-workspace\pico_test_1\Debug/../src/Tetris.c:220
			if ((block[shape][form].space[i][j] == 1) && (face.data[y + i][x + j] == 1))
    1934:	00074683          	lbu	a3,0(a4)
    1938:	0705                	addi	a4,a4,1
    193a:	02c68863          	beq	a3,a2,196a <StartGame+0x28c>
D:\Hummingbird\HBird-workspace\pico_test_1\Debug/../src/Tetris.c:217
		for (int j = 0; j < 4; j++)
    193e:	0785                	addi	a5,a5,1
    1940:	ff779ae3          	bne	a5,s7,1934 <StartGame+0x256>
D:\Hummingbird\HBird-workspace\pico_test_1\Debug/../src/Tetris.c:215
	for (int i = 0; i < 4; i++)
    1944:	0305                	addi	t1,t1,1
    1946:	0579                	addi	a0,a0,30
    1948:	0811                	addi	a6,a6,4
    194a:	ff7313e3          	bne	t1,s7,1930 <StartGame+0x252>
StartGame():
D:\Hummingbird\HBird-workspace\pico_test_1\Debug/../src/Tetris.c:359
					DrawSpace(shape, form, x, y); //用空格覆盖当前方块所在位置
    194e:	86ca                	mv	a3,s2
    1950:	8626                	mv	a2,s1
    1952:	85a2                	mv	a1,s0
    1954:	854e                	mv	a0,s3
    1956:	d646                	sw	a7,44(sp)
    1958:	3cb5                	jal	13d4 <DrawSpace>
    195a:	58b2                	lw	a7,44(sp)
    195c:	8d56                	mv	s10,s5
D:\Hummingbird\HBird-workspace\pico_test_1\Debug/../src/Tetris.c:360
					y++; //纵坐标自增（下一次显示方块时就相当于下落了一格了）
    195e:	8956                	mv	s2,s5
    1960:	4b01                	li	s6,0
    1962:	0a85                	addi	s5,s5,1
    1964:	00489a13          	slli	s4,a7,0x4
    1968:	b56d                	j	1812 <StartGame+0x134>
IsLegal():
D:\Hummingbird\HBird-workspace\pico_test_1\Debug/../src/Tetris.c:220
			if ((block[shape][form].space[i][j] == 1) && (face.data[y + i][x + j] == 1))
    196a:	00f506b3          	add	a3,a0,a5
    196e:	01e6c683          	lbu	a3,30(a3)
    1972:	fcc696e3          	bne	a3,a2,193e <StartGame+0x260>
    1976:	5792                	lw	a5,36(sp)
StartGame():
D:\Hummingbird\HBird-workspace\pico_test_1\Debug/../src/Tetris.c:347
							if (block[shape][form].space[i][j] == 1)
    1978:	4505                	li	a0,1
    197a:	9f3e                	add	t5,t5,a5
IsLegal():
D:\Hummingbird\HBird-workspace\pico_test_1\Debug/../src/Tetris.c:217
		for (int j = 0; j < 4; j++)
    197c:	86ae                	mv	a3,a1
    197e:	877e                	mv	a4,t6
    1980:	4791                	li	a5,4
StartGame():
D:\Hummingbird\HBird-workspace\pico_test_1\Debug/../src/Tetris.c:347
							if (block[shape][form].space[i][j] == 1)
    1982:	00074603          	lbu	a2,0(a4)
    1986:	17fd                	addi	a5,a5,-1
    1988:	0ff7f793          	andi	a5,a5,255
    198c:	00a61663          	bne	a2,a0,1998 <StartGame+0x2ba>
D:\Hummingbird\HBird-workspace\pico_test_1\Debug/../src/Tetris.c:349
								face.data[y + i][x + j] = 1; //将该位置标记为有方块
    1990:	00a68023          	sb	a0,0(a3)
D:\Hummingbird\HBird-workspace\pico_test_1\Debug/../src/Tetris.c:350
								face.color[y + i][x + j] = shape; //记录该方块的颜色数值
    1994:	37368323          	sb	s3,870(a3)
    1998:	0705                	addi	a4,a4,1
    199a:	0685                	addi	a3,a3,1
D:\Hummingbird\HBird-workspace\pico_test_1\Debug/../src/Tetris.c:345 (discriminator 2)
						for (u8 j = 0; j < 4; j++)
    199c:	f3fd                	bnez	a5,1982 <StartGame+0x2a4>
    199e:	0f91                	addi	t6,t6,4
    19a0:	05f9                	addi	a1,a1,30
D:\Hummingbird\HBird-workspace\pico_test_1\Debug/../src/Tetris.c:343 (discriminator 2)
					for (u8 i = 0; i < 4; i++)
    19a2:	fdff1de3          	bne	t5,t6,197c <StartGame+0x29e>
D:\Hummingbird\HBird-workspace\pico_test_1\Debug/../src/Tetris.c:354 (discriminator 1)
					while (JudeFunc()); //判断此次方块下落是否得分以及游戏是否结束
    19a6:	3e11                	jal	14ba <JudeFunc>
    19a8:	fd7d                	bnez	a0,19a6 <StartGame+0x2c8>
D:\Hummingbird\HBird-workspace\pico_test_1\Debug/../src/Tetris.c:407
		}
		if(end == 1){
    19aa:	47c2                	lw	a5,16(sp)
    19ac:	4705                	li	a4,1
    19ae:	0007c783          	lbu	a5,0(a5)
    19b2:	14e78563          	beq	a5,a4,1afc <StartGame+0x41e>
D:\Hummingbird\HBird-workspace\pico_test_1\Debug/../src/Tetris.c:411
					end = 0;
					break;
				}
		else if(end == 2){
    19b6:	4709                	li	a4,2
    19b8:	0ee78e63          	beq	a5,a4,1ab4 <StartGame+0x3d6>
D:\Hummingbird\HBird-workspace\pico_test_1\Debug/../src/Tetris.c:423
				grade = 0;
				InitInterface();
				hdmi_draw_string_back_verticlal((COL + 1)*8,160,"SCORE:",0,255);
			}
		shape = nextShape, form = nextForm; //获取下一个方块的信息
		DrawSpace(nextShape, nextForm, COL + 3, 3); //将右上角的方块信息用空格覆盖
    19bc:	5402                	lw	s0,32(sp)
    19be:	49f2                	lw	s3,28(sp)
    19c0:	468d                	li	a3,3
    19c2:	465d                	li	a2,23
    19c4:	85a2                	mv	a1,s0
    19c6:	854e                	mv	a0,s3
    19c8:	3431                	jal	13d4 <DrawSpace>
D:\Hummingbird\HBird-workspace\pico_test_1\Debug/../src/Tetris.c:313
	{
    19ca:	b349                	j	174c <StartGame+0x6e>
D:\Hummingbird\HBird-workspace\pico_test_1\Debug/../src/Tetris.c:401
					hdmi_draw_string_back_verticlal(pos.X,pos.Y,"GAME END",255,0);
    19cc:	47d2                	lw	a5,20(sp)
    19ce:	00004637          	lui	a2,0x4
    19d2:	4701                	li	a4,0
    19d4:	0027d583          	lhu	a1,2(a5)
    19d8:	0007d503          	lhu	a0,0(a5)
    19dc:	0ff00693          	li	a3,255
    19e0:	f7c60613          	addi	a2,a2,-132 # 3f7c <rand+0x94>
    19e4:	2e65                	jal	1d9c <hdmi_draw_string_back_verticlal>
CursorJump():
D:\Hummingbird\HBird-workspace\pico_test_1\Debug/../src/Tetris.c:52
	pos.X = x; //横坐标设置
    19e6:	47d2                	lw	a5,20(sp)
    19e8:	5722                	lw	a4,40(sp)
    19ea:	4b6d                	li	s6,27
    19ec:	c398                	sw	a4,0(a5)
    19ee:	b515                	j	1812 <StartGame+0x134>
    19f0:	47a2                	lw	a5,8(sp)
    19f2:	412a05b3          	sub	a1,s4,s2
    19f6:	0586                	slli	a1,a1,0x1
    19f8:	00f40533          	add	a0,s0,a5
    19fc:	47b2                	lw	a5,12(sp)
    19fe:	95a6                	add	a1,a1,s1
    1a00:	0512                	slli	a0,a0,0x4
StartGame():
D:\Hummingbird\HBird-workspace\pico_test_1\Debug/../src/Tetris.c:384
					if (IsLegal(shape, form, x + 1, y) == 1) //判断方块向右移动一位后是否合法
    1a02:	00148313          	addi	t1,s1,1
    1a06:	95e6                	add	a1,a1,s9
    1a08:	953e                	add	a0,a0,a5
IsLegal():
D:\Hummingbird\HBird-workspace\pico_test_1\Debug/../src/Tetris.c:215
	for (int i = 0; i < 4; i++)
    1a0a:	4881                	li	a7,0
D:\Hummingbird\HBird-workspace\pico_test_1\Debug/../src/Tetris.c:220
			if ((block[shape][form].space[i][j] == 1) && (face.data[y + i][x + j] == 1))
    1a0c:	4605                	li	a2,1
D:\Hummingbird\HBird-workspace\pico_test_1\Debug/../src/Tetris.c:215
	for (int i = 0; i < 4; i++)
    1a0e:	872a                	mv	a4,a0
D:\Hummingbird\HBird-workspace\pico_test_1\Debug/../src/Tetris.c:217
		for (int j = 0; j < 4; j++)
    1a10:	4781                	li	a5,0
D:\Hummingbird\HBird-workspace\pico_test_1\Debug/../src/Tetris.c:220
			if ((block[shape][form].space[i][j] == 1) && (face.data[y + i][x + j] == 1))
    1a12:	00074683          	lbu	a3,0(a4)
    1a16:	0705                	addi	a4,a4,1
    1a18:	02c68463          	beq	a3,a2,1a40 <StartGame+0x362>
D:\Hummingbird\HBird-workspace\pico_test_1\Debug/../src/Tetris.c:217
		for (int j = 0; j < 4; j++)
    1a1c:	0785                	addi	a5,a5,1
    1a1e:	ff779ae3          	bne	a5,s7,1a12 <StartGame+0x334>
D:\Hummingbird\HBird-workspace\pico_test_1\Debug/../src/Tetris.c:215
	for (int i = 0; i < 4; i++)
    1a22:	0885                	addi	a7,a7,1
    1a24:	05f9                	addi	a1,a1,30
    1a26:	0511                	addi	a0,a0,4
    1a28:	ff7893e3          	bne	a7,s7,1a0e <StartGame+0x330>
StartGame():
D:\Hummingbird\HBird-workspace\pico_test_1\Debug/../src/Tetris.c:387
						DrawSpace(shape, form, x, y); //用空格覆盖当前方块所在位置
    1a2c:	8626                	mv	a2,s1
    1a2e:	86ca                	mv	a3,s2
    1a30:	849a                	mv	s1,t1
    1a32:	85a2                	mv	a1,s0
    1a34:	854e                	mv	a0,s3
    1a36:	3a79                	jal	13d4 <DrawSpace>
D:\Hummingbird\HBird-workspace\pico_test_1\Debug/../src/Tetris.c:388
						x++; //横坐标自增（下一次显示方块时就相当于右移了一格了）
    1a38:	8da6                	mv	s11,s1
D:\Hummingbird\HBird-workspace\pico_test_1\Debug/../src/Tetris.c:387
						DrawSpace(shape, form, x, y); //用空格覆盖当前方块所在位置
    1a3a:	04d00b13          	li	s6,77
    1a3e:	bbd1                	j	1812 <StartGame+0x134>
IsLegal():
D:\Hummingbird\HBird-workspace\pico_test_1\Debug/../src/Tetris.c:220
			if ((block[shape][form].space[i][j] == 1) && (face.data[y + i][x + j] == 1))
    1a40:	00f586b3          	add	a3,a1,a5
    1a44:	0016c683          	lbu	a3,1(a3)
    1a48:	fcc69ae3          	bne	a3,a2,1a1c <StartGame+0x33e>
StartGame():
D:\Hummingbird\HBird-workspace\pico_test_1\Debug/../src/Tetris.c:387
						DrawSpace(shape, form, x, y); //用空格覆盖当前方块所在位置
    1a4c:	04d00b13          	li	s6,77
    1a50:	b3c9                	j	1812 <StartGame+0x134>
    1a52:	47a2                	lw	a5,8(sp)
    1a54:	412a05b3          	sub	a1,s4,s2
    1a58:	0586                	slli	a1,a1,0x1
    1a5a:	00f40533          	add	a0,s0,a5
    1a5e:	47b2                	lw	a5,12(sp)
    1a60:	95a6                	add	a1,a1,s1
    1a62:	0512                	slli	a0,a0,0x4
D:\Hummingbird\HBird-workspace\pico_test_1\Debug/../src/Tetris.c:376
					if (IsLegal(shape, form, x - 1, y) == 1) //判断方块向左移动一位后是否合法
    1a64:	fff48313          	addi	t1,s1,-1
    1a68:	95e6                	add	a1,a1,s9
    1a6a:	953e                	add	a0,a0,a5
IsLegal():
D:\Hummingbird\HBird-workspace\pico_test_1\Debug/../src/Tetris.c:215
	for (int i = 0; i < 4; i++)
    1a6c:	4881                	li	a7,0
D:\Hummingbird\HBird-workspace\pico_test_1\Debug/../src/Tetris.c:220
			if ((block[shape][form].space[i][j] == 1) && (face.data[y + i][x + j] == 1))
    1a6e:	4605                	li	a2,1
D:\Hummingbird\HBird-workspace\pico_test_1\Debug/../src/Tetris.c:217
		for (int j = 0; j < 4; j++)
    1a70:	872a                	mv	a4,a0
    1a72:	4781                	li	a5,0
D:\Hummingbird\HBird-workspace\pico_test_1\Debug/../src/Tetris.c:220
			if ((block[shape][form].space[i][j] == 1) && (face.data[y + i][x + j] == 1))
    1a74:	00074683          	lbu	a3,0(a4)
    1a78:	0705                	addi	a4,a4,1
    1a7a:	02c68463          	beq	a3,a2,1aa2 <StartGame+0x3c4>
D:\Hummingbird\HBird-workspace\pico_test_1\Debug/../src/Tetris.c:217
		for (int j = 0; j < 4; j++)
    1a7e:	0785                	addi	a5,a5,1
    1a80:	ff779ae3          	bne	a5,s7,1a74 <StartGame+0x396>
D:\Hummingbird\HBird-workspace\pico_test_1\Debug/../src/Tetris.c:215
	for (int i = 0; i < 4; i++)
    1a84:	0885                	addi	a7,a7,1
    1a86:	05f9                	addi	a1,a1,30
    1a88:	0511                	addi	a0,a0,4
    1a8a:	ff7893e3          	bne	a7,s7,1a70 <StartGame+0x392>
StartGame():
D:\Hummingbird\HBird-workspace\pico_test_1\Debug/../src/Tetris.c:379
						DrawSpace(shape, form, x, y); //用空格覆盖当前方块所在位置
    1a8e:	8626                	mv	a2,s1
    1a90:	86ca                	mv	a3,s2
    1a92:	849a                	mv	s1,t1
    1a94:	85a2                	mv	a1,s0
    1a96:	854e                	mv	a0,s3
    1a98:	3a35                	jal	13d4 <DrawSpace>
D:\Hummingbird\HBird-workspace\pico_test_1\Debug/../src/Tetris.c:380
						x--; //横坐标自减（下一次显示方块时就相当于左移了一格了）
    1a9a:	8da6                	mv	s11,s1
D:\Hummingbird\HBird-workspace\pico_test_1\Debug/../src/Tetris.c:379
						DrawSpace(shape, form, x, y); //用空格覆盖当前方块所在位置
    1a9c:	04b00b13          	li	s6,75
    1aa0:	bb8d                	j	1812 <StartGame+0x134>
IsLegal():
D:\Hummingbird\HBird-workspace\pico_test_1\Debug/../src/Tetris.c:220
			if ((block[shape][form].space[i][j] == 1) && (face.data[y + i][x + j] == 1))
    1aa2:	00f586b3          	add	a3,a1,a5
    1aa6:	fff6c683          	lbu	a3,-1(a3)
    1aaa:	fcc69ae3          	bne	a3,a2,1a7e <StartGame+0x3a0>
StartGame():
D:\Hummingbird\HBird-workspace\pico_test_1\Debug/../src/Tetris.c:379
						DrawSpace(shape, form, x, y); //用空格覆盖当前方块所在位置
    1aae:	04b00b13          	li	s6,75
    1ab2:	b385                	j	1812 <StartGame+0x134>
D:\Hummingbird\HBird-workspace\pico_test_1\Debug/../src/Tetris.c:412
			end = 0;
    1ab4:	47c2                	lw	a5,16(sp)
    1ab6:	001c8693          	addi	a3,s9,1
    1aba:	349c8613          	addi	a2,s9,841
    1abe:	00078023          	sb	zero,0(a5)
    1ac2:	01268713          	addi	a4,a3,18
IsLegal():
D:\Hummingbird\HBird-workspace\pico_test_1\Debug/../src/Tetris.c:220
			if ((block[shape][form].space[i][j] == 1) && (face.data[y + i][x + j] == 1))
    1ac6:	87b6                	mv	a5,a3
StartGame():
D:\Hummingbird\HBird-workspace\pico_test_1\Debug/../src/Tetris.c:415 (discriminator 3)
					face.data[i][j] = 0;
    1ac8:	00078023          	sb	zero,0(a5)
    1acc:	0785                	addi	a5,a5,1
D:\Hummingbird\HBird-workspace\pico_test_1\Debug/../src/Tetris.c:414 (discriminator 3)
				for (int j = 1; j < COL - 1; j++){
    1ace:	fef71de3          	bne	a4,a5,1ac8 <StartGame+0x3ea>
    1ad2:	06f9                	addi	a3,a3,30
D:\Hummingbird\HBird-workspace\pico_test_1\Debug/../src/Tetris.c:413 (discriminator 2)
			for (int i = 0; i < ROW - 1; i++){
    1ad4:	fed617e3          	bne	a2,a3,1ac2 <StartGame+0x3e4>
D:\Hummingbird\HBird-workspace\pico_test_1\Debug/../src/Tetris.c:418
				grade = 0;
    1ad8:	47e2                	lw	a5,24(sp)
    1ada:	0007a023          	sw	zero,0(a5)
D:\Hummingbird\HBird-workspace\pico_test_1\Debug/../src/Tetris.c:419
				InitInterface();
    1ade:	df6ff0ef          	jal	ra,10d4 <InitInterface>
D:\Hummingbird\HBird-workspace\pico_test_1\Debug/../src/Tetris.c:420
				hdmi_draw_string_back_verticlal((COL + 1)*8,160,"SCORE:",0,255);
    1ae2:	00004637          	lui	a2,0x4
    1ae6:	0ff00713          	li	a4,255
    1aea:	4681                	li	a3,0
    1aec:	f4460613          	addi	a2,a2,-188 # 3f44 <rand+0x5c>
    1af0:	0a000593          	li	a1,160
    1af4:	0a800513          	li	a0,168
    1af8:	2455                	jal	1d9c <hdmi_draw_string_back_verticlal>
    1afa:	b5c9                	j	19bc <StartGame+0x2de>
D:\Hummingbird\HBird-workspace\pico_test_1\Debug/../src/Tetris.c:408
					end = 0;
    1afc:	47c2                	lw	a5,16(sp)
    1afe:	00078023          	sb	zero,0(a5)
D:\Hummingbird\HBird-workspace\pico_test_1\Debug/../src/Tetris.c:425
	}
}
    1b02:	50b6                	lw	ra,108(sp)
    1b04:	5426                	lw	s0,104(sp)
    1b06:	5496                	lw	s1,100(sp)
    1b08:	5906                	lw	s2,96(sp)
    1b0a:	49f6                	lw	s3,92(sp)
    1b0c:	4a66                	lw	s4,88(sp)
    1b0e:	4ad6                	lw	s5,84(sp)
    1b10:	4b46                	lw	s6,80(sp)
    1b12:	4bb6                	lw	s7,76(sp)
    1b14:	4c26                	lw	s8,72(sp)
    1b16:	4c96                	lw	s9,68(sp)
    1b18:	4d06                	lw	s10,64(sp)
    1b1a:	5df2                	lw	s11,60(sp)
    1b1c:	6165                	addi	sp,sp,112
    1b1e:	8082                	ret

00001b20 <Tetris>:
Tetris():
D:\Hummingbird\HBird-workspace\pico_test_1\Debug/../src/Tetris.c:41
	max = 0, grade = 0; //初始化变量
    1b20:	6785                	lui	a5,0x1
D:\Hummingbird\HBird-workspace\pico_test_1\Debug/../src/Tetris.c:40
{
    1b22:	1141                	addi	sp,sp,-16
D:\Hummingbird\HBird-workspace\pico_test_1\Debug/../src/Tetris.c:41
	max = 0, grade = 0; //初始化变量
    1b24:	f207a623          	sw	zero,-212(a5) # f2c <max>
    1b28:	6785                	lui	a5,0x1
D:\Hummingbird\HBird-workspace\pico_test_1\Debug/../src/Tetris.c:40
{
    1b2a:	c606                	sw	ra,12(sp)
D:\Hummingbird\HBird-workspace\pico_test_1\Debug/../src/Tetris.c:41
	max = 0, grade = 0; //初始化变量
    1b2c:	f207a423          	sw	zero,-216(a5) # f28 <grade>
D:\Hummingbird\HBird-workspace\pico_test_1\Debug/../src/Tetris.c:42
	InitInterface(); //初始化界面
    1b30:	da4ff0ef          	jal	ra,10d4 <InitInterface>
D:\Hummingbird\HBird-workspace\pico_test_1\Debug/../src/Tetris.c:43
	InitBlockInfo(); //初始化方块信息
    1b34:	ee6ff0ef          	jal	ra,121a <InitBlockInfo>
D:\Hummingbird\HBird-workspace\pico_test_1\Debug/../src/Tetris.c:44
	srand(1); //设置随机数生成的起点
    1b38:	4505                	li	a0,1
    1b3a:	39a020ef          	jal	ra,3ed4 <srand>
D:\Hummingbird\HBird-workspace\pico_test_1\Debug/../src/Tetris.c:46
}
    1b3e:	40b2                	lw	ra,12(sp)
    1b40:	0141                	addi	sp,sp,16
D:\Hummingbird\HBird-workspace\pico_test_1\Debug/../src/Tetris.c:45
	StartGame(); //开始游戏
    1b42:	be71                	j	16de <StartGame>

00001b44 <hdmi_draw_test>:
hdmi_draw_test():
D:\Hummingbird\HBird-workspace\pico_test_1\Debug/../src/hdmidraw.c:14
/***************************************************************************
 ** 作用：显示春日影
 ** 参数：x:屏幕x坐标,y:屏幕y坐标
 ** 注:仅用作测试
****************************************************************************/
void hdmi_draw_test(u32 x,u32 y){
    1b44:	1141                	addi	sp,sp,-16
    1b46:	c622                	sw	s0,12(sp)
D:\Hummingbird\HBird-workspace\pico_test_1\Debug/../src/hdmidraw.c:17
	u8 i;u8 j;
	u64 cursor;
	u16 x0 = x; u16 y0 = y;
    1b48:	01051e93          	slli	t4,a0,0x10
    1b4c:	6411                	lui	s0,0x4
    1b4e:	57840413          	addi	s0,s0,1400 # 4578 <bitmap_bytes>
    1b52:	010ede93          	srli	t4,t4,0x10
hdmi_draw_point():
D:\Hummingbird\HBird-workspace\pico_test_1\Debug/../src/hdmidraw.c:45
//color硬件上自行设定
void hdmi_draw_point(u16 x, u16 y, u8 color){
	u64 temp_ramaddress= 0;
	temp_ramaddress = 320*y+x;
	ram_address = temp_ramaddress;
	ram_data_address = color+(0b1<<31);
    1b56:	80000fb7          	lui	t6,0x80000
hdmi_draw_test():
D:\Hummingbird\HBird-workspace\pico_test_1\Debug/../src/hdmidraw.c:17
	u16 x0 = x; u16 y0 = y;
    1b5a:	05c2                	slli	a1,a1,0x10
    1b5c:	00140393          	addi	t2,s0,1
    1b60:	81c1                	srli	a1,a1,0x10
    1b62:	06040413          	addi	s0,s0,96
    1b66:	8776                	mv	a4,t4
    1b68:	4885                	li	a7,1
hdmi_draw_point():
D:\Hummingbird\HBird-workspace\pico_test_1\Debug/../src/hdmidraw.c:44
	ram_address = temp_ramaddress;
    1b6a:	6841                	lui	a6,0x10
    1b6c:	007f8293          	addi	t0,t6,7 # 80000007 <_etext+0x7fffb693>
hdmi_draw_test():
D:\Hummingbird\HBird-workspace\pico_test_1\Debug/../src/hdmidraw.c:27
			if(x0>319 || x0>47+x){
    1b70:	13f00e13          	li	t3,319
    1b74:	02f50f13          	addi	t5,a0,47
D:\Hummingbird\HBird-workspace\pico_test_1\Debug/../src/hdmidraw.c:20
		for(j = 0; j< 8; j++){
    1b78:	537d                	li	t1,-1
D:\Hummingbird\HBird-workspace\pico_test_1\Debug/../src/hdmidraw.c:19
		cursor = bitmap_bytes[i];//春日影
    1b7a:	469d                	li	a3,7
    1b7c:	00259793          	slli	a5,a1,0x2
    1b80:	97ae                	add	a5,a5,a1
    1b82:	079a                	slli	a5,a5,0x6
    1b84:	97ba                	add	a5,a5,a4
D:\Hummingbird\HBird-workspace\pico_test_1\Debug/../src/hdmidraw.c:21
			if(((cursor>>(7-j))&0x01)){
    1b86:	00d8d633          	srl	a2,a7,a3
    1b8a:	0206f513          	andi	a0,a3,32
hdmi_draw_point():
D:\Hummingbird\HBird-workspace\pico_test_1\Debug/../src/hdmidraw.c:44
	ram_address = temp_ramaddress;
    1b8e:	06f82023          	sw	a5,96(a6) # 10060 <_etext+0xb6ec>
hdmi_draw_test():
D:\Hummingbird\HBird-workspace\pico_test_1\Debug/../src/hdmidraw.c:21
			if(((cursor>>(7-j))&0x01)){
    1b92:	8a05                	andi	a2,a2,1
    1b94:	ed05                	bnez	a0,1bcc <hdmi_draw_test+0x88>
    1b96:	40d28533          	sub	a0,t0,a3
    1b9a:	ca0d                	beqz	a2,1bcc <hdmi_draw_test+0x88>
hdmi_draw_point():
D:\Hummingbird\HBird-workspace\pico_test_1\Debug/../src/hdmidraw.c:45
	ram_data_address = color+(0b1<<31);
    1b9c:	06a82823          	sw	a0,112(a6)
hdmi_draw_test():
D:\Hummingbird\HBird-workspace\pico_test_1\Debug/../src/hdmidraw.c:26
			x0++;
    1ba0:	0705                	addi	a4,a4,1
    1ba2:	0742                	slli	a4,a4,0x10
    1ba4:	8341                	srli	a4,a4,0x10
    1ba6:	16fd                	addi	a3,a3,-1
D:\Hummingbird\HBird-workspace\pico_test_1\Debug/../src/hdmidraw.c:28
				x0 = x;y0++;
    1ba8:	00158793          	addi	a5,a1,1 # 20080001 <_etext+0x2007b68d>
D:\Hummingbird\HBird-workspace\pico_test_1\Debug/../src/hdmidraw.c:27
			if(x0>319 || x0>47+x){
    1bac:	00ee6463          	bltu	t3,a4,1bb4 <hdmi_draw_test+0x70>
D:\Hummingbird\HBird-workspace\pico_test_1\Debug/../src/hdmidraw.c:27 (discriminator 1)
    1bb0:	00ef7663          	bleu	a4,t5,1bbc <hdmi_draw_test+0x78>
D:\Hummingbird\HBird-workspace\pico_test_1\Debug/../src/hdmidraw.c:28
				x0 = x;y0++;
    1bb4:	01079593          	slli	a1,a5,0x10
    1bb8:	81c1                	srli	a1,a1,0x10
    1bba:	8776                	mv	a4,t4
D:\Hummingbird\HBird-workspace\pico_test_1\Debug/../src/hdmidraw.c:20 (discriminator 2)
		for(j = 0; j< 8; j++){
    1bbc:	fc6690e3          	bne	a3,t1,1b7c <hdmi_draw_test+0x38>
D:\Hummingbird\HBird-workspace\pico_test_1\Debug/../src/hdmidraw.c:18 (discriminator 2)
	for(i = 0;i< 96; i++){
    1bc0:	00740963          	beq	s0,t2,1bd2 <hdmi_draw_test+0x8e>
    1bc4:	0003c883          	lbu	a7,0(t2)
    1bc8:	0385                	addi	t2,t2,1
    1bca:	bf45                	j	1b7a <hdmi_draw_test+0x36>
hdmi_draw_point():
D:\Hummingbird\HBird-workspace\pico_test_1\Debug/../src/hdmidraw.c:45
	ram_data_address = color+(0b1<<31);
    1bcc:	07f82823          	sw	t6,112(a6)
    1bd0:	bfc1                	j	1ba0 <hdmi_draw_test+0x5c>
hdmi_draw_test():
D:\Hummingbird\HBird-workspace\pico_test_1\Debug/../src/hdmidraw.c:32
}
    1bd2:	4432                	lw	s0,12(sp)
    1bd4:	0141                	addi	sp,sp,16
    1bd6:	8082                	ret

00001bd8 <hdmi_draw_point>:
hdmi_draw_point():
D:\Hummingbird\HBird-workspace\pico_test_1\Debug/../src/hdmidraw.c:43
	temp_ramaddress = 320*y+x;
    1bd8:	00259793          	slli	a5,a1,0x2
    1bdc:	95be                	add	a1,a1,a5
    1bde:	059a                	slli	a1,a1,0x6
D:\Hummingbird\HBird-workspace\pico_test_1\Debug/../src/hdmidraw.c:44
	ram_address = temp_ramaddress;
    1be0:	6741                	lui	a4,0x10
D:\Hummingbird\HBird-workspace\pico_test_1\Debug/../src/hdmidraw.c:43
	temp_ramaddress = 320*y+x;
    1be2:	95aa                	add	a1,a1,a0
D:\Hummingbird\HBird-workspace\pico_test_1\Debug/../src/hdmidraw.c:45
	ram_data_address = color+(0b1<<31);
    1be4:	800007b7          	lui	a5,0x80000
D:\Hummingbird\HBird-workspace\pico_test_1\Debug/../src/hdmidraw.c:44
	ram_address = temp_ramaddress;
    1be8:	d32c                	sw	a1,96(a4)
D:\Hummingbird\HBird-workspace\pico_test_1\Debug/../src/hdmidraw.c:45
	ram_data_address = color+(0b1<<31);
    1bea:	963e                	add	a2,a2,a5
    1bec:	db30                	sw	a2,112(a4)
D:\Hummingbird\HBird-workspace\pico_test_1\Debug/../src/hdmidraw.c:46
}
    1bee:	8082                	ret

00001bf0 <hdmi_draw_point_vertical>:
hdmi_draw_point_vertical():
D:\Hummingbird\HBird-workspace\pico_test_1\Debug/../src/hdmidraw.c:54
 ** 参数：x:屏幕x坐标,y:屏幕y坐标,color:颜色索引值，取0~255共256位
 ** 注:用于垂直显示,此时(0,0)位于屏幕左上角
****************************************************************************/
void hdmi_draw_point_vertical(u16 x, u16 y, u8 color){
	u64 temp_ramaddress= 0;
	temp_ramaddress = 320*x+(319-y);
    1bf0:	00251793          	slli	a5,a0,0x2
    1bf4:	953e                	add	a0,a0,a5
    1bf6:	051a                	slli	a0,a0,0x6
    1bf8:	8d0d                	sub	a0,a0,a1
D:\Hummingbird\HBird-workspace\pico_test_1\Debug/../src/hdmidraw.c:55
	ram_address = temp_ramaddress;
    1bfa:	6741                	lui	a4,0x10
D:\Hummingbird\HBird-workspace\pico_test_1\Debug/../src/hdmidraw.c:54
	temp_ramaddress = 320*x+(319-y);
    1bfc:	13f50513          	addi	a0,a0,319
D:\Hummingbird\HBird-workspace\pico_test_1\Debug/../src/hdmidraw.c:56
	ram_data_address = color+(0b1<<31);
    1c00:	800007b7          	lui	a5,0x80000
D:\Hummingbird\HBird-workspace\pico_test_1\Debug/../src/hdmidraw.c:55
	ram_address = temp_ramaddress;
    1c04:	d328                	sw	a0,96(a4)
D:\Hummingbird\HBird-workspace\pico_test_1\Debug/../src/hdmidraw.c:56
	ram_data_address = color+(0b1<<31);
    1c06:	963e                	add	a2,a2,a5
    1c08:	db30                	sw	a2,112(a4)
D:\Hummingbird\HBird-workspace\pico_test_1\Debug/../src/hdmidraw.c:57
}
    1c0a:	8082                	ret

00001c0c <hdmi_draw_char>:
hdmi_draw_char():
D:\Hummingbird\HBird-workspace\pico_test_1\Debug/../src/hdmidraw.c:65
 ** 参数：x:屏幕x坐标,y:屏幕y坐标,c:要显示的字母或符号,color:颜色索引
 ** 注:c仅出现ascii码里的
****************************************************************************/
void hdmi_draw_char(u16 x, u16 y, u8 c, u8 color){
	u8 i;u8 j;
	u8 ch = c - 32;
    1c0c:	fe060793          	addi	a5,a2,-32
    1c10:	6f11                	lui	t5,0x4
    1c12:	f88f0f13          	addi	t5,t5,-120 # 3f88 <F8X16>
D:\Hummingbird\HBird-workspace\pico_test_1\Debug/../src/hdmidraw.c:69
	u8 cursor;
	u16 x0 = x; u16 y0 = y;
	for(i = 0; i < 16; i++){
		cursor = F8X16[16*ch+i];
    1c16:	0ff7f793          	andi	a5,a5,255
    1c1a:	0792                	slli	a5,a5,0x4
    1c1c:	010f0393          	addi	t2,t5,16
hdmi_draw_point():
D:\Hummingbird\HBird-workspace\pico_test_1\Debug/../src/hdmidraw.c:45
	ram_data_address = color+(0b1<<31);
    1c20:	80000fb7          	lui	t6,0x80000
    1c24:	9f3e                	add	t5,t5,a5
    1c26:	93be                	add	t2,t2,a5
hdmi_draw_char():
D:\Hummingbird\HBird-workspace\pico_test_1\Debug/../src/hdmidraw.c:67
	u16 x0 = x; u16 y0 = y;
    1c28:	872a                	mv	a4,a0
hdmi_draw_point():
D:\Hummingbird\HBird-workspace\pico_test_1\Debug/../src/hdmidraw.c:44
	ram_address = temp_ramaddress;
    1c2a:	68c1                	lui	a7,0x10
D:\Hummingbird\HBird-workspace\pico_test_1\Debug/../src/hdmidraw.c:45
	ram_data_address = color+(0b1<<31);
    1c2c:	96fe                	add	a3,a3,t6
hdmi_draw_char():
D:\Hummingbird\HBird-workspace\pico_test_1\Debug/../src/hdmidraw.c:78
			}else{
				hdmi_draw_point(x0,y0,0);
			}
//			printk("x0:%d,y0:%d\n",x0,y0);
			x0++;
			if(x0>319 || x0>7+x){
    1c2e:	13f00e93          	li	t4,319
    1c32:	00750293          	addi	t0,a0,7
D:\Hummingbird\HBird-workspace\pico_test_1\Debug/../src/hdmidraw.c:70
		for(j = 0; j< 8; j++){
    1c36:	5e7d                	li	t3,-1
    1c38:	000f4303          	lbu	t1,0(t5)
D:\Hummingbird\HBird-workspace\pico_test_1\Debug/../src/hdmidraw.c:69
		cursor = F8X16[16*ch+i];
    1c3c:	481d                	li	a6,7
    1c3e:	00259793          	slli	a5,a1,0x2
    1c42:	97ae                	add	a5,a5,a1
    1c44:	079a                	slli	a5,a5,0x6
D:\Hummingbird\HBird-workspace\pico_test_1\Debug/../src/hdmidraw.c:71
			if(((cursor>>(7-j))&0x01)){
    1c46:	41035633          	sra	a2,t1,a6
    1c4a:	97ba                	add	a5,a5,a4
    1c4c:	8a05                	andi	a2,a2,1
hdmi_draw_point():
D:\Hummingbird\HBird-workspace\pico_test_1\Debug/../src/hdmidraw.c:44
	ram_address = temp_ramaddress;
    1c4e:	06f8a023          	sw	a5,96(a7) # 10060 <_etext+0xb6ec>
hdmi_draw_char():
D:\Hummingbird\HBird-workspace\pico_test_1\Debug/../src/hdmidraw.c:71
			if(((cursor>>(7-j))&0x01)){
    1c52:	c61d                	beqz	a2,1c80 <hdmi_draw_char+0x74>
hdmi_draw_point():
D:\Hummingbird\HBird-workspace\pico_test_1\Debug/../src/hdmidraw.c:45
	ram_data_address = color+(0b1<<31);
    1c54:	06d8a823          	sw	a3,112(a7)
hdmi_draw_char():
D:\Hummingbird\HBird-workspace\pico_test_1\Debug/../src/hdmidraw.c:77
			x0++;
    1c58:	0705                	addi	a4,a4,1
    1c5a:	0742                	slli	a4,a4,0x10
    1c5c:	8341                	srli	a4,a4,0x10
    1c5e:	187d                	addi	a6,a6,-1
D:\Hummingbird\HBird-workspace\pico_test_1\Debug/../src/hdmidraw.c:79
				x0 = x;y0++;
    1c60:	00158793          	addi	a5,a1,1
D:\Hummingbird\HBird-workspace\pico_test_1\Debug/../src/hdmidraw.c:78
			if(x0>319 || x0>7+x){
    1c64:	00eee463          	bltu	t4,a4,1c6c <hdmi_draw_char+0x60>
D:\Hummingbird\HBird-workspace\pico_test_1\Debug/../src/hdmidraw.c:78 (discriminator 1)
    1c68:	00e2d663          	ble	a4,t0,1c74 <hdmi_draw_char+0x68>
D:\Hummingbird\HBird-workspace\pico_test_1\Debug/../src/hdmidraw.c:79
				x0 = x;y0++;
    1c6c:	01079593          	slli	a1,a5,0x10
    1c70:	81c1                	srli	a1,a1,0x10
    1c72:	872a                	mv	a4,a0
D:\Hummingbird\HBird-workspace\pico_test_1\Debug/../src/hdmidraw.c:70 (discriminator 2)
		for(j = 0; j< 8; j++){
    1c74:	fdc815e3          	bne	a6,t3,1c3e <hdmi_draw_char+0x32>
    1c78:	0f05                	addi	t5,t5,1
D:\Hummingbird\HBird-workspace\pico_test_1\Debug/../src/hdmidraw.c:68 (discriminator 2)
	for(i = 0; i < 16; i++){
    1c7a:	fbe39fe3          	bne	t2,t5,1c38 <hdmi_draw_char+0x2c>
D:\Hummingbird\HBird-workspace\pico_test_1\Debug/../src/hdmidraw.c:83
			}
		}
	}
}
    1c7e:	8082                	ret
hdmi_draw_point():
D:\Hummingbird\HBird-workspace\pico_test_1\Debug/../src/hdmidraw.c:45
	ram_data_address = color+(0b1<<31);
    1c80:	07f8a823          	sw	t6,112(a7)
    1c84:	bfd1                	j	1c58 <hdmi_draw_char+0x4c>

00001c86 <hdmi_draw_char_back_vertical>:
hdmi_draw_char_back_vertical():
D:\Hummingbird\HBird-workspace\pico_test_1\Debug/../src/hdmidraw.c:91
 ** 参数：x:屏幕x坐标,y:屏幕y坐标,c:要显示的字母或符号,color:颜色索引,back:背景颜色索引
 ** 注:用于垂直显示
****************************************************************************/
void hdmi_draw_char_back_vertical(u16 x, u16 y, u8 c, u8 color,u8 back){
	u8 i;u8 j;
	u8 ch = c - 32;
    1c86:	fe060793          	addi	a5,a2,-32
    1c8a:	6391                	lui	t2,0x4
D:\Hummingbird\HBird-workspace\pico_test_1\Debug/../src/hdmidraw.c:89
void hdmi_draw_char_back_vertical(u16 x, u16 y, u8 c, u8 color,u8 back){
    1c8c:	1141                	addi	sp,sp,-16
    1c8e:	f8838393          	addi	t2,t2,-120 # 3f88 <F8X16>
D:\Hummingbird\HBird-workspace\pico_test_1\Debug/../src/hdmidraw.c:95
	u8 cursor;
	u16 x0 = x; u16 y0 = y;
	for(i = 0; i < 16; i++){
		cursor = F8X16[16*ch+i];
    1c92:	0ff7f793          	andi	a5,a5,255
    1c96:	0792                	slli	a5,a5,0x4
hdmi_draw_point_vertical():
D:\Hummingbird\HBird-workspace\pico_test_1\Debug/../src/hdmidraw.c:56
	ram_data_address = color+(0b1<<31);
    1c98:	80000637          	lui	a2,0x80000
hdmi_draw_char_back_vertical():
D:\Hummingbird\HBird-workspace\pico_test_1\Debug/../src/hdmidraw.c:89
void hdmi_draw_char_back_vertical(u16 x, u16 y, u8 c, u8 color,u8 back){
    1c9c:	c622                	sw	s0,12(sp)
    1c9e:	01038413          	addi	s0,t2,16
    1ca2:	c426                	sw	s1,8(sp)
    1ca4:	93be                	add	t2,t2,a5
    1ca6:	943e                	add	s0,s0,a5
hdmi_draw_point_vertical():
D:\Hummingbird\HBird-workspace\pico_test_1\Debug/../src/hdmidraw.c:56
	ram_data_address = color+(0b1<<31);
    1ca8:	00c704b3          	add	s1,a4,a2
hdmi_draw_char_back_vertical():
D:\Hummingbird\HBird-workspace\pico_test_1\Debug/../src/hdmidraw.c:93
	u16 x0 = x; u16 y0 = y;
    1cac:	87aa                	mv	a5,a0
    1cae:	13f00293          	li	t0,319
hdmi_draw_point_vertical():
D:\Hummingbird\HBird-workspace\pico_test_1\Debug/../src/hdmidraw.c:55
	ram_address = temp_ramaddress;
    1cb2:	6e41                	lui	t3,0x10
D:\Hummingbird\HBird-workspace\pico_test_1\Debug/../src/hdmidraw.c:56
	ram_data_address = color+(0b1<<31);
    1cb4:	96b2                	add	a3,a3,a2
hdmi_draw_char_back_vertical():
D:\Hummingbird\HBird-workspace\pico_test_1\Debug/../src/hdmidraw.c:103
				hdmi_draw_point_vertical(x0,y0,color);
			}else{
				hdmi_draw_point_vertical(x0,y0,back);
			}
			x0++;
			if(x0>269 || x0>7+x){
    1cb6:	10d00f93          	li	t6,269
    1cba:	00750713          	addi	a4,a0,7
D:\Hummingbird\HBird-workspace\pico_test_1\Debug/../src/hdmidraw.c:96
		for(j = 0; j< 8; j++){
    1cbe:	5f7d                	li	t5,-1
    1cc0:	0003ce83          	lbu	t4,0(t2)
D:\Hummingbird\HBird-workspace\pico_test_1\Debug/../src/hdmidraw.c:95
		cursor = F8X16[16*ch+i];
    1cc4:	431d                	li	t1,7
    1cc6:	00279813          	slli	a6,a5,0x2
    1cca:	983e                	add	a6,a6,a5
    1ccc:	40b28633          	sub	a2,t0,a1
    1cd0:	081a                	slli	a6,a6,0x6
D:\Hummingbird\HBird-workspace\pico_test_1\Debug/../src/hdmidraw.c:97
			if(((cursor>>(7-j))&0x01)){
    1cd2:	406ed8b3          	sra	a7,t4,t1
    1cd6:	9642                	add	a2,a2,a6
    1cd8:	0018f893          	andi	a7,a7,1
hdmi_draw_point_vertical():
D:\Hummingbird\HBird-workspace\pico_test_1\Debug/../src/hdmidraw.c:55
	ram_address = temp_ramaddress;
    1cdc:	06ce2023          	sw	a2,96(t3) # 10060 <_etext+0xb6ec>
hdmi_draw_char_back_vertical():
D:\Hummingbird\HBird-workspace\pico_test_1\Debug/../src/hdmidraw.c:97
			if(((cursor>>(7-j))&0x01)){
    1ce0:	02088b63          	beqz	a7,1d16 <hdmi_draw_char_back_vertical+0x90>
hdmi_draw_point_vertical():
D:\Hummingbird\HBird-workspace\pico_test_1\Debug/../src/hdmidraw.c:56
	ram_data_address = color+(0b1<<31);
    1ce4:	06de2823          	sw	a3,112(t3)
hdmi_draw_char_back_vertical():
D:\Hummingbird\HBird-workspace\pico_test_1\Debug/../src/hdmidraw.c:102
			x0++;
    1ce8:	0785                	addi	a5,a5,1
    1cea:	07c2                	slli	a5,a5,0x10
    1cec:	83c1                	srli	a5,a5,0x10
    1cee:	137d                	addi	t1,t1,-1
D:\Hummingbird\HBird-workspace\pico_test_1\Debug/../src/hdmidraw.c:104
				x0 = x;y0++;
    1cf0:	00158613          	addi	a2,a1,1
D:\Hummingbird\HBird-workspace\pico_test_1\Debug/../src/hdmidraw.c:103
			if(x0>269 || x0>7+x){
    1cf4:	00ffe463          	bltu	t6,a5,1cfc <hdmi_draw_char_back_vertical+0x76>
D:\Hummingbird\HBird-workspace\pico_test_1\Debug/../src/hdmidraw.c:103 (discriminator 1)
    1cf8:	00f75663          	ble	a5,a4,1d04 <hdmi_draw_char_back_vertical+0x7e>
D:\Hummingbird\HBird-workspace\pico_test_1\Debug/../src/hdmidraw.c:104
				x0 = x;y0++;
    1cfc:	01061593          	slli	a1,a2,0x10
    1d00:	81c1                	srli	a1,a1,0x10
    1d02:	87aa                	mv	a5,a0
D:\Hummingbird\HBird-workspace\pico_test_1\Debug/../src/hdmidraw.c:96 (discriminator 2)
		for(j = 0; j< 8; j++){
    1d04:	fde311e3          	bne	t1,t5,1cc6 <hdmi_draw_char_back_vertical+0x40>
    1d08:	0385                	addi	t2,t2,1
D:\Hummingbird\HBird-workspace\pico_test_1\Debug/../src/hdmidraw.c:94 (discriminator 2)
	for(i = 0; i < 16; i++){
    1d0a:	fa741be3          	bne	s0,t2,1cc0 <hdmi_draw_char_back_vertical+0x3a>
D:\Hummingbird\HBird-workspace\pico_test_1\Debug/../src/hdmidraw.c:108
			}
		}
	}
}
    1d0e:	4432                	lw	s0,12(sp)
    1d10:	44a2                	lw	s1,8(sp)
    1d12:	0141                	addi	sp,sp,16
    1d14:	8082                	ret
hdmi_draw_point_vertical():
D:\Hummingbird\HBird-workspace\pico_test_1\Debug/../src/hdmidraw.c:56
	ram_data_address = color+(0b1<<31);
    1d16:	069e2823          	sw	s1,112(t3)
    1d1a:	b7f9                	j	1ce8 <hdmi_draw_char_back_vertical+0x62>

00001d1c <hdmi_draw_string>:
hdmi_draw_string():
D:\Hummingbird\HBird-workspace\pico_test_1\Debug/../src/hdmidraw.c:114
/***************************************************************************
 ** 作用：显示字符串
 ** 参数：x:屏幕x坐标,y:屏幕y坐标,*str:要显示的字母或符号,color:颜色索引,back:背景颜色索引
 ** 注:str仅出现ascii码里的
****************************************************************************/
void hdmi_draw_string(u16 x, u16 y, u8 *str, u8 color){
    1d1c:	1101                	addi	sp,sp,-32
    1d1e:	cc22                	sw	s0,24(sp)
    1d20:	ca26                	sw	s1,20(sp)
    1d22:	c84a                	sw	s2,16(sp)
    1d24:	c64e                	sw	s3,12(sp)
    1d26:	c452                	sw	s4,8(sp)
    1d28:	c256                	sw	s5,4(sp)
    1d2a:	c05a                	sw	s6,0(sp)
    1d2c:	ce06                	sw	ra,28(sp)
    1d2e:	8b2a                	mv	s6,a0
    1d30:	892e                	mv	s2,a1
    1d32:	84b2                	mv	s1,a2
    1d34:	8a36                	mv	s4,a3
D:\Hummingbird\HBird-workspace\pico_test_1\Debug/../src/hdmidraw.c:116
	u8 i;u8 j;
	u16 x0 = x;u16 y0 = y;
    1d36:	842a                	mv	s0,a0
D:\Hummingbird\HBird-workspace\pico_test_1\Debug/../src/hdmidraw.c:117
	while((*str<='~')&&(*str>=' ')){
    1d38:	05e00993          	li	s3,94
D:\Hummingbird\HBird-workspace\pico_test_1\Debug/../src/hdmidraw.c:121
		hdmi_draw_char(x0,y0,*str,color);
		str = str + 1;
		x0 = x0 + 8;
		if(x0>319){
    1d3c:	13f00a93          	li	s5,319
D:\Hummingbird\HBird-workspace\pico_test_1\Debug/../src/hdmidraw.c:117
	while((*str<='~')&&(*str>=' ')){
    1d40:	0004c783          	lbu	a5,0(s1)
D:\Hummingbird\HBird-workspace\pico_test_1\Debug/../src/hdmidraw.c:118
		hdmi_draw_char(x0,y0,*str,color);
    1d44:	85ca                	mv	a1,s2
    1d46:	8522                	mv	a0,s0
    1d48:	863e                	mv	a2,a5
D:\Hummingbird\HBird-workspace\pico_test_1\Debug/../src/hdmidraw.c:117
	while((*str<='~')&&(*str>=' ')){
    1d4a:	1781                	addi	a5,a5,-32
    1d4c:	0ff7f793          	andi	a5,a5,255
D:\Hummingbird\HBird-workspace\pico_test_1\Debug/../src/hdmidraw.c:118
		hdmi_draw_char(x0,y0,*str,color);
    1d50:	86d2                	mv	a3,s4
D:\Hummingbird\HBird-workspace\pico_test_1\Debug/../src/hdmidraw.c:117
	while((*str<='~')&&(*str>=' ')){
    1d52:	02f9eb63          	bltu	s3,a5,1d88 <hdmi_draw_string+0x6c>
D:\Hummingbird\HBird-workspace\pico_test_1\Debug/../src/hdmidraw.c:120
		x0 = x0 + 8;
    1d56:	0421                	addi	s0,s0,8
    1d58:	0442                	slli	s0,s0,0x10
D:\Hummingbird\HBird-workspace\pico_test_1\Debug/../src/hdmidraw.c:118
		hdmi_draw_char(x0,y0,*str,color);
    1d5a:	3d4d                	jal	1c0c <hdmi_draw_char>
D:\Hummingbird\HBird-workspace\pico_test_1\Debug/../src/hdmidraw.c:120
		x0 = x0 + 8;
    1d5c:	8041                	srli	s0,s0,0x10
D:\Hummingbird\HBird-workspace\pico_test_1\Debug/../src/hdmidraw.c:123
			x0 = x;
			y0 = y0+16;
    1d5e:	01090793          	addi	a5,s2,16
D:\Hummingbird\HBird-workspace\pico_test_1\Debug/../src/hdmidraw.c:119
		str = str + 1;
    1d62:	0485                	addi	s1,s1,1
D:\Hummingbird\HBird-workspace\pico_test_1\Debug/../src/hdmidraw.c:121
		if(x0>319){
    1d64:	fc8afee3          	bleu	s0,s5,1d40 <hdmi_draw_string+0x24>
D:\Hummingbird\HBird-workspace\pico_test_1\Debug/../src/hdmidraw.c:123
			y0 = y0+16;
    1d68:	01079913          	slli	s2,a5,0x10
D:\Hummingbird\HBird-workspace\pico_test_1\Debug/../src/hdmidraw.c:117
	while((*str<='~')&&(*str>=' ')){
    1d6c:	0004c783          	lbu	a5,0(s1)
D:\Hummingbird\HBird-workspace\pico_test_1\Debug/../src/hdmidraw.c:123
			y0 = y0+16;
    1d70:	01095913          	srli	s2,s2,0x10
D:\Hummingbird\HBird-workspace\pico_test_1\Debug/../src/hdmidraw.c:122
			x0 = x;
    1d74:	845a                	mv	s0,s6
D:\Hummingbird\HBird-workspace\pico_test_1\Debug/../src/hdmidraw.c:118
		hdmi_draw_char(x0,y0,*str,color);
    1d76:	863e                	mv	a2,a5
D:\Hummingbird\HBird-workspace\pico_test_1\Debug/../src/hdmidraw.c:117
	while((*str<='~')&&(*str>=' ')){
    1d78:	1781                	addi	a5,a5,-32
    1d7a:	0ff7f793          	andi	a5,a5,255
D:\Hummingbird\HBird-workspace\pico_test_1\Debug/../src/hdmidraw.c:118
		hdmi_draw_char(x0,y0,*str,color);
    1d7e:	85ca                	mv	a1,s2
    1d80:	8522                	mv	a0,s0
    1d82:	86d2                	mv	a3,s4
D:\Hummingbird\HBird-workspace\pico_test_1\Debug/../src/hdmidraw.c:117
	while((*str<='~')&&(*str>=' ')){
    1d84:	fcf9f9e3          	bleu	a5,s3,1d56 <hdmi_draw_string+0x3a>
D:\Hummingbird\HBird-workspace\pico_test_1\Debug/../src/hdmidraw.c:126
		}
	}
}
    1d88:	40f2                	lw	ra,28(sp)
    1d8a:	4462                	lw	s0,24(sp)
    1d8c:	44d2                	lw	s1,20(sp)
    1d8e:	4942                	lw	s2,16(sp)
    1d90:	49b2                	lw	s3,12(sp)
    1d92:	4a22                	lw	s4,8(sp)
    1d94:	4a92                	lw	s5,4(sp)
    1d96:	4b02                	lw	s6,0(sp)
    1d98:	6105                	addi	sp,sp,32
    1d9a:	8082                	ret

00001d9c <hdmi_draw_string_back_verticlal>:
hdmi_draw_string_back_verticlal():
D:\Hummingbird\HBird-workspace\pico_test_1\Debug/../src/hdmidraw.c:132
/***************************************************************************
 ** 作用：显示字符串
 ** 参数：x:屏幕x坐标,y:屏幕y坐标,*str:要显示的字母或符号,color:颜色索引
 ** 注:用于垂直坐标
****************************************************************************/
void hdmi_draw_string_back_verticlal(u16 x, u16 y, u8 *str, u8 color,u8 back){
    1d9c:	7179                	addi	sp,sp,-48
    1d9e:	d422                	sw	s0,40(sp)
    1da0:	d226                	sw	s1,36(sp)
    1da2:	d04a                	sw	s2,32(sp)
    1da4:	ce4e                	sw	s3,28(sp)
    1da6:	cc52                	sw	s4,24(sp)
    1da8:	ca56                	sw	s5,20(sp)
    1daa:	c85a                	sw	s6,16(sp)
    1dac:	c65e                	sw	s7,12(sp)
    1dae:	d606                	sw	ra,44(sp)
    1db0:	8baa                	mv	s7,a0
    1db2:	892e                	mv	s2,a1
    1db4:	84b2                	mv	s1,a2
    1db6:	8ab6                	mv	s5,a3
    1db8:	8a3a                	mv	s4,a4
D:\Hummingbird\HBird-workspace\pico_test_1\Debug/../src/hdmidraw.c:134
	u8 i;u8 j;
	u16 x0 = x;u16 y0 = y;
    1dba:	842a                	mv	s0,a0
D:\Hummingbird\HBird-workspace\pico_test_1\Debug/../src/hdmidraw.c:135
	while((*str<='~')&&(*str>=' ')){
    1dbc:	05e00993          	li	s3,94
D:\Hummingbird\HBird-workspace\pico_test_1\Debug/../src/hdmidraw.c:139
		hdmi_draw_char_back_vertical(x0,y0,*str,color,back);
		str = str + 1;
		x0 = x0 + 8;
		if(x0>269){
    1dc0:	10d00b13          	li	s6,269
D:\Hummingbird\HBird-workspace\pico_test_1\Debug/../src/hdmidraw.c:135
	while((*str<='~')&&(*str>=' ')){
    1dc4:	0004c783          	lbu	a5,0(s1)
D:\Hummingbird\HBird-workspace\pico_test_1\Debug/../src/hdmidraw.c:136
		hdmi_draw_char_back_vertical(x0,y0,*str,color,back);
    1dc8:	85ca                	mv	a1,s2
    1dca:	8522                	mv	a0,s0
    1dcc:	863e                	mv	a2,a5
D:\Hummingbird\HBird-workspace\pico_test_1\Debug/../src/hdmidraw.c:135
	while((*str<='~')&&(*str>=' ')){
    1dce:	1781                	addi	a5,a5,-32
    1dd0:	0ff7f793          	andi	a5,a5,255
D:\Hummingbird\HBird-workspace\pico_test_1\Debug/../src/hdmidraw.c:136
		hdmi_draw_char_back_vertical(x0,y0,*str,color,back);
    1dd4:	8752                	mv	a4,s4
    1dd6:	86d6                	mv	a3,s5
D:\Hummingbird\HBird-workspace\pico_test_1\Debug/../src/hdmidraw.c:135
	while((*str<='~')&&(*str>=' ')){
    1dd8:	02f9e163          	bltu	s3,a5,1dfa <hdmi_draw_string_back_verticlal+0x5e>
D:\Hummingbird\HBird-workspace\pico_test_1\Debug/../src/hdmidraw.c:138
		x0 = x0 + 8;
    1ddc:	0421                	addi	s0,s0,8
    1dde:	0442                	slli	s0,s0,0x10
D:\Hummingbird\HBird-workspace\pico_test_1\Debug/../src/hdmidraw.c:136
		hdmi_draw_char_back_vertical(x0,y0,*str,color,back);
    1de0:	355d                	jal	1c86 <hdmi_draw_char_back_vertical>
D:\Hummingbird\HBird-workspace\pico_test_1\Debug/../src/hdmidraw.c:138
		x0 = x0 + 8;
    1de2:	8041                	srli	s0,s0,0x10
D:\Hummingbird\HBird-workspace\pico_test_1\Debug/../src/hdmidraw.c:141
			x0 = x;
			y0 = y0+16;
    1de4:	01090793          	addi	a5,s2,16
D:\Hummingbird\HBird-workspace\pico_test_1\Debug/../src/hdmidraw.c:137
		str = str + 1;
    1de8:	0485                	addi	s1,s1,1
D:\Hummingbird\HBird-workspace\pico_test_1\Debug/../src/hdmidraw.c:139
		if(x0>269){
    1dea:	fc8b7de3          	bleu	s0,s6,1dc4 <hdmi_draw_string_back_verticlal+0x28>
D:\Hummingbird\HBird-workspace\pico_test_1\Debug/../src/hdmidraw.c:141
			y0 = y0+16;
    1dee:	01079913          	slli	s2,a5,0x10
    1df2:	01095913          	srli	s2,s2,0x10
D:\Hummingbird\HBird-workspace\pico_test_1\Debug/../src/hdmidraw.c:140
			x0 = x;
    1df6:	845e                	mv	s0,s7
    1df8:	b7f1                	j	1dc4 <hdmi_draw_string_back_verticlal+0x28>
D:\Hummingbird\HBird-workspace\pico_test_1\Debug/../src/hdmidraw.c:144
		}
	}
}
    1dfa:	50b2                	lw	ra,44(sp)
    1dfc:	5422                	lw	s0,40(sp)
    1dfe:	5492                	lw	s1,36(sp)
    1e00:	5902                	lw	s2,32(sp)
    1e02:	49f2                	lw	s3,28(sp)
    1e04:	4a62                	lw	s4,24(sp)
    1e06:	4ad2                	lw	s5,20(sp)
    1e08:	4b42                	lw	s6,16(sp)
    1e0a:	4bb2                	lw	s7,12(sp)
    1e0c:	6145                	addi	sp,sp,48
    1e0e:	8082                	ret

00001e10 <hdmi_draw_clear>:
hdmi_draw_clear():
D:\Hummingbird\HBird-workspace\pico_test_1\Debug/../src/hdmidraw.c:150
/***************************************************************************
 ** 作用：用单一颜色清屏
 ** color:颜色索引
 ** 注:
****************************************************************************/
void hdmi_draw_clear(u8 color){
    1e10:	800007b7          	lui	a5,0x80000
D:\Hummingbird\HBird-workspace\pico_test_1\Debug/../src/hdmidraw.c:152
	u32 x=0;
	for(x=0;x<86400;x++){
    1e14:	66d5                	lui	a3,0x15
    1e16:	953e                	add	a0,a0,a5
D:\Hummingbird\HBird-workspace\pico_test_1\Debug/../src/hdmidraw.c:153
		ram_address = x;
    1e18:	6741                	lui	a4,0x10
D:\Hummingbird\HBird-workspace\pico_test_1\Debug/../src/hdmidraw.c:152
	for(x=0;x<86400;x++){
    1e1a:	4781                	li	a5,0
    1e1c:	18068693          	addi	a3,a3,384 # 15180 <_etext+0x1080c>
D:\Hummingbird\HBird-workspace\pico_test_1\Debug/../src/hdmidraw.c:153 (discriminator 3)
		ram_address = x;
    1e20:	d33c                	sw	a5,96(a4)
D:\Hummingbird\HBird-workspace\pico_test_1\Debug/../src/hdmidraw.c:154 (discriminator 3)
		ram_data_address = color + (0b1<<31);
    1e22:	db28                	sw	a0,112(a4)
D:\Hummingbird\HBird-workspace\pico_test_1\Debug/../src/hdmidraw.c:152 (discriminator 3)
	for(x=0;x<86400;x++){
    1e24:	0785                	addi	a5,a5,1
    1e26:	fed79de3          	bne	a5,a3,1e20 <hdmi_draw_clear+0x10>
D:\Hummingbird\HBird-workspace\pico_test_1\Debug/../src/hdmidraw.c:156
	}
}
    1e2a:	8082                	ret

00001e2c <hdmi_draw_num>:
hdmi_draw_num():
D:\Hummingbird\HBird-workspace\pico_test_1\Debug/../src/hdmidraw.c:162
/***************************************************************************
 ** 作用：显示数字
 ** 参数：x:x坐标,y:y坐标,num要显示的数,len:数的位数,color:颜色索引
 ** 注:
****************************************************************************/
void hdmi_draw_num(u16 x, u16 y, u16 num,u8 len ,u8 color){
    1e2c:	1101                	addi	sp,sp,-32
D:\Hummingbird\HBird-workspace\pico_test_1\Debug/../src/hdmidraw.c:163
	u16 x0 = x+8*(len-1);u16 y0 = y;
    1e2e:	fff68793          	addi	a5,a3,-1
D:\Hummingbird\HBird-workspace\pico_test_1\Debug/../src/hdmidraw.c:162
void hdmi_draw_num(u16 x, u16 y, u16 num,u8 len ,u8 color){
    1e32:	cc22                	sw	s0,24(sp)
    1e34:	ca26                	sw	s1,20(sp)
D:\Hummingbird\HBird-workspace\pico_test_1\Debug/../src/hdmidraw.c:163
	u16 x0 = x+8*(len-1);u16 y0 = y;
    1e36:	00379413          	slli	s0,a5,0x3
D:\Hummingbird\HBird-workspace\pico_test_1\Debug/../src/hdmidraw.c:162
void hdmi_draw_num(u16 x, u16 y, u16 num,u8 len ,u8 color){
    1e3a:	84b2                	mv	s1,a2
    1e3c:	ce06                	sw	ra,28(sp)
D:\Hummingbird\HBird-workspace\pico_test_1\Debug/../src/hdmidraw.c:164
	u8 cnt = len;u8 numget = num%10;u16 num2 = num;
    1e3e:	4629                	li	a2,10
D:\Hummingbird\HBird-workspace\pico_test_1\Debug/../src/hdmidraw.c:162
void hdmi_draw_num(u16 x, u16 y, u16 num,u8 len ,u8 color){
    1e40:	c84a                	sw	s2,16(sp)
    1e42:	c64e                	sw	s3,12(sp)
    1e44:	c452                	sw	s4,8(sp)
    1e46:	c256                	sw	s5,4(sp)
D:\Hummingbird\HBird-workspace\pico_test_1\Debug/../src/hdmidraw.c:163
	u16 x0 = x+8*(len-1);u16 y0 = y;
    1e48:	942a                	add	s0,s0,a0
D:\Hummingbird\HBird-workspace\pico_test_1\Debug/../src/hdmidraw.c:164
	u8 cnt = len;u8 numget = num%10;u16 num2 = num;
    1e4a:	02c4f633          	remu	a2,s1,a2
D:\Hummingbird\HBird-workspace\pico_test_1\Debug/../src/hdmidraw.c:165
	while(cnt--){
    1e4e:	ce95                	beqz	a3,1e8a <hdmi_draw_num+0x5e>
    1e50:	0442                	slli	s0,s0,0x10
    1e52:	0ff7f793          	andi	a5,a5,255
    1e56:	8041                	srli	s0,s0,0x10
    1e58:	078e                	slli	a5,a5,0x3
    1e5a:	40f40933          	sub	s2,s0,a5
    1e5e:	1961                	addi	s2,s2,-8
    1e60:	0942                	slli	s2,s2,0x10
    1e62:	89ae                	mv	s3,a1
    1e64:	8a3a                	mv	s4,a4
    1e66:	01095913          	srli	s2,s2,0x10
D:\Hummingbird\HBird-workspace\pico_test_1\Debug/../src/hdmidraw.c:172
		x0 = x0-8;
		if(x0 < 0){
			x0 = 319;
			y0++;
		}
		num2 = num2/10;
    1e6a:	4aa9                	li	s5,10
D:\Hummingbird\HBird-workspace\pico_test_1\Debug/../src/hdmidraw.c:166
		hdmi_draw_char(x0,y0, numget+48,color);
    1e6c:	03060613          	addi	a2,a2,48 # 80000030 <_etext+0x7fffb6bc>
    1e70:	8522                	mv	a0,s0
    1e72:	86d2                	mv	a3,s4
    1e74:	85ce                	mv	a1,s3
    1e76:	3b59                	jal	1c0c <hdmi_draw_char>
D:\Hummingbird\HBird-workspace\pico_test_1\Debug/../src/hdmidraw.c:167
		x0 = x0-8;
    1e78:	1461                	addi	s0,s0,-8
    1e7a:	0442                	slli	s0,s0,0x10
    1e7c:	8041                	srli	s0,s0,0x10
D:\Hummingbird\HBird-workspace\pico_test_1\Debug/../src/hdmidraw.c:172
		num2 = num2/10;
    1e7e:	0354d4b3          	divu	s1,s1,s5
D:\Hummingbird\HBird-workspace\pico_test_1\Debug/../src/hdmidraw.c:173
		numget = num2%10;
    1e82:	0354f633          	remu	a2,s1,s5
D:\Hummingbird\HBird-workspace\pico_test_1\Debug/../src/hdmidraw.c:165
	while(cnt--){
    1e86:	fe8913e3          	bne	s2,s0,1e6c <hdmi_draw_num+0x40>
D:\Hummingbird\HBird-workspace\pico_test_1\Debug/../src/hdmidraw.c:175
	}
}
    1e8a:	40f2                	lw	ra,28(sp)
    1e8c:	4462                	lw	s0,24(sp)
    1e8e:	44d2                	lw	s1,20(sp)
    1e90:	4942                	lw	s2,16(sp)
    1e92:	49b2                	lw	s3,12(sp)
    1e94:	4a22                	lw	s4,8(sp)
    1e96:	4a92                	lw	s5,4(sp)
    1e98:	6105                	addi	sp,sp,32
    1e9a:	8082                	ret

00001e9c <hdmi_draw_num_back_vertical>:
hdmi_draw_num_back_vertical():
D:\Hummingbird\HBird-workspace\pico_test_1\Debug/../src/hdmidraw.c:181
/***************************************************************************
 ** 作用：显示数字
 ** 参数：x:x坐标,y:y坐标,num要显示的数,len:数的位数,color:颜色索引
 ** 注:用于垂直垂直坐标
****************************************************************************/
void hdmi_draw_num_back_vertical(u16 x, u16 y, u16 num,u8 len ,u8 color,u8 back){
    1e9c:	1101                	addi	sp,sp,-32
D:\Hummingbird\HBird-workspace\pico_test_1\Debug/../src/hdmidraw.c:182
	u16 x0 = x+8*(len-1);u16 y0 = y;
    1e9e:	fff68813          	addi	a6,a3,-1
D:\Hummingbird\HBird-workspace\pico_test_1\Debug/../src/hdmidraw.c:181
void hdmi_draw_num_back_vertical(u16 x, u16 y, u16 num,u8 len ,u8 color,u8 back){
    1ea2:	cc22                	sw	s0,24(sp)
    1ea4:	ca26                	sw	s1,20(sp)
D:\Hummingbird\HBird-workspace\pico_test_1\Debug/../src/hdmidraw.c:182
	u16 x0 = x+8*(len-1);u16 y0 = y;
    1ea6:	00381413          	slli	s0,a6,0x3
D:\Hummingbird\HBird-workspace\pico_test_1\Debug/../src/hdmidraw.c:181
void hdmi_draw_num_back_vertical(u16 x, u16 y, u16 num,u8 len ,u8 color,u8 back){
    1eaa:	84b2                	mv	s1,a2
    1eac:	ce06                	sw	ra,28(sp)
D:\Hummingbird\HBird-workspace\pico_test_1\Debug/../src/hdmidraw.c:183
	u8 cnt = len;u8 numget = num%10;u16 num2 = num;
    1eae:	4629                	li	a2,10
D:\Hummingbird\HBird-workspace\pico_test_1\Debug/../src/hdmidraw.c:181
void hdmi_draw_num_back_vertical(u16 x, u16 y, u16 num,u8 len ,u8 color,u8 back){
    1eb0:	c84a                	sw	s2,16(sp)
    1eb2:	c64e                	sw	s3,12(sp)
    1eb4:	c452                	sw	s4,8(sp)
    1eb6:	c256                	sw	s5,4(sp)
    1eb8:	c05a                	sw	s6,0(sp)
D:\Hummingbird\HBird-workspace\pico_test_1\Debug/../src/hdmidraw.c:182
	u16 x0 = x+8*(len-1);u16 y0 = y;
    1eba:	942a                	add	s0,s0,a0
D:\Hummingbird\HBird-workspace\pico_test_1\Debug/../src/hdmidraw.c:183
	u8 cnt = len;u8 numget = num%10;u16 num2 = num;
    1ebc:	02c4f633          	remu	a2,s1,a2
D:\Hummingbird\HBird-workspace\pico_test_1\Debug/../src/hdmidraw.c:184
	while(cnt--){
    1ec0:	c2a1                	beqz	a3,1f00 <hdmi_draw_num_back_vertical+0x64>
    1ec2:	0442                	slli	s0,s0,0x10
    1ec4:	0ff87813          	andi	a6,a6,255
    1ec8:	8041                	srli	s0,s0,0x10
    1eca:	080e                	slli	a6,a6,0x3
    1ecc:	41040933          	sub	s2,s0,a6
    1ed0:	1961                	addi	s2,s2,-8
    1ed2:	0942                	slli	s2,s2,0x10
    1ed4:	89ae                	mv	s3,a1
    1ed6:	8a3a                	mv	s4,a4
    1ed8:	8abe                	mv	s5,a5
    1eda:	01095913          	srli	s2,s2,0x10
D:\Hummingbird\HBird-workspace\pico_test_1\Debug/../src/hdmidraw.c:191
		x0 = x0-8;
		if(x0 < 0){
			x0 = 269;
			y0++;
		}
		num2 = num2/10;
    1ede:	4b29                	li	s6,10
D:\Hummingbird\HBird-workspace\pico_test_1\Debug/../src/hdmidraw.c:185
		hdmi_draw_char_back_vertical(x0,y0, numget+48,color,back);
    1ee0:	03060613          	addi	a2,a2,48
    1ee4:	8522                	mv	a0,s0
    1ee6:	8756                	mv	a4,s5
    1ee8:	86d2                	mv	a3,s4
    1eea:	85ce                	mv	a1,s3
    1eec:	3b69                	jal	1c86 <hdmi_draw_char_back_vertical>
D:\Hummingbird\HBird-workspace\pico_test_1\Debug/../src/hdmidraw.c:186
		x0 = x0-8;
    1eee:	1461                	addi	s0,s0,-8
    1ef0:	0442                	slli	s0,s0,0x10
    1ef2:	8041                	srli	s0,s0,0x10
D:\Hummingbird\HBird-workspace\pico_test_1\Debug/../src/hdmidraw.c:191
		num2 = num2/10;
    1ef4:	0364d4b3          	divu	s1,s1,s6
D:\Hummingbird\HBird-workspace\pico_test_1\Debug/../src/hdmidraw.c:192
		numget = num2%10;
    1ef8:	0364f633          	remu	a2,s1,s6
D:\Hummingbird\HBird-workspace\pico_test_1\Debug/../src/hdmidraw.c:184
	while(cnt--){
    1efc:	fe8912e3          	bne	s2,s0,1ee0 <hdmi_draw_num_back_vertical+0x44>
D:\Hummingbird\HBird-workspace\pico_test_1\Debug/../src/hdmidraw.c:194
	}
}
    1f00:	40f2                	lw	ra,28(sp)
    1f02:	4462                	lw	s0,24(sp)
    1f04:	44d2                	lw	s1,20(sp)
    1f06:	4942                	lw	s2,16(sp)
    1f08:	49b2                	lw	s3,12(sp)
    1f0a:	4a22                	lw	s4,8(sp)
    1f0c:	4a92                	lw	s5,4(sp)
    1f0e:	4b02                	lw	s6,0(sp)
    1f10:	6105                	addi	sp,sp,32
    1f12:	8082                	ret

00001f14 <hdmi_draw_fill>:
hdmi_draw_fill():
D:\Hummingbird\HBird-workspace\pico_test_1\Debug/../src/hdmidraw.c:202
 ** 参数：sx:屏幕左上角x坐标,sy:屏幕左上角y坐标,ex:屏幕右下角x坐标,ey:屏幕右下角y坐标,
 ** 	color:颜色索引
 ** 注:
****************************************************************************/
void hdmi_draw_fill(u16 sx,u16 sy,u16 ex,u16 ey,u16 color)
{
    1f14:	0605                	addi	a2,a2,1
    1f16:	01061313          	slli	t1,a2,0x10
    1f1a:	01035313          	srli	t1,t1,0x10
D:\Hummingbird\HBird-workspace\pico_test_1\Debug/../src/hdmidraw.c:206
	u16 i,j;
	u16 x0 = sx;u16 y0 = sy;
	u16 xlen=0;
	xlen=ex-sx+1;
    1f1e:	40a30e33          	sub	t3,t1,a0
    1f22:	0e42                	slli	t3,t3,0x10
    1f24:	010e5e13          	srli	t3,t3,0x10
D:\Hummingbird\HBird-workspace\pico_test_1\Debug/../src/hdmidraw.c:207
	for(i=sy;i<=ey;i++)
    1f28:	02b6ee63          	bltu	a3,a1,1f64 <hdmi_draw_fill+0x50>
    1f2c:	0ff77713          	andi	a4,a4,255
    1f30:	800008b7          	lui	a7,0x80000
    1f34:	98ba                	add	a7,a7,a4
hdmi_draw_point():
D:\Hummingbird\HBird-workspace\pico_test_1\Debug/../src/hdmidraw.c:44
	ram_address = temp_ramaddress;
    1f36:	6741                	lui	a4,0x10
hdmi_draw_fill():
D:\Hummingbird\HBird-workspace\pico_test_1\Debug/../src/hdmidraw.c:209
	{
		for(j=0;j<xlen;j++){
    1f38:	020e0163          	beqz	t3,1f5a <hdmi_draw_fill+0x46>
hdmi_draw_point():
D:\Hummingbird\HBird-workspace\pico_test_1\Debug/../src/hdmidraw.c:43
	temp_ramaddress = 320*y+x;
    1f3c:	00259813          	slli	a6,a1,0x2
    1f40:	982e                	add	a6,a6,a1
    1f42:	081a                	slli	a6,a6,0x6
    1f44:	87aa                	mv	a5,a0
D:\Hummingbird\HBird-workspace\pico_test_1\Debug/../src/hdmidraw.c:43 (discriminator 3)
    1f46:	01078633          	add	a2,a5,a6
hdmi_draw_fill():
D:\Hummingbird\HBird-workspace\pico_test_1\Debug/../src/hdmidraw.c:211 (discriminator 3)
			hdmi_draw_point(x0,y0,color);
			x0++;
    1f4a:	0785                	addi	a5,a5,1
hdmi_draw_point():
D:\Hummingbird\HBird-workspace\pico_test_1\Debug/../src/hdmidraw.c:44 (discriminator 3)
	ram_address = temp_ramaddress;
    1f4c:	d330                	sw	a2,96(a4)
hdmi_draw_fill():
D:\Hummingbird\HBird-workspace\pico_test_1\Debug/../src/hdmidraw.c:211 (discriminator 3)
			x0++;
    1f4e:	07c2                	slli	a5,a5,0x10
hdmi_draw_point():
D:\Hummingbird\HBird-workspace\pico_test_1\Debug/../src/hdmidraw.c:45 (discriminator 3)
	ram_data_address = color+(0b1<<31);
    1f50:	07172823          	sw	a7,112(a4) # 10070 <_etext+0xb6fc>
hdmi_draw_fill():
D:\Hummingbird\HBird-workspace\pico_test_1\Debug/../src/hdmidraw.c:211 (discriminator 3)
			x0++;
    1f54:	83c1                	srli	a5,a5,0x10
D:\Hummingbird\HBird-workspace\pico_test_1\Debug/../src/hdmidraw.c:209 (discriminator 3)
		for(j=0;j<xlen;j++){
    1f56:	fe6798e3          	bne	a5,t1,1f46 <hdmi_draw_fill+0x32>
D:\Hummingbird\HBird-workspace\pico_test_1\Debug/../src/hdmidraw.c:214
		}
		x0 = sx;
		y0++;
    1f5a:	0585                	addi	a1,a1,1
    1f5c:	05c2                	slli	a1,a1,0x10
    1f5e:	81c1                	srli	a1,a1,0x10
D:\Hummingbird\HBird-workspace\pico_test_1\Debug/../src/hdmidraw.c:207
	for(i=sy;i<=ey;i++)
    1f60:	fcb6fce3          	bleu	a1,a3,1f38 <hdmi_draw_fill+0x24>
D:\Hummingbird\HBird-workspace\pico_test_1\Debug/../src/hdmidraw.c:216
	}
}
    1f64:	8082                	ret

00001f66 <hdmi_draw_square_vertical>:
hdmi_draw_square_vertical():
D:\Hummingbird\HBird-workspace\pico_test_1\Debug/../src/hdmidraw.c:226
 ** 注:垂直坐标
****************************************************************************/
void hdmi_draw_square_vertical(u16 x,u16 y,u16 len,u8 color){
	u16 x0=x;u16 y0=y;
	u16 i,j;
	for(i=0;i<len;i++)
    1f66:	c629                	beqz	a2,1fb0 <hdmi_draw_square_vertical+0x4a>
    1f68:	00c58333          	add	t1,a1,a2
    1f6c:	962a                	add	a2,a2,a0
    1f6e:	01061813          	slli	a6,a2,0x10
    1f72:	800007b7          	lui	a5,0x80000
    1f76:	0342                	slli	t1,t1,0x10
    1f78:	96be                	add	a3,a3,a5
    1f7a:	01035313          	srli	t1,t1,0x10
    1f7e:	13f00e13          	li	t3,319
    1f82:	01085813          	srli	a6,a6,0x10
hdmi_draw_point_vertical():
D:\Hummingbird\HBird-workspace\pico_test_1\Debug/../src/hdmidraw.c:55
	ram_address = temp_ramaddress;
    1f86:	6641                	lui	a2,0x10
    1f88:	40be08b3          	sub	a7,t3,a1
hdmi_draw_square_vertical():
D:\Hummingbird\HBird-workspace\pico_test_1\Debug/../src/hdmidraw.c:223
void hdmi_draw_square_vertical(u16 x,u16 y,u16 len,u8 color){
    1f8c:	872a                	mv	a4,a0
hdmi_draw_point_vertical():
D:\Hummingbird\HBird-workspace\pico_test_1\Debug/../src/hdmidraw.c:54
	temp_ramaddress = 320*x+(319-y);
    1f8e:	00271793          	slli	a5,a4,0x2
    1f92:	97ba                	add	a5,a5,a4
    1f94:	079a                	slli	a5,a5,0x6
    1f96:	97c6                	add	a5,a5,a7
hdmi_draw_square_vertical():
D:\Hummingbird\HBird-workspace\pico_test_1\Debug/../src/hdmidraw.c:230
	{
		for(j=0;j<len;j++){
			hdmi_draw_point_vertical(x0,y0,color);
			x0++;
    1f98:	0705                	addi	a4,a4,1
hdmi_draw_point_vertical():
D:\Hummingbird\HBird-workspace\pico_test_1\Debug/../src/hdmidraw.c:55
	ram_address = temp_ramaddress;
    1f9a:	d23c                	sw	a5,96(a2)
hdmi_draw_square_vertical():
D:\Hummingbird\HBird-workspace\pico_test_1\Debug/../src/hdmidraw.c:230
			x0++;
    1f9c:	0742                	slli	a4,a4,0x10
hdmi_draw_point_vertical():
D:\Hummingbird\HBird-workspace\pico_test_1\Debug/../src/hdmidraw.c:56
	ram_data_address = color+(0b1<<31);
    1f9e:	da34                	sw	a3,112(a2)
hdmi_draw_square_vertical():
D:\Hummingbird\HBird-workspace\pico_test_1\Debug/../src/hdmidraw.c:230
			x0++;
    1fa0:	8341                	srli	a4,a4,0x10
D:\Hummingbird\HBird-workspace\pico_test_1\Debug/../src/hdmidraw.c:228
		for(j=0;j<len;j++){
    1fa2:	ff0716e3          	bne	a4,a6,1f8e <hdmi_draw_square_vertical+0x28>
D:\Hummingbird\HBird-workspace\pico_test_1\Debug/../src/hdmidraw.c:233 (discriminator 2)
		}
		x0 = x;
		y0++;
    1fa6:	0585                	addi	a1,a1,1
    1fa8:	05c2                	slli	a1,a1,0x10
    1faa:	81c1                	srli	a1,a1,0x10
D:\Hummingbird\HBird-workspace\pico_test_1\Debug/../src/hdmidraw.c:226 (discriminator 2)
	for(i=0;i<len;i++)
    1fac:	fc659ee3          	bne	a1,t1,1f88 <hdmi_draw_square_vertical+0x22>
D:\Hummingbird\HBird-workspace\pico_test_1\Debug/../src/hdmidraw.c:235
	}
}
    1fb0:	8082                	ret

00001fb2 <hdmi_drawLine>:
hdmi_drawLine():
D:\Hummingbird\HBird-workspace\pico_test_1\Debug/../src/hdmidraw.c:242
 ** 作用：线
 ** 参数：x1:x起始坐标,y1:y起始坐标,color:颜色索引
 ** 注:
****************************************************************************/
void hdmi_drawLine(u16 x1, u16 y1, u16 x2, u16 y2,u8 color)
{
    1fb2:	1141                	addi	sp,sp,-16
    1fb4:	c622                	sw	s0,12(sp)
D:\Hummingbird\HBird-workspace\pico_test_1\Debug/../src/hdmidraw.c:246
	u16 t;
	int xerr=0,yerr=0,delta_x,delta_y,distance;
	int incx,incy,uRow,uCol;
	delta_x=x2-x1;
    1fb6:	8e09                	sub	a2,a2,a0
D:\Hummingbird\HBird-workspace\pico_test_1\Debug/../src/hdmidraw.c:247
	delta_y=y2-y1;
    1fb8:	8e8d                	sub	a3,a3,a1
D:\Hummingbird\HBird-workspace\pico_test_1\Debug/../src/hdmidraw.c:250
	uRow=x1;
	uCol=y1;
	if(delta_x>0)incx=1;
    1fba:	4385                	li	t2,1
    1fbc:	06c05663          	blez	a2,2028 <hdmi_drawLine+0x76>
D:\Hummingbird\HBird-workspace\pico_test_1\Debug/../src/hdmidraw.c:253
	else if(delta_x==0)incx=0;
	else {incx=-1;delta_x=-delta_x;}
	if(delta_y>0)incy=1;
    1fc0:	4405                	li	s0,1
    1fc2:	06d05b63          	blez	a3,2038 <hdmi_drawLine+0x86>
    1fc6:	8eb2                	mv	t4,a2
    1fc8:	00d65363          	ble	a3,a2,1fce <hdmi_drawLine+0x1c>
    1fcc:	8eb6                	mv	t4,a3
hdmi_draw_point():
D:\Hummingbird\HBird-workspace\pico_test_1\Debug/../src/hdmidraw.c:43
	temp_ramaddress = 320*y+x;
    1fce:	6f41                	lui	t5,0x10
    1fd0:	800007b7          	lui	a5,0x80000
hdmi_drawLine():
D:\Hummingbird\HBird-workspace\pico_test_1\Debug/../src/hdmidraw.c:258
	else if(delta_y==0)incy=0;
	else{incy=-1;delta_y=-delta_y;}
	if( delta_x>delta_y)distance=delta_x;
	else distance=delta_y;
	for(t=0;t<=distance+1;t++ )
    1fd4:	001e8293          	addi	t0,t4,1
    1fd8:	973e                	add	a4,a4,a5
D:\Hummingbird\HBird-workspace\pico_test_1\Debug/../src/hdmidraw.c:244
	int xerr=0,yerr=0,delta_x,delta_y,distance;
    1fda:	4e01                	li	t3,0
    1fdc:	4301                	li	t1,0
D:\Hummingbird\HBird-workspace\pico_test_1\Debug/../src/hdmidraw.c:258
	for(t=0;t<=distance+1;t++ )
    1fde:	4881                	li	a7,0
hdmi_draw_point():
D:\Hummingbird\HBird-workspace\pico_test_1\Debug/../src/hdmidraw.c:43
	temp_ramaddress = 320*y+x;
    1fe0:	ffff0f93          	addi	t6,t5,-1 # ffff <_etext+0xb68b>
    1fe4:	01f5f7b3          	and	a5,a1,t6
    1fe8:	00279813          	slli	a6,a5,0x2
    1fec:	983e                	add	a6,a6,a5
    1fee:	081a                	slli	a6,a6,0x6
    1ff0:	01f577b3          	and	a5,a0,t6
    1ff4:	97c2                	add	a5,a5,a6
D:\Hummingbird\HBird-workspace\pico_test_1\Debug/../src/hdmidraw.c:44
	ram_address = temp_ramaddress;
    1ff6:	06ff2023          	sw	a5,96(t5)
hdmi_drawLine():
D:\Hummingbird\HBird-workspace\pico_test_1\Debug/../src/hdmidraw.c:258
	for(t=0;t<=distance+1;t++ )
    1ffa:	0885                	addi	a7,a7,1
    1ffc:	08c2                	slli	a7,a7,0x10
hdmi_draw_point():
D:\Hummingbird\HBird-workspace\pico_test_1\Debug/../src/hdmidraw.c:45
	ram_data_address = color+(0b1<<31);
    1ffe:	06ef2823          	sw	a4,112(t5)
hdmi_drawLine():
D:\Hummingbird\HBird-workspace\pico_test_1\Debug/../src/hdmidraw.c:261
	{
		hdmi_draw_point(uRow,uCol,color);
		xerr+=delta_x ;
    2002:	9332                	add	t1,t1,a2
D:\Hummingbird\HBird-workspace\pico_test_1\Debug/../src/hdmidraw.c:258
	for(t=0;t<=distance+1;t++ )
    2004:	0108d893          	srli	a7,a7,0x10
D:\Hummingbird\HBird-workspace\pico_test_1\Debug/../src/hdmidraw.c:262
		yerr+=delta_y ;
    2008:	9e36                	add	t3,t3,a3
D:\Hummingbird\HBird-workspace\pico_test_1\Debug/../src/hdmidraw.c:263
		if(xerr>distance)
    200a:	006ed563          	ble	t1,t4,2014 <hdmi_drawLine+0x62>
D:\Hummingbird\HBird-workspace\pico_test_1\Debug/../src/hdmidraw.c:265
		{
			xerr-=distance;
    200e:	41d30333          	sub	t1,t1,t4
D:\Hummingbird\HBird-workspace\pico_test_1\Debug/../src/hdmidraw.c:266
			uRow+=incx;
    2012:	951e                	add	a0,a0,t2
D:\Hummingbird\HBird-workspace\pico_test_1\Debug/../src/hdmidraw.c:268
		}
		if(yerr>distance)
    2014:	01ced563          	ble	t3,t4,201e <hdmi_drawLine+0x6c>
D:\Hummingbird\HBird-workspace\pico_test_1\Debug/../src/hdmidraw.c:270
		{
			yerr-=distance;
    2018:	41de0e33          	sub	t3,t3,t4
D:\Hummingbird\HBird-workspace\pico_test_1\Debug/../src/hdmidraw.c:271
			uCol+=incy;
    201c:	95a2                	add	a1,a1,s0
D:\Hummingbird\HBird-workspace\pico_test_1\Debug/../src/hdmidraw.c:258 (discriminator 2)
	for(t=0;t<=distance+1;t++ )
    201e:	fd12d3e3          	ble	a7,t0,1fe4 <hdmi_drawLine+0x32>
D:\Hummingbird\HBird-workspace\pico_test_1\Debug/../src/hdmidraw.c:274
		}
	}
}
    2022:	4432                	lw	s0,12(sp)
    2024:	0141                	addi	sp,sp,16
    2026:	8082                	ret
D:\Hummingbird\HBird-workspace\pico_test_1\Debug/../src/hdmidraw.c:251
	else if(delta_x==0)incx=0;
    2028:	4381                	li	t2,0
    202a:	da59                	beqz	a2,1fc0 <hdmi_drawLine+0xe>
D:\Hummingbird\HBird-workspace\pico_test_1\Debug/../src/hdmidraw.c:252
	else {incx=-1;delta_x=-delta_x;}
    202c:	40c00633          	neg	a2,a2
    2030:	53fd                	li	t2,-1
D:\Hummingbird\HBird-workspace\pico_test_1\Debug/../src/hdmidraw.c:253
	if(delta_y>0)incy=1;
    2032:	4405                	li	s0,1
    2034:	f8d049e3          	bgtz	a3,1fc6 <hdmi_drawLine+0x14>
D:\Hummingbird\HBird-workspace\pico_test_1\Debug/../src/hdmidraw.c:254
	else if(delta_y==0)incy=0;
    2038:	4401                	li	s0,0
    203a:	d6d1                	beqz	a3,1fc6 <hdmi_drawLine+0x14>
D:\Hummingbird\HBird-workspace\pico_test_1\Debug/../src/hdmidraw.c:255
	else{incy=-1;delta_y=-delta_y;}
    203c:	40d006b3          	neg	a3,a3
    2040:	547d                	li	s0,-1
    2042:	b751                	j	1fc6 <hdmi_drawLine+0x14>

00002044 <hdmi_drawLine_vertical>:
hdmi_drawLine_vertical():
D:\Hummingbird\HBird-workspace\pico_test_1\Debug/../src/hdmidraw.c:280
/***************************************************************************
 ** 作用：线
 ** 参数：x3:x起始坐标,y3:y起始坐标,color:颜色索引
 ** 注:用于垂直坐标的划线
****************************************************************************/
void hdmi_drawLine_vertical(u16 x1, u16 y1, u16 x2, u16 y2,u8 color){
    2044:	1141                	addi	sp,sp,-16
    2046:	c426                	sw	s1,8(sp)
    2048:	c622                	sw	s0,12(sp)
    204a:	c24a                	sw	s2,4(sp)
D:\Hummingbird\HBird-workspace\pico_test_1\Debug/../src/hdmidraw.c:284
	u16 t;
	int xerr=0,yerr=0,delta_x,delta_y,distance;
	int incx,incy,uRow,uCol;
	delta_x=x2-x1;
    204c:	8e09                	sub	a2,a2,a0
D:\Hummingbird\HBird-workspace\pico_test_1\Debug/../src/hdmidraw.c:285
	delta_y=y2-y1;
    204e:	8e8d                	sub	a3,a3,a1
D:\Hummingbird\HBird-workspace\pico_test_1\Debug/../src/hdmidraw.c:288
	uRow=x1;
	uCol=y1;
	if(delta_x>0)incx=1;
    2050:	4485                	li	s1,1
    2052:	06c05c63          	blez	a2,20ca <hdmi_drawLine_vertical+0x86>
D:\Hummingbird\HBird-workspace\pico_test_1\Debug/../src/hdmidraw.c:291
	else if(delta_x==0)incx=0;
	else {incx=-1;delta_x=-delta_x;}
	if(delta_y>0)incy=1;
    2056:	4905                	li	s2,1
    2058:	08d05163          	blez	a3,20da <hdmi_drawLine_vertical+0x96>
    205c:	8eb2                	mv	t4,a2
    205e:	00d65363          	ble	a3,a2,2064 <hdmi_drawLine_vertical+0x20>
    2062:	8eb6                	mv	t4,a3
hdmi_draw_point_vertical():
D:\Hummingbird\HBird-workspace\pico_test_1\Debug/../src/hdmidraw.c:54
	temp_ramaddress = 320*x+(319-y);
    2064:	6fc1                	lui	t6,0x10
    2066:	800007b7          	lui	a5,0x80000
hdmi_drawLine_vertical():
D:\Hummingbird\HBird-workspace\pico_test_1\Debug/../src/hdmidraw.c:296
	else if(delta_y==0)incy=0;
	else{incy=-1;delta_y=-delta_y;}
	if( delta_x>delta_y)distance=delta_x;
	else distance=delta_y;
	for(t=0;t<=distance+1;t++ )
    206a:	001e8413          	addi	s0,t4,1
    206e:	973e                	add	a4,a4,a5
D:\Hummingbird\HBird-workspace\pico_test_1\Debug/../src/hdmidraw.c:282
	int xerr=0,yerr=0,delta_x,delta_y,distance;
    2070:	4301                	li	t1,0
    2072:	4881                	li	a7,0
D:\Hummingbird\HBird-workspace\pico_test_1\Debug/../src/hdmidraw.c:296
	for(t=0;t<=distance+1;t++ )
    2074:	4801                	li	a6,0
hdmi_draw_point_vertical():
D:\Hummingbird\HBird-workspace\pico_test_1\Debug/../src/hdmidraw.c:54
	temp_ramaddress = 320*x+(319-y);
    2076:	ffff8293          	addi	t0,t6,-1 # ffff <_etext+0xb68b>
    207a:	13f00393          	li	t2,319
    207e:	00557f33          	and	t5,a0,t0
    2082:	002f1793          	slli	a5,t5,0x2
    2086:	0055fe33          	and	t3,a1,t0
    208a:	97fa                	add	a5,a5,t5
    208c:	079a                	slli	a5,a5,0x6
    208e:	41c38e33          	sub	t3,t2,t3
    2092:	97f2                	add	a5,a5,t3
D:\Hummingbird\HBird-workspace\pico_test_1\Debug/../src/hdmidraw.c:55
	ram_address = temp_ramaddress;
    2094:	06ffa023          	sw	a5,96(t6)
hdmi_drawLine_vertical():
D:\Hummingbird\HBird-workspace\pico_test_1\Debug/../src/hdmidraw.c:296
	for(t=0;t<=distance+1;t++ )
    2098:	0805                	addi	a6,a6,1
    209a:	0842                	slli	a6,a6,0x10
hdmi_draw_point_vertical():
D:\Hummingbird\HBird-workspace\pico_test_1\Debug/../src/hdmidraw.c:56
	ram_data_address = color+(0b1<<31);
    209c:	06efa823          	sw	a4,112(t6)
hdmi_drawLine_vertical():
D:\Hummingbird\HBird-workspace\pico_test_1\Debug/../src/hdmidraw.c:299
	{
		hdmi_draw_point_vertical(uRow,uCol,color);
		xerr+=delta_x ;
    20a0:	98b2                	add	a7,a7,a2
D:\Hummingbird\HBird-workspace\pico_test_1\Debug/../src/hdmidraw.c:296
	for(t=0;t<=distance+1;t++ )
    20a2:	01085813          	srli	a6,a6,0x10
D:\Hummingbird\HBird-workspace\pico_test_1\Debug/../src/hdmidraw.c:300
		yerr+=delta_y ;
    20a6:	9336                	add	t1,t1,a3
D:\Hummingbird\HBird-workspace\pico_test_1\Debug/../src/hdmidraw.c:301
		if(xerr>distance)
    20a8:	011ed563          	ble	a7,t4,20b2 <hdmi_drawLine_vertical+0x6e>
D:\Hummingbird\HBird-workspace\pico_test_1\Debug/../src/hdmidraw.c:303
		{
			xerr-=distance;
    20ac:	41d888b3          	sub	a7,a7,t4
D:\Hummingbird\HBird-workspace\pico_test_1\Debug/../src/hdmidraw.c:304
			uRow+=incx;
    20b0:	9526                	add	a0,a0,s1
D:\Hummingbird\HBird-workspace\pico_test_1\Debug/../src/hdmidraw.c:306
		}
		if(yerr>distance)
    20b2:	006ed563          	ble	t1,t4,20bc <hdmi_drawLine_vertical+0x78>
D:\Hummingbird\HBird-workspace\pico_test_1\Debug/../src/hdmidraw.c:308
		{
			yerr-=distance;
    20b6:	41d30333          	sub	t1,t1,t4
D:\Hummingbird\HBird-workspace\pico_test_1\Debug/../src/hdmidraw.c:309
			uCol+=incy;
    20ba:	95ca                	add	a1,a1,s2
D:\Hummingbird\HBird-workspace\pico_test_1\Debug/../src/hdmidraw.c:296 (discriminator 2)
	for(t=0;t<=distance+1;t++ )
    20bc:	fd0451e3          	ble	a6,s0,207e <hdmi_drawLine_vertical+0x3a>
D:\Hummingbird\HBird-workspace\pico_test_1\Debug/../src/hdmidraw.c:312
		}
	}
}
    20c0:	4432                	lw	s0,12(sp)
    20c2:	44a2                	lw	s1,8(sp)
    20c4:	4912                	lw	s2,4(sp)
    20c6:	0141                	addi	sp,sp,16
    20c8:	8082                	ret
D:\Hummingbird\HBird-workspace\pico_test_1\Debug/../src/hdmidraw.c:289
	else if(delta_x==0)incx=0;
    20ca:	4481                	li	s1,0
    20cc:	d649                	beqz	a2,2056 <hdmi_drawLine_vertical+0x12>
D:\Hummingbird\HBird-workspace\pico_test_1\Debug/../src/hdmidraw.c:290
	else {incx=-1;delta_x=-delta_x;}
    20ce:	40c00633          	neg	a2,a2
    20d2:	54fd                	li	s1,-1
D:\Hummingbird\HBird-workspace\pico_test_1\Debug/../src/hdmidraw.c:291
	if(delta_y>0)incy=1;
    20d4:	4905                	li	s2,1
    20d6:	f8d043e3          	bgtz	a3,205c <hdmi_drawLine_vertical+0x18>
D:\Hummingbird\HBird-workspace\pico_test_1\Debug/../src/hdmidraw.c:292
	else if(delta_y==0)incy=0;
    20da:	4901                	li	s2,0
    20dc:	d2c1                	beqz	a3,205c <hdmi_drawLine_vertical+0x18>
D:\Hummingbird\HBird-workspace\pico_test_1\Debug/../src/hdmidraw.c:293
	else{incy=-1;delta_y=-delta_y;}
    20de:	40d006b3          	neg	a3,a3
    20e2:	597d                	li	s2,-1
    20e4:	bfa5                	j	205c <hdmi_drawLine_vertical+0x18>

000020e6 <hdmi_draw_dircle_solid_vertical>:
hdmi_draw_dircle_solid_vertical():
D:\Hummingbird\HBird-workspace\pico_test_1\Debug/../src/hdmidraw.c:319
 ** 作用：画圆
 ** 参数：x0:x坐标,y0:y坐标,r:半径
 ** 注:
****************************************************************************/
void hdmi_draw_dircle_solid_vertical(u16 x0,u16 y0,u8 r,u8 color)
{
    20e6:	715d                	addi	sp,sp,-80
D:\Hummingbird\HBird-workspace\pico_test_1\Debug/../src/hdmidraw.c:323
	int a,b;
	int di;
	a=0;b=r;
	di=3-(r<<1);
    20e8:	00161793          	slli	a5,a2,0x1
D:\Hummingbird\HBird-workspace\pico_test_1\Debug/../src/hdmidraw.c:319
{
    20ec:	d06a                	sw	s10,32(sp)
D:\Hummingbird\HBird-workspace\pico_test_1\Debug/../src/hdmidraw.c:323
	di=3-(r<<1);
    20ee:	4d0d                	li	s10,3
    20f0:	40fd0d33          	sub	s10,s10,a5
    20f4:	40b507b3          	sub	a5,a0,a1
    20f8:	c43e                	sw	a5,8(sp)
    20fa:	40a587b3          	sub	a5,a1,a0
D:\Hummingbird\HBird-workspace\pico_test_1\Debug/../src/hdmidraw.c:319
{
    20fe:	c2a6                	sw	s1,68(sp)
    2100:	c0ca                	sw	s2,64(sp)
    2102:	dc52                	sw	s4,56(sp)
    2104:	da56                	sw	s5,52(sp)
    2106:	d462                	sw	s8,40(sp)
    2108:	d266                	sw	s9,36(sp)
    210a:	ce6e                	sw	s11,28(sp)
    210c:	c686                	sw	ra,76(sp)
    210e:	c4a2                	sw	s0,72(sp)
    2110:	de4e                	sw	s3,60(sp)
    2112:	d85a                	sw	s6,48(sp)
    2114:	d65e                	sw	s7,44(sp)
D:\Hummingbird\HBird-workspace\pico_test_1\Debug/../src/hdmidraw.c:322
	a=0;b=r;
    2116:	8c32                	mv	s8,a2
D:\Hummingbird\HBird-workspace\pico_test_1\Debug/../src/hdmidraw.c:319
{
    2118:	8aaa                	mv	s5,a0
    211a:	8dae                	mv	s11,a1
    211c:	8a36                	mv	s4,a3
D:\Hummingbird\HBird-workspace\pico_test_1\Debug/../src/hdmidraw.c:323
	di=3-(r<<1);
    211e:	892a                	mv	s2,a0
    2120:	84ae                	mv	s1,a1
D:\Hummingbird\HBird-workspace\pico_test_1\Debug/../src/hdmidraw.c:322
	a=0;b=r;
    2122:	4c81                	li	s9,0
    2124:	c63e                	sw	a5,12(sp)
    2126:	a821                	j	213e <hdmi_draw_dircle_solid_vertical+0x58>
    2128:	0485                	addi	s1,s1,1
    212a:	197d                	addi	s2,s2,-1
    212c:	04c2                	slli	s1,s1,0x10
    212e:	0942                	slli	s2,s2,0x10
D:\Hummingbird\HBird-workspace\pico_test_1\Debug/../src/hdmidraw.c:336

		if(di<0)di +=4*a+6;
		else
		{
			di+=10+4*(a-b);
			b--;
    2130:	1c7d                	addi	s8,s8,-1
D:\Hummingbird\HBird-workspace\pico_test_1\Debug/../src/hdmidraw.c:335
			di+=10+4*(a-b);
    2132:	9d3e                	add	s10,s10,a5
    2134:	80c1                	srli	s1,s1,0x10
    2136:	01095913          	srli	s2,s2,0x10
D:\Hummingbird\HBird-workspace\pico_test_1\Debug/../src/hdmidraw.c:324
	while(a<=b)
    213a:	099c4d63          	blt	s8,s9,21d4 <hdmi_draw_dircle_solid_vertical+0xee>
    213e:	47a2                	lw	a5,8(sp)
D:\Hummingbird\HBird-workspace\pico_test_1\Debug/../src/hdmidraw.c:326
		hdmi_drawLine_vertical(x0+a,y0-b,x0+a,y0+b,color);             //5
    2140:	010c1413          	slli	s0,s8,0x10
    2144:	8041                	srli	s0,s0,0x10
    2146:	01b40833          	add	a6,s0,s11
    214a:	00f48633          	add	a2,s1,a5
    214e:	408d87b3          	sub	a5,s11,s0
    2152:	01081b93          	slli	s7,a6,0x10
    2156:	01079b13          	slli	s6,a5,0x10
    215a:	0642                	slli	a2,a2,0x10
    215c:	8241                	srli	a2,a2,0x10
    215e:	010b5b13          	srli	s6,s6,0x10
    2162:	010bdb93          	srli	s7,s7,0x10
    2166:	8532                	mv	a0,a2
    2168:	8752                	mv	a4,s4
    216a:	86de                	mv	a3,s7
    216c:	85da                	mv	a1,s6
    216e:	3dd9                	jal	2044 <hdmi_drawLine_vertical>
    2170:	47b2                	lw	a5,12(sp)
D:\Hummingbird\HBird-workspace\pico_test_1\Debug/../src/hdmidraw.c:327
		hdmi_drawLine_vertical(x0+b,y0-a,x0+b,y0+a,color);             //0
    2172:	01540633          	add	a2,s0,s5
    2176:	0642                	slli	a2,a2,0x10
    2178:	00f909b3          	add	s3,s2,a5
    217c:	09c2                	slli	s3,s3,0x10
    217e:	8241                	srli	a2,a2,0x10
    2180:	0109d993          	srli	s3,s3,0x10
    2184:	8532                	mv	a0,a2
    2186:	86a6                	mv	a3,s1
    2188:	8752                	mv	a4,s4
    218a:	85ce                	mv	a1,s3
    218c:	3d65                	jal	2044 <hdmi_drawLine_vertical>
D:\Hummingbird\HBird-workspace\pico_test_1\Debug/../src/hdmidraw.c:328
		hdmi_drawLine_vertical(x0-a,y0-b,x0-a,y0+b,color);             //4
    218e:	8752                	mv	a4,s4
    2190:	86de                	mv	a3,s7
    2192:	864a                	mv	a2,s2
    2194:	85da                	mv	a1,s6
    2196:	854a                	mv	a0,s2
    2198:	3575                	jal	2044 <hdmi_drawLine_vertical>
D:\Hummingbird\HBird-workspace\pico_test_1\Debug/../src/hdmidraw.c:329
		hdmi_drawLine_vertical(x0-b,y0-a,x0-b,y0+a,color);             //6
    219a:	408a8633          	sub	a2,s5,s0
    219e:	0642                	slli	a2,a2,0x10
    21a0:	8241                	srli	a2,a2,0x10
    21a2:	86a6                	mv	a3,s1
    21a4:	8752                	mv	a4,s4
    21a6:	85ce                	mv	a1,s3
    21a8:	8532                	mv	a0,a2
    21aa:	3d69                	jal	2044 <hdmi_drawLine_vertical>
D:\Hummingbird\HBird-workspace\pico_test_1\Debug/../src/hdmidraw.c:330
		a++;
    21ac:	0c85                	addi	s9,s9,1
D:\Hummingbird\HBird-workspace\pico_test_1\Debug/../src/hdmidraw.c:335
			di+=10+4*(a-b);
    21ae:	418c87b3          	sub	a5,s9,s8
    21b2:	078a                	slli	a5,a5,0x2
    21b4:	07a9                	addi	a5,a5,10
D:\Hummingbird\HBird-workspace\pico_test_1\Debug/../src/hdmidraw.c:332
		if(di<0)di +=4*a+6;
    21b6:	f60d59e3          	bgez	s10,2128 <hdmi_draw_dircle_solid_vertical+0x42>
D:\Hummingbird\HBird-workspace\pico_test_1\Debug/../src/hdmidraw.c:332 (discriminator 1)
    21ba:	002c9793          	slli	a5,s9,0x2
    21be:	0485                	addi	s1,s1,1
    21c0:	197d                	addi	s2,s2,-1
    21c2:	0799                	addi	a5,a5,6
    21c4:	04c2                	slli	s1,s1,0x10
    21c6:	0942                	slli	s2,s2,0x10
    21c8:	9d3e                	add	s10,s10,a5
    21ca:	80c1                	srli	s1,s1,0x10
    21cc:	01095913          	srli	s2,s2,0x10
D:\Hummingbird\HBird-workspace\pico_test_1\Debug/../src/hdmidraw.c:324 (discriminator 1)
	while(a<=b)
    21d0:	f79c57e3          	ble	s9,s8,213e <hdmi_draw_dircle_solid_vertical+0x58>
D:\Hummingbird\HBird-workspace\pico_test_1\Debug/../src/hdmidraw.c:340
		}
	}

}
    21d4:	40b6                	lw	ra,76(sp)
    21d6:	4426                	lw	s0,72(sp)
    21d8:	4496                	lw	s1,68(sp)
    21da:	4906                	lw	s2,64(sp)
    21dc:	59f2                	lw	s3,60(sp)
    21de:	5a62                	lw	s4,56(sp)
    21e0:	5ad2                	lw	s5,52(sp)
    21e2:	5b42                	lw	s6,48(sp)
    21e4:	5bb2                	lw	s7,44(sp)
    21e6:	5c22                	lw	s8,40(sp)
    21e8:	5c92                	lw	s9,36(sp)
    21ea:	5d02                	lw	s10,32(sp)
    21ec:	4df2                	lw	s11,28(sp)
    21ee:	6161                	addi	sp,sp,80
    21f0:	8082                	ret

000021f2 <hdmi_draw_dircle_solid>:
hdmi_draw_dircle_solid():
D:\Hummingbird\HBird-workspace\pico_test_1\Debug/../src/hdmidraw.c:347
 ** 作用：画圆
 ** 参数：x0:x坐标,y0:y坐标,r:半径
 ** 注:
****************************************************************************/
void hdmi_draw_dircle_solid(u16 x0,u16 y0,u8 r,u8 color)
{
    21f2:	715d                	addi	sp,sp,-80
D:\Hummingbird\HBird-workspace\pico_test_1\Debug/../src/hdmidraw.c:351
	int a,b;
	int di;
	a=0;b=r;
	di=3-(r<<1);
    21f4:	00161793          	slli	a5,a2,0x1
D:\Hummingbird\HBird-workspace\pico_test_1\Debug/../src/hdmidraw.c:347
{
    21f8:	d06a                	sw	s10,32(sp)
D:\Hummingbird\HBird-workspace\pico_test_1\Debug/../src/hdmidraw.c:351
	di=3-(r<<1);
    21fa:	4d0d                	li	s10,3
    21fc:	40fd0d33          	sub	s10,s10,a5
    2200:	40b507b3          	sub	a5,a0,a1
    2204:	c43e                	sw	a5,8(sp)
    2206:	40a587b3          	sub	a5,a1,a0
D:\Hummingbird\HBird-workspace\pico_test_1\Debug/../src/hdmidraw.c:347
{
    220a:	c2a6                	sw	s1,68(sp)
    220c:	c0ca                	sw	s2,64(sp)
    220e:	dc52                	sw	s4,56(sp)
    2210:	da56                	sw	s5,52(sp)
    2212:	d462                	sw	s8,40(sp)
    2214:	d266                	sw	s9,36(sp)
    2216:	ce6e                	sw	s11,28(sp)
    2218:	c686                	sw	ra,76(sp)
    221a:	c4a2                	sw	s0,72(sp)
    221c:	de4e                	sw	s3,60(sp)
    221e:	d85a                	sw	s6,48(sp)
    2220:	d65e                	sw	s7,44(sp)
D:\Hummingbird\HBird-workspace\pico_test_1\Debug/../src/hdmidraw.c:350
	a=0;b=r;
    2222:	8c32                	mv	s8,a2
D:\Hummingbird\HBird-workspace\pico_test_1\Debug/../src/hdmidraw.c:347
{
    2224:	8aaa                	mv	s5,a0
    2226:	8dae                	mv	s11,a1
    2228:	8a36                	mv	s4,a3
D:\Hummingbird\HBird-workspace\pico_test_1\Debug/../src/hdmidraw.c:351
	di=3-(r<<1);
    222a:	892a                	mv	s2,a0
    222c:	84ae                	mv	s1,a1
D:\Hummingbird\HBird-workspace\pico_test_1\Debug/../src/hdmidraw.c:350
	a=0;b=r;
    222e:	4c81                	li	s9,0
    2230:	c63e                	sw	a5,12(sp)
    2232:	a821                	j	224a <hdmi_draw_dircle_solid+0x58>
    2234:	0485                	addi	s1,s1,1
    2236:	197d                	addi	s2,s2,-1
    2238:	04c2                	slli	s1,s1,0x10
    223a:	0942                	slli	s2,s2,0x10
D:\Hummingbird\HBird-workspace\pico_test_1\Debug/../src/hdmidraw.c:364

		if(di<0)di +=4*a+6;
		else
		{
			di+=10+4*(a-b);
			b--;
    223c:	1c7d                	addi	s8,s8,-1
D:\Hummingbird\HBird-workspace\pico_test_1\Debug/../src/hdmidraw.c:363
			di+=10+4*(a-b);
    223e:	9d3e                	add	s10,s10,a5
    2240:	80c1                	srli	s1,s1,0x10
    2242:	01095913          	srli	s2,s2,0x10
D:\Hummingbird\HBird-workspace\pico_test_1\Debug/../src/hdmidraw.c:352
	while(a<=b)
    2246:	099c4d63          	blt	s8,s9,22e0 <hdmi_draw_dircle_solid+0xee>
    224a:	47a2                	lw	a5,8(sp)
D:\Hummingbird\HBird-workspace\pico_test_1\Debug/../src/hdmidraw.c:354
		hdmi_drawLine(x0+a,y0-b,x0+a,y0+b,color);             //5
    224c:	010c1413          	slli	s0,s8,0x10
    2250:	8041                	srli	s0,s0,0x10
    2252:	01b40833          	add	a6,s0,s11
    2256:	00f48633          	add	a2,s1,a5
    225a:	408d87b3          	sub	a5,s11,s0
    225e:	01081b93          	slli	s7,a6,0x10
    2262:	01079b13          	slli	s6,a5,0x10
    2266:	0642                	slli	a2,a2,0x10
    2268:	8241                	srli	a2,a2,0x10
    226a:	010b5b13          	srli	s6,s6,0x10
    226e:	010bdb93          	srli	s7,s7,0x10
    2272:	8532                	mv	a0,a2
    2274:	8752                	mv	a4,s4
    2276:	86de                	mv	a3,s7
    2278:	85da                	mv	a1,s6
    227a:	3b25                	jal	1fb2 <hdmi_drawLine>
    227c:	47b2                	lw	a5,12(sp)
D:\Hummingbird\HBird-workspace\pico_test_1\Debug/../src/hdmidraw.c:355
		hdmi_drawLine(x0+b,y0-a,x0+b,y0+a,color);             //0
    227e:	01540633          	add	a2,s0,s5
    2282:	0642                	slli	a2,a2,0x10
    2284:	00f909b3          	add	s3,s2,a5
    2288:	09c2                	slli	s3,s3,0x10
    228a:	8241                	srli	a2,a2,0x10
    228c:	0109d993          	srli	s3,s3,0x10
    2290:	8532                	mv	a0,a2
    2292:	86a6                	mv	a3,s1
    2294:	8752                	mv	a4,s4
    2296:	85ce                	mv	a1,s3
    2298:	3b29                	jal	1fb2 <hdmi_drawLine>
D:\Hummingbird\HBird-workspace\pico_test_1\Debug/../src/hdmidraw.c:356
		hdmi_drawLine(x0-a,y0-b,x0-a,y0+b,color);             //4
    229a:	8752                	mv	a4,s4
    229c:	86de                	mv	a3,s7
    229e:	864a                	mv	a2,s2
    22a0:	85da                	mv	a1,s6
    22a2:	854a                	mv	a0,s2
    22a4:	3339                	jal	1fb2 <hdmi_drawLine>
D:\Hummingbird\HBird-workspace\pico_test_1\Debug/../src/hdmidraw.c:357
		hdmi_drawLine(x0-b,y0-a,x0-b,y0+a,color);             //6
    22a6:	408a8633          	sub	a2,s5,s0
    22aa:	0642                	slli	a2,a2,0x10
    22ac:	8241                	srli	a2,a2,0x10
    22ae:	86a6                	mv	a3,s1
    22b0:	8752                	mv	a4,s4
    22b2:	85ce                	mv	a1,s3
    22b4:	8532                	mv	a0,a2
    22b6:	39f5                	jal	1fb2 <hdmi_drawLine>
D:\Hummingbird\HBird-workspace\pico_test_1\Debug/../src/hdmidraw.c:358
		a++;
    22b8:	0c85                	addi	s9,s9,1
D:\Hummingbird\HBird-workspace\pico_test_1\Debug/../src/hdmidraw.c:363
			di+=10+4*(a-b);
    22ba:	418c87b3          	sub	a5,s9,s8
    22be:	078a                	slli	a5,a5,0x2
    22c0:	07a9                	addi	a5,a5,10
D:\Hummingbird\HBird-workspace\pico_test_1\Debug/../src/hdmidraw.c:360
		if(di<0)di +=4*a+6;
    22c2:	f60d59e3          	bgez	s10,2234 <hdmi_draw_dircle_solid+0x42>
D:\Hummingbird\HBird-workspace\pico_test_1\Debug/../src/hdmidraw.c:360 (discriminator 1)
    22c6:	002c9793          	slli	a5,s9,0x2
    22ca:	0485                	addi	s1,s1,1
    22cc:	197d                	addi	s2,s2,-1
    22ce:	0799                	addi	a5,a5,6
    22d0:	04c2                	slli	s1,s1,0x10
    22d2:	0942                	slli	s2,s2,0x10
    22d4:	9d3e                	add	s10,s10,a5
    22d6:	80c1                	srli	s1,s1,0x10
    22d8:	01095913          	srli	s2,s2,0x10
D:\Hummingbird\HBird-workspace\pico_test_1\Debug/../src/hdmidraw.c:352 (discriminator 1)
	while(a<=b)
    22dc:	f79c57e3          	ble	s9,s8,224a <hdmi_draw_dircle_solid+0x58>
D:\Hummingbird\HBird-workspace\pico_test_1\Debug/../src/hdmidraw.c:368
		}
	}

}
    22e0:	40b6                	lw	ra,76(sp)
    22e2:	4426                	lw	s0,72(sp)
    22e4:	4496                	lw	s1,68(sp)
    22e6:	4906                	lw	s2,64(sp)
    22e8:	59f2                	lw	s3,60(sp)
    22ea:	5a62                	lw	s4,56(sp)
    22ec:	5ad2                	lw	s5,52(sp)
    22ee:	5b42                	lw	s6,48(sp)
    22f0:	5bb2                	lw	s7,44(sp)
    22f2:	5c22                	lw	s8,40(sp)
    22f4:	5c92                	lw	s9,36(sp)
    22f6:	5d02                	lw	s10,32(sp)
    22f8:	4df2                	lw	s11,28(sp)
    22fa:	6161                	addi	sp,sp,80
    22fc:	8082                	ret

000022fe <hdmi_drawrectangle>:
hdmi_drawrectangle():
D:\Hummingbird\HBird-workspace\pico_test_1\Debug/../src/hdmidraw.c:375
 ** 作用：画矩形
 ** 参数：x1:x坐标,y1:y坐标
 ** 注:
****************************************************************************/
void hdmi_drawrectangle(u16 x1, u16 y1, u16 x2, u16 y2,u8 color)
{
    22fe:	1101                	addi	sp,sp,-32
    2300:	cc22                	sw	s0,24(sp)
    2302:	8436                	mv	s0,a3
D:\Hummingbird\HBird-workspace\pico_test_1\Debug/../src/hdmidraw.c:376
	hdmi_drawLine(x1,y1,x2,y1,color);
    2304:	86ae                	mv	a3,a1
D:\Hummingbird\HBird-workspace\pico_test_1\Debug/../src/hdmidraw.c:375
{
    2306:	ce06                	sw	ra,28(sp)
    2308:	ca26                	sw	s1,20(sp)
    230a:	c84a                	sw	s2,16(sp)
    230c:	c64e                	sw	s3,12(sp)
    230e:	c452                	sw	s4,8(sp)
    2310:	893a                	mv	s2,a4
    2312:	8a32                	mv	s4,a2
    2314:	89aa                	mv	s3,a0
    2316:	84ae                	mv	s1,a1
D:\Hummingbird\HBird-workspace\pico_test_1\Debug/../src/hdmidraw.c:376
	hdmi_drawLine(x1,y1,x2,y1,color);
    2318:	3969                	jal	1fb2 <hdmi_drawLine>
D:\Hummingbird\HBird-workspace\pico_test_1\Debug/../src/hdmidraw.c:377
	hdmi_drawLine(x1,y1,x1,y2,color);
    231a:	874a                	mv	a4,s2
    231c:	86a2                	mv	a3,s0
    231e:	864e                	mv	a2,s3
    2320:	85a6                	mv	a1,s1
    2322:	854e                	mv	a0,s3
    2324:	3179                	jal	1fb2 <hdmi_drawLine>
D:\Hummingbird\HBird-workspace\pico_test_1\Debug/../src/hdmidraw.c:378
	hdmi_drawLine(x1,y2,x2,y2,color);
    2326:	874a                	mv	a4,s2
    2328:	86a2                	mv	a3,s0
    232a:	8652                	mv	a2,s4
    232c:	85a2                	mv	a1,s0
    232e:	854e                	mv	a0,s3
    2330:	3149                	jal	1fb2 <hdmi_drawLine>
D:\Hummingbird\HBird-workspace\pico_test_1\Debug/../src/hdmidraw.c:379
	hdmi_drawLine(x2,y1,x2,y2,color);
    2332:	86a2                	mv	a3,s0
D:\Hummingbird\HBird-workspace\pico_test_1\Debug/../src/hdmidraw.c:380
}
    2334:	4462                	lw	s0,24(sp)
    2336:	40f2                	lw	ra,28(sp)
    2338:	49b2                	lw	s3,12(sp)
D:\Hummingbird\HBird-workspace\pico_test_1\Debug/../src/hdmidraw.c:379
	hdmi_drawLine(x2,y1,x2,y2,color);
    233a:	874a                	mv	a4,s2
    233c:	8652                	mv	a2,s4
D:\Hummingbird\HBird-workspace\pico_test_1\Debug/../src/hdmidraw.c:380
}
    233e:	4942                	lw	s2,16(sp)
D:\Hummingbird\HBird-workspace\pico_test_1\Debug/../src/hdmidraw.c:379
	hdmi_drawLine(x2,y1,x2,y2,color);
    2340:	85a6                	mv	a1,s1
    2342:	8552                	mv	a0,s4
D:\Hummingbird\HBird-workspace\pico_test_1\Debug/../src/hdmidraw.c:380
}
    2344:	44d2                	lw	s1,20(sp)
    2346:	4a22                	lw	s4,8(sp)
    2348:	6105                	addi	sp,sp,32
D:\Hummingbird\HBird-workspace\pico_test_1\Debug/../src/hdmidraw.c:379
	hdmi_drawLine(x2,y1,x2,y2,color);
    234a:	b1a5                	j	1fb2 <hdmi_drawLine>

0000234c <ps2_test>:
ps2_test():
D:\Hummingbird\HBird-workspace\pico_test_1\Debug/../src/main.c:17
 ** 输出参数：无
 ** 返回参数：无
 ********************************************************************/

void ps2_test(){
	int getps2 = *ps2ctrl_point;
    234c:	67c1                	lui	a5,0x10
    234e:	1007a583          	lw	a1,256(a5) # 10100 <_etext+0xb78c>
D:\Hummingbird\HBird-workspace\pico_test_1\Debug/../src/main.c:18
	printk("getps2 = %d\n",getps2);
    2352:	00004537          	lui	a0,0x4
    2356:	67850513          	addi	a0,a0,1656 # 4678 <bitmap_bytes+0x100>
    235a:	0b30006f          	j	2c0c <printk>

0000235e <draw_point_test>:
draw_point_test():
D:\Hummingbird\HBird-workspace\pico_test_1\Debug/../src/main.c:25


void draw_point_test(int x,int y){
	u32 addr_temp;
	u32 data_temp;
	addr_temp = 40*y + x;
    235e:	00259793          	slli	a5,a1,0x2
    2362:	95be                	add	a1,a1,a5
    2364:	058e                	slli	a1,a1,0x3
    2366:	95aa                	add	a1,a1,a0
D:\Hummingbird\HBird-workspace\pico_test_1\Debug/../src/main.c:26
	ram_address = addr_temp;
    2368:	6741                	lui	a4,0x10
D:\Hummingbird\HBird-workspace\pico_test_1\Debug/../src/main.c:27
	ram_data_address = 0b00010011+(0b1<<31);
    236a:	800007b7          	lui	a5,0x80000
D:\Hummingbird\HBird-workspace\pico_test_1\Debug/../src/main.c:26
	ram_address = addr_temp;
    236e:	d32c                	sw	a1,96(a4)
D:\Hummingbird\HBird-workspace\pico_test_1\Debug/../src/main.c:27
	ram_data_address = 0b00010011+(0b1<<31);
    2370:	07cd                	addi	a5,a5,19
D:\Hummingbird\HBird-workspace\pico_test_1\Debug/../src/main.c:29
	data_temp = 0b00010011+(0b1<<31);
	printk("we_valid:%d",data_temp>>31);
    2372:	00004537          	lui	a0,0x4
D:\Hummingbird\HBird-workspace\pico_test_1\Debug/../src/main.c:27
	ram_data_address = 0b00010011+(0b1<<31);
    2376:	db3c                	sw	a5,112(a4)
D:\Hummingbird\HBird-workspace\pico_test_1\Debug/../src/main.c:29
	printk("we_valid:%d",data_temp>>31);
    2378:	4585                	li	a1,1
    237a:	5d850513          	addi	a0,a0,1496 # 45d8 <bitmap_bytes+0x60>
    237e:	08f0006f          	j	2c0c <printk>

00002382 <rgb_test>:
rgb_test():
D:\Hummingbird\HBird-workspace\pico_test_1\Debug/../src/main.c:32
}

void rgb_test(){
    2382:	1141                	addi	sp,sp,-16
D:\Hummingbird\HBird-workspace\pico_test_1\Debug/../src/main.c:38
	u32 cut = 0;
	u32 addr = 0;
	u32 color = 0;
	u32 i;
	for(i = 0;i < 86400;i++){
		ram_address = i;
    2384:	6741                	lui	a4,0x10
D:\Hummingbird\HBird-workspace\pico_test_1\Debug/../src/main.c:37
	for(i = 0;i < 86400;i++){
    2386:	65d5                	lui	a1,0x15
D:\Hummingbird\HBird-workspace\pico_test_1\Debug/../src/main.c:32
void rgb_test(){
    2388:	c606                	sw	ra,12(sp)
D:\Hummingbird\HBird-workspace\pico_test_1\Debug/../src/main.c:37
	for(i = 0;i < 86400;i++){
    238a:	4781                	li	a5,0
D:\Hummingbird\HBird-workspace\pico_test_1\Debug/../src/main.c:39
		ram_data_address = (0+(0b1<<31));
    238c:	07070693          	addi	a3,a4,112 # 10070 <_etext+0xb6fc>
    2390:	80000837          	lui	a6,0x80000
    2394:	80000537          	lui	a0,0x80000
D:\Hummingbird\HBird-workspace\pico_test_1\Debug/../src/main.c:37
	for(i = 0;i < 86400;i++){
    2398:	18058593          	addi	a1,a1,384 # 15180 <_etext+0x1080c>
D:\Hummingbird\HBird-workspace\pico_test_1\Debug/../src/main.c:38 (discriminator 3)
		ram_address = i;
    239c:	d33c                	sw	a5,96(a4)
D:\Hummingbird\HBird-workspace\pico_test_1\Debug/../src/main.c:39 (discriminator 3)
		ram_data_address = (0+(0b1<<31));
    239e:	c288                	sw	a0,0(a3)
D:\Hummingbird\HBird-workspace\pico_test_1\Debug/../src/main.c:37 (discriminator 3)
	for(i = 0;i < 86400;i++){
    23a0:	0785                	addi	a5,a5,1
    23a2:	feb79de3          	bne	a5,a1,239c <rgb_test+0x1a>
D:\Hummingbird\HBird-workspace\pico_test_1\Debug/../src/main.c:41
	}
	ram_address = 0;
    23a6:	06072023          	sw	zero,96(a4)
D:\Hummingbird\HBird-workspace\pico_test_1\Debug/../src/main.c:42
	ram_data_address = (5+(0b1<<31));
    23aa:	00580793          	addi	a5,a6,5 # 80000005 <_etext+0x7fffb691>
    23ae:	c29c                	sw	a5,0(a3)
D:\Hummingbird\HBird-workspace\pico_test_1\Debug/../src/main.c:43
	ram_address = 50;
    23b0:	03200793          	li	a5,50
    23b4:	d33c                	sw	a5,96(a4)
D:\Hummingbird\HBird-workspace\pico_test_1\Debug/../src/main.c:44
	ram_data_address = (50+(0b1<<31));
    23b6:	03280793          	addi	a5,a6,50
    23ba:	c29c                	sw	a5,0(a3)
D:\Hummingbird\HBird-workspace\pico_test_1\Debug/../src/main.c:45
	ram_address = 20000;
    23bc:	6795                	lui	a5,0x5
    23be:	e2078793          	addi	a5,a5,-480 # 4e20 <_etext+0x4ac>
    23c2:	d33c                	sw	a5,96(a4)
D:\Hummingbird\HBird-workspace\pico_test_1\Debug/../src/main.c:46
	ram_data_address = (150+(0b1<<31));
    23c4:	09680813          	addi	a6,a6,150
    23c8:	0106a023          	sw	a6,0(a3)
D:\Hummingbird\HBird-workspace\pico_test_1\Debug/../src/main.c:47
	hdmi_draw_point(20,50,1);
    23cc:	4605                	li	a2,1
    23ce:	03200593          	li	a1,50
    23d2:	4551                	li	a0,20
    23d4:	805ff0ef          	jal	ra,1bd8 <hdmi_draw_point>
D:\Hummingbird\HBird-workspace\pico_test_1\Debug/../src/main.c:48
	hdmi_draw_point(20,60,2);
    23d8:	4609                	li	a2,2
    23da:	03c00593          	li	a1,60
    23de:	4551                	li	a0,20
    23e0:	ff8ff0ef          	jal	ra,1bd8 <hdmi_draw_point>
D:\Hummingbird\HBird-workspace\pico_test_1\Debug/../src/main.c:49
	hdmi_draw_point(20,70,3);
    23e4:	460d                	li	a2,3
    23e6:	04600593          	li	a1,70
    23ea:	4551                	li	a0,20
    23ec:	fecff0ef          	jal	ra,1bd8 <hdmi_draw_point>
D:\Hummingbird\HBird-workspace\pico_test_1\Debug/../src/main.c:63
//			printk("color:%x\n",(color+1)*(0xffff+1));
//			ram_address = addr;
//			ram_data_address = (color+(0b1<<31));
//		}
//	}
}
    23f0:	40b2                	lw	ra,12(sp)
D:\Hummingbird\HBird-workspace\pico_test_1\Debug/../src/main.c:50
	hdmi_draw_point(20,80,4);
    23f2:	4611                	li	a2,4
    23f4:	05000593          	li	a1,80
    23f8:	4551                	li	a0,20
D:\Hummingbird\HBird-workspace\pico_test_1\Debug/../src/main.c:63
}
    23fa:	0141                	addi	sp,sp,16
D:\Hummingbird\HBird-workspace\pico_test_1\Debug/../src/main.c:50
	hdmi_draw_point(20,80,4);
    23fc:	fdcff06f          	j	1bd8 <hdmi_draw_point>

00002400 <main>:
main():
D:\Hummingbird\HBird-workspace\pico_test_1\Debug/../src/main.c:66

int main(void)
{
    2400:	1141                	addi	sp,sp,-16
D:\Hummingbird\HBird-workspace\pico_test_1\Debug/../src/main.c:67
	reg_uart_clkdiv = BAUND_9600;
    2402:	6785                	lui	a5,0x1
D:\Hummingbird\HBird-workspace\pico_test_1\Debug/../src/main.c:66
{
    2404:	c606                	sw	ra,12(sp)
D:\Hummingbird\HBird-workspace\pico_test_1\Debug/../src/main.c:67
	reg_uart_clkdiv = BAUND_9600;
    2406:	6741                	lui	a4,0x10
    2408:	45878793          	addi	a5,a5,1112 # 1458 <DrawSpace+0x84>
D:\Hummingbird\HBird-workspace\pico_test_1\Debug/../src/main.c:68
	printk("Hello Risc-V Pango 2019\n");
    240c:	00004537          	lui	a0,0x4
D:\Hummingbird\HBird-workspace\pico_test_1\Debug/../src/main.c:67
	reg_uart_clkdiv = BAUND_9600;
    2410:	c31c                	sw	a5,0(a4)
D:\Hummingbird\HBird-workspace\pico_test_1\Debug/../src/main.c:68
	printk("Hello Risc-V Pango 2019\n");
    2412:	5f850513          	addi	a0,a0,1528 # 45f8 <bitmap_bytes+0x80>
    2416:	7f6000ef          	jal	ra,2c0c <printk>
D:\Hummingbird\HBird-workspace\pico_test_1\Debug/../src/main.c:69
	printk("test data = %d,%f,%s,0x = %x\n", 100,33.456,"2019",100);
    241a:	000047b7          	lui	a5,0x4
    241e:	5e87a603          	lw	a2,1512(a5) # 45e8 <bitmap_bytes+0x70>
    2422:	5ec7a683          	lw	a3,1516(a5)
    2426:	00004737          	lui	a4,0x4
    242a:	00004537          	lui	a0,0x4
    242e:	06400793          	li	a5,100
    2432:	61470713          	addi	a4,a4,1556 # 4614 <bitmap_bytes+0x9c>
    2436:	06400593          	li	a1,100
    243a:	61c50513          	addi	a0,a0,1564 # 461c <bitmap_bytes+0xa4>
    243e:	7ce000ef          	jal	ra,2c0c <printk>
D:\Hummingbird\HBird-workspace\pico_test_1\Debug/../src/main.c:70
	printk("simple compute : 50*10 = %d,100/3 = %f,100%3 = %d\n", 50*10,(double)100/3,(int)100%3);
    2442:	000047b7          	lui	a5,0x4
    2446:	5f07a603          	lw	a2,1520(a5) # 45f0 <bitmap_bytes+0x78>
    244a:	5f47a683          	lw	a3,1524(a5)
    244e:	00004537          	lui	a0,0x4
    2452:	4705                	li	a4,1
    2454:	1f400593          	li	a1,500
    2458:	63c50513          	addi	a0,a0,1596 # 463c <bitmap_bytes+0xc4>
    245c:	7b0000ef          	jal	ra,2c0c <printk>
D:\Hummingbird\HBird-workspace\pico_test_1\Debug/../src/main.c:71
	printk("test\n");
    2460:	00004537          	lui	a0,0x4
    2464:	67050513          	addi	a0,a0,1648 # 4670 <bitmap_bytes+0xf8>
    2468:	7a4000ef          	jal	ra,2c0c <printk>
D:\Hummingbird\HBird-workspace\pico_test_1\Debug/../src/main.c:73

	Tetris();
    246c:	eb4ff0ef          	jal	ra,1b20 <Tetris>
D:\Hummingbird\HBird-workspace\pico_test_1\Debug/../src/main.c:74
	GameStart();
    2470:	233d                	jal	299e <GameStart>
D:\Hummingbird\HBird-workspace\pico_test_1\Debug/../src/main.c:86
//		}
//	}//X
//	getps2 = 0;
//	goto loop;
	return 0;
}
    2472:	40b2                	lw	ra,12(sp)
    2474:	4501                	li	a0,0
    2476:	0141                	addi	sp,sp,16
    2478:	8082                	ret

0000247a <refresh.part.0>:
refresh():
D:\Hummingbird\HBird-workspace\pico_test_1\Debug/../src/newsnake.c:103
}
/*
刷新屏幕上蛇和食物的位置
*/

void refresh(){
    247a:	1141                	addi	sp,sp,-16
    247c:	c226                	sw	s1,4(sp)
D:\Hummingbird\HBird-workspace\pico_test_1\Debug/../src/newsnake.c:106
	if(snake.life==1){
		u8 i;
		hdmi_draw_fill(11,11,229,229,255);
    247e:	0ff00713          	li	a4,255
    2482:	0e500693          	li	a3,229
    2486:	0e500613          	li	a2,229
    248a:	45ad                	li	a1,11
    248c:	452d                	li	a0,11
D:\Hummingbird\HBird-workspace\pico_test_1\Debug/../src/newsnake.c:107
		for(i=0;i<snake.length;i++){//画蛇
    248e:	6485                	lui	s1,0x1
D:\Hummingbird\HBird-workspace\pico_test_1\Debug/../src/newsnake.c:103
void refresh(){
    2490:	c606                	sw	ra,12(sp)
    2492:	c422                	sw	s0,8(sp)
D:\Hummingbird\HBird-workspace\pico_test_1\Debug/../src/newsnake.c:107
		for(i=0;i<snake.length;i++){//画蛇
    2494:	cbc48493          	addi	s1,s1,-836 # cbc <snake>
D:\Hummingbird\HBird-workspace\pico_test_1\Debug/../src/newsnake.c:106
		hdmi_draw_fill(11,11,229,229,255);
    2498:	3cb5                	jal	1f14 <hdmi_draw_fill>
D:\Hummingbird\HBird-workspace\pico_test_1\Debug/../src/newsnake.c:107
		for(i=0;i<snake.length;i++){//画蛇
    249a:	25b4c783          	lbu	a5,603(s1)
    249e:	c395                	beqz	a5,24c2 <refresh.part.0+0x48>
    24a0:	4401                	li	s0,0
D:\Hummingbird\HBird-workspace\pico_test_1\Debug/../src/newsnake.c:108
			hdmi_draw_dircle_solid(snake.snakeX[i],snake.snakeY[i],5,snakecolor);  //以算的蛇的坐标画半径为5的实心圆
    24a2:	008487b3          	add	a5,s1,s0
    24a6:	12f7c583          	lbu	a1,303(a5)
    24aa:	0037c503          	lbu	a0,3(a5)
    24ae:	46a9                	li	a3,10
    24b0:	4615                	li	a2,5
    24b2:	3381                	jal	21f2 <hdmi_draw_dircle_solid>
D:\Hummingbird\HBird-workspace\pico_test_1\Debug/../src/newsnake.c:107
		for(i=0;i<snake.length;i++){//画蛇
    24b4:	25b4c783          	lbu	a5,603(s1)
    24b8:	0405                	addi	s0,s0,1
    24ba:	0ff47413          	andi	s0,s0,255
    24be:	fef462e3          	bltu	s0,a5,24a2 <refresh.part.0+0x28>
D:\Hummingbird\HBird-workspace\pico_test_1\Debug/../src/newsnake.c:110
		}
		hdmi_draw_dircle_solid(snake.foodX,snake.foodY,5,36);//画食物
    24c2:	2654c583          	lbu	a1,613(s1)
    24c6:	2644c503          	lbu	a0,612(s1)
    24ca:	02400693          	li	a3,36
    24ce:	4615                	li	a2,5
    24d0:	330d                	jal	21f2 <hdmi_draw_dircle_solid>
D:\Hummingbird\HBird-workspace\pico_test_1\Debug/../src/newsnake.c:111
		hdmi_draw_string(250,70,"Score:",22);
    24d2:	00004637          	lui	a2,0x4
    24d6:	46d9                	li	a3,22
    24d8:	6bc60613          	addi	a2,a2,1724 # 46bc <bitmap_bytes+0x144>
    24dc:	04600593          	li	a1,70
    24e0:	0fa00513          	li	a0,250
    24e4:	839ff0ef          	jal	ra,1d1c <hdmi_draw_string>
D:\Hummingbird\HBird-workspace\pico_test_1\Debug/../src/newsnake.c:112
		hdmi_draw_num(260,90,score,2,23);
    24e8:	6785                	lui	a5,0x1
D:\Hummingbird\HBird-workspace\pico_test_1\Debug/../src/newsnake.c:114
	}
}
    24ea:	4422                	lw	s0,8(sp)
    24ec:	40b2                	lw	ra,12(sp)
    24ee:	4492                	lw	s1,4(sp)
D:\Hummingbird\HBird-workspace\pico_test_1\Debug/../src/newsnake.c:112
		hdmi_draw_num(260,90,score,2,23);
    24f0:	f427d603          	lhu	a2,-190(a5) # f42 <score>
    24f4:	475d                	li	a4,23
    24f6:	4689                	li	a3,2
    24f8:	05a00593          	li	a1,90
    24fc:	10400513          	li	a0,260
D:\Hummingbird\HBird-workspace\pico_test_1\Debug/../src/newsnake.c:114
}
    2500:	0141                	addi	sp,sp,16
D:\Hummingbird\HBird-workspace\pico_test_1\Debug/../src/newsnake.c:112
		hdmi_draw_num(260,90,score,2,23);
    2502:	92bff06f          	j	1e2c <hdmi_draw_num>

00002506 <snakeDelay>:
snakeDelay():
D:\Hummingbird\HBird-workspace\pico_test_1\Debug/../src/newsnake.c:13
void snakeDelay(){
    2506:	6505                	lui	a0,0x1
    2508:	f4150513          	addi	a0,a0,-191 # f41 <key_val>
    250c:	00054583          	lbu	a1,0(a0)
    2510:	0007a737          	lui	a4,0x7a
    2514:	12070713          	addi	a4,a4,288 # 7a120 <_etext+0x757ac>
    2518:	4601                	li	a2,0
D:\Hummingbird\HBird-workspace\pico_test_1\Debug/../src/newsnake.c:16
		getps2 = *ps2ctrl_point;
    251a:	66c1                	lui	a3,0x10
    251c:	1006a783          	lw	a5,256(a3) # 10100 <_etext+0xb78c>
    2520:	177d                	addi	a4,a4,-1
    2522:	0ff7f793          	andi	a5,a5,255
D:\Hummingbird\HBird-workspace\pico_test_1\Debug/../src/newsnake.c:17
		if(getps2 != 0) key_val = (getps2>>4);
    2526:	c781                	beqz	a5,252e <snakeDelay+0x28>
D:\Hummingbird\HBird-workspace\pico_test_1\Debug/../src/newsnake.c:17 (discriminator 1)
    2528:	0047d593          	srli	a1,a5,0x4
    252c:	4605                	li	a2,1
D:\Hummingbird\HBird-workspace\pico_test_1\Debug/../src/newsnake.c:15
	while(delaycnt--){
    252e:	f77d                	bnez	a4,251c <snakeDelay+0x16>
    2530:	e609                	bnez	a2,253a <snakeDelay+0x34>
    2532:	6705                	lui	a4,0x1
    2534:	f4f70023          	sb	a5,-192(a4) # f40 <getps2>
D:\Hummingbird\HBird-workspace\pico_test_1\Debug/../src/newsnake.c:19
}
    2538:	8082                	ret
    253a:	00b50023          	sb	a1,0(a0)
    253e:	bfd5                	j	2532 <snakeDelay+0x2c>

00002540 <refresh>:
refresh():
D:\Hummingbird\HBird-workspace\pico_test_1\Debug/../src/newsnake.c:104
	if(snake.life==1){
    2540:	6785                	lui	a5,0x1
    2542:	cbc7c703          	lbu	a4,-836(a5) # cbc <snake>
    2546:	4785                	li	a5,1
    2548:	00f70363          	beq	a4,a5,254e <refresh+0xe>
D:\Hummingbird\HBird-workspace\pico_test_1\Debug/../src/newsnake.c:114
}
    254c:	8082                	ret
    254e:	b735                	j	247a <refresh.part.0>

00002550 <isCover>:
isCover():
D:\Hummingbird\HBird-workspace\pico_test_1\Debug/../src/newsnake.c:148
/*
判断随机产生的食物是否处于蛇体内
*/
u8 isCover(u8 snakeX[],u8 snakeY[],u8 foodX,u8 foodY){
	u8 i;
	for(i=0;i<snake.length;i++){
    2550:	6785                	lui	a5,0x1
    2552:	f177c783          	lbu	a5,-233(a5) # f17 <snake+0x25b>
    2556:	c785                	beqz	a5,257e <isCover+0x2e>
    2558:	17fd                	addi	a5,a5,-1
    255a:	0ff7f793          	andi	a5,a5,255
    255e:	0785                	addi	a5,a5,1
    2560:	97aa                	add	a5,a5,a0
    2562:	a021                	j	256a <isCover+0x1a>
    2564:	0585                	addi	a1,a1,1
D:\Hummingbird\HBird-workspace\pico_test_1\Debug/../src/newsnake.c:148 (discriminator 2)
    2566:	00f50e63          	beq	a0,a5,2582 <isCover+0x32>
D:\Hummingbird\HBird-workspace\pico_test_1\Debug/../src/newsnake.c:149
		if(snakeX[i]==foodX&&snakeY[i]==foodY)
    256a:	00054703          	lbu	a4,0(a0)
    256e:	0505                	addi	a0,a0,1
    2570:	fec71ae3          	bne	a4,a2,2564 <isCover+0x14>
D:\Hummingbird\HBird-workspace\pico_test_1\Debug/../src/newsnake.c:149 (discriminator 1)
    2574:	0005c703          	lbu	a4,0(a1)
    2578:	fed716e3          	bne	a4,a3,2564 <isCover+0x14>
D:\Hummingbird\HBird-workspace\pico_test_1\Debug/../src/newsnake.c:151
		{
		return 1;
    257c:	4785                	li	a5,1
D:\Hummingbird\HBird-workspace\pico_test_1\Debug/../src/newsnake.c:155
		}
	}
	return 0;
}
    257e:	853e                	mv	a0,a5
    2580:	8082                	ret
D:\Hummingbird\HBird-workspace\pico_test_1\Debug/../src/newsnake.c:154
	return 0;
    2582:	4781                	li	a5,0
D:\Hummingbird\HBird-workspace\pico_test_1\Debug/../src/newsnake.c:155
}
    2584:	853e                	mv	a0,a5
    2586:	8082                	ret

00002588 <isNearSelf>:
isNearSelf():
D:\Hummingbird\HBird-workspace\pico_test_1\Debug/../src/newsnake.c:162
/*
判断是否头部是否触碰到自己
*/
u8 isNearSelf(){
	u8 i;
	for(i=1;i<snake.length;i++){
    2588:	6785                	lui	a5,0x1
    258a:	cbc78793          	addi	a5,a5,-836 # cbc <snake>
    258e:	25b7c683          	lbu	a3,603(a5)
    2592:	4705                	li	a4,1
    2594:	02d77b63          	bleu	a3,a4,25ca <isNearSelf+0x42>
    2598:	16f9                	addi	a3,a3,-2
    259a:	00578713          	addi	a4,a5,5
    259e:	0ff6f693          	andi	a3,a3,255
D:\Hummingbird\HBird-workspace\pico_test_1\Debug/../src/newsnake.c:163
		if(snake.snakeX[i]==snake.headX&&snake.snakeY[i]==snake.headY)
    25a2:	0017c603          	lbu	a2,1(a5)
    25a6:	0027c583          	lbu	a1,2(a5)
    25aa:	96ba                	add	a3,a3,a4
    25ac:	0791                	addi	a5,a5,4
    25ae:	a021                	j	25b6 <isNearSelf+0x2e>
    25b0:	0785                	addi	a5,a5,1
D:\Hummingbird\HBird-workspace\pico_test_1\Debug/../src/newsnake.c:162 (discriminator 2)
	for(i=1;i<snake.length;i++){
    25b2:	00d78c63          	beq	a5,a3,25ca <isNearSelf+0x42>
D:\Hummingbird\HBird-workspace\pico_test_1\Debug/../src/newsnake.c:163
		if(snake.snakeX[i]==snake.headX&&snake.snakeY[i]==snake.headY)
    25b6:	0007c703          	lbu	a4,0(a5)
    25ba:	fec71be3          	bne	a4,a2,25b0 <isNearSelf+0x28>
D:\Hummingbird\HBird-workspace\pico_test_1\Debug/../src/newsnake.c:163 (discriminator 1)
    25be:	12c7c703          	lbu	a4,300(a5)
    25c2:	feb717e3          	bne	a4,a1,25b0 <isNearSelf+0x28>
D:\Hummingbird\HBird-workspace\pico_test_1\Debug/../src/newsnake.c:165
		{
		return 0;
    25c6:	4501                	li	a0,0
D:\Hummingbird\HBird-workspace\pico_test_1\Debug/../src/newsnake.c:169
		}
	}
	return 1;
}
    25c8:	8082                	ret
D:\Hummingbird\HBird-workspace\pico_test_1\Debug/../src/newsnake.c:168
	return 1;
    25ca:	4505                	li	a0,1
    25cc:	8082                	ret

000025ce <generateFood>:
generateFood():
D:\Hummingbird\HBird-workspace\pico_test_1\Debug/../src/newsnake.c:173
/*
产生随机的食物坐标
*/
void generateFood(){
    25ce:	1101                	addi	sp,sp,-32
    25d0:	ce06                	sw	ra,28(sp)
    25d2:	cc22                	sw	s0,24(sp)
    25d4:	ca26                	sw	s1,20(sp)
    25d6:	c84a                	sw	s2,16(sp)
    25d8:	c64e                	sw	s3,12(sp)
D:\Hummingbird\HBird-workspace\pico_test_1\Debug/../src/newsnake.c:174
		unsigned int ran=rand()%22+1; //因为贪吃蛇运动区域为10<x<230，10<y<230，取得1到22的随机数
    25da:	4959                	li	s2,22
    25dc:	10d010ef          	jal	ra,3ee8 <rand>
    25e0:	032567b3          	rem	a5,a0,s2
D:\Hummingbird\HBird-workspace\pico_test_1\Debug/../src/newsnake.c:175
		snake.foodX=(ran*2+1)*5;  //随机数取奇数再乘以5
    25e4:	6985                	lui	s3,0x1
    25e6:	cbc98993          	addi	s3,s3,-836 # cbc <snake>
    25ea:	00498493          	addi	s1,s3,4
D:\Hummingbird\HBird-workspace\pico_test_1\Debug/../src/newsnake.c:179
		ran=rand()%22+1;
		snake.foodY=(ran*2+1)*5;
	while(isCover(snake.snakeX,snake.snakeY,snake.foodX,snake.foodY)){
		ran=rand()%22+1; //因为贪吃蛇运动区域为10<x<230，10<y<230，取得1到22的随机数
    25ee:	4459                	li	s0,22
D:\Hummingbird\HBird-workspace\pico_test_1\Debug/../src/newsnake.c:174
		unsigned int ran=rand()%22+1; //因为贪吃蛇运动区域为10<x<230，10<y<230，取得1到22的随机数
    25f0:	0785                	addi	a5,a5,1
D:\Hummingbird\HBird-workspace\pico_test_1\Debug/../src/newsnake.c:175
		snake.foodX=(ran*2+1)*5;  //随机数取奇数再乘以5
    25f2:	00279713          	slli	a4,a5,0x2
    25f6:	97ba                	add	a5,a5,a4
    25f8:	0786                	slli	a5,a5,0x1
    25fa:	0795                	addi	a5,a5,5
    25fc:	26f98223          	sb	a5,612(s3)
D:\Hummingbird\HBird-workspace\pico_test_1\Debug/../src/newsnake.c:176
		ran=rand()%22+1;
    2600:	0e9010ef          	jal	ra,3ee8 <rand>
    2604:	032567b3          	rem	a5,a0,s2
isCover():
D:\Hummingbird\HBird-workspace\pico_test_1\Debug/../src/newsnake.c:148
	for(i=0;i<snake.length;i++){
    2608:	25b9c683          	lbu	a3,603(s3)
generateFood():
D:\Hummingbird\HBird-workspace\pico_test_1\Debug/../src/newsnake.c:178
	while(isCover(snake.snakeX,snake.snakeY,snake.foodX,snake.foodY)){
    260c:	2649c583          	lbu	a1,612(s3)
D:\Hummingbird\HBird-workspace\pico_test_1\Debug/../src/newsnake.c:176
		ran=rand()%22+1;
    2610:	0785                	addi	a5,a5,1
D:\Hummingbird\HBird-workspace\pico_test_1\Debug/../src/newsnake.c:177
		snake.foodY=(ran*2+1)*5;
    2612:	00279613          	slli	a2,a5,0x2
    2616:	963e                	add	a2,a2,a5
    2618:	0606                	slli	a2,a2,0x1
    261a:	0615                	addi	a2,a2,5
    261c:	0ff67613          	andi	a2,a2,255
    2620:	26c982a3          	sb	a2,613(s3)
isCover():
D:\Hummingbird\HBird-workspace\pico_test_1\Debug/../src/newsnake.c:148
	for(i=0;i<snake.length;i++){
    2624:	c2b5                	beqz	a3,2688 <generateFood+0xba>
    2626:	16fd                	addi	a3,a3,-1
    2628:	0ff6f693          	andi	a3,a3,255
    262c:	00398793          	addi	a5,s3,3
    2630:	96a6                	add	a3,a3,s1
    2632:	a021                	j	263a <generateFood+0x6c>
    2634:	0785                	addi	a5,a5,1
    2636:	04d78963          	beq	a5,a3,2688 <generateFood+0xba>
D:\Hummingbird\HBird-workspace\pico_test_1\Debug/../src/newsnake.c:149
		if(snakeX[i]==foodX&&snakeY[i]==foodY)
    263a:	0007c703          	lbu	a4,0(a5)
    263e:	feb71be3          	bne	a4,a1,2634 <generateFood+0x66>
    2642:	12c7c703          	lbu	a4,300(a5)
    2646:	fec717e3          	bne	a4,a2,2634 <generateFood+0x66>
generateFood():
D:\Hummingbird\HBird-workspace\pico_test_1\Debug/../src/newsnake.c:179
		ran=rand()%22+1; //因为贪吃蛇运动区域为10<x<230，10<y<230，取得1到22的随机数
    264a:	09f010ef          	jal	ra,3ee8 <rand>
    264e:	02856533          	rem	a0,a0,s0
    2652:	0505                	addi	a0,a0,1
D:\Hummingbird\HBird-workspace\pico_test_1\Debug/../src/newsnake.c:180
		snake.foodX=(ran*2+1)*5;  //随机数取奇数再乘以5
    2654:	00251793          	slli	a5,a0,0x2
    2658:	953e                	add	a0,a0,a5
    265a:	0506                	slli	a0,a0,0x1
    265c:	0515                	addi	a0,a0,5
    265e:	26a98223          	sb	a0,612(s3)
D:\Hummingbird\HBird-workspace\pico_test_1\Debug/../src/newsnake.c:181
		ran=rand()%22+1;
    2662:	087010ef          	jal	ra,3ee8 <rand>
    2666:	02856533          	rem	a0,a0,s0
isCover():
D:\Hummingbird\HBird-workspace\pico_test_1\Debug/../src/newsnake.c:148
	for(i=0;i<snake.length;i++){
    266a:	25b9c683          	lbu	a3,603(s3)
generateFood():
D:\Hummingbird\HBird-workspace\pico_test_1\Debug/../src/newsnake.c:178
	while(isCover(snake.snakeX,snake.snakeY,snake.foodX,snake.foodY)){
    266e:	2649c583          	lbu	a1,612(s3)
D:\Hummingbird\HBird-workspace\pico_test_1\Debug/../src/newsnake.c:181
		ran=rand()%22+1;
    2672:	0505                	addi	a0,a0,1
D:\Hummingbird\HBird-workspace\pico_test_1\Debug/../src/newsnake.c:182
		snake.foodY=(ran*2+1)*5;
    2674:	00251613          	slli	a2,a0,0x2
    2678:	962a                	add	a2,a2,a0
    267a:	0606                	slli	a2,a2,0x1
    267c:	0615                	addi	a2,a2,5
    267e:	0ff67613          	andi	a2,a2,255
    2682:	26c982a3          	sb	a2,613(s3)
isCover():
D:\Hummingbird\HBird-workspace\pico_test_1\Debug/../src/newsnake.c:148
	for(i=0;i<snake.length;i++){
    2686:	f2c5                	bnez	a3,2626 <generateFood+0x58>
generateFood():
D:\Hummingbird\HBird-workspace\pico_test_1\Debug/../src/newsnake.c:185
	}

}
    2688:	40f2                	lw	ra,28(sp)
    268a:	4462                	lw	s0,24(sp)
    268c:	44d2                	lw	s1,20(sp)
    268e:	4942                	lw	s2,16(sp)
    2690:	49b2                	lw	s3,12(sp)
    2692:	6105                	addi	sp,sp,32
    2694:	8082                	ret

00002696 <snakeInit>:
snakeInit():
D:\Hummingbird\HBird-workspace\pico_test_1\Debug/../src/newsnake.c:25
void snakeInit(){
    2696:	1141                	addi	sp,sp,-16
    2698:	c422                	sw	s0,8(sp)
D:\Hummingbird\HBird-workspace\pico_test_1\Debug/../src/newsnake.c:26
	snake.length=3;           //初始长度为3
    269a:	6405                	lui	s0,0x1
D:\Hummingbird\HBird-workspace\pico_test_1\Debug/../src/newsnake.c:25
void snakeInit(){
    269c:	c226                	sw	s1,4(sp)
    269e:	c606                	sw	ra,12(sp)
D:\Hummingbird\HBird-workspace\pico_test_1\Debug/../src/newsnake.c:26
	snake.length=3;           //初始长度为3
    26a0:	cbc40413          	addi	s0,s0,-836 # cbc <snake>
    26a4:	478d                	li	a5,3
    26a6:	24f40da3          	sb	a5,603(s0)
D:\Hummingbird\HBird-workspace\pico_test_1\Debug/../src/newsnake.c:32
	snake.snakeY[0]=55;
    26aa:	03700793          	li	a5,55
    26ae:	12f407a3          	sb	a5,303(s0)
D:\Hummingbird\HBird-workspace\pico_test_1\Debug/../src/newsnake.c:33
	snake.snakeY[1]=65;
    26b2:	04100793          	li	a5,65
    26b6:	12f40823          	sb	a5,304(s0)
D:\Hummingbird\HBird-workspace\pico_test_1\Debug/../src/newsnake.c:34
	snake.snakeY[2]=75;
    26ba:	04b00793          	li	a5,75
    26be:	12f408a3          	sb	a5,305(s0)
D:\Hummingbird\HBird-workspace\pico_test_1\Debug/../src/newsnake.c:41
	snake.life=1; //1：蛇还活着；0：蛇死亡
    26c2:	373737b7          	lui	a5,0x37373
    26c6:	70178793          	addi	a5,a5,1793 # 37373701 <_etext+0x3736ed8d>
    26ca:	c01c                	sw	a5,0(s0)
D:\Hummingbird\HBird-workspace\pico_test_1\Debug/../src/newsnake.c:28
	snake.snakeX[0]=55;
    26cc:	678d                	lui	a5,0x3
    26ce:	73778793          	addi	a5,a5,1847 # 3737 <__subdf3+0x2bb>
D:\Hummingbird\HBird-workspace\pico_test_1\Debug/../src/newsnake.c:38
	snake.dir=1;  //设置运动方向
    26d2:	4485                	li	s1,1
D:\Hummingbird\HBird-workspace\pico_test_1\Debug/../src/newsnake.c:28
	snake.snakeX[0]=55;
    26d4:	00f41223          	sh	a5,4(s0)
D:\Hummingbird\HBird-workspace\pico_test_1\Debug/../src/newsnake.c:38
	snake.dir=1;  //设置运动方向
    26d8:	24942e23          	sw	s1,604(s0)
D:\Hummingbird\HBird-workspace\pico_test_1\Debug/../src/newsnake.c:39
	snake.tpdir=1;//设置初始按键方向
    26dc:	26942023          	sw	s1,608(s0)
D:\Hummingbird\HBird-workspace\pico_test_1\Debug/../src/newsnake.c:43
	generateFood();//生成食物
    26e0:	35fd                	jal	25ce <generateFood>
refresh():
D:\Hummingbird\HBird-workspace\pico_test_1\Debug/../src/newsnake.c:104
	if(snake.life==1){
    26e2:	00044783          	lbu	a5,0(s0)
    26e6:	00978763          	beq	a5,s1,26f4 <snakeInit+0x5e>
snakeInit():
D:\Hummingbird\HBird-workspace\pico_test_1\Debug/../src/newsnake.c:46
}
    26ea:	40b2                	lw	ra,12(sp)
    26ec:	4422                	lw	s0,8(sp)
    26ee:	4492                	lw	s1,4(sp)
    26f0:	0141                	addi	sp,sp,16
    26f2:	8082                	ret
    26f4:	4422                	lw	s0,8(sp)
    26f6:	40b2                	lw	ra,12(sp)
    26f8:	4492                	lw	s1,4(sp)
    26fa:	0141                	addi	sp,sp,16
refresh():
    26fc:	bbbd                	j	247a <refresh.part.0>

000026fe <dead>:
dead():
D:\Hummingbird\HBird-workspace\pico_test_1\Debug/../src/newsnake.c:190

/*
在头部撞到墙之后执行死亡程序
*/
void dead(){
    26fe:	1101                	addi	sp,sp,-32
    2700:	c84a                	sw	s2,16(sp)
D:\Hummingbird\HBird-workspace\pico_test_1\Debug/../src/newsnake.c:206
	snake.headX=snake.snakeX[0];
	snake.headY=snake.snakeY[0];
	snake.dir=0;

	snake.life=0;
	hdmi_draw_string(80,50,"You dead!!!",20);
    2702:	00004637          	lui	a2,0x4
D:\Hummingbird\HBird-workspace\pico_test_1\Debug/../src/newsnake.c:191
	snake.length=0;
    2706:	6905                	lui	s2,0x1
    2708:	cbc90913          	addi	s2,s2,-836 # cbc <snake>
D:\Hummingbird\HBird-workspace\pico_test_1\Debug/../src/newsnake.c:206
	hdmi_draw_string(80,50,"You dead!!!",20);
    270c:	46d1                	li	a3,20
    270e:	68860613          	addi	a2,a2,1672 # 4688 <bitmap_bytes+0x110>
    2712:	03200593          	li	a1,50
    2716:	05000513          	li	a0,80
D:\Hummingbird\HBird-workspace\pico_test_1\Debug/../src/newsnake.c:190
void dead(){
    271a:	ce06                	sw	ra,28(sp)
    271c:	cc22                	sw	s0,24(sp)
    271e:	ca26                	sw	s1,20(sp)
    2720:	c64e                	sw	s3,12(sp)
    2722:	c452                	sw	s4,8(sp)
D:\Hummingbird\HBird-workspace\pico_test_1\Debug/../src/newsnake.c:191
	snake.length=0;
    2724:	24090da3          	sb	zero,603(s2)
D:\Hummingbird\HBird-workspace\pico_test_1\Debug/../src/newsnake.c:197
	snake.snakeY[0]=0;
    2728:	120907a3          	sb	zero,303(s2)
D:\Hummingbird\HBird-workspace\pico_test_1\Debug/../src/newsnake.c:198
	snake.snakeY[1]=0;
    272c:	12090823          	sb	zero,304(s2)
D:\Hummingbird\HBird-workspace\pico_test_1\Debug/../src/newsnake.c:199
	snake.snakeY[2]=0;
    2730:	120908a3          	sb	zero,305(s2)
D:\Hummingbird\HBird-workspace\pico_test_1\Debug/../src/newsnake.c:203
	snake.dir=0;
    2734:	24092e23          	sw	zero,604(s2)
D:\Hummingbird\HBird-workspace\pico_test_1\Debug/../src/newsnake.c:205
	snake.life=0;
    2738:	00092023          	sw	zero,0(s2)
D:\Hummingbird\HBird-workspace\pico_test_1\Debug/../src/newsnake.c:193
	snake.snakeX[0]=0;
    273c:	00091223          	sh	zero,4(s2)
D:\Hummingbird\HBird-workspace\pico_test_1\Debug/../src/newsnake.c:206
	hdmi_draw_string(80,50,"You dead!!!",20);
    2740:	ddcff0ef          	jal	ra,1d1c <hdmi_draw_string>
D:\Hummingbird\HBird-workspace\pico_test_1\Debug/../src/newsnake.c:207
	hdmi_draw_string(50,70,"Press 'B'to restart",20);
    2744:	00004637          	lui	a2,0x4
    2748:	46d1                	li	a3,20
    274a:	69460613          	addi	a2,a2,1684 # 4694 <bitmap_bytes+0x11c>
    274e:	04600593          	li	a1,70
    2752:	03200513          	li	a0,50
    2756:	dc6ff0ef          	jal	ra,1d1c <hdmi_draw_string>
D:\Hummingbird\HBird-workspace\pico_test_1\Debug/../src/newsnake.c:208
	hdmi_draw_string(40,70,"Press 'X'to quit",20);
    275a:	00004637          	lui	a2,0x4
    275e:	46d1                	li	a3,20
    2760:	6a860613          	addi	a2,a2,1704 # 46a8 <bitmap_bytes+0x130>
    2764:	04600593          	li	a1,70
    2768:	02800513          	li	a0,40
    276c:	db0ff0ef          	jal	ra,1d1c <hdmi_draw_string>
D:\Hummingbird\HBird-workspace\pico_test_1\Debug/../src/newsnake.c:209
	hdmi_draw_string(250,70,"Score:",22);
    2770:	00004637          	lui	a2,0x4
    2774:	46d9                	li	a3,22
    2776:	6bc60613          	addi	a2,a2,1724 # 46bc <bitmap_bytes+0x144>
    277a:	04600593          	li	a1,70
    277e:	0fa00513          	li	a0,250
D:\Hummingbird\HBird-workspace\pico_test_1\Debug/../src/newsnake.c:210
	hdmi_draw_num(260,90,score,2,23);
    2782:	6405                	lui	s0,0x1
D:\Hummingbird\HBird-workspace\pico_test_1\Debug/../src/newsnake.c:209
	hdmi_draw_string(250,70,"Score:",22);
    2784:	d98ff0ef          	jal	ra,1d1c <hdmi_draw_string>
D:\Hummingbird\HBird-workspace\pico_test_1\Debug/../src/newsnake.c:210
	hdmi_draw_num(260,90,score,2,23);
    2788:	f4240413          	addi	s0,s0,-190 # f42 <score>
    278c:	00045603          	lhu	a2,0(s0)
    2790:	475d                	li	a4,23
    2792:	4689                	li	a3,2
    2794:	05a00593          	li	a1,90
    2798:	10400513          	li	a0,260
D:\Hummingbird\HBird-workspace\pico_test_1\Debug/../src/newsnake.c:211
	getps2 = 0;
    279c:	6985                	lui	s3,0x1
D:\Hummingbird\HBird-workspace\pico_test_1\Debug/../src/newsnake.c:210
	hdmi_draw_num(260,90,score,2,23);
    279e:	e8eff0ef          	jal	ra,1e2c <hdmi_draw_num>
D:\Hummingbird\HBird-workspace\pico_test_1\Debug/../src/newsnake.c:211
	getps2 = 0;
    27a2:	f4098993          	addi	s3,s3,-192 # f40 <getps2>
D:\Hummingbird\HBird-workspace\pico_test_1\Debug/../src/newsnake.c:212
	score = 0;
    27a6:	00041023          	sh	zero,0(s0)
D:\Hummingbird\HBird-workspace\pico_test_1\Debug/../src/newsnake.c:211
	getps2 = 0;
    27aa:	00098023          	sb	zero,0(s3)
D:\Hummingbird\HBird-workspace\pico_test_1\Debug/../src/newsnake.c:213
	while(getps2 == 0){
    27ae:	4781                	li	a5,0
D:\Hummingbird\HBird-workspace\pico_test_1\Debug/../src/newsnake.c:214
		getps2 = *ps2ctrl_point;
    27b0:	64c1                	lui	s1,0x10
D:\Hummingbird\HBird-workspace\pico_test_1\Debug/../src/newsnake.c:215
		if(getps2  == 0b00000010){
    27b2:	4409                	li	s0,2
    27b4:	4a05                	li	s4,1
D:\Hummingbird\HBird-workspace\pico_test_1\Debug/../src/newsnake.c:213
	while(getps2 == 0){
    27b6:	4701                	li	a4,0
    27b8:	e38d                	bnez	a5,27da <dead+0xdc>
D:\Hummingbird\HBird-workspace\pico_test_1\Debug/../src/newsnake.c:214
		getps2 = *ps2ctrl_point;
    27ba:	1004a783          	lw	a5,256(s1) # 10100 <_etext+0xb78c>
    27be:	4705                	li	a4,1
    27c0:	0ff7f793          	andi	a5,a5,255
D:\Hummingbird\HBird-workspace\pico_test_1\Debug/../src/newsnake.c:215
		if(getps2  == 0b00000010){
    27c4:	fe879ae3          	bne	a5,s0,27b8 <dead+0xba>
    27c8:	00f98023          	sb	a5,0(s3)
D:\Hummingbird\HBird-workspace\pico_test_1\Debug/../src/newsnake.c:216
			snake.life=1;  //死了之后点击重新开始
    27cc:	01490023          	sb	s4,0(s2)
D:\Hummingbird\HBird-workspace\pico_test_1\Debug/../src/newsnake.c:217
			snakeInit();
    27d0:	35d9                	jal	2696 <snakeInit>
    27d2:	0009c783          	lbu	a5,0(s3)
D:\Hummingbird\HBird-workspace\pico_test_1\Debug/../src/newsnake.c:213
	while(getps2 == 0){
    27d6:	4701                	li	a4,0
    27d8:	b7c5                	j	27b8 <dead+0xba>
    27da:	eb09                	bnez	a4,27ec <dead+0xee>
D:\Hummingbird\HBird-workspace\pico_test_1\Debug/../src/newsnake.c:220
		}
	}
}
    27dc:	40f2                	lw	ra,28(sp)
    27de:	4462                	lw	s0,24(sp)
    27e0:	44d2                	lw	s1,20(sp)
    27e2:	4942                	lw	s2,16(sp)
    27e4:	49b2                	lw	s3,12(sp)
    27e6:	4a22                	lw	s4,8(sp)
    27e8:	6105                	addi	sp,sp,32
    27ea:	8082                	ret
    27ec:	00f98023          	sb	a5,0(s3)
    27f0:	b7f5                	j	27dc <dead+0xde>

000027f2 <snakeGo>:
snakeGo():
D:\Hummingbird\HBird-workspace\pico_test_1\Debug/../src/newsnake.c:50
void snakeGo(int direct){
    27f2:	1141                	addi	sp,sp,-16
    27f4:	c422                	sw	s0,8(sp)
D:\Hummingbird\HBird-workspace\pico_test_1\Debug/../src/newsnake.c:52
	if(snake.life==1){
    27f6:	6405                	lui	s0,0x1
D:\Hummingbird\HBird-workspace\pico_test_1\Debug/../src/newsnake.c:50
void snakeGo(int direct){
    27f8:	c606                	sw	ra,12(sp)
D:\Hummingbird\HBird-workspace\pico_test_1\Debug/../src/newsnake.c:52
	if(snake.life==1){
    27fa:	cbc40413          	addi	s0,s0,-836 # cbc <snake>
    27fe:	00044703          	lbu	a4,0(s0)
    2802:	4785                	li	a5,1
    2804:	06f70263          	beq	a4,a5,2868 <snakeGo+0x76>
    2808:	00244603          	lbu	a2,2(s0)
D:\Hummingbird\HBird-workspace\pico_test_1\Debug/../src/newsnake.c:92
	if(snake.headY<230&&snake.headY>10&&snake.headX<230&&snake.headX>10&&isNearSelf()){
    280c:	ff560793          	addi	a5,a2,-11
    2810:	0ff7f793          	andi	a5,a5,255
    2814:	0da00713          	li	a4,218
    2818:	04f76463          	bltu	a4,a5,2860 <snakeGo+0x6e>
D:\Hummingbird\HBird-workspace\pico_test_1\Debug/../src/newsnake.c:92 (discriminator 1)
    281c:	00144683          	lbu	a3,1(s0)
    2820:	ff568793          	addi	a5,a3,-11
    2824:	0ff7f793          	andi	a5,a5,255
    2828:	02f76c63          	bltu	a4,a5,2860 <snakeGo+0x6e>
isNearSelf():
D:\Hummingbird\HBird-workspace\pico_test_1\Debug/../src/newsnake.c:162
	for(i=1;i<snake.length;i++){
    282c:	25b44583          	lbu	a1,603(s0)
    2830:	4785                	li	a5,1
    2832:	0eb7f463          	bleu	a1,a5,291a <snakeGo+0x128>
    2836:	ffe58713          	addi	a4,a1,-2
    283a:	0ff77713          	andi	a4,a4,255
    283e:	00540593          	addi	a1,s0,5
    2842:	00440793          	addi	a5,s0,4
    2846:	95ba                	add	a1,a1,a4
    2848:	a021                	j	2850 <snakeGo+0x5e>
    284a:	0785                	addi	a5,a5,1
    284c:	0cb78763          	beq	a5,a1,291a <snakeGo+0x128>
D:\Hummingbird\HBird-workspace\pico_test_1\Debug/../src/newsnake.c:163
		if(snake.snakeX[i]==snake.headX&&snake.snakeY[i]==snake.headY)
    2850:	0007c703          	lbu	a4,0(a5)
    2854:	fed71be3          	bne	a4,a3,284a <snakeGo+0x58>
    2858:	12c7c703          	lbu	a4,300(a5)
    285c:	fec717e3          	bne	a4,a2,284a <snakeGo+0x58>
snakeGo():
D:\Hummingbird\HBird-workspace\pico_test_1\Debug/../src/newsnake.c:98
}
    2860:	4422                	lw	s0,8(sp)
    2862:	40b2                	lw	ra,12(sp)
    2864:	0141                	addi	sp,sp,16
D:\Hummingbird\HBird-workspace\pico_test_1\Debug/../src/newsnake.c:96
		dead();
    2866:	bd61                	j	26fe <dead>
D:\Hummingbird\HBird-workspace\pico_test_1\Debug/../src/newsnake.c:53
		if(abs(direct)!=abs(snake.dir) && direct != 0){	//如果按下的方向不是和运动的方向相同或相反
    2868:	25c42783          	lw	a5,604(s0)
    286c:	41f55593          	srai	a1,a0,0x1f
    2870:	00a5c6b3          	xor	a3,a1,a0
    2874:	41f7d613          	srai	a2,a5,0x1f
    2878:	00f64733          	xor	a4,a2,a5
    287c:	8e8d                	sub	a3,a3,a1
    287e:	8f11                	sub	a4,a4,a2
    2880:	00e68363          	beq	a3,a4,2886 <snakeGo+0x94>
D:\Hummingbird\HBird-workspace\pico_test_1\Debug/../src/newsnake.c:53 (discriminator 1)
    2884:	ed35                	bnez	a0,2900 <snakeGo+0x10e>
D:\Hummingbird\HBird-workspace\pico_test_1\Debug/../src/newsnake.c:58
		switch(direct){
    2886:	577d                	li	a4,-1
    2888:	0ee78f63          	beq	a5,a4,2986 <snakeGo+0x194>
    288c:	0607ce63          	bltz	a5,2908 <snakeGo+0x116>
    2890:	4705                	li	a4,1
    2892:	10e78063          	beq	a5,a4,2992 <snakeGo+0x1a0>
    2896:	4709                	li	a4,2
    2898:	00e79763          	bne	a5,a4,28a6 <snakeGo+0xb4>
D:\Hummingbird\HBird-workspace\pico_test_1\Debug/../src/newsnake.c:66
				snake.headX-=10;  //左：蛇的身体是有半径为5的圆组成，每运动一格的单位为10
    289c:	00144783          	lbu	a5,1(s0)
    28a0:	17d9                	addi	a5,a5,-10
    28a2:	00f400a3          	sb	a5,1(s0)
D:\Hummingbird\HBird-workspace\pico_test_1\Debug/../src/newsnake.c:72
		if(snake.headX==snake.foodX&&snake.headY==snake.foodY){ //如果吃到了食物
    28a6:	401c                	lw	a5,0(s0)
    28a8:	26441683          	lh	a3,612(s0)
    28ac:	6741                	lui	a4,0x10
    28ae:	07a2                	slli	a5,a5,0x8
    28b0:	177d                	addi	a4,a4,-1
    28b2:	87c1                	srai	a5,a5,0x10
    28b4:	8ff9                	and	a5,a5,a4
    28b6:	8ef9                	and	a3,a3,a4
    28b8:	25b44703          	lbu	a4,603(s0)
    28bc:	06d78663          	beq	a5,a3,2928 <snakeGo+0x136>
D:\Hummingbird\HBird-workspace\pico_test_1\Debug/../src/newsnake.c:83
			for(i=1;i<snake.length;i++){
    28c0:	4785                	li	a5,1
    28c2:	02e7f663          	bleu	a4,a5,28ee <snakeGo+0xfc>
    28c6:	ffe70693          	addi	a3,a4,-2 # fffe <_etext+0xb68a>
    28ca:	00170793          	addi	a5,a4,1
    28ce:	0ff6f693          	andi	a3,a3,255
    28d2:	9722                	add	a4,a4,s0
    28d4:	97a2                	add	a5,a5,s0
    28d6:	8f15                	sub	a4,a4,a3
D:\Hummingbird\HBird-workspace\pico_test_1\Debug/../src/newsnake.c:84 (discriminator 3)
				snake.snakeX[snake.length-i]=snake.snakeX[snake.length-i-1];
    28d8:	0007c603          	lbu	a2,0(a5)
D:\Hummingbird\HBird-workspace\pico_test_1\Debug/../src/newsnake.c:85 (discriminator 3)
				snake.snakeY[snake.length-i]=snake.snakeY[snake.length-i-1];
    28dc:	12c7c683          	lbu	a3,300(a5)
    28e0:	17fd                	addi	a5,a5,-1
D:\Hummingbird\HBird-workspace\pico_test_1\Debug/../src/newsnake.c:84 (discriminator 3)
				snake.snakeX[snake.length-i]=snake.snakeX[snake.length-i-1];
    28e2:	00c78123          	sb	a2,2(a5)
D:\Hummingbird\HBird-workspace\pico_test_1\Debug/../src/newsnake.c:85 (discriminator 3)
				snake.snakeY[snake.length-i]=snake.snakeY[snake.length-i-1];
    28e6:	12d78723          	sb	a3,302(a5)
D:\Hummingbird\HBird-workspace\pico_test_1\Debug/../src/newsnake.c:83 (discriminator 3)
			for(i=1;i<snake.length;i++){
    28ea:	fee797e3          	bne	a5,a4,28d8 <snakeGo+0xe6>
D:\Hummingbird\HBird-workspace\pico_test_1\Debug/../src/newsnake.c:87
			snake.snakeX[0]=snake.headX;
    28ee:	00144783          	lbu	a5,1(s0)
D:\Hummingbird\HBird-workspace\pico_test_1\Debug/../src/newsnake.c:88
			snake.snakeY[0]=snake.headY;
    28f2:	00244603          	lbu	a2,2(s0)
D:\Hummingbird\HBird-workspace\pico_test_1\Debug/../src/newsnake.c:87
			snake.snakeX[0]=snake.headX;
    28f6:	00f401a3          	sb	a5,3(s0)
D:\Hummingbird\HBird-workspace\pico_test_1\Debug/../src/newsnake.c:88
			snake.snakeY[0]=snake.headY;
    28fa:	12c407a3          	sb	a2,303(s0)
    28fe:	b739                	j	280c <snakeGo+0x1a>
D:\Hummingbird\HBird-workspace\pico_test_1\Debug/../src/newsnake.c:54
			snake.dir=direct; //将蛇运动的方向改变为按下的方向
    2900:	24a42e23          	sw	a0,604(s0)
    2904:	87aa                	mv	a5,a0
    2906:	b741                	j	2886 <snakeGo+0x94>
D:\Hummingbird\HBird-workspace\pico_test_1\Debug/../src/newsnake.c:58
		switch(direct){
    2908:	5779                	li	a4,-2
    290a:	f8e79ee3          	bne	a5,a4,28a6 <snakeGo+0xb4>
D:\Hummingbird\HBird-workspace\pico_test_1\Debug/../src/newsnake.c:69
				snake.headX+=10;  //右：蛇的身体是有半径为5的圆组成，每运动一格的单位为10
    290e:	00144783          	lbu	a5,1(s0)
    2912:	07a9                	addi	a5,a5,10
    2914:	00f400a3          	sb	a5,1(s0)
D:\Hummingbird\HBird-workspace\pico_test_1\Debug/../src/newsnake.c:70
			break;
    2918:	b779                	j	28a6 <snakeGo+0xb4>
D:\Hummingbird\HBird-workspace\pico_test_1\Debug/../src/newsnake.c:93
		snake.life=1;
    291a:	4785                	li	a5,1
    291c:	00f40023          	sb	a5,0(s0)
D:\Hummingbird\HBird-workspace\pico_test_1\Debug/../src/newsnake.c:98
}
    2920:	40b2                	lw	ra,12(sp)
    2922:	4422                	lw	s0,8(sp)
    2924:	0141                	addi	sp,sp,16
    2926:	8082                	ret
D:\Hummingbird\HBird-workspace\pico_test_1\Debug/../src/newsnake.c:74
			score++;
    2928:	6785                	lui	a5,0x1
    292a:	f4278793          	addi	a5,a5,-190 # f42 <score>
    292e:	0007d603          	lhu	a2,0(a5)
D:\Hummingbird\HBird-workspace\pico_test_1\Debug/../src/newsnake.c:73
			snake.length++;  //长度加1
    2932:	00170693          	addi	a3,a4,1
    2936:	0ff6f693          	andi	a3,a3,255
D:\Hummingbird\HBird-workspace\pico_test_1\Debug/../src/newsnake.c:74
			score++;
    293a:	0605                	addi	a2,a2,1
    293c:	00c79023          	sh	a2,0(a5)
D:\Hummingbird\HBird-workspace\pico_test_1\Debug/../src/newsnake.c:73
			snake.length++;  //长度加1
    2940:	24d40da3          	sb	a3,603(s0)
D:\Hummingbird\HBird-workspace\pico_test_1\Debug/../src/newsnake.c:75
			for(i=1;i<snake.length;i++){ //除头部以外的坐标前移
    2944:	4785                	li	a5,1
    2946:	02d7f663          	bleu	a3,a5,2972 <snakeGo+0x180>
    294a:	177d                	addi	a4,a4,-1
    294c:	00168793          	addi	a5,a3,1
    2950:	0ff77713          	andi	a4,a4,255
    2954:	96a2                	add	a3,a3,s0
    2956:	97a2                	add	a5,a5,s0
    2958:	40e68733          	sub	a4,a3,a4
D:\Hummingbird\HBird-workspace\pico_test_1\Debug/../src/newsnake.c:76 (discriminator 3)
				snake.snakeX[snake.length-i]=snake.snakeX[snake.length-i-1];
    295c:	0007c603          	lbu	a2,0(a5)
D:\Hummingbird\HBird-workspace\pico_test_1\Debug/../src/newsnake.c:77 (discriminator 3)
				snake.snakeY[snake.length-i]=snake.snakeY[snake.length-i-1];
    2960:	12c7c683          	lbu	a3,300(a5)
    2964:	17fd                	addi	a5,a5,-1
D:\Hummingbird\HBird-workspace\pico_test_1\Debug/../src/newsnake.c:76 (discriminator 3)
				snake.snakeX[snake.length-i]=snake.snakeX[snake.length-i-1];
    2966:	00c78123          	sb	a2,2(a5)
D:\Hummingbird\HBird-workspace\pico_test_1\Debug/../src/newsnake.c:77 (discriminator 3)
				snake.snakeY[snake.length-i]=snake.snakeY[snake.length-i-1];
    296a:	12d78723          	sb	a3,302(a5)
D:\Hummingbird\HBird-workspace\pico_test_1\Debug/../src/newsnake.c:75 (discriminator 3)
			for(i=1;i<snake.length;i++){ //除头部以外的坐标前移
    296e:	fee797e3          	bne	a5,a4,295c <snakeGo+0x16a>
D:\Hummingbird\HBird-workspace\pico_test_1\Debug/../src/newsnake.c:79
			snake.snakeX[0]=snake.foodX; //头部坐标等于食物的坐标
    2972:	26444703          	lbu	a4,612(s0)
D:\Hummingbird\HBird-workspace\pico_test_1\Debug/../src/newsnake.c:80
			snake.snakeY[0]=snake.foodY;
    2976:	26544783          	lbu	a5,613(s0)
D:\Hummingbird\HBird-workspace\pico_test_1\Debug/../src/newsnake.c:79
			snake.snakeX[0]=snake.foodX; //头部坐标等于食物的坐标
    297a:	00e401a3          	sb	a4,3(s0)
D:\Hummingbird\HBird-workspace\pico_test_1\Debug/../src/newsnake.c:80
			snake.snakeY[0]=snake.foodY;
    297e:	12f407a3          	sb	a5,303(s0)
D:\Hummingbird\HBird-workspace\pico_test_1\Debug/../src/newsnake.c:81
			generateFood();  //再生成一个食物
    2982:	31b1                	jal	25ce <generateFood>
    2984:	b551                	j	2808 <snakeGo+0x16>
D:\Hummingbird\HBird-workspace\pico_test_1\Debug/../src/newsnake.c:63
				snake.headY+=10;  //下：蛇的身体是有半径为5的圆组成，每运动一格的单位为10
    2986:	00244783          	lbu	a5,2(s0)
    298a:	07a9                	addi	a5,a5,10
    298c:	00f40123          	sb	a5,2(s0)
D:\Hummingbird\HBird-workspace\pico_test_1\Debug/../src/newsnake.c:64
			break;
    2990:	bf19                	j	28a6 <snakeGo+0xb4>
D:\Hummingbird\HBird-workspace\pico_test_1\Debug/../src/newsnake.c:60
				snake.headY-=10;  //上：蛇的身体是有半径为5的圆组成，每运动一格的单位为10
    2992:	00244783          	lbu	a5,2(s0)
    2996:	17d9                	addi	a5,a5,-10
    2998:	00f40123          	sb	a5,2(s0)
D:\Hummingbird\HBird-workspace\pico_test_1\Debug/../src/newsnake.c:61
			break;
    299c:	b729                	j	28a6 <snakeGo+0xb4>

0000299e <GameStart>:
GameStart():
D:\Hummingbird\HBird-workspace\pico_test_1\Debug/../src/newsnake.c:124
void GameStart(){
    299e:	7179                	addi	sp,sp,-48
D:\Hummingbird\HBird-workspace\pico_test_1\Debug/../src/newsnake.c:125
	hdmi_drawrectangle(10,10,230,230,25);
    29a0:	4765                	li	a4,25
    29a2:	0e600693          	li	a3,230
    29a6:	0e600613          	li	a2,230
    29aa:	45a9                	li	a1,10
    29ac:	4529                	li	a0,10
D:\Hummingbird\HBird-workspace\pico_test_1\Debug/../src/newsnake.c:124
void GameStart(){
    29ae:	d606                	sw	ra,44(sp)
    29b0:	d226                	sw	s1,36(sp)
    29b2:	d04a                	sw	s2,32(sp)
    29b4:	ce4e                	sw	s3,28(sp)
    29b6:	cc52                	sw	s4,24(sp)
    29b8:	ca56                	sw	s5,20(sp)
    29ba:	c85a                	sw	s6,16(sp)
    29bc:	c462                	sw	s8,8(sp)
    29be:	d422                	sw	s0,40(sp)
    29c0:	c65e                	sw	s7,12(sp)
    29c2:	c266                	sw	s9,4(sp)
D:\Hummingbird\HBird-workspace\pico_test_1\Debug/../src/newsnake.c:125
	hdmi_drawrectangle(10,10,230,230,25);
    29c4:	93bff0ef          	jal	ra,22fe <hdmi_drawrectangle>
D:\Hummingbird\HBird-workspace\pico_test_1\Debug/../src/newsnake.c:126
	hdmi_draw_string(250,70,"Score:",22);
    29c8:	00004637          	lui	a2,0x4
    29cc:	46d9                	li	a3,22
    29ce:	6bc60613          	addi	a2,a2,1724 # 46bc <bitmap_bytes+0x144>
    29d2:	04600593          	li	a1,70
    29d6:	0fa00513          	li	a0,250
    29da:	b42ff0ef          	jal	ra,1d1c <hdmi_draw_string>
D:\Hummingbird\HBird-workspace\pico_test_1\Debug/../src/newsnake.c:127
	hdmi_draw_num(260,90,score,2,23);
    29de:	6785                	lui	a5,0x1
    29e0:	f427d603          	lhu	a2,-190(a5) # f42 <score>
    29e4:	475d                	li	a4,23
    29e6:	4689                	li	a3,2
    29e8:	05a00593          	li	a1,90
    29ec:	10400513          	li	a0,260
    29f0:	6985                	lui	s3,0x1
    29f2:	6b05                	lui	s6,0x1
    29f4:	6485                	lui	s1,0x1
    29f6:	c36ff0ef          	jal	ra,1e2c <hdmi_draw_num>
    29fa:	f4198993          	addi	s3,s3,-191 # f41 <key_val>
D:\Hummingbird\HBird-workspace\pico_test_1\Debug/../src/newsnake.c:128
	snakeInit();
    29fe:	3961                	jal	2696 <snakeInit>
    2a00:	f40b0b13          	addi	s6,s6,-192 # f40 <getps2>
    2a04:	cbc48493          	addi	s1,s1,-836 # cbc <snake>
D:\Hummingbird\HBird-workspace\pico_test_1\Debug/../src/newsnake.c:124
void GameStart(){
    2a08:	0007aa37          	lui	s4,0x7a
snakeDelay():
D:\Hummingbird\HBird-workspace\pico_test_1\Debug/../src/newsnake.c:17
		if(getps2 != 0) key_val = (getps2>>4);
    2a0c:	4905                	li	s2,1
GameStart():
D:\Hummingbird\HBird-workspace\pico_test_1\Debug/../src/newsnake.c:135
			case 2:snake.tpdir = -1;break;//下
    2a0e:	5c7d                	li	s8,-1
D:\Hummingbird\HBird-workspace\pico_test_1\Debug/../src/newsnake.c:133
		switch(key_val){
    2a10:	4a91                	li	s5,4
snakeDelay():
D:\Hummingbird\HBird-workspace\pico_test_1\Debug/../src/newsnake.c:16
		getps2 = *ps2ctrl_point;
    2a12:	6441                	lui	s0,0x10
GameStart():
D:\Hummingbird\HBird-workspace\pico_test_1\Debug/../src/newsnake.c:133
		switch(key_val){
    2a14:	4c89                	li	s9,2
    2a16:	4ba1                	li	s7,8
    2a18:	0009c583          	lbu	a1,0(s3)
D:\Hummingbird\HBird-workspace\pico_test_1\Debug/../src/newsnake.c:124
void GameStart(){
    2a1c:	120a0713          	addi	a4,s4,288 # 7a120 <_etext+0x757ac>
    2a20:	4601                	li	a2,0
    2a22:	86ae                	mv	a3,a1
snakeDelay():
D:\Hummingbird\HBird-workspace\pico_test_1\Debug/../src/newsnake.c:16
		getps2 = *ps2ctrl_point;
    2a24:	10042783          	lw	a5,256(s0) # 10100 <_etext+0xb78c>
    2a28:	177d                	addi	a4,a4,-1
    2a2a:	0ff7f793          	andi	a5,a5,255
D:\Hummingbird\HBird-workspace\pico_test_1\Debug/../src/newsnake.c:17
		if(getps2 != 0) key_val = (getps2>>4);
    2a2e:	c781                	beqz	a5,2a36 <GameStart+0x98>
    2a30:	0047d693          	srli	a3,a5,0x4
    2a34:	4605                	li	a2,1
D:\Hummingbird\HBird-workspace\pico_test_1\Debug/../src/newsnake.c:15
	while(delaycnt--){
    2a36:	f77d                	bnez	a4,2a24 <GameStart+0x86>
    2a38:	00fb0023          	sb	a5,0(s6)
    2a3c:	e629                	bnez	a2,2a86 <GameStart+0xe8>
GameStart():
D:\Hummingbird\HBird-workspace\pico_test_1\Debug/../src/newsnake.c:133
		switch(key_val){
    2a3e:	05958063          	beq	a1,s9,2a7e <GameStart+0xe0>
    2a42:	02bcf163          	bleu	a1,s9,2a64 <GameStart+0xc6>
    2a46:	03558863          	beq	a1,s5,2a76 <GameStart+0xd8>
    2a4a:	03759363          	bne	a1,s7,2a70 <GameStart+0xd2>
D:\Hummingbird\HBird-workspace\pico_test_1\Debug/../src/newsnake.c:137
			case 8:snake.tpdir = -2;break;//右
    2a4e:	57f9                	li	a5,-2
    2a50:	26f4a023          	sw	a5,608(s1)
    2a54:	5579                	li	a0,-2
D:\Hummingbird\HBird-workspace\pico_test_1\Debug/../src/newsnake.c:139
		snakeGo(snake.tpdir);
    2a56:	3b71                	jal	27f2 <snakeGo>
refresh():
D:\Hummingbird\HBird-workspace\pico_test_1\Debug/../src/newsnake.c:104
	if(snake.life==1){
    2a58:	0004c783          	lbu	a5,0(s1)
    2a5c:	fb279ee3          	bne	a5,s2,2a18 <GameStart+0x7a>
    2a60:	3c29                	jal	247a <refresh.part.0>
    2a62:	bf45                	j	2a12 <GameStart+0x74>
GameStart():
D:\Hummingbird\HBird-workspace\pico_test_1\Debug/../src/newsnake.c:133
		switch(key_val){
    2a64:	01259663          	bne	a1,s2,2a70 <GameStart+0xd2>
D:\Hummingbird\HBird-workspace\pico_test_1\Debug/../src/newsnake.c:134
			case 1:snake.tpdir = 1;break;//上
    2a68:	2724a023          	sw	s2,608(s1)
    2a6c:	4505                	li	a0,1
    2a6e:	b7e5                	j	2a56 <GameStart+0xb8>
    2a70:	2604a503          	lw	a0,608(s1)
    2a74:	b7cd                	j	2a56 <GameStart+0xb8>
D:\Hummingbird\HBird-workspace\pico_test_1\Debug/../src/newsnake.c:136
			case 4:snake.tpdir = 2;break;//左
    2a76:	2794a023          	sw	s9,608(s1)
    2a7a:	4509                	li	a0,2
    2a7c:	bfe9                	j	2a56 <GameStart+0xb8>
D:\Hummingbird\HBird-workspace\pico_test_1\Debug/../src/newsnake.c:135
			case 2:snake.tpdir = -1;break;//下
    2a7e:	2784a023          	sw	s8,608(s1)
    2a82:	557d                	li	a0,-1
    2a84:	bfc9                	j	2a56 <GameStart+0xb8>
    2a86:	00d98023          	sb	a3,0(s3)
snakeDelay():
D:\Hummingbird\HBird-workspace\pico_test_1\Debug/../src/newsnake.c:15
	while(delaycnt--){
    2a8a:	85b6                	mv	a1,a3
    2a8c:	bf4d                	j	2a3e <GameStart+0xa0>

00002a8e <print_num>:
print_num():
D:\Hummingbird\HBird-workspace\pico_test_1\Debug/../src/uart.c:14
 ** 输出参数：无
 ** 返回参数：无
 ********************************************************************/
void print_num(uint32_t num, int base)
{
	if(num == 0)
    2a8e:	e111                	bnez	a0,2a92 <print_num+0x4>
D:\Hummingbird\HBird-workspace\pico_test_1\Debug/../src/uart.c:20
	{
		return;
	}
	print_num(num/base, base);
	put_char("0123456789abcdef"[num%base]);							//逆序打印结果
}
    2a90:	8082                	ret
    2a92:	a009                	j	2a94 <print_num.part.0>

00002a94 <print_num.part.0>:
D:\Hummingbird\HBird-workspace\pico_test_1\Debug/../src/uart.c:12
void print_num(uint32_t num, int base)
    2a94:	1141                	addi	sp,sp,-16
    2a96:	c422                	sw	s0,8(sp)
    2a98:	842a                	mv	s0,a0
D:\Hummingbird\HBird-workspace\pico_test_1\Debug/../src/uart.c:18
	print_num(num/base, base);
    2a9a:	02b55533          	divu	a0,a0,a1
D:\Hummingbird\HBird-workspace\pico_test_1\Debug/../src/uart.c:12
void print_num(uint32_t num, int base)
    2a9e:	c226                	sw	s1,4(sp)
    2aa0:	84ae                	mv	s1,a1
    2aa2:	c606                	sw	ra,12(sp)
D:\Hummingbird\HBird-workspace\pico_test_1\Debug/../src/uart.c:18
	print_num(num/base, base);
    2aa4:	37ed                	jal	2a8e <print_num>
D:\Hummingbird\HBird-workspace\pico_test_1\Debug/../src/uart.c:19
	put_char("0123456789abcdef"[num%base]);							//逆序打印结果
    2aa6:	02947433          	remu	s0,s0,s1
    2aaa:	000057b7          	lui	a5,0x5
    2aae:	82078793          	addi	a5,a5,-2016 # 4820 <bitmap_bytes+0x2a8>
put_char():
D:\Hummingbird\HBird-workspace\pico_test_1\Debug/../src/uart.c:31
 ** 输出参数：无
 ** 返回参数：无
 ********************************************************************/
void put_char(char c)
{
	if (c == '\n')
    2ab2:	4729                	li	a4,10
print_num():
D:\Hummingbird\HBird-workspace\pico_test_1\Debug/../src/uart.c:19
	put_char("0123456789abcdef"[num%base]);							//逆序打印结果
    2ab4:	943e                	add	s0,s0,a5
    2ab6:	00040783          	lb	a5,0(s0)
put_char():
D:\Hummingbird\HBird-workspace\pico_test_1\Debug/../src/uart.c:31
	if (c == '\n')
    2aba:	00e78963          	beq	a5,a4,2acc <print_num.part.0+0x38>
print_num():
D:\Hummingbird\HBird-workspace\pico_test_1\Debug/../src/uart.c:20
}
    2abe:	40b2                	lw	ra,12(sp)
    2ac0:	4422                	lw	s0,8(sp)
put_char():
D:\Hummingbird\HBird-workspace\pico_test_1\Debug/../src/uart.c:33
		put_char('\r');
	reg_uart_data = c;
    2ac2:	6741                	lui	a4,0x10
    2ac4:	cb1c                	sw	a5,16(a4)
print_num():
D:\Hummingbird\HBird-workspace\pico_test_1\Debug/../src/uart.c:20
}
    2ac6:	4492                	lw	s1,4(sp)
    2ac8:	0141                	addi	sp,sp,16
    2aca:	8082                	ret
put_char():
D:\Hummingbird\HBird-workspace\pico_test_1\Debug/../src/uart.c:33
	reg_uart_data = c;
    2acc:	6741                	lui	a4,0x10
print_num():
D:\Hummingbird\HBird-workspace\pico_test_1\Debug/../src/uart.c:20
}
    2ace:	40b2                	lw	ra,12(sp)
    2ad0:	4422                	lw	s0,8(sp)
put_char():
D:\Hummingbird\HBird-workspace\pico_test_1\Debug/../src/uart.c:33
	reg_uart_data = c;
    2ad2:	46b5                	li	a3,13
    2ad4:	cb14                	sw	a3,16(a4)
    2ad6:	6741                	lui	a4,0x10
    2ad8:	cb1c                	sw	a5,16(a4)
print_num():
D:\Hummingbird\HBird-workspace\pico_test_1\Debug/../src/uart.c:20
}
    2ada:	4492                	lw	s1,4(sp)
    2adc:	0141                	addi	sp,sp,16
    2ade:	8082                	ret

00002ae0 <put_char>:
put_char():
D:\Hummingbird\HBird-workspace\pico_test_1\Debug/../src/uart.c:30
{
    2ae0:	1141                	addi	sp,sp,-16
    2ae2:	c422                	sw	s0,8(sp)
    2ae4:	c606                	sw	ra,12(sp)
D:\Hummingbird\HBird-workspace\pico_test_1\Debug/../src/uart.c:31
	if (c == '\n')
    2ae6:	47a9                	li	a5,10
D:\Hummingbird\HBird-workspace\pico_test_1\Debug/../src/uart.c:30
{
    2ae8:	842a                	mv	s0,a0
D:\Hummingbird\HBird-workspace\pico_test_1\Debug/../src/uart.c:31
	if (c == '\n')
    2aea:	00f50863          	beq	a0,a5,2afa <put_char+0x1a>
D:\Hummingbird\HBird-workspace\pico_test_1\Debug/../src/uart.c:33
	reg_uart_data = c;
    2aee:	67c1                	lui	a5,0x10
    2af0:	cb80                	sw	s0,16(a5)
D:\Hummingbird\HBird-workspace\pico_test_1\Debug/../src/uart.c:34
}
    2af2:	40b2                	lw	ra,12(sp)
    2af4:	4422                	lw	s0,8(sp)
    2af6:	0141                	addi	sp,sp,16
    2af8:	8082                	ret
D:\Hummingbird\HBird-workspace\pico_test_1\Debug/../src/uart.c:32
		put_char('\r');
    2afa:	4535                	li	a0,13
    2afc:	37d5                	jal	2ae0 <put_char>
    2afe:	bfc5                	j	2aee <put_char+0xe>

00002b00 <print_str>:
print_str():
D:\Hummingbird\HBird-workspace\pico_test_1\Debug/../src/uart.c:45
 ** 输出参数：无
 ** 返回参数：无
 ********************************************************************/
void print_str(const char *p)
{
	while (*p)
    2b00:	00050783          	lb	a5,0(a0)
    2b04:	c38d                	beqz	a5,2b26 <print_str+0x26>
put_char():
D:\Hummingbird\HBird-workspace\pico_test_1\Debug/../src/uart.c:31
	if (c == '\n')
    2b06:	46a9                	li	a3,10
D:\Hummingbird\HBird-workspace\pico_test_1\Debug/../src/uart.c:33
	reg_uart_data = c;
    2b08:	6741                	lui	a4,0x10
    2b0a:	4635                	li	a2,13
    2b0c:	a029                	j	2b16 <print_str+0x16>
    2b0e:	cb1c                	sw	a5,16(a4)
print_str():
D:\Hummingbird\HBird-workspace\pico_test_1\Debug/../src/uart.c:45
	while (*p)
    2b10:	00050783          	lb	a5,0(a0)
    2b14:	cb89                	beqz	a5,2b26 <print_str+0x26>
D:\Hummingbird\HBird-workspace\pico_test_1\Debug/../src/uart.c:46
		put_char(*(p++));
    2b16:	0505                	addi	a0,a0,1
put_char():
D:\Hummingbird\HBird-workspace\pico_test_1\Debug/../src/uart.c:31
	if (c == '\n')
    2b18:	fed79be3          	bne	a5,a3,2b0e <print_str+0xe>
D:\Hummingbird\HBird-workspace\pico_test_1\Debug/../src/uart.c:33
	reg_uart_data = c;
    2b1c:	cb10                	sw	a2,16(a4)
    2b1e:	cb1c                	sw	a5,16(a4)
print_str():
D:\Hummingbird\HBird-workspace\pico_test_1\Debug/../src/uart.c:45
	while (*p)
    2b20:	00050783          	lb	a5,0(a0)
    2b24:	fbed                	bnez	a5,2b16 <print_str+0x16>
D:\Hummingbird\HBird-workspace\pico_test_1\Debug/../src/uart.c:47
}
    2b26:	8082                	ret

00002b28 <print_hex>:
print_hex():
D:\Hummingbird\HBird-workspace\pico_test_1\Debug/../src/uart.c:58
 ** 		digits：数据类型（十进制、十六进制、八进制）
 ** 输出参数：无
 ** 返回参数：无
 ********************************************************************/
void print_hex(uint32_t v, int digits)
{
    2b28:	000056b7          	lui	a3,0x5
D:\Hummingbird\HBird-workspace\pico_test_1\Debug/../src/uart.c:59
	for (int i = 7; i >= 0; i--)
    2b2c:	471d                	li	a4,7
    2b2e:	82068693          	addi	a3,a3,-2016 # 4820 <bitmap_bytes+0x2a8>
D:\Hummingbird\HBird-workspace\pico_test_1\Debug/../src/uart.c:62
	{
		char c = "0123456789abcdef"[(v >> (4*i)) & 15];
		if (c == '0' && i >= digits)
    2b32:	03000893          	li	a7,48
put_char():
D:\Hummingbird\HBird-workspace\pico_test_1\Debug/../src/uart.c:33
	reg_uart_data = c;
    2b36:	6641                	lui	a2,0x10
D:\Hummingbird\HBird-workspace\pico_test_1\Debug/../src/uart.c:31
	if (c == '\n')
    2b38:	4329                	li	t1,10
D:\Hummingbird\HBird-workspace\pico_test_1\Debug/../src/uart.c:33
	reg_uart_data = c;
    2b3a:	4e35                	li	t3,13
print_hex():
D:\Hummingbird\HBird-workspace\pico_test_1\Debug/../src/uart.c:59
	for (int i = 7; i >= 0; i--)
    2b3c:	587d                	li	a6,-1
    2b3e:	a801                	j	2b4e <print_hex+0x26>
put_char():
D:\Hummingbird\HBird-workspace\pico_test_1\Debug/../src/uart.c:31
	if (c == '\n')
    2b40:	02678763          	beq	a5,t1,2b6e <print_hex+0x46>
D:\Hummingbird\HBird-workspace\pico_test_1\Debug/../src/uart.c:33
	reg_uart_data = c;
    2b44:	85ba                	mv	a1,a4
    2b46:	ca1c                	sw	a5,16(a2)
print_hex():
D:\Hummingbird\HBird-workspace\pico_test_1\Debug/../src/uart.c:59
	for (int i = 7; i >= 0; i--)
    2b48:	177d                	addi	a4,a4,-1
    2b4a:	03070163          	beq	a4,a6,2b6c <print_hex+0x44>
D:\Hummingbird\HBird-workspace\pico_test_1\Debug/../src/uart.c:61
		char c = "0123456789abcdef"[(v >> (4*i)) & 15];
    2b4e:	00271793          	slli	a5,a4,0x2
    2b52:	00f557b3          	srl	a5,a0,a5
    2b56:	8bbd                	andi	a5,a5,15
    2b58:	97b6                	add	a5,a5,a3
    2b5a:	00078783          	lb	a5,0(a5) # 10000 <_etext+0xb68c>
D:\Hummingbird\HBird-workspace\pico_test_1\Debug/../src/uart.c:62
		if (c == '0' && i >= digits)
    2b5e:	ff1791e3          	bne	a5,a7,2b40 <print_hex+0x18>
D:\Hummingbird\HBird-workspace\pico_test_1\Debug/../src/uart.c:62 (discriminator 1)
    2b62:	feb741e3          	blt	a4,a1,2b44 <print_hex+0x1c>
D:\Hummingbird\HBird-workspace\pico_test_1\Debug/../src/uart.c:59
	for (int i = 7; i >= 0; i--)
    2b66:	177d                	addi	a4,a4,-1
    2b68:	ff0713e3          	bne	a4,a6,2b4e <print_hex+0x26>
D:\Hummingbird\HBird-workspace\pico_test_1\Debug/../src/uart.c:67
			continue;
		put_char(c);
		digits = i;
	}
}
    2b6c:	8082                	ret
put_char():
D:\Hummingbird\HBird-workspace\pico_test_1\Debug/../src/uart.c:33
	reg_uart_data = c;
    2b6e:	01c62823          	sw	t3,16(a2) # 10010 <_etext+0xb69c>
    2b72:	bfc9                	j	2b44 <print_hex+0x1c>

00002b74 <print_hex2>:
print_hex2():
D:\Hummingbird\HBird-workspace\pico_test_1\Debug/../src/uart.c:78
 ** 输出参数：无
 ** 返回参数：无
 ********************************************************************/
void print_hex2(uint32_t hex)
{
	if(0 == hex)
    2b74:	e511                	bnez	a0,2b80 <print_hex2+0xc>
put_char():
D:\Hummingbird\HBird-workspace\pico_test_1\Debug/../src/uart.c:33
	reg_uart_data = c;
    2b76:	67c1                	lui	a5,0x10
    2b78:	03000713          	li	a4,48
    2b7c:	cb98                	sw	a4,16(a5)
print_hex2():
D:\Hummingbird\HBird-workspace\pico_test_1\Debug/../src/uart.c:87
	}
	else
	{
		print_num(hex, 16);											//打印十六进制数
	}
}
    2b7e:	8082                	ret
print_num():
    2b80:	45c1                	li	a1,16
    2b82:	bf09                	j	2a94 <print_num.part.0>

00002b84 <print_dec>:
print_dec():
D:\Hummingbird\HBird-workspace\pico_test_1\Debug/../src/uart.c:97
 ** 输出参数：无
 ** 返回参数：无
 ********************************************************************/
void print_dec(uint32_t v)
{
	if(0 == v)
    2b84:	e511                	bnez	a0,2b90 <print_dec+0xc>
put_char():
D:\Hummingbird\HBird-workspace\pico_test_1\Debug/../src/uart.c:33
	reg_uart_data = c;
    2b86:	67c1                	lui	a5,0x10
    2b88:	03000713          	li	a4,48
    2b8c:	cb98                	sw	a4,16(a5)
print_dec():
D:\Hummingbird\HBird-workspace\pico_test_1\Debug/../src/uart.c:106
	}
	else
	{
		print_num(v, 10);											//打印十进制数
	}
}
    2b8e:	8082                	ret
print_num():
    2b90:	45a9                	li	a1,10
    2b92:	b709                	j	2a94 <print_num.part.0>

00002b94 <print_flt>:
print_flt():
D:\Hummingbird\HBird-workspace\pico_test_1\Debug/../src/uart.c:116
 ** 输入参数：flt:打印的浮点数
 ** 输出参数：无
 ** 返回参数：无
 ********************************************************************/
void print_flt(double flt)
{
    2b94:	1101                	addi	sp,sp,-32
    2b96:	cc22                	sw	s0,24(sp)
    2b98:	c84a                	sw	s2,16(sp)
    2b9a:	c64e                	sw	s3,12(sp)
    2b9c:	ce06                	sw	ra,28(sp)
    2b9e:	ca26                	sw	s1,20(sp)
    2ba0:	892a                	mv	s2,a0
    2ba2:	89ae                	mv	s3,a1
D:\Hummingbird\HBird-workspace\pico_test_1\Debug/../src/uart.c:120
	uint32_t icnt = 0;
	uint32_t tmpint = 0;

	tmpint = (int)(flt);
    2ba4:	158010ef          	jal	ra,3cfc <__fixdfsi>
    2ba8:	842a                	mv	s0,a0
print_dec():
D:\Hummingbird\HBird-workspace\pico_test_1\Debug/../src/uart.c:97
	if(0 == v)
    2baa:	ed31                	bnez	a0,2c06 <print_flt+0x72>
put_char():
D:\Hummingbird\HBird-workspace\pico_test_1\Debug/../src/uart.c:33
	reg_uart_data = c;
    2bac:	67c1                	lui	a5,0x10
    2bae:	03000713          	li	a4,48
    2bb2:	cb98                	sw	a4,16(a5)
    2bb4:	02e00793          	li	a5,46
    2bb8:	64c1                	lui	s1,0x10
    2bba:	c89c                	sw	a5,16(s1)
print_flt():
D:\Hummingbird\HBird-workspace\pico_test_1\Debug/../src/uart.c:123
	print_dec(tmpint);
	put_char('.');
	flt = flt - tmpint;
    2bbc:	8522                	mv	a0,s0
    2bbe:	1c2010ef          	jal	ra,3d80 <__floatunsidf>
    2bc2:	862a                	mv	a2,a0
    2bc4:	86ae                	mv	a3,a1
    2bc6:	854a                	mv	a0,s2
    2bc8:	85ce                	mv	a1,s3
    2bca:	0b3000ef          	jal	ra,347c <__subdf3>
D:\Hummingbird\HBird-workspace\pico_test_1\Debug/../src/uart.c:124
	tmpint = (int)(flt * 1000000);
    2bce:	000057b7          	lui	a5,0x5
    2bd2:	8187a603          	lw	a2,-2024(a5) # 4818 <bitmap_bytes+0x2a0>
    2bd6:	81c7a683          	lw	a3,-2020(a5)
    2bda:	2c19                	jal	2df0 <__muldf3>
    2bdc:	120010ef          	jal	ra,3cfc <__fixdfsi>
print_dec():
D:\Hummingbird\HBird-workspace\pico_test_1\Debug/../src/uart.c:97
	if(0 == v)
    2be0:	e919                	bnez	a0,2bf6 <print_flt+0x62>
print_flt():
D:\Hummingbird\HBird-workspace\pico_test_1\Debug/../src/uart.c:126
	print_dec(tmpint);
}
    2be2:	40f2                	lw	ra,28(sp)
    2be4:	4462                	lw	s0,24(sp)
put_char():
D:\Hummingbird\HBird-workspace\pico_test_1\Debug/../src/uart.c:33
	reg_uart_data = c;
    2be6:	03000793          	li	a5,48
    2bea:	c89c                	sw	a5,16(s1)
print_flt():
D:\Hummingbird\HBird-workspace\pico_test_1\Debug/../src/uart.c:126
}
    2bec:	4942                	lw	s2,16(sp)
    2bee:	44d2                	lw	s1,20(sp)
    2bf0:	49b2                	lw	s3,12(sp)
    2bf2:	6105                	addi	sp,sp,32
    2bf4:	8082                	ret
    2bf6:	4462                	lw	s0,24(sp)
    2bf8:	40f2                	lw	ra,28(sp)
    2bfa:	44d2                	lw	s1,20(sp)
    2bfc:	4942                	lw	s2,16(sp)
    2bfe:	49b2                	lw	s3,12(sp)
print_num():
    2c00:	45a9                	li	a1,10
print_flt():
    2c02:	6105                	addi	sp,sp,32
print_num():
    2c04:	bd41                	j	2a94 <print_num.part.0>
    2c06:	45a9                	li	a1,10
    2c08:	3571                	jal	2a94 <print_num.part.0>
    2c0a:	b76d                	j	2bb4 <print_flt+0x20>

00002c0c <printk>:
printk():
D:\Hummingbird\HBird-workspace\pico_test_1\Debug/../src/uart.c:136
 ** 输入参数：fmt：打印的字符串内容
 ** 输出参数：无
 ** 返回参数：无
 ********************************************************************/
void printk(char *fmt, ...)
{
    2c0c:	715d                	addi	sp,sp,-80
    2c0e:	c0ba                	sw	a4,64(sp)
    2c10:	d606                	sw	ra,44(sp)
    2c12:	d422                	sw	s0,40(sp)
    2c14:	d226                	sw	s1,36(sp)
    2c16:	d04a                	sw	s2,32(sp)
    2c18:	ce4e                	sw	s3,28(sp)
    2c1a:	cc52                	sw	s4,24(sp)
    2c1c:	ca56                	sw	s5,20(sp)
    2c1e:	c85a                	sw	s6,16(sp)
    2c20:	da2e                	sw	a1,52(sp)
    2c22:	dc32                	sw	a2,56(sp)
    2c24:	de36                	sw	a3,60(sp)
    2c26:	c2be                	sw	a5,68(sp)
    2c28:	c4c2                	sw	a6,72(sp)
    2c2a:	c6c6                	sw	a7,76(sp)
D:\Hummingbird\HBird-workspace\pico_test_1\Debug/../src/uart.c:143
	va_list vp;

	va_start(vp, fmt);
	pfmt = fmt;

	while(*pfmt)
    2c2c:	00050783          	lb	a5,0(a0)
D:\Hummingbird\HBird-workspace\pico_test_1\Debug/../src/uart.c:140
	va_start(vp, fmt);
    2c30:	1858                	addi	a4,sp,52
    2c32:	c63a                	sw	a4,12(sp)
D:\Hummingbird\HBird-workspace\pico_test_1\Debug/../src/uart.c:143
	while(*pfmt)
    2c34:	c3b9                	beqz	a5,2c7a <printk+0x6e>
D:\Hummingbird\HBird-workspace\pico_test_1\Debug/../src/uart.c:149
	{
		switch(*pfmt)
		{
			case '%':
			{
				switch(*(pfmt + 1))
    2c36:	6a91                	lui	s5,0x4
    2c38:	84aa                	mv	s1,a0
D:\Hummingbird\HBird-workspace\pico_test_1\Debug/../src/uart.c:145
		switch(*pfmt)
    2c3a:	4929                	li	s2,10
put_char():
D:\Hummingbird\HBird-workspace\pico_test_1\Debug/../src/uart.c:33
	reg_uart_data = c;
    2c3c:	69c1                	lui	s3,0x10
    2c3e:	4b35                	li	s6,13
printk():
D:\Hummingbird\HBird-workspace\pico_test_1\Debug/../src/uart.c:145
		switch(*pfmt)
    2c40:	02500a13          	li	s4,37
D:\Hummingbird\HBird-workspace\pico_test_1\Debug/../src/uart.c:149
				switch(*(pfmt + 1))
    2c44:	6c4a8a93          	addi	s5,s5,1732 # 46c4 <bitmap_bytes+0x14c>
    2c48:	a819                	j	2c5e <printk+0x52>
D:\Hummingbird\HBird-workspace\pico_test_1\Debug/../src/uart.c:145
		switch(*pfmt)
    2c4a:	05478263          	beq	a5,s4,2c8e <printk+0x82>
put_char():
D:\Hummingbird\HBird-workspace\pico_test_1\Debug/../src/uart.c:33
	reg_uart_data = c;
    2c4e:	8722                	mv	a4,s0
    2c50:	00f9a823          	sw	a5,16(s3) # 10010 <_etext+0xb69c>
    2c54:	8426                	mv	s0,s1
    2c56:	84ba                	mv	s1,a4
printk():
D:\Hummingbird\HBird-workspace\pico_test_1\Debug/../src/uart.c:143
	while(*pfmt)
    2c58:	00140783          	lb	a5,1(s0)
    2c5c:	cf99                	beqz	a5,2c7a <printk+0x6e>
    2c5e:	00148413          	addi	s0,s1,1 # 10001 <_etext+0xb68d>
D:\Hummingbird\HBird-workspace\pico_test_1\Debug/../src/uart.c:145
		switch(*pfmt)
    2c62:	ff2794e3          	bne	a5,s2,2c4a <printk+0x3e>
put_char():
D:\Hummingbird\HBird-workspace\pico_test_1\Debug/../src/uart.c:33
	reg_uart_data = c;
    2c66:	0169a823          	sw	s6,16(s3)
    2c6a:	87a2                	mv	a5,s0
    2c6c:	0129a823          	sw	s2,16(s3)
    2c70:	8426                	mv	s0,s1
    2c72:	84be                	mv	s1,a5
printk():
D:\Hummingbird\HBird-workspace\pico_test_1\Debug/../src/uart.c:143
	while(*pfmt)
    2c74:	00140783          	lb	a5,1(s0)
    2c78:	f3fd                	bnez	a5,2c5e <printk+0x52>
D:\Hummingbird\HBird-workspace\pico_test_1\Debug/../src/uart.c:201
				break;
		}
		pfmt++;
	}
	va_end(vp);
}
    2c7a:	50b2                	lw	ra,44(sp)
    2c7c:	5422                	lw	s0,40(sp)
    2c7e:	5492                	lw	s1,36(sp)
    2c80:	5902                	lw	s2,32(sp)
    2c82:	49f2                	lw	s3,28(sp)
    2c84:	4a62                	lw	s4,24(sp)
    2c86:	4ad2                	lw	s5,20(sp)
    2c88:	4b42                	lw	s6,16(sp)
    2c8a:	6161                	addi	sp,sp,80
    2c8c:	8082                	ret
D:\Hummingbird\HBird-workspace\pico_test_1\Debug/../src/uart.c:149
				switch(*(pfmt + 1))
    2c8e:	0014c783          	lbu	a5,1(s1)
    2c92:	05300713          	li	a4,83
    2c96:	fdb78793          	addi	a5,a5,-37
    2c9a:	0ff7f793          	andi	a5,a5,255
    2c9e:	00f76663          	bltu	a4,a5,2caa <printk+0x9e>
    2ca2:	078a                	slli	a5,a5,0x2
    2ca4:	97d6                	add	a5,a5,s5
    2ca6:	439c                	lw	a5,0(a5)
    2ca8:	8782                	jr	a5
put_char():
D:\Hummingbird\HBird-workspace\pico_test_1\Debug/../src/uart.c:33
	reg_uart_data = c;
    2caa:	87a2                	mv	a5,s0
    2cac:	0149a823          	sw	s4,16(s3)
    2cb0:	8426                	mv	s0,s1
    2cb2:	84be                	mv	s1,a5
    2cb4:	b755                	j	2c58 <printk+0x4c>
printk():
D:\Hummingbird\HBird-workspace\pico_test_1\Debug/../src/uart.c:152
						put_char(va_arg(vp, int));
    2cb6:	47b2                	lw	a5,12(sp)
    2cb8:	00078703          	lb	a4,0(a5)
    2cbc:	0791                	addi	a5,a5,4
    2cbe:	c63e                	sw	a5,12(sp)
put_char():
D:\Hummingbird\HBird-workspace\pico_test_1\Debug/../src/uart.c:31
	if (c == '\n')
    2cc0:	07270d63          	beq	a4,s2,2d3a <printk+0x12e>
D:\Hummingbird\HBird-workspace\pico_test_1\Debug/../src/uart.c:33
	reg_uart_data = c;
    2cc4:	00e9a823          	sw	a4,16(s3)
    2cc8:	0489                	addi	s1,s1,2
printk():
D:\Hummingbird\HBird-workspace\pico_test_1\Debug/../src/uart.c:154
						break;
    2cca:	b779                	j	2c58 <printk+0x4c>
D:\Hummingbird\HBird-workspace\pico_test_1\Debug/../src/uart.c:175
						print_hex2(va_arg(vp, int));
    2ccc:	47b2                	lw	a5,12(sp)
    2cce:	4388                	lw	a0,0(a5)
    2cd0:	0791                	addi	a5,a5,4
    2cd2:	c63e                	sw	a5,12(sp)
print_hex2():
D:\Hummingbird\HBird-workspace\pico_test_1\Debug/../src/uart.c:78
	if(0 == hex)
    2cd4:	ed39                	bnez	a0,2d32 <printk+0x126>
put_char():
D:\Hummingbird\HBird-workspace\pico_test_1\Debug/../src/uart.c:33
	reg_uart_data = c;
    2cd6:	03000793          	li	a5,48
    2cda:	00f9a823          	sw	a5,16(s3)
    2cde:	0489                	addi	s1,s1,2
printk():
D:\Hummingbird\HBird-workspace\pico_test_1\Debug/../src/uart.c:177
						break;
    2ce0:	bfa5                	j	2c58 <printk+0x4c>
D:\Hummingbird\HBird-workspace\pico_test_1\Debug/../src/uart.c:158
						print_dec(va_arg(vp, int));
    2ce2:	47b2                	lw	a5,12(sp)
    2ce4:	4388                	lw	a0,0(a5)
    2ce6:	0791                	addi	a5,a5,4
    2ce8:	c63e                	sw	a5,12(sp)
print_dec():
D:\Hummingbird\HBird-workspace\pico_test_1\Debug/../src/uart.c:97
	if(0 == v)
    2cea:	d575                	beqz	a0,2cd6 <printk+0xca>
print_num():
    2cec:	45a9                	li	a1,10
    2cee:	335d                	jal	2a94 <print_num.part.0>
    2cf0:	0489                	addi	s1,s1,2
    2cf2:	b79d                	j	2c58 <printk+0x4c>
printk():
D:\Hummingbird\HBird-workspace\pico_test_1\Debug/../src/uart.c:169
						print_str(va_arg(vp, char*));
    2cf4:	47b2                	lw	a5,12(sp)
    2cf6:	4398                	lw	a4,0(a5)
    2cf8:	0791                	addi	a5,a5,4
    2cfa:	c63e                	sw	a5,12(sp)
print_str():
D:\Hummingbird\HBird-workspace\pico_test_1\Debug/../src/uart.c:45
	while (*p)
    2cfc:	00070783          	lb	a5,0(a4) # 10000 <_etext+0xb68c>
    2d00:	dff9                	beqz	a5,2cde <printk+0xd2>
D:\Hummingbird\HBird-workspace\pico_test_1\Debug/../src/uart.c:46
		put_char(*(p++));
    2d02:	0705                	addi	a4,a4,1
put_char():
D:\Hummingbird\HBird-workspace\pico_test_1\Debug/../src/uart.c:31
	if (c == '\n')
    2d04:	01278a63          	beq	a5,s2,2d18 <printk+0x10c>
D:\Hummingbird\HBird-workspace\pico_test_1\Debug/../src/uart.c:33
	reg_uart_data = c;
    2d08:	00f9a823          	sw	a5,16(s3)
print_str():
D:\Hummingbird\HBird-workspace\pico_test_1\Debug/../src/uart.c:45
	while (*p)
    2d0c:	00070783          	lb	a5,0(a4)
    2d10:	d7f9                	beqz	a5,2cde <printk+0xd2>
D:\Hummingbird\HBird-workspace\pico_test_1\Debug/../src/uart.c:46
		put_char(*(p++));
    2d12:	0705                	addi	a4,a4,1
put_char():
D:\Hummingbird\HBird-workspace\pico_test_1\Debug/../src/uart.c:31
	if (c == '\n')
    2d14:	ff279ae3          	bne	a5,s2,2d08 <printk+0xfc>
D:\Hummingbird\HBird-workspace\pico_test_1\Debug/../src/uart.c:33
	reg_uart_data = c;
    2d18:	0169a823          	sw	s6,16(s3)
    2d1c:	b7f5                	j	2d08 <printk+0xfc>
printk():
D:\Hummingbird\HBird-workspace\pico_test_1\Debug/../src/uart.c:163
						print_flt(va_arg(vp, double));
    2d1e:	47b2                	lw	a5,12(sp)
    2d20:	0489                	addi	s1,s1,2
    2d22:	079d                	addi	a5,a5,7
    2d24:	9be1                	andi	a5,a5,-8
    2d26:	4388                	lw	a0,0(a5)
    2d28:	43cc                	lw	a1,4(a5)
    2d2a:	07a1                	addi	a5,a5,8
    2d2c:	c63e                	sw	a5,12(sp)
    2d2e:	359d                	jal	2b94 <print_flt>
D:\Hummingbird\HBird-workspace\pico_test_1\Debug/../src/uart.c:165
						break;
    2d30:	b725                	j	2c58 <printk+0x4c>
print_num():
    2d32:	45c1                	li	a1,16
    2d34:	3385                	jal	2a94 <print_num.part.0>
    2d36:	0489                	addi	s1,s1,2
    2d38:	b705                	j	2c58 <printk+0x4c>
put_char():
D:\Hummingbird\HBird-workspace\pico_test_1\Debug/../src/uart.c:33
	reg_uart_data = c;
    2d3a:	0169a823          	sw	s6,16(s3)
    2d3e:	b759                	j	2cc4 <printk+0xb8>

00002d40 <getchar_prompt>:
getchar_prompt():
D:\Hummingbird\HBird-workspace\pico_test_1\Debug/../src/uart.c:215
char getchar_prompt(char *prompt)
{
	int32_t c = -1;

	uint32_t cycles_begin, cycles_now, cycles;
	__asm__ volatile ("rdcycle %0" : "=r"(cycles_begin));
    2d40:	c00025f3          	rdcycle	a1
D:\Hummingbird\HBird-workspace\pico_test_1\Debug/../src/uart.c:217

	if (prompt)
    2d44:	c515                	beqz	a0,2d70 <getchar_prompt+0x30>
print_str():
D:\Hummingbird\HBird-workspace\pico_test_1\Debug/../src/uart.c:45
	while (*p)
    2d46:	00050783          	lb	a5,0(a0)
    2d4a:	c39d                	beqz	a5,2d70 <getchar_prompt+0x30>
    2d4c:	872a                	mv	a4,a0
put_char():
D:\Hummingbird\HBird-workspace\pico_test_1\Debug/../src/uart.c:31
	if (c == '\n')
    2d4e:	4629                	li	a2,10
D:\Hummingbird\HBird-workspace\pico_test_1\Debug/../src/uart.c:33
	reg_uart_data = c;
    2d50:	66c1                	lui	a3,0x10
    2d52:	4835                	li	a6,13
    2d54:	a029                	j	2d5e <getchar_prompt+0x1e>
    2d56:	ca9c                	sw	a5,16(a3)
print_str():
D:\Hummingbird\HBird-workspace\pico_test_1\Debug/../src/uart.c:45
	while (*p)
    2d58:	00070783          	lb	a5,0(a4)
    2d5c:	cb91                	beqz	a5,2d70 <getchar_prompt+0x30>
D:\Hummingbird\HBird-workspace\pico_test_1\Debug/../src/uart.c:46
		put_char(*(p++));
    2d5e:	0705                	addi	a4,a4,1
put_char():
D:\Hummingbird\HBird-workspace\pico_test_1\Debug/../src/uart.c:31
	if (c == '\n')
    2d60:	fec79be3          	bne	a5,a2,2d56 <getchar_prompt+0x16>
D:\Hummingbird\HBird-workspace\pico_test_1\Debug/../src/uart.c:33
	reg_uart_data = c;
    2d64:	0106a823          	sw	a6,16(a3) # 10010 <_etext+0xb69c>
    2d68:	ca9c                	sw	a5,16(a3)
print_str():
D:\Hummingbird\HBird-workspace\pico_test_1\Debug/../src/uart.c:45
	while (*p)
    2d6a:	00070783          	lb	a5,0(a4)
    2d6e:	fbe5                	bnez	a5,2d5e <getchar_prompt+0x1e>
getchar_prompt():
D:\Hummingbird\HBird-workspace\pico_test_1\Debug/../src/uart.c:224

	while (c == -1)
	{
		__asm__ volatile ("rdcycle %0" : "=r"(cycles_now));
		cycles = cycles_now - cycles_begin;
		if (cycles > 12000000)
    2d70:	00b728b7          	lui	a7,0xb72
    2d74:	b0088893          	addi	a7,a7,-1280 # b71b00 <_etext+0xb6d18c>
put_char():
D:\Hummingbird\HBird-workspace\pico_test_1\Debug/../src/uart.c:31
	if (c == '\n')
    2d78:	4829                	li	a6,10
D:\Hummingbird\HBird-workspace\pico_test_1\Debug/../src/uart.c:33
	reg_uart_data = c;
    2d7a:	66c1                	lui	a3,0x10
    2d7c:	4e35                	li	t3,13
getchar_prompt():
D:\Hummingbird\HBird-workspace\pico_test_1\Debug/../src/uart.c:220
	while (c == -1)
    2d7e:	537d                	li	t1,-1
D:\Hummingbird\HBird-workspace\pico_test_1\Debug/../src/uart.c:222
		__asm__ volatile ("rdcycle %0" : "=r"(cycles_now));
    2d80:	c0002673          	rdcycle	a2
D:\Hummingbird\HBird-workspace\pico_test_1\Debug/../src/uart.c:223
		cycles = cycles_now - cycles_begin;
    2d84:	40b607b3          	sub	a5,a2,a1
D:\Hummingbird\HBird-workspace\pico_test_1\Debug/../src/uart.c:224
		if (cycles > 12000000)
    2d88:	02f8f763          	bleu	a5,a7,2db6 <getchar_prompt+0x76>
D:\Hummingbird\HBird-workspace\pico_test_1\Debug/../src/uart.c:230
		{
			if (prompt)
			{
				print_str(prompt);
			}
			cycles_begin = cycles_now;
    2d8c:	85b2                	mv	a1,a2
D:\Hummingbird\HBird-workspace\pico_test_1\Debug/../src/uart.c:226
			if (prompt)
    2d8e:	c505                	beqz	a0,2db6 <getchar_prompt+0x76>
print_str():
D:\Hummingbird\HBird-workspace\pico_test_1\Debug/../src/uart.c:45
	while (*p)
    2d90:	00050783          	lb	a5,0(a0)
    2d94:	c38d                	beqz	a5,2db6 <getchar_prompt+0x76>
    2d96:	872a                	mv	a4,a0
    2d98:	a029                	j	2da2 <getchar_prompt+0x62>
put_char():
D:\Hummingbird\HBird-workspace\pico_test_1\Debug/../src/uart.c:33
	reg_uart_data = c;
    2d9a:	ca9c                	sw	a5,16(a3)
print_str():
D:\Hummingbird\HBird-workspace\pico_test_1\Debug/../src/uart.c:45
	while (*p)
    2d9c:	00070783          	lb	a5,0(a4)
    2da0:	cb91                	beqz	a5,2db4 <getchar_prompt+0x74>
D:\Hummingbird\HBird-workspace\pico_test_1\Debug/../src/uart.c:46
		put_char(*(p++));
    2da2:	0705                	addi	a4,a4,1
put_char():
D:\Hummingbird\HBird-workspace\pico_test_1\Debug/../src/uart.c:31
	if (c == '\n')
    2da4:	ff079be3          	bne	a5,a6,2d9a <getchar_prompt+0x5a>
D:\Hummingbird\HBird-workspace\pico_test_1\Debug/../src/uart.c:33
	reg_uart_data = c;
    2da8:	01c6a823          	sw	t3,16(a3) # 10010 <_etext+0xb69c>
    2dac:	ca9c                	sw	a5,16(a3)
print_str():
D:\Hummingbird\HBird-workspace\pico_test_1\Debug/../src/uart.c:45
	while (*p)
    2dae:	00070783          	lb	a5,0(a4)
    2db2:	fbe5                	bnez	a5,2da2 <getchar_prompt+0x62>
getchar_prompt():
D:\Hummingbird\HBird-workspace\pico_test_1\Debug/../src/uart.c:230
			cycles_begin = cycles_now;
    2db4:	85b2                	mv	a1,a2
D:\Hummingbird\HBird-workspace\pico_test_1\Debug/../src/uart.c:232
		}
		c = reg_uart_data;
    2db6:	4a9c                	lw	a5,16(a3)
D:\Hummingbird\HBird-workspace\pico_test_1\Debug/../src/uart.c:220
	while (c == -1)
    2db8:	fc6784e3          	beq	a5,t1,2d80 <getchar_prompt+0x40>
D:\Hummingbird\HBird-workspace\pico_test_1\Debug/../src/uart.c:236
	}

	return c;
}
    2dbc:	01879513          	slli	a0,a5,0x18
    2dc0:	8561                	srai	a0,a0,0x18
    2dc2:	8082                	ret

00002dc4 <get_char>:
get_char():
D:\Hummingbird\HBird-workspace\pico_test_1\Debug/../src/uart.c:246
 ** 输入参数：无
 ** 输出参数：无
 ** 返回参数：输出的字符
 ********************************************************************/
char get_char()
{
    2dc4:	1141                	addi	sp,sp,-16
D:\Hummingbird\HBird-workspace\pico_test_1\Debug/../src/uart.c:248
//	return getchar_prompt(0);
	put_char(getchar_prompt(0));
    2dc6:	4501                	li	a0,0
D:\Hummingbird\HBird-workspace\pico_test_1\Debug/../src/uart.c:246
{
    2dc8:	c606                	sw	ra,12(sp)
D:\Hummingbird\HBird-workspace\pico_test_1\Debug/../src/uart.c:248
	put_char(getchar_prompt(0));
    2dca:	3f9d                	jal	2d40 <getchar_prompt>
put_char():
D:\Hummingbird\HBird-workspace\pico_test_1\Debug/../src/uart.c:31
	if (c == '\n')
    2dcc:	4729                	li	a4,10
get_char():
D:\Hummingbird\HBird-workspace\pico_test_1\Debug/../src/uart.c:248
	put_char(getchar_prompt(0));
    2dce:	87aa                	mv	a5,a0
put_char():
D:\Hummingbird\HBird-workspace\pico_test_1\Debug/../src/uart.c:31
	if (c == '\n')
    2dd0:	00e50763          	beq	a0,a4,2dde <get_char+0x1a>
get_char():
D:\Hummingbird\HBird-workspace\pico_test_1\Debug/../src/uart.c:249
}
    2dd4:	40b2                	lw	ra,12(sp)
put_char():
D:\Hummingbird\HBird-workspace\pico_test_1\Debug/../src/uart.c:33
	reg_uart_data = c;
    2dd6:	6741                	lui	a4,0x10
    2dd8:	cb1c                	sw	a5,16(a4)
get_char():
D:\Hummingbird\HBird-workspace\pico_test_1\Debug/../src/uart.c:249
}
    2dda:	0141                	addi	sp,sp,16
    2ddc:	8082                	ret
put_char():
D:\Hummingbird\HBird-workspace\pico_test_1\Debug/../src/uart.c:33
	reg_uart_data = c;
    2dde:	6741                	lui	a4,0x10
get_char():
D:\Hummingbird\HBird-workspace\pico_test_1\Debug/../src/uart.c:249
}
    2de0:	40b2                	lw	ra,12(sp)
put_char():
D:\Hummingbird\HBird-workspace\pico_test_1\Debug/../src/uart.c:33
	reg_uart_data = c;
    2de2:	46b5                	li	a3,13
    2de4:	cb14                	sw	a3,16(a4)
    2de6:	6741                	lui	a4,0x10
    2de8:	cb1c                	sw	a5,16(a4)
get_char():
D:\Hummingbird\HBird-workspace\pico_test_1\Debug/../src/uart.c:249
}
    2dea:	0141                	addi	sp,sp,16
    2dec:	8082                	ret
	...

00002df0 <__muldf3>:
__muldf3():
    2df0:	fc010113          	addi	sp,sp,-64
    2df4:	02812c23          	sw	s0,56(sp)
    2df8:	0145d793          	srli	a5,a1,0x14
    2dfc:	00100437          	lui	s0,0x100
    2e00:	02912a23          	sw	s1,52(sp)
    2e04:	03312623          	sw	s3,44(sp)
    2e08:	00050493          	mv	s1,a0
    2e0c:	fff40413          	addi	s0,s0,-1 # fffff <_etext+0xfb68b>
    2e10:	02112e23          	sw	ra,60(sp)
    2e14:	03212823          	sw	s2,48(sp)
    2e18:	03412423          	sw	s4,40(sp)
    2e1c:	03512223          	sw	s5,36(sp)
    2e20:	03612023          	sw	s6,32(sp)
    2e24:	01712e23          	sw	s7,28(sp)
    2e28:	7ff7f513          	andi	a0,a5,2047
    2e2c:	00b47433          	and	s0,s0,a1
    2e30:	01f5d993          	srli	s3,a1,0x1f
    2e34:	1e050e63          	beqz	a0,3030 <__muldf3+0x240>
    2e38:	7ff00793          	li	a5,2047
    2e3c:	0af50063          	beq	a0,a5,2edc <__muldf3+0xec>
    2e40:	00341413          	slli	s0,s0,0x3
    2e44:	008007b7          	lui	a5,0x800
    2e48:	01d4db13          	srli	s6,s1,0x1d
    2e4c:	00f46433          	or	s0,s0,a5
    2e50:	00349a13          	slli	s4,s1,0x3
    2e54:	008b6b33          	or	s6,s6,s0
    2e58:	c0150a93          	addi	s5,a0,-1023
    2e5c:	00000493          	li	s1,0
    2e60:	00000b93          	li	s7,0
    2e64:	0146d893          	srli	a7,a3,0x14
    2e68:	00100437          	lui	s0,0x100
    2e6c:	fff40413          	addi	s0,s0,-1 # fffff <_etext+0xfb68b>
    2e70:	7ff8f893          	andi	a7,a7,2047
    2e74:	00060813          	mv	a6,a2
    2e78:	00d47433          	and	s0,s0,a3
    2e7c:	01f6d913          	srli	s2,a3,0x1f
    2e80:	08088a63          	beqz	a7,2f14 <__muldf3+0x124>
    2e84:	7ff00793          	li	a5,2047
    2e88:	20f88463          	beq	a7,a5,3090 <__muldf3+0x2a0>
    2e8c:	00800737          	lui	a4,0x800
    2e90:	00341413          	slli	s0,s0,0x3
    2e94:	00e46433          	or	s0,s0,a4
    2e98:	c0188893          	addi	a7,a7,-1023
    2e9c:	01d65713          	srli	a4,a2,0x1d
    2ea0:	00876733          	or	a4,a4,s0
    2ea4:	00361813          	slli	a6,a2,0x3
    2ea8:	011a8ab3          	add	s5,s5,a7
    2eac:	00000513          	li	a0,0
    2eb0:	00f00693          	li	a3,15
    2eb4:	0129c7b3          	xor	a5,s3,s2
    2eb8:	001a8593          	addi	a1,s5,1
    2ebc:	1e96e863          	bltu	a3,s1,30ac <__muldf3+0x2bc>
    2ec0:	00002617          	auipc	a2,0x2
    2ec4:	97460613          	addi	a2,a2,-1676 # 4834 <bitmap_bytes+0x2bc>
    2ec8:	00249493          	slli	s1,s1,0x2
    2ecc:	00c484b3          	add	s1,s1,a2
    2ed0:	0004a683          	lw	a3,0(s1)
    2ed4:	00c686b3          	add	a3,a3,a2
    2ed8:	00068067          	jr	a3
    2edc:	00946b33          	or	s6,s0,s1
    2ee0:	400b1663          	bnez	s6,32ec <__muldf3+0x4fc>
    2ee4:	0146d893          	srli	a7,a3,0x14
    2ee8:	00100437          	lui	s0,0x100
    2eec:	fff40413          	addi	s0,s0,-1 # fffff <_etext+0xfb68b>
    2ef0:	7ff8f893          	andi	a7,a7,2047
    2ef4:	00800493          	li	s1,8
    2ef8:	00000a13          	li	s4,0
    2efc:	7ff00a93          	li	s5,2047
    2f00:	00200b93          	li	s7,2
    2f04:	00060813          	mv	a6,a2
    2f08:	00d47433          	and	s0,s0,a3
    2f0c:	01f6d913          	srli	s2,a3,0x1f
    2f10:	f6089ae3          	bnez	a7,2e84 <__muldf3+0x94>
    2f14:	00c46733          	or	a4,s0,a2
    2f18:	3e070663          	beqz	a4,3304 <__muldf3+0x514>
    2f1c:	4a040463          	beqz	s0,33c4 <__muldf3+0x5d4>
    2f20:	00040513          	mv	a0,s0
    2f24:	00c12423          	sw	a2,8(sp)
    2f28:	719000ef          	jal	ra,3e40 <__clzsi2>
    2f2c:	00812603          	lw	a2,8(sp)
    2f30:	ff550793          	addi	a5,a0,-11
    2f34:	01c00713          	li	a4,28
    2f38:	44f74a63          	blt	a4,a5,338c <__muldf3+0x59c>
    2f3c:	01d00713          	li	a4,29
    2f40:	ff850813          	addi	a6,a0,-8
    2f44:	40f70733          	sub	a4,a4,a5
    2f48:	01041433          	sll	s0,s0,a6
    2f4c:	00e65733          	srl	a4,a2,a4
    2f50:	00876733          	or	a4,a4,s0
    2f54:	01061833          	sll	a6,a2,a6
    2f58:	40aa8533          	sub	a0,s5,a0
    2f5c:	c0d50a93          	addi	s5,a0,-1011
    2f60:	00000513          	li	a0,0
    2f64:	f4dff06f          	j	2eb0 <__muldf3+0xc0>
    2f68:	00000613          	li	a2,0
    2f6c:	7ff00713          	li	a4,2047
    2f70:	000807b7          	lui	a5,0x80
    2f74:	00000813          	li	a6,0
    2f78:	001006b7          	lui	a3,0x100
    2f7c:	fff68693          	addi	a3,a3,-1 # fffff <_etext+0xfb68b>
    2f80:	00d7f7b3          	and	a5,a5,a3
    2f84:	801006b7          	lui	a3,0x80100
    2f88:	fff68693          	addi	a3,a3,-1 # 800fffff <_etext+0x800fb68b>
    2f8c:	00d7f7b3          	and	a5,a5,a3
    2f90:	03c12083          	lw	ra,60(sp)
    2f94:	03812403          	lw	s0,56(sp)
    2f98:	01471713          	slli	a4,a4,0x14
    2f9c:	01f61693          	slli	a3,a2,0x1f
    2fa0:	00e7e7b3          	or	a5,a5,a4
    2fa4:	00d7e7b3          	or	a5,a5,a3
    2fa8:	03412483          	lw	s1,52(sp)
    2fac:	03012903          	lw	s2,48(sp)
    2fb0:	02c12983          	lw	s3,44(sp)
    2fb4:	02812a03          	lw	s4,40(sp)
    2fb8:	02412a83          	lw	s5,36(sp)
    2fbc:	02012b03          	lw	s6,32(sp)
    2fc0:	01c12b83          	lw	s7,28(sp)
    2fc4:	00080513          	mv	a0,a6
    2fc8:	00078593          	mv	a1,a5
    2fcc:	04010113          	addi	sp,sp,64
    2fd0:	00008067          	ret
    2fd4:	00090793          	mv	a5,s2
    2fd8:	00200693          	li	a3,2
    2fdc:	02d51863          	bne	a0,a3,300c <__muldf3+0x21c>
    2fe0:	00078613          	mv	a2,a5
    2fe4:	7ff00713          	li	a4,2047
    2fe8:	00000793          	li	a5,0
    2fec:	00000813          	li	a6,0
    2ff0:	f89ff06f          	j	2f78 <__muldf3+0x188>
    2ff4:	00098793          	mv	a5,s3
    2ff8:	000b8513          	mv	a0,s7
    2ffc:	00200693          	li	a3,2
    3000:	000b0713          	mv	a4,s6
    3004:	000a0813          	mv	a6,s4
    3008:	fcd50ce3          	beq	a0,a3,2fe0 <__muldf3+0x1f0>
    300c:	00300693          	li	a3,3
    3010:	f4d50ce3          	beq	a0,a3,2f68 <__muldf3+0x178>
    3014:	00100693          	li	a3,1
    3018:	24d51a63          	bne	a0,a3,326c <__muldf3+0x47c>
    301c:	00078613          	mv	a2,a5
    3020:	00000713          	li	a4,0
    3024:	00000793          	li	a5,0
    3028:	00000813          	li	a6,0
    302c:	f4dff06f          	j	2f78 <__muldf3+0x188>
    3030:	00946b33          	or	s6,s0,s1
    3034:	2a0b0263          	beqz	s6,32d8 <__muldf3+0x4e8>
    3038:	00d12623          	sw	a3,12(sp)
    303c:	00c12423          	sw	a2,8(sp)
    3040:	36040663          	beqz	s0,33ac <__muldf3+0x5bc>
    3044:	00040513          	mv	a0,s0
    3048:	5f9000ef          	jal	ra,3e40 <__clzsi2>
    304c:	00812603          	lw	a2,8(sp)
    3050:	00c12683          	lw	a3,12(sp)
    3054:	ff550793          	addi	a5,a0,-11
    3058:	01c00713          	li	a4,28
    305c:	34f74063          	blt	a4,a5,339c <__muldf3+0x5ac>
    3060:	01d00b13          	li	s6,29
    3064:	ff850a13          	addi	s4,a0,-8
    3068:	40fb0b33          	sub	s6,s6,a5
    306c:	01441433          	sll	s0,s0,s4
    3070:	0164db33          	srl	s6,s1,s6
    3074:	008b6b33          	or	s6,s6,s0
    3078:	01449a33          	sll	s4,s1,s4
    307c:	c0d00a93          	li	s5,-1011
    3080:	40aa8ab3          	sub	s5,s5,a0
    3084:	00000493          	li	s1,0
    3088:	00000b93          	li	s7,0
    308c:	dd9ff06f          	j	2e64 <__muldf3+0x74>
    3090:	00c46733          	or	a4,s0,a2
    3094:	7ffa8a93          	addi	s5,s5,2047
    3098:	26071e63          	bnez	a4,3314 <__muldf3+0x524>
    309c:	0024e493          	ori	s1,s1,2
    30a0:	00000813          	li	a6,0
    30a4:	00200513          	li	a0,2
    30a8:	e09ff06f          	j	2eb0 <__muldf3+0xc0>
    30ac:	00010eb7          	lui	t4,0x10
    30b0:	fffe8613          	addi	a2,t4,-1 # ffff <_etext+0xb68b>
    30b4:	010a5693          	srli	a3,s4,0x10
    30b8:	01085313          	srli	t1,a6,0x10
    30bc:	00ca7a33          	and	s4,s4,a2
    30c0:	00c87833          	and	a6,a6,a2
    30c4:	03480633          	mul	a2,a6,s4
    30c8:	03068e33          	mul	t3,a3,a6
    30cc:	01065513          	srli	a0,a2,0x10
    30d0:	034308b3          	mul	a7,t1,s4
    30d4:	01c888b3          	add	a7,a7,t3
    30d8:	01150533          	add	a0,a0,a7
    30dc:	02668f33          	mul	t5,a3,t1
    30e0:	01c57463          	bleu	t3,a0,30e8 <__muldf3+0x2f8>
    30e4:	01df0f33          	add	t5,t5,t4
    30e8:	00010e37          	lui	t3,0x10
    30ec:	fffe0893          	addi	a7,t3,-1 # ffff <_etext+0xb68b>
    30f0:	011773b3          	and	t2,a4,a7
    30f4:	01075293          	srli	t0,a4,0x10
    30f8:	01157733          	and	a4,a0,a7
    30fc:	011678b3          	and	a7,a2,a7
    3100:	01071713          	slli	a4,a4,0x10
    3104:	03438633          	mul	a2,t2,s4
    3108:	011708b3          	add	a7,a4,a7
    310c:	01055513          	srli	a0,a0,0x10
    3110:	02768eb3          	mul	t4,a3,t2
    3114:	01065713          	srli	a4,a2,0x10
    3118:	03428a33          	mul	s4,t0,s4
    311c:	01da0a33          	add	s4,s4,t4
    3120:	01470a33          	add	s4,a4,s4
    3124:	025686b3          	mul	a3,a3,t0
    3128:	01da7463          	bleu	t4,s4,3130 <__muldf3+0x340>
    312c:	01c686b3          	add	a3,a3,t3
    3130:	00010937          	lui	s2,0x10
    3134:	fff90713          	addi	a4,s2,-1 # ffff <_etext+0xb68b>
    3138:	010b5f93          	srli	t6,s6,0x10
    313c:	00eb7433          	and	s0,s6,a4
    3140:	00ea7eb3          	and	t4,s4,a4
    3144:	00e67633          	and	a2,a2,a4
    3148:	010e9e93          	slli	t4,t4,0x10
    314c:	028804b3          	mul	s1,a6,s0
    3150:	010a5a13          	srli	s4,s4,0x10
    3154:	00ce8eb3          	add	t4,t4,a2
    3158:	00da0a33          	add	s4,s4,a3
    315c:	01d50533          	add	a0,a0,t4
    3160:	02830733          	mul	a4,t1,s0
    3164:	0104de13          	srli	t3,s1,0x10
    3168:	030f8833          	mul	a6,t6,a6
    316c:	01070733          	add	a4,a4,a6
    3170:	00ee0e33          	add	t3,t3,a4
    3174:	03f30333          	mul	t1,t1,t6
    3178:	010e7463          	bleu	a6,t3,3180 <__muldf3+0x390>
    317c:	01230333          	add	t1,t1,s2
    3180:	00010937          	lui	s2,0x10
    3184:	fff90613          	addi	a2,s2,-1 # ffff <_etext+0xb68b>
    3188:	00ce76b3          	and	a3,t3,a2
    318c:	010e5e13          	srli	t3,t3,0x10
    3190:	006e0333          	add	t1,t3,t1
    3194:	01069693          	slli	a3,a3,0x10
    3198:	00c4f4b3          	and	s1,s1,a2
    319c:	02838e33          	mul	t3,t2,s0
    31a0:	00968633          	add	a2,a3,s1
    31a4:	027f8833          	mul	a6,t6,t2
    31a8:	010e5713          	srli	a4,t3,0x10
    31ac:	02828433          	mul	s0,t0,s0
    31b0:	01040433          	add	s0,s0,a6
    31b4:	00870433          	add	s0,a4,s0
    31b8:	03f28fb3          	mul	t6,t0,t6
    31bc:	01047463          	bleu	a6,s0,31c4 <__muldf3+0x3d4>
    31c0:	012f8fb3          	add	t6,t6,s2
    31c4:	00010737          	lui	a4,0x10
    31c8:	fff70713          	addi	a4,a4,-1 # ffff <_etext+0xb68b>
    31cc:	00e476b3          	and	a3,s0,a4
    31d0:	01069693          	slli	a3,a3,0x10
    31d4:	00ee7733          	and	a4,t3,a4
    31d8:	01e50533          	add	a0,a0,t5
    31dc:	00e686b3          	add	a3,a3,a4
    31e0:	01d53eb3          	sltu	t4,a0,t4
    31e4:	01468733          	add	a4,a3,s4
    31e8:	00c50533          	add	a0,a0,a2
    31ec:	01d70833          	add	a6,a4,t4
    31f0:	00c536b3          	sltu	a3,a0,a2
    31f4:	00680e33          	add	t3,a6,t1
    31f8:	00de0633          	add	a2,t3,a3
    31fc:	01d83eb3          	sltu	t4,a6,t4
    3200:	01473733          	sltu	a4,a4,s4
    3204:	01d76733          	or	a4,a4,t4
    3208:	01045413          	srli	s0,s0,0x10
    320c:	006e3333          	sltu	t1,t3,t1
    3210:	00d636b3          	sltu	a3,a2,a3
    3214:	00d366b3          	or	a3,t1,a3
    3218:	00870733          	add	a4,a4,s0
    321c:	00d70733          	add	a4,a4,a3
    3220:	00951813          	slli	a6,a0,0x9
    3224:	01186833          	or	a6,a6,a7
    3228:	01f70733          	add	a4,a4,t6
    322c:	00971713          	slli	a4,a4,0x9
    3230:	01765893          	srli	a7,a2,0x17
    3234:	01003833          	snez	a6,a6
    3238:	01755513          	srli	a0,a0,0x17
    323c:	00961693          	slli	a3,a2,0x9
    3240:	00a86833          	or	a6,a6,a0
    3244:	01176733          	or	a4,a4,a7
    3248:	00d86833          	or	a6,a6,a3
    324c:	00771693          	slli	a3,a4,0x7
    3250:	1806d663          	bgez	a3,33dc <__muldf3+0x5ec>
    3254:	00185693          	srli	a3,a6,0x1
    3258:	00187813          	andi	a6,a6,1
    325c:	01f71613          	slli	a2,a4,0x1f
    3260:	0106e833          	or	a6,a3,a6
    3264:	00c86833          	or	a6,a6,a2
    3268:	00175713          	srli	a4,a4,0x1
    326c:	3ff58693          	addi	a3,a1,1023
    3270:	00078613          	mv	a2,a5
    3274:	0ad05863          	blez	a3,3324 <__muldf3+0x534>
    3278:	00787793          	andi	a5,a6,7
    327c:	02078063          	beqz	a5,329c <__muldf3+0x4ac>
    3280:	00f87793          	andi	a5,a6,15
    3284:	00400513          	li	a0,4
    3288:	00a78a63          	beq	a5,a0,329c <__muldf3+0x4ac>
    328c:	00480793          	addi	a5,a6,4
    3290:	0107b833          	sltu	a6,a5,a6
    3294:	01070733          	add	a4,a4,a6
    3298:	00078813          	mv	a6,a5
    329c:	00771793          	slli	a5,a4,0x7
    32a0:	0007da63          	bgez	a5,32b4 <__muldf3+0x4c4>
    32a4:	ff0007b7          	lui	a5,0xff000
    32a8:	fff78793          	addi	a5,a5,-1 # feffffff <_etext+0xfeffb68b>
    32ac:	00f77733          	and	a4,a4,a5
    32b0:	40058693          	addi	a3,a1,1024
    32b4:	7fe00793          	li	a5,2046
    32b8:	12d7c663          	blt	a5,a3,33e4 <__muldf3+0x5f4>
    32bc:	00385793          	srli	a5,a6,0x3
    32c0:	01d71813          	slli	a6,a4,0x1d
    32c4:	00971713          	slli	a4,a4,0x9
    32c8:	00f86833          	or	a6,a6,a5
    32cc:	00c75793          	srli	a5,a4,0xc
    32d0:	7ff6f713          	andi	a4,a3,2047
    32d4:	ca5ff06f          	j	2f78 <__muldf3+0x188>
    32d8:	00400493          	li	s1,4
    32dc:	00000a13          	li	s4,0
    32e0:	00000a93          	li	s5,0
    32e4:	00100b93          	li	s7,1
    32e8:	b7dff06f          	j	2e64 <__muldf3+0x74>
    32ec:	00048a13          	mv	s4,s1
    32f0:	00040b13          	mv	s6,s0
    32f4:	00c00493          	li	s1,12
    32f8:	7ff00a93          	li	s5,2047
    32fc:	00300b93          	li	s7,3
    3300:	b65ff06f          	j	2e64 <__muldf3+0x74>
    3304:	0014e493          	ori	s1,s1,1
    3308:	00000813          	li	a6,0
    330c:	00100513          	li	a0,1
    3310:	ba1ff06f          	j	2eb0 <__muldf3+0xc0>
    3314:	0034e493          	ori	s1,s1,3
    3318:	00040713          	mv	a4,s0
    331c:	00300513          	li	a0,3
    3320:	b91ff06f          	j	2eb0 <__muldf3+0xc0>
    3324:	00100793          	li	a5,1
    3328:	40d787b3          	sub	a5,a5,a3
    332c:	0c069463          	bnez	a3,33f4 <__muldf3+0x604>
    3330:	41e58593          	addi	a1,a1,1054
    3334:	00b816b3          	sll	a3,a6,a1
    3338:	00b715b3          	sll	a1,a4,a1
    333c:	00f85833          	srl	a6,a6,a5
    3340:	00d036b3          	snez	a3,a3
    3344:	0105e5b3          	or	a1,a1,a6
    3348:	00d5e5b3          	or	a1,a1,a3
    334c:	0075f693          	andi	a3,a1,7
    3350:	00f75733          	srl	a4,a4,a5
    3354:	02068063          	beqz	a3,3374 <__muldf3+0x584>
    3358:	00f5f793          	andi	a5,a1,15
    335c:	00400693          	li	a3,4
    3360:	00d78a63          	beq	a5,a3,3374 <__muldf3+0x584>
    3364:	00058813          	mv	a6,a1
    3368:	00480593          	addi	a1,a6,4
    336c:	0105b833          	sltu	a6,a1,a6
    3370:	01070733          	add	a4,a4,a6
    3374:	00871793          	slli	a5,a4,0x8
    3378:	0e07d263          	bgez	a5,345c <__muldf3+0x66c>
    337c:	00100713          	li	a4,1
    3380:	00000793          	li	a5,0
    3384:	00000813          	li	a6,0
    3388:	bf1ff06f          	j	2f78 <__muldf3+0x188>
    338c:	fd850713          	addi	a4,a0,-40
    3390:	00e61733          	sll	a4,a2,a4
    3394:	00000813          	li	a6,0
    3398:	bc1ff06f          	j	2f58 <__muldf3+0x168>
    339c:	fd850413          	addi	s0,a0,-40
    33a0:	00849b33          	sll	s6,s1,s0
    33a4:	00000a13          	li	s4,0
    33a8:	cd5ff06f          	j	307c <__muldf3+0x28c>
    33ac:	00048513          	mv	a0,s1
    33b0:	291000ef          	jal	ra,3e40 <__clzsi2>
    33b4:	02050513          	addi	a0,a0,32
    33b8:	00c12683          	lw	a3,12(sp)
    33bc:	00812603          	lw	a2,8(sp)
    33c0:	c95ff06f          	j	3054 <__muldf3+0x264>
    33c4:	00060513          	mv	a0,a2
    33c8:	00c12423          	sw	a2,8(sp)
    33cc:	275000ef          	jal	ra,3e40 <__clzsi2>
    33d0:	02050513          	addi	a0,a0,32
    33d4:	00812603          	lw	a2,8(sp)
    33d8:	b59ff06f          	j	2f30 <__muldf3+0x140>
    33dc:	000a8593          	mv	a1,s5
    33e0:	e8dff06f          	j	326c <__muldf3+0x47c>
    33e4:	7ff00713          	li	a4,2047
    33e8:	00000793          	li	a5,0
    33ec:	00000813          	li	a6,0
    33f0:	b89ff06f          	j	2f78 <__muldf3+0x188>
    33f4:	03800513          	li	a0,56
    33f8:	00f55a63          	ble	a5,a0,340c <__muldf3+0x61c>
    33fc:	00000713          	li	a4,0
    3400:	00000793          	li	a5,0
    3404:	00000813          	li	a6,0
    3408:	b71ff06f          	j	2f78 <__muldf3+0x188>
    340c:	01f00513          	li	a0,31
    3410:	f2f550e3          	ble	a5,a0,3330 <__muldf3+0x540>
    3414:	fe100513          	li	a0,-31
    3418:	40d506b3          	sub	a3,a0,a3
    341c:	02000513          	li	a0,32
    3420:	00d756b3          	srl	a3,a4,a3
    3424:	00a78863          	beq	a5,a0,3434 <__muldf3+0x644>
    3428:	43e58593          	addi	a1,a1,1086
    342c:	00b71733          	sll	a4,a4,a1
    3430:	00e86833          	or	a6,a6,a4
    3434:	01003833          	snez	a6,a6
    3438:	00d86833          	or	a6,a6,a3
    343c:	00787713          	andi	a4,a6,7
    3440:	00000793          	li	a5,0
    3444:	02070463          	beqz	a4,346c <__muldf3+0x67c>
    3448:	00f87793          	andi	a5,a6,15
    344c:	00400693          	li	a3,4
    3450:	00000713          	li	a4,0
    3454:	00080593          	mv	a1,a6
    3458:	f0d798e3          	bne	a5,a3,3368 <__muldf3+0x578>
    345c:	00971693          	slli	a3,a4,0x9
    3460:	00c6d793          	srli	a5,a3,0xc
    3464:	01d71713          	slli	a4,a4,0x1d
    3468:	00058813          	mv	a6,a1
    346c:	00385813          	srli	a6,a6,0x3
    3470:	00e86833          	or	a6,a6,a4
    3474:	00000713          	li	a4,0
    3478:	b01ff06f          	j	2f78 <__muldf3+0x188>

0000347c <__subdf3>:
__subdf3():
    347c:	00100837          	lui	a6,0x100
    3480:	fff80813          	addi	a6,a6,-1 # fffff <_etext+0xfb68b>
    3484:	fe010113          	addi	sp,sp,-32
    3488:	00b877b3          	and	a5,a6,a1
    348c:	0146d893          	srli	a7,a3,0x14
    3490:	00d87833          	and	a6,a6,a3
    3494:	00379313          	slli	t1,a5,0x3
    3498:	00812c23          	sw	s0,24(sp)
    349c:	01d55793          	srli	a5,a0,0x1d
    34a0:	00912a23          	sw	s1,20(sp)
    34a4:	01212823          	sw	s2,16(sp)
    34a8:	0145d493          	srli	s1,a1,0x14
    34ac:	01d65913          	srli	s2,a2,0x1d
    34b0:	00381813          	slli	a6,a6,0x3
    34b4:	00112e23          	sw	ra,28(sp)
    34b8:	01312623          	sw	s3,12(sp)
    34bc:	7ff8f893          	andi	a7,a7,2047
    34c0:	7ff00713          	li	a4,2047
    34c4:	01f5d413          	srli	s0,a1,0x1f
    34c8:	7ff4f493          	andi	s1,s1,2047
    34cc:	0067e7b3          	or	a5,a5,t1
    34d0:	00351513          	slli	a0,a0,0x3
    34d4:	01f6d693          	srli	a3,a3,0x1f
    34d8:	010965b3          	or	a1,s2,a6
    34dc:	00361613          	slli	a2,a2,0x3
    34e0:	0ae88663          	beq	a7,a4,358c <__subdf3+0x110>
    34e4:	0016c693          	xori	a3,a3,1
    34e8:	41148833          	sub	a6,s1,a7
    34ec:	0a868863          	beq	a3,s0,359c <__subdf3+0x120>
    34f0:	0f005463          	blez	a6,35d8 <__subdf3+0x15c>
    34f4:	12089463          	bnez	a7,361c <__subdf3+0x1a0>
    34f8:	00c5e733          	or	a4,a1,a2
    34fc:	24071c63          	bnez	a4,3754 <__subdf3+0x2d8>
    3500:	7ff00713          	li	a4,2047
    3504:	38e80e63          	beq	a6,a4,38a0 <__subdf3+0x424>
    3508:	01d79693          	slli	a3,a5,0x1d
    350c:	00355513          	srli	a0,a0,0x3
    3510:	00d569b3          	or	s3,a0,a3
    3514:	0037d793          	srli	a5,a5,0x3
    3518:	7ff00713          	li	a4,2047
    351c:	56e80063          	beq	a6,a4,3a7c <__subdf3+0x600>
    3520:	00100737          	lui	a4,0x100
    3524:	fff70713          	addi	a4,a4,-1 # fffff <_etext+0xfb68b>
    3528:	00e7f7b3          	and	a5,a5,a4
    352c:	7ff87813          	andi	a6,a6,2047
    3530:	00147593          	andi	a1,s0,1
    3534:	00100737          	lui	a4,0x100
    3538:	fff70713          	addi	a4,a4,-1 # fffff <_etext+0xfb68b>
    353c:	00e7f7b3          	and	a5,a5,a4
    3540:	80100737          	lui	a4,0x80100
    3544:	fff70713          	addi	a4,a4,-1 # 800fffff <_etext+0x800fb68b>
    3548:	00e7f7b3          	and	a5,a5,a4
    354c:	01481813          	slli	a6,a6,0x14
    3550:	80000737          	lui	a4,0x80000
    3554:	01c12083          	lw	ra,28(sp)
    3558:	01812403          	lw	s0,24(sp)
    355c:	0107e7b3          	or	a5,a5,a6
    3560:	fff74713          	not	a4,a4
    3564:	01f59593          	slli	a1,a1,0x1f
    3568:	00e7f7b3          	and	a5,a5,a4
    356c:	00b7e7b3          	or	a5,a5,a1
    3570:	00098513          	mv	a0,s3
    3574:	01412483          	lw	s1,20(sp)
    3578:	01012903          	lw	s2,16(sp)
    357c:	00c12983          	lw	s3,12(sp)
    3580:	00078593          	mv	a1,a5
    3584:	02010113          	addi	sp,sp,32
    3588:	00008067          	ret
    358c:	00c5e733          	or	a4,a1,a2
    3590:	f4070ae3          	beqz	a4,34e4 <__subdf3+0x68>
    3594:	41148833          	sub	a6,s1,a7
    3598:	f4869ce3          	bne	a3,s0,34f0 <__subdf3+0x74>
    359c:	33005063          	blez	a6,38bc <__subdf3+0x440>
    35a0:	0c089263          	bnez	a7,3664 <__subdf3+0x1e8>
    35a4:	00c5e733          	or	a4,a1,a2
    35a8:	f4070ce3          	beqz	a4,3500 <__subdf3+0x84>
    35ac:	fff80713          	addi	a4,a6,-1
    35b0:	48071c63          	bnez	a4,3a48 <__subdf3+0x5cc>
    35b4:	00c509b3          	add	s3,a0,a2
    35b8:	00b78933          	add	s2,a5,a1
    35bc:	00a9b533          	sltu	a0,s3,a0
    35c0:	00a90333          	add	t1,s2,a0
    35c4:	00831793          	slli	a5,t1,0x8
    35c8:	00100493          	li	s1,1
    35cc:	2a07d663          	bgez	a5,3878 <__subdf3+0x3fc>
    35d0:	00200493          	li	s1,2
    35d4:	0f80006f          	j	36cc <__subdf3+0x250>
    35d8:	22081063          	bnez	a6,37f8 <__subdf3+0x37c>
    35dc:	00148713          	addi	a4,s1,1
    35e0:	7ff77713          	andi	a4,a4,2047
    35e4:	00100813          	li	a6,1
    35e8:	36e85663          	ble	a4,a6,3954 <__subdf3+0x4d8>
    35ec:	40c509b3          	sub	s3,a0,a2
    35f0:	01353733          	sltu	a4,a0,s3
    35f4:	40b78933          	sub	s2,a5,a1
    35f8:	40e90933          	sub	s2,s2,a4
    35fc:	00891713          	slli	a4,s2,0x8
    3600:	3a074a63          	bltz	a4,39b4 <__subdf3+0x538>
    3604:	0129e7b3          	or	a5,s3,s2
    3608:	16079e63          	bnez	a5,3784 <__subdf3+0x308>
    360c:	00000413          	li	s0,0
    3610:	00000993          	li	s3,0
    3614:	00040813          	mv	a6,s0
    3618:	f09ff06f          	j	3520 <__subdf3+0xa4>
    361c:	008006b7          	lui	a3,0x800
    3620:	7ff00713          	li	a4,2047
    3624:	00d5e5b3          	or	a1,a1,a3
    3628:	22e48c63          	beq	s1,a4,3860 <__subdf3+0x3e4>
    362c:	03800713          	li	a4,56
    3630:	31074663          	blt	a4,a6,393c <__subdf3+0x4c0>
    3634:	01f00713          	li	a4,31
    3638:	3b075063          	ble	a6,a4,39d8 <__subdf3+0x55c>
    363c:	02000713          	li	a4,32
    3640:	0105d6b3          	srl	a3,a1,a6
    3644:	00e80a63          	beq	a6,a4,3658 <__subdf3+0x1dc>
    3648:	04000913          	li	s2,64
    364c:	41090833          	sub	a6,s2,a6
    3650:	01059933          	sll	s2,a1,a6
    3654:	01266633          	or	a2,a2,s2
    3658:	00c03633          	snez	a2,a2
    365c:	00d666b3          	or	a3,a2,a3
    3660:	2e40006f          	j	3944 <__subdf3+0x4c8>
    3664:	008006b7          	lui	a3,0x800
    3668:	7ff00713          	li	a4,2047
    366c:	00d5e5b3          	or	a1,a1,a3
    3670:	1ee48863          	beq	s1,a4,3860 <__subdf3+0x3e4>
    3674:	03800713          	li	a4,56
    3678:	35074a63          	blt	a4,a6,39cc <__subdf3+0x550>
    367c:	01f00713          	li	a4,31
    3680:	4b074663          	blt	a4,a6,3b2c <__subdf3+0x6b0>
    3684:	02000713          	li	a4,32
    3688:	41070733          	sub	a4,a4,a6
    368c:	010656b3          	srl	a3,a2,a6
    3690:	00e599b3          	sll	s3,a1,a4
    3694:	00e61633          	sll	a2,a2,a4
    3698:	00d9e9b3          	or	s3,s3,a3
    369c:	0105d933          	srl	s2,a1,a6
    36a0:	00c036b3          	snez	a3,a2
    36a4:	00d9e6b3          	or	a3,s3,a3
    36a8:	012787b3          	add	a5,a5,s2
    36ac:	00a689b3          	add	s3,a3,a0
    36b0:	00a9b533          	sltu	a0,s3,a0
    36b4:	00f50333          	add	t1,a0,a5
    36b8:	00831793          	slli	a5,t1,0x8
    36bc:	1a07de63          	bgez	a5,3878 <__subdf3+0x3fc>
    36c0:	00148493          	addi	s1,s1,1
    36c4:	7ff00793          	li	a5,2047
    36c8:	1ef48063          	beq	s1,a5,38a8 <__subdf3+0x42c>
    36cc:	ff800937          	lui	s2,0xff800
    36d0:	fff90913          	addi	s2,s2,-1 # ff7fffff <_etext+0xff7fb68b>
    36d4:	0019d793          	srli	a5,s3,0x1
    36d8:	01237933          	and	s2,t1,s2
    36dc:	0019f693          	andi	a3,s3,1
    36e0:	00d7e6b3          	or	a3,a5,a3
    36e4:	01f91993          	slli	s3,s2,0x1f
    36e8:	00d9e9b3          	or	s3,s3,a3
    36ec:	00195313          	srli	t1,s2,0x1
    36f0:	0079f793          	andi	a5,s3,7
    36f4:	02078063          	beqz	a5,3714 <__subdf3+0x298>
    36f8:	00f9f593          	andi	a1,s3,15
    36fc:	00400793          	li	a5,4
    3700:	00f58a63          	beq	a1,a5,3714 <__subdf3+0x298>
    3704:	00498713          	addi	a4,s3,4
    3708:	013736b3          	sltu	a3,a4,s3
    370c:	00d30333          	add	t1,t1,a3
    3710:	00070993          	mv	s3,a4
    3714:	00831793          	slli	a5,t1,0x8
    3718:	5c07da63          	bgez	a5,3cec <__subdf3+0x870>
    371c:	00148813          	addi	a6,s1,1
    3720:	7ff00793          	li	a5,2047
    3724:	00147593          	andi	a1,s0,1
    3728:	18f80263          	beq	a6,a5,38ac <__subdf3+0x430>
    372c:	ff800737          	lui	a4,0xff800
    3730:	fff70713          	addi	a4,a4,-1 # ff7fffff <_etext+0xff7fb68b>
    3734:	00e37733          	and	a4,t1,a4
    3738:	0039d693          	srli	a3,s3,0x3
    373c:	00971793          	slli	a5,a4,0x9
    3740:	01d71993          	slli	s3,a4,0x1d
    3744:	00d9e9b3          	or	s3,s3,a3
    3748:	00c7d793          	srli	a5,a5,0xc
    374c:	7ff87813          	andi	a6,a6,2047
    3750:	de5ff06f          	j	3534 <__subdf3+0xb8>
    3754:	fff80713          	addi	a4,a6,-1
    3758:	14071063          	bnez	a4,3898 <__subdf3+0x41c>
    375c:	40c509b3          	sub	s3,a0,a2
    3760:	40b78933          	sub	s2,a5,a1
    3764:	01353533          	sltu	a0,a0,s3
    3768:	40a90333          	sub	t1,s2,a0
    376c:	00100493          	li	s1,1
    3770:	00831793          	slli	a5,t1,0x8
    3774:	1007d263          	bgez	a5,3878 <__subdf3+0x3fc>
    3778:	00800937          	lui	s2,0x800
    377c:	fff90913          	addi	s2,s2,-1 # 7fffff <_etext+0x7fb68b>
    3780:	01237933          	and	s2,t1,s2
    3784:	1a090463          	beqz	s2,392c <__subdf3+0x4b0>
    3788:	00090513          	mv	a0,s2
    378c:	6b4000ef          	jal	ra,3e40 <__clzsi2>
    3790:	ff850813          	addi	a6,a0,-8
    3794:	01f00793          	li	a5,31
    3798:	1707c663          	blt	a5,a6,3904 <__subdf3+0x488>
    379c:	02000313          	li	t1,32
    37a0:	41030333          	sub	t1,t1,a6
    37a4:	0069d333          	srl	t1,s3,t1
    37a8:	01091933          	sll	s2,s2,a6
    37ac:	01236933          	or	s2,t1,s2
    37b0:	010999b3          	sll	s3,s3,a6
    37b4:	16984063          	blt	a6,s1,3914 <__subdf3+0x498>
    37b8:	40980833          	sub	a6,a6,s1
    37bc:	00180713          	addi	a4,a6,1
    37c0:	01f00793          	li	a5,31
    37c4:	1ae7cc63          	blt	a5,a4,397c <__subdf3+0x500>
    37c8:	02000793          	li	a5,32
    37cc:	40e787b3          	sub	a5,a5,a4
    37d0:	00f996b3          	sll	a3,s3,a5
    37d4:	00e9d633          	srl	a2,s3,a4
    37d8:	00f917b3          	sll	a5,s2,a5
    37dc:	00c7e7b3          	or	a5,a5,a2
    37e0:	00d036b3          	snez	a3,a3
    37e4:	00d7e9b3          	or	s3,a5,a3
    37e8:	00e95333          	srl	t1,s2,a4
    37ec:	0079f793          	andi	a5,s3,7
    37f0:	00000493          	li	s1,0
    37f4:	f01ff06f          	j	36f4 <__subdf3+0x278>
    37f8:	20048663          	beqz	s1,3a04 <__subdf3+0x588>
    37fc:	7ff00713          	li	a4,2047
    3800:	30e88863          	beq	a7,a4,3b10 <__subdf3+0x694>
    3804:	00800737          	lui	a4,0x800
    3808:	41000833          	neg	a6,a6
    380c:	00e7e7b3          	or	a5,a5,a4
    3810:	03800713          	li	a4,56
    3814:	3b074063          	blt	a4,a6,3bb4 <__subdf3+0x738>
    3818:	01f00713          	li	a4,31
    381c:	43074e63          	blt	a4,a6,3c58 <__subdf3+0x7dc>
    3820:	02000713          	li	a4,32
    3824:	41070733          	sub	a4,a4,a6
    3828:	00e799b3          	sll	s3,a5,a4
    382c:	01055333          	srl	t1,a0,a6
    3830:	00e51733          	sll	a4,a0,a4
    3834:	0069e9b3          	or	s3,s3,t1
    3838:	00e03733          	snez	a4,a4
    383c:	0107d833          	srl	a6,a5,a6
    3840:	00e9e9b3          	or	s3,s3,a4
    3844:	410585b3          	sub	a1,a1,a6
    3848:	413609b3          	sub	s3,a2,s3
    384c:	01363633          	sltu	a2,a2,s3
    3850:	40c58333          	sub	t1,a1,a2
    3854:	00088493          	mv	s1,a7
    3858:	00068413          	mv	s0,a3
    385c:	f15ff06f          	j	3770 <__subdf3+0x2f4>
    3860:	00a7e733          	or	a4,a5,a0
    3864:	04070263          	beqz	a4,38a8 <__subdf3+0x42c>
    3868:	7ff00813          	li	a6,2047
    386c:	c9dff06f          	j	3508 <__subdf3+0x8c>
    3870:	0069e7b3          	or	a5,s3,t1
    3874:	d8078ce3          	beqz	a5,360c <__subdf3+0x190>
    3878:	0079f793          	andi	a5,s3,7
    387c:	e6079ee3          	bnez	a5,36f8 <__subdf3+0x27c>
    3880:	01d31793          	slli	a5,t1,0x1d
    3884:	0039d693          	srli	a3,s3,0x3
    3888:	00f6e9b3          	or	s3,a3,a5
    388c:	00048813          	mv	a6,s1
    3890:	00335793          	srli	a5,t1,0x3
    3894:	c85ff06f          	j	3518 <__subdf3+0x9c>
    3898:	7ff00693          	li	a3,2047
    389c:	18d81663          	bne	a6,a3,3a28 <__subdf3+0x5ac>
    38a0:	00a7e733          	or	a4,a5,a0
    38a4:	c60712e3          	bnez	a4,3508 <__subdf3+0x8c>
    38a8:	00147593          	andi	a1,s0,1
    38ac:	7ff00813          	li	a6,2047
    38b0:	00000793          	li	a5,0
    38b4:	00000993          	li	s3,0
    38b8:	c7dff06f          	j	3534 <__subdf3+0xb8>
    38bc:	18081e63          	bnez	a6,3a58 <__subdf3+0x5dc>
    38c0:	00148893          	addi	a7,s1,1
    38c4:	7ff8f813          	andi	a6,a7,2047
    38c8:	00100713          	li	a4,1
    38cc:	1d075663          	ble	a6,a4,3a98 <__subdf3+0x61c>
    38d0:	7ff00713          	li	a4,2047
    38d4:	fce88ae3          	beq	a7,a4,38a8 <__subdf3+0x42c>
    38d8:	00c50633          	add	a2,a0,a2
    38dc:	00b78933          	add	s2,a5,a1
    38e0:	00a63533          	sltu	a0,a2,a0
    38e4:	00a90533          	add	a0,s2,a0
    38e8:	01f51693          	slli	a3,a0,0x1f
    38ec:	00165613          	srli	a2,a2,0x1
    38f0:	00c6e9b3          	or	s3,a3,a2
    38f4:	00155313          	srli	t1,a0,0x1
    38f8:	0079f793          	andi	a5,s3,7
    38fc:	00088493          	mv	s1,a7
    3900:	df5ff06f          	j	36f4 <__subdf3+0x278>
    3904:	fd850913          	addi	s2,a0,-40
    3908:	01299933          	sll	s2,s3,s2
    390c:	00000993          	li	s3,0
    3910:	ea9854e3          	ble	s1,a6,37b8 <__subdf3+0x33c>
    3914:	ff800737          	lui	a4,0xff800
    3918:	fff70713          	addi	a4,a4,-1 # ff7fffff <_etext+0xff7fb68b>
    391c:	410484b3          	sub	s1,s1,a6
    3920:	00e97333          	and	t1,s2,a4
    3924:	0079f793          	andi	a5,s3,7
    3928:	dcdff06f          	j	36f4 <__subdf3+0x278>
    392c:	00098513          	mv	a0,s3
    3930:	510000ef          	jal	ra,3e40 <__clzsi2>
    3934:	02050513          	addi	a0,a0,32
    3938:	e59ff06f          	j	3790 <__subdf3+0x314>
    393c:	00c5e633          	or	a2,a1,a2
    3940:	00c036b3          	snez	a3,a2
    3944:	40d509b3          	sub	s3,a0,a3
    3948:	01353533          	sltu	a0,a0,s3
    394c:	40a78333          	sub	t1,a5,a0
    3950:	e21ff06f          	j	3770 <__subdf3+0x2f4>
    3954:	00a7e733          	or	a4,a5,a0
    3958:	00c5e9b3          	or	s3,a1,a2
    395c:	0c049a63          	bnez	s1,3a30 <__subdf3+0x5b4>
    3960:	2a071a63          	bnez	a4,3c14 <__subdf3+0x798>
    3964:	32098c63          	beqz	s3,3c9c <__subdf3+0x820>
    3968:	00058793          	mv	a5,a1
    396c:	00060513          	mv	a0,a2
    3970:	00048813          	mv	a6,s1
    3974:	00068413          	mv	s0,a3
    3978:	b91ff06f          	j	3508 <__subdf3+0x8c>
    397c:	fe180813          	addi	a6,a6,-31
    3980:	02000793          	li	a5,32
    3984:	01095833          	srl	a6,s2,a6
    3988:	00f70a63          	beq	a4,a5,399c <__subdf3+0x520>
    398c:	04000313          	li	t1,64
    3990:	40e30333          	sub	t1,t1,a4
    3994:	00691933          	sll	s2,s2,t1
    3998:	0129e9b3          	or	s3,s3,s2
    399c:	013036b3          	snez	a3,s3
    39a0:	0106e9b3          	or	s3,a3,a6
    39a4:	0079f793          	andi	a5,s3,7
    39a8:	00000313          	li	t1,0
    39ac:	00000493          	li	s1,0
    39b0:	ecdff06f          	j	387c <__subdf3+0x400>
    39b4:	40a609b3          	sub	s3,a2,a0
    39b8:	40f58933          	sub	s2,a1,a5
    39bc:	01363633          	sltu	a2,a2,s3
    39c0:	40c90933          	sub	s2,s2,a2
    39c4:	00068413          	mv	s0,a3
    39c8:	dbdff06f          	j	3784 <__subdf3+0x308>
    39cc:	00c5e633          	or	a2,a1,a2
    39d0:	00c036b3          	snez	a3,a2
    39d4:	cd9ff06f          	j	36ac <__subdf3+0x230>
    39d8:	02000713          	li	a4,32
    39dc:	41070733          	sub	a4,a4,a6
    39e0:	010656b3          	srl	a3,a2,a6
    39e4:	00e599b3          	sll	s3,a1,a4
    39e8:	00e61633          	sll	a2,a2,a4
    39ec:	00d9e9b3          	or	s3,s3,a3
    39f0:	0105d933          	srl	s2,a1,a6
    39f4:	00c036b3          	snez	a3,a2
    39f8:	00d9e6b3          	or	a3,s3,a3
    39fc:	412787b3          	sub	a5,a5,s2
    3a00:	f45ff06f          	j	3944 <__subdf3+0x4c8>
    3a04:	00a7e733          	or	a4,a5,a0
    3a08:	0e071a63          	bnez	a4,3afc <__subdf3+0x680>
    3a0c:	7ff00793          	li	a5,2047
    3a10:	10f88063          	beq	a7,a5,3b10 <__subdf3+0x694>
    3a14:	00088813          	mv	a6,a7
    3a18:	00068413          	mv	s0,a3
    3a1c:	00058793          	mv	a5,a1
    3a20:	00060513          	mv	a0,a2
    3a24:	ae5ff06f          	j	3508 <__subdf3+0x8c>
    3a28:	00070813          	mv	a6,a4
    3a2c:	c01ff06f          	j	362c <__subdf3+0x1b0>
    3a30:	1a071663          	bnez	a4,3bdc <__subdf3+0x760>
    3a34:	1a099063          	bnez	s3,3bd4 <__subdf3+0x758>
    3a38:	00000593          	li	a1,0
    3a3c:	7ff00813          	li	a6,2047
    3a40:	000807b7          	lui	a5,0x80
    3a44:	af1ff06f          	j	3534 <__subdf3+0xb8>
    3a48:	7ff00693          	li	a3,2047
    3a4c:	e4d80ae3          	beq	a6,a3,38a0 <__subdf3+0x424>
    3a50:	00070813          	mv	a6,a4
    3a54:	c21ff06f          	j	3674 <__subdf3+0x1f8>
    3a58:	0e049e63          	bnez	s1,3b54 <__subdf3+0x6d8>
    3a5c:	00a7e733          	or	a4,a5,a0
    3a60:	18071463          	bnez	a4,3be8 <__subdf3+0x76c>
    3a64:	7ff00793          	li	a5,2047
    3a68:	18f88a63          	beq	a7,a5,3bfc <__subdf3+0x780>
    3a6c:	00088813          	mv	a6,a7
    3a70:	00058793          	mv	a5,a1
    3a74:	00060513          	mv	a0,a2
    3a78:	a91ff06f          	j	3508 <__subdf3+0x8c>
    3a7c:	0137e7b3          	or	a5,a5,s3
    3a80:	e20784e3          	beqz	a5,38a8 <__subdf3+0x42c>
    3a84:	00000593          	li	a1,0
    3a88:	7ff00813          	li	a6,2047
    3a8c:	000807b7          	lui	a5,0x80
    3a90:	00000993          	li	s3,0
    3a94:	aa1ff06f          	j	3534 <__subdf3+0xb8>
    3a98:	00a7e733          	or	a4,a5,a0
    3a9c:	12049263          	bnez	s1,3bc0 <__subdf3+0x744>
    3aa0:	04070463          	beqz	a4,3ae8 <__subdf3+0x66c>
    3aa4:	00c5e733          	or	a4,a1,a2
    3aa8:	02070c63          	beqz	a4,3ae0 <__subdf3+0x664>
    3aac:	00c509b3          	add	s3,a0,a2
    3ab0:	00b78933          	add	s2,a5,a1
    3ab4:	00a9b533          	sltu	a0,s3,a0
    3ab8:	00a90333          	add	t1,s2,a0
    3abc:	00831713          	slli	a4,t1,0x8
    3ac0:	0079f793          	andi	a5,s3,7
    3ac4:	da075ce3          	bgez	a4,387c <__subdf3+0x400>
    3ac8:	ff800737          	lui	a4,0xff800
    3acc:	fff70713          	addi	a4,a4,-1 # ff7fffff <_etext+0xff7fb68b>
    3ad0:	00e37333          	and	t1,t1,a4
    3ad4:	00100493          	li	s1,1
    3ad8:	c1dff06f          	j	36f4 <__subdf3+0x278>
    3adc:	00040693          	mv	a3,s0
    3ae0:	00078593          	mv	a1,a5
    3ae4:	00050613          	mv	a2,a0
    3ae8:	00048813          	mv	a6,s1
    3aec:	00068413          	mv	s0,a3
    3af0:	00058793          	mv	a5,a1
    3af4:	00060513          	mv	a0,a2
    3af8:	a11ff06f          	j	3508 <__subdf3+0x8c>
    3afc:	fff00713          	li	a4,-1
    3b00:	18e80063          	beq	a6,a4,3c80 <__subdf3+0x804>
    3b04:	7ff00713          	li	a4,2047
    3b08:	fff84813          	not	a6,a6
    3b0c:	d0e892e3          	bne	a7,a4,3810 <__subdf3+0x394>
    3b10:	00c5e7b3          	or	a5,a1,a2
    3b14:	00068413          	mv	s0,a3
    3b18:	d80788e3          	beqz	a5,38a8 <__subdf3+0x42c>
    3b1c:	00058793          	mv	a5,a1
    3b20:	00060513          	mv	a0,a2
    3b24:	7ff00813          	li	a6,2047
    3b28:	9e1ff06f          	j	3508 <__subdf3+0x8c>
    3b2c:	02000713          	li	a4,32
    3b30:	0105d6b3          	srl	a3,a1,a6
    3b34:	00e80a63          	beq	a6,a4,3b48 <__subdf3+0x6cc>
    3b38:	04000913          	li	s2,64
    3b3c:	41090833          	sub	a6,s2,a6
    3b40:	01059933          	sll	s2,a1,a6
    3b44:	01266633          	or	a2,a2,s2
    3b48:	00c03633          	snez	a2,a2
    3b4c:	00d666b3          	or	a3,a2,a3
    3b50:	b5dff06f          	j	36ac <__subdf3+0x230>
    3b54:	7ff00713          	li	a4,2047
    3b58:	0ae88263          	beq	a7,a4,3bfc <__subdf3+0x780>
    3b5c:	00800737          	lui	a4,0x800
    3b60:	41000833          	neg	a6,a6
    3b64:	00e7e7b3          	or	a5,a5,a4
    3b68:	03800713          	li	a4,56
    3b6c:	0f074063          	blt	a4,a6,3c4c <__subdf3+0x7d0>
    3b70:	01f00713          	li	a4,31
    3b74:	13074c63          	blt	a4,a6,3cac <__subdf3+0x830>
    3b78:	02000713          	li	a4,32
    3b7c:	41070733          	sub	a4,a4,a6
    3b80:	01055333          	srl	t1,a0,a6
    3b84:	00e796b3          	sll	a3,a5,a4
    3b88:	00e51533          	sll	a0,a0,a4
    3b8c:	0066e6b3          	or	a3,a3,t1
    3b90:	00a039b3          	snez	s3,a0
    3b94:	0107d833          	srl	a6,a5,a6
    3b98:	0136e6b3          	or	a3,a3,s3
    3b9c:	010585b3          	add	a1,a1,a6
    3ba0:	00c689b3          	add	s3,a3,a2
    3ba4:	00c9b633          	sltu	a2,s3,a2
    3ba8:	00b60333          	add	t1,a2,a1
    3bac:	00088493          	mv	s1,a7
    3bb0:	b09ff06f          	j	36b8 <__subdf3+0x23c>
    3bb4:	00a7e533          	or	a0,a5,a0
    3bb8:	00a039b3          	snez	s3,a0
    3bbc:	c8dff06f          	j	3848 <__subdf3+0x3cc>
    3bc0:	00070a63          	beqz	a4,3bd4 <__subdf3+0x758>
    3bc4:	00c5e633          	or	a2,a1,a2
    3bc8:	ea061ee3          	bnez	a2,3a84 <__subdf3+0x608>
    3bcc:	7ff00813          	li	a6,2047
    3bd0:	939ff06f          	j	3508 <__subdf3+0x8c>
    3bd4:	7ff00493          	li	s1,2047
    3bd8:	f11ff06f          	j	3ae8 <__subdf3+0x66c>
    3bdc:	ea0994e3          	bnez	s3,3a84 <__subdf3+0x608>
    3be0:	7ff00813          	li	a6,2047
    3be4:	925ff06f          	j	3508 <__subdf3+0x8c>
    3be8:	fff00713          	li	a4,-1
    3bec:	0ee80463          	beq	a6,a4,3cd4 <__subdf3+0x858>
    3bf0:	7ff00713          	li	a4,2047
    3bf4:	fff84813          	not	a6,a6
    3bf8:	f6e898e3          	bne	a7,a4,3b68 <__subdf3+0x6ec>
    3bfc:	00c5e7b3          	or	a5,a1,a2
    3c00:	ca0784e3          	beqz	a5,38a8 <__subdf3+0x42c>
    3c04:	00058793          	mv	a5,a1
    3c08:	00060513          	mv	a0,a2
    3c0c:	7ff00813          	li	a6,2047
    3c10:	8f9ff06f          	j	3508 <__subdf3+0x8c>
    3c14:	ec0984e3          	beqz	s3,3adc <__subdf3+0x660>
    3c18:	40c509b3          	sub	s3,a0,a2
    3c1c:	40b78333          	sub	t1,a5,a1
    3c20:	01353933          	sltu	s2,a0,s3
    3c24:	41230333          	sub	t1,t1,s2
    3c28:	00831713          	slli	a4,t1,0x8
    3c2c:	c40752e3          	bgez	a4,3870 <__subdf3+0x3f4>
    3c30:	40a609b3          	sub	s3,a2,a0
    3c34:	40f58933          	sub	s2,a1,a5
    3c38:	01363633          	sltu	a2,a2,s3
    3c3c:	40c90333          	sub	t1,s2,a2
    3c40:	0079f793          	andi	a5,s3,7
    3c44:	00068413          	mv	s0,a3
    3c48:	aadff06f          	j	36f4 <__subdf3+0x278>
    3c4c:	00a7e533          	or	a0,a5,a0
    3c50:	00a036b3          	snez	a3,a0
    3c54:	f4dff06f          	j	3ba0 <__subdf3+0x724>
    3c58:	02000713          	li	a4,32
    3c5c:	0107d9b3          	srl	s3,a5,a6
    3c60:	00e80a63          	beq	a6,a4,3c74 <__subdf3+0x7f8>
    3c64:	04000713          	li	a4,64
    3c68:	41070833          	sub	a6,a4,a6
    3c6c:	010797b3          	sll	a5,a5,a6
    3c70:	00f56533          	or	a0,a0,a5
    3c74:	00a03533          	snez	a0,a0
    3c78:	013569b3          	or	s3,a0,s3
    3c7c:	bcdff06f          	j	3848 <__subdf3+0x3cc>
    3c80:	40a609b3          	sub	s3,a2,a0
    3c84:	40f58933          	sub	s2,a1,a5
    3c88:	01363633          	sltu	a2,a2,s3
    3c8c:	40c90333          	sub	t1,s2,a2
    3c90:	00088493          	mv	s1,a7
    3c94:	00068413          	mv	s0,a3
    3c98:	ad9ff06f          	j	3770 <__subdf3+0x2f4>
    3c9c:	00000413          	li	s0,0
    3ca0:	00040813          	mv	a6,s0
    3ca4:	00000793          	li	a5,0
    3ca8:	879ff06f          	j	3520 <__subdf3+0xa4>
    3cac:	02000713          	li	a4,32
    3cb0:	0107d6b3          	srl	a3,a5,a6
    3cb4:	00e80a63          	beq	a6,a4,3cc8 <__subdf3+0x84c>
    3cb8:	04000713          	li	a4,64
    3cbc:	41070833          	sub	a6,a4,a6
    3cc0:	010797b3          	sll	a5,a5,a6
    3cc4:	00f56533          	or	a0,a0,a5
    3cc8:	00a03533          	snez	a0,a0
    3ccc:	00d566b3          	or	a3,a0,a3
    3cd0:	ed1ff06f          	j	3ba0 <__subdf3+0x724>
    3cd4:	00c509b3          	add	s3,a0,a2
    3cd8:	00b78933          	add	s2,a5,a1
    3cdc:	00c9b633          	sltu	a2,s3,a2
    3ce0:	00c90333          	add	t1,s2,a2
    3ce4:	00088493          	mv	s1,a7
    3ce8:	9d1ff06f          	j	36b8 <__subdf3+0x23c>
    3cec:	00048813          	mv	a6,s1
    3cf0:	00030793          	mv	a5,t1
    3cf4:	00098513          	mv	a0,s3
    3cf8:	811ff06f          	j	3508 <__subdf3+0x8c>

00003cfc <__fixdfsi>:
__fixdfsi():
    3cfc:	0145d793          	srli	a5,a1,0x14
    3d00:	001006b7          	lui	a3,0x100
    3d04:	fff68713          	addi	a4,a3,-1 # fffff <_etext+0xfb68b>
    3d08:	7ff7f793          	andi	a5,a5,2047
    3d0c:	3fe00613          	li	a2,1022
    3d10:	00b77733          	and	a4,a4,a1
    3d14:	01f5d593          	srli	a1,a1,0x1f
    3d18:	04f65663          	ble	a5,a2,3d64 <__fixdfsi+0x68>
    3d1c:	41d00613          	li	a2,1053
    3d20:	02f64a63          	blt	a2,a5,3d54 <__fixdfsi+0x58>
    3d24:	43300613          	li	a2,1075
    3d28:	40f60633          	sub	a2,a2,a5
    3d2c:	01f00813          	li	a6,31
    3d30:	00d76733          	or	a4,a4,a3
    3d34:	02c85c63          	ble	a2,a6,3d6c <__fixdfsi+0x70>
    3d38:	41300693          	li	a3,1043
    3d3c:	40f687b3          	sub	a5,a3,a5
    3d40:	00f757b3          	srl	a5,a4,a5
    3d44:	40f00533          	neg	a0,a5
    3d48:	02059063          	bnez	a1,3d68 <__fixdfsi+0x6c>
    3d4c:	00078513          	mv	a0,a5
    3d50:	00008067          	ret
    3d54:	80000537          	lui	a0,0x80000
    3d58:	fff54513          	not	a0,a0
    3d5c:	00a58533          	add	a0,a1,a0
    3d60:	00008067          	ret
    3d64:	00000513          	li	a0,0
    3d68:	00008067          	ret
    3d6c:	bed78793          	addi	a5,a5,-1043 # 7fbed <_etext+0x7b279>
    3d70:	00f717b3          	sll	a5,a4,a5
    3d74:	00c55533          	srl	a0,a0,a2
    3d78:	00a7e7b3          	or	a5,a5,a0
    3d7c:	fc9ff06f          	j	3d44 <__fixdfsi+0x48>

00003d80 <__floatunsidf>:
__floatunsidf():
    3d80:	ff010113          	addi	sp,sp,-16
    3d84:	00112623          	sw	ra,12(sp)
    3d88:	00812423          	sw	s0,8(sp)
    3d8c:	0a050263          	beqz	a0,3e30 <__floatunsidf+0xb0>
    3d90:	00050413          	mv	s0,a0
    3d94:	0ac000ef          	jal	ra,3e40 <__clzsi2>
    3d98:	41e00693          	li	a3,1054
    3d9c:	40a686b3          	sub	a3,a3,a0
    3da0:	00a00793          	li	a5,10
    3da4:	7ff6f693          	andi	a3,a3,2047
    3da8:	06a7d263          	ble	a0,a5,3e0c <__floatunsidf+0x8c>
    3dac:	ff550793          	addi	a5,a0,-11 # 7ffffff5 <_etext+0x7fffb681>
    3db0:	00100737          	lui	a4,0x100
    3db4:	00f417b3          	sll	a5,s0,a5
    3db8:	fff70713          	addi	a4,a4,-1 # fffff <_etext+0xfb68b>
    3dbc:	00e7f7b3          	and	a5,a5,a4
    3dc0:	00000513          	li	a0,0
    3dc4:	00100737          	lui	a4,0x100
    3dc8:	fff70713          	addi	a4,a4,-1 # fffff <_etext+0xfb68b>
    3dcc:	00e7f7b3          	and	a5,a5,a4
    3dd0:	80100737          	lui	a4,0x80100
    3dd4:	fff70713          	addi	a4,a4,-1 # 800fffff <_etext+0x800fb68b>
    3dd8:	01469693          	slli	a3,a3,0x14
    3ddc:	00e7f733          	and	a4,a5,a4
    3de0:	00d76733          	or	a4,a4,a3
    3de4:	00c12083          	lw	ra,12(sp)
    3de8:	00812403          	lw	s0,8(sp)
    3dec:	800006b7          	lui	a3,0x80000
    3df0:	fff6c693          	not	a3,a3
    3df4:	00050793          	mv	a5,a0
    3df8:	00d77733          	and	a4,a4,a3
    3dfc:	00078513          	mv	a0,a5
    3e00:	00070593          	mv	a1,a4
    3e04:	01010113          	addi	sp,sp,16
    3e08:	00008067          	ret
    3e0c:	00b00793          	li	a5,11
    3e10:	40a787b3          	sub	a5,a5,a0
    3e14:	00100737          	lui	a4,0x100
    3e18:	01550513          	addi	a0,a0,21
    3e1c:	00f457b3          	srl	a5,s0,a5
    3e20:	fff70713          	addi	a4,a4,-1 # fffff <_etext+0xfb68b>
    3e24:	00a41533          	sll	a0,s0,a0
    3e28:	00e7f7b3          	and	a5,a5,a4
    3e2c:	f99ff06f          	j	3dc4 <__floatunsidf+0x44>
    3e30:	00000693          	li	a3,0
    3e34:	00000793          	li	a5,0
    3e38:	00000513          	li	a0,0
    3e3c:	f89ff06f          	j	3dc4 <__floatunsidf+0x44>

00003e40 <__clzsi2>:
__clzsi2():
    3e40:	000107b7          	lui	a5,0x10
    3e44:	02f57463          	bleu	a5,a0,3e6c <__clzsi2+0x2c>
    3e48:	0ff00793          	li	a5,255
    3e4c:	02000713          	li	a4,32
    3e50:	04a7e263          	bltu	a5,a0,3e94 <__clzsi2+0x54>
    3e54:	00001797          	auipc	a5,0x1
    3e58:	a2078793          	addi	a5,a5,-1504 # 4874 <__clz_tab>
    3e5c:	00a78533          	add	a0,a5,a0
    3e60:	00054503          	lbu	a0,0(a0)
    3e64:	40a70533          	sub	a0,a4,a0
    3e68:	00008067          	ret
    3e6c:	010007b7          	lui	a5,0x1000
    3e70:	04f56263          	bltu	a0,a5,3eb4 <__clzsi2+0x74>
    3e74:	00001797          	auipc	a5,0x1
    3e78:	a0078793          	addi	a5,a5,-1536 # 4874 <__clz_tab>
    3e7c:	01855513          	srli	a0,a0,0x18
    3e80:	00a78533          	add	a0,a5,a0
    3e84:	00054503          	lbu	a0,0(a0)
    3e88:	00800713          	li	a4,8
    3e8c:	40a70533          	sub	a0,a4,a0
    3e90:	00008067          	ret
    3e94:	00001797          	auipc	a5,0x1
    3e98:	9e078793          	addi	a5,a5,-1568 # 4874 <__clz_tab>
    3e9c:	00855513          	srli	a0,a0,0x8
    3ea0:	00a78533          	add	a0,a5,a0
    3ea4:	00054503          	lbu	a0,0(a0)
    3ea8:	01800713          	li	a4,24
    3eac:	40a70533          	sub	a0,a4,a0
    3eb0:	00008067          	ret
    3eb4:	00001797          	auipc	a5,0x1
    3eb8:	9c078793          	addi	a5,a5,-1600 # 4874 <__clz_tab>
    3ebc:	01055513          	srli	a0,a0,0x10
    3ec0:	00a78533          	add	a0,a5,a0
    3ec4:	00054503          	lbu	a0,0(a0)
    3ec8:	01000713          	li	a4,16
    3ecc:	40a70533          	sub	a0,a4,a0
    3ed0:	00008067          	ret

00003ed4 <srand>:
srand():
    3ed4:	42c00793          	li	a5,1068
    3ed8:	0007a783          	lw	a5,0(a5)
    3edc:	0aa7a423          	sw	a0,168(a5)
    3ee0:	0a07a623          	sw	zero,172(a5)
    3ee4:	00008067          	ret

00003ee8 <rand>:
rand():
    3ee8:	42c00793          	li	a5,1068
    3eec:	0007a583          	lw	a1,0(a5)
    3ef0:	4c958637          	lui	a2,0x4c958
    3ef4:	f2d60613          	addi	a2,a2,-211 # 4c957f2d <_etext+0x4c9535b9>
    3ef8:	0a85a703          	lw	a4,168(a1)
    3efc:	0ac5a503          	lw	a0,172(a1)
    3f00:	02c707b3          	mul	a5,a4,a2
    3f04:	00178693          	addi	a3,a5,1
    3f08:	00f6b7b3          	sltu	a5,a3,a5
    3f0c:	0ad5a423          	sw	a3,168(a1)
    3f10:	5851f6b7          	lui	a3,0x5851f
    3f14:	42d68693          	addi	a3,a3,1069 # 5851f42d <_etext+0x5851aab9>
    3f18:	02d706b3          	mul	a3,a4,a3
    3f1c:	02c50533          	mul	a0,a0,a2
    3f20:	02c73733          	mulhu	a4,a4,a2
    3f24:	00d50533          	add	a0,a0,a3
    3f28:	00e50533          	add	a0,a0,a4
    3f2c:	00a787b3          	add	a5,a5,a0
    3f30:	80000537          	lui	a0,0x80000
    3f34:	fff54513          	not	a0,a0
    3f38:	0af5a623          	sw	a5,172(a1)
    3f3c:	00a7f533          	and	a0,a5,a0
    3f40:	00008067          	ret
    3f44:	524f4353          	0x524f4353
    3f48:	3a45                	jal	38f8 <__subdf3+0x47c>
    3f4a:	0000                	unimp
    3f4c:	454d4147          	0x454d4147
    3f50:	4f20                	lw	s0,88(a4)
    3f52:	4556                	lw	a0,84(sp)
    3f54:	0052                	c.slli	zero,0x14
    3f56:	0000                	unimp
    3f58:	5250                	lw	a2,36(a2)
    3f5a:	5345                	li	t1,-15
    3f5c:	27422753          	fsgnjx.q	fa4,ft4,fs4
    3f60:	4f54                	lw	a3,28(a4)
    3f62:	5220                	lw	s0,96(a2)
    3f64:	5345                	li	t1,-15
    3f66:	4154                	lw	a3,4(a0)
    3f68:	5452                	lw	s0,52(sp)
    3f6a:	0000                	unimp
    3f6c:	5250                	lw	a2,36(a2)
    3f6e:	5345                	li	t1,-15
    3f70:	27582753          	fsgnjx.q	fa4,fa6,fs5
    3f74:	4f54                	lw	a3,28(a4)
    3f76:	5120                	lw	s0,96(a0)
    3f78:	4955                	li	s2,21
    3f7a:	0054                	addi	a3,sp,4
    3f7c:	454d4147          	0x454d4147
    3f80:	4520                	lw	s0,72(a0)
    3f82:	444e                	lw	s0,208(sp)
    3f84:	0000                	unimp
	...

00003f88 <F8X16>:
	...
    3f98:	0000 4000 4040 4040 4040 0000 4040 0000     ...@@@@@@@..@@..
    3fa8:	7800 2878 5050 0000 0000 0000 0000 0000     .xx(PP..........
    3fb8:	0000 5000 5050 60f0 6060 60f0 6060 0000     ...PPP.```.```..
    3fc8:	0000 6020 b0b0 60a0 3020 b030 60b0 2020     .. `...` 00..`  
    3fd8:	0000 4400 a8a4 b0a8 1a54 2a2a 444a 0000     ...D....T.**JD..
    3fe8:	0000 3000 4848 5048 a46e 9894 7689 0000     ...0HHHPn....v..
    3ff8:	1800 0818 2010 0000 0000 0000 0000 0000     ..... ..........
    4008:	0200 0804 1008 1010 1010 0810 0408 0002     ................
    4018:	4000 1020 0810 0808 0808 1008 2010 0040     .@ .......... @.
    4028:	0000 0000 1010 38d6 d638 1010 0000 0000     .......88.......
    4038:	0000 0000 0800 0808 087f 0808 0000 0000     ................
	...
    4054:	2060 4020 0000 0000 0000 0000 007e 0000     `  @........~...
	...
    4074:	6060 0000 0000 0402 0404 0808 1010 2010     ``............. 
    4084:	4020 0040 0000 1800 4224 4242 4242 4242      @@.....$BBBBBBB
    4094:	1824 0000 0000 0800 0838 0808 0808 0808     $.......8.......
    40a4:	3e08 0000 0000 3c00 4242 0242 0804 2010     .>.....<BBB.... 
    40b4:	7e42 0000 0000 3c00 4242 0402 0418 4202     B~.....<BB.....B
    40c4:	3c42 0000 0000 0400 0c0c 2414 4424 047f     B<.........$$D..
    40d4:	1f04 0000 0000 7e00 4040 7840 0244 4202     .......~@@@xD..B
    40e4:	3844 0000 0000 1800 4024 5c40 4262 4242     D8......$@@\bBBB
    40f4:	1c22 0000 0000 7e00 0442 0804 1008 1010     "......~B.......
    4104:	1010 0000 0000 3c00 4242 2442 2418 4242     .......<BBB$.$BB
    4114:	3c42 0000 0000 3800 4244 4242 3a46 0202     B<.....8DBBBF:..
    4124:	1824 0000 0000 0000 0000 1818 0000 0000     $...............
    4134:	1818 0000 0000 0000 0000 1000 0000 0000     ................
    4144:	1000 1010 0000 0200 0804 2010 2040 0810     ........... @ ..
    4154:	0204 0000 0000 0000 0000 007e 7e00 0000     ..........~..~..
    4164:	0000 0000 0000 4000 1020 0408 0402 1008     .......@ .......
    4174:	4020 0000 0000 3c00 4242 0462 0808 0008      @.....<BBb.....
    4184:	1818 0000 0000 3800 5a44 aaaa aaaa 5caa     .......8DZ.....\
    4194:	3c42 0000 0000 1000 1810 2828 3c24 4244     B<........(($<DB
    41a4:	e742 0000 0000 f800 4444 7844 4244 4242     B.......DDDxDBBB
    41b4:	f844 0000 0000 3e00 4242 8080 8080 4280     D......>BB.....B
    41c4:	3844 0000 0000 f800 4244 4242 4242 4242     D8......DBBBBBBB
    41d4:	f844 0000 0000 fc00 4842 7848 4848 4240     D.......BHHxHH@B
    41e4:	fc42 0000 0000 fc00 4842 7848 4848 4040     B.......BHHxHH@@
    41f4:	e040 0000 0000 3c00 4444 8080 8e80 4484     @......<DD.....D
    4204:	3844 0000 0000 e700 4242 4242 427e 4242     D8......BBBB~BBB
    4214:	e742 0000 0000 7c00 1010 1010 1010 1010     B......|........
    4224:	7c10 0000 0000 3e00 0808 0808 0808 0808     .|.....>........
    4234:	0808 f088 0000 ee00 4844 7050 4850 4448     ........DHPpPHHD
    4244:	ee44 0000 0000 e000 4040 4040 4040 4040     D.......@@@@@@@@
    4254:	fe42 0000 0000 ee00 6c6c 6c6c 546c 5454     B.......lllllTTT
    4264:	d654 0000 0000 c700 6262 5252 4a4a 464a     T.......bbRRJJJF
    4274:	e246 0000 0000 3800 8244 8282 8282 8282     F......8D.......
    4284:	3844 0000 0000 fc00 4242 4242 407c 4040     D8......BBBB|@@@
    4294:	e040 0000 0000 3800 8244 8282 8282 b282     @......8D.......
    42a4:	384c 0006 0000 fc00 4242 7c42 4848 4444     L8......BBB|HHDD
    42b4:	e342 0000 0000 3e00 4242 2040 0418 4202     B......>BB@ ...B
    42c4:	7c42 0000 0000 fe00 1092 1010 1010 1010     B|..............
    42d4:	3810 0000 0000 e700 4242 4242 4242 4242     .8......BBBBBBBB
    42e4:	3c42 0000 0000 e700 4242 2444 2824 1828     B<......BBD$$((.
    42f4:	1010 0000 0000 d600 5454 5454 6c54 2828     ........TTTTTl((
    4304:	2828 0000 0000 e700 2442 1824 1818 2424     ((......B$$...$$
    4314:	e742 0000 0000 ee00 4444 2828 1010 1010     B.......DD((....
    4324:	3810 0000 0000 7e00 0484 0808 2010 4220     .8.....~.....  B
    4334:	fc42 0000 1e00 1010 1010 1010 1010 1010     B...............
    4344:	1010 001e 0000 2040 2020 1010 0810 0408     ......@   ......
    4354:	0404 0202 7800 0808 0808 0808 0808 0808     .....x..........
    4364:	0808 0078 1800 0024 0000 0000 0000 0000     ..x...$.........
	...
    4384:	0000 ff00 6000 0010 0000 0000 0000 0000     .....`..........
	...
    439c:	0000 3800 0c44 4434 364c 0000 0000 0000     ...8D.4DL6......
    43ac:	40c0 5840 4264 4242 5864 0000 0000 0000     .@@XdBBBdX......
    43bc:	0000 1c00 4022 4040 1c22 0000 0000 0000     ...."@@@".......
    43cc:	0206 3e02 4242 4242 3b46 0000 0000 0000     ...>BBBBF;......
    43dc:	0000 3c00 4242 407e 3c42 0000 0000 0000     ...<BB~@B<......
    43ec:	120c 7c10 1010 1010 7c10 0000 0000 0000     ...|.....|......
    43fc:	0000 3e00 4444 4038 423c 3c42 0000 0000     ...>DD8@<BB<....
    440c:	40c0 5c40 4262 4242 e742 0000 0000 3000     .@@\bBBBB......0
    441c:	0030 7000 1010 1010 7c10 0000 0000 0c00     0..p.....|......
    442c:	000c 1c00 0404 0404 0404 7844 0000 0000     ..........Dx....
    443c:	40c0 4e40 5048 4870 ee44 0000 0000 1000     .@@NHPpHD.......
    444c:	1070 1010 1010 1010 7c10 0000 0000 0000     p........|......
    445c:	0000 fe00 4949 4949 ed49 0000 0000 0000     ....IIIII.......
    446c:	0000 dc00 4262 4242 e742 0000 0000 0000     ....bBBBB.......
    447c:	0000 3c00 4242 4242 3c42 0000 0000 0000     ...<BBBBB<......
    448c:	0000 d800 4264 4242 5864 e040 0000 0000     ....dBBBdX@.....
    449c:	0000 1a00 4226 4242 1a26 0702 0000 0000     ....&BBB&.......
    44ac:	0000 ee00 2032 2020 f820 0000 0000 0000     ....2    .......
    44bc:	0000 3e00 4042 023c 7c42 0000 0000 0000     ...>B@<.B|......
    44cc:	1000 7c10 1010 1010 0c12 0000 0000 0000     ...|............
    44dc:	0000 c600 4242 4242 3b46 0000 0000 0000     ....BBBBF;......
    44ec:	0000 ee00 4444 2828 1010 0000 0000 0000     ....DD((........
    44fc:	0000 db00 4a89 545a 2424 0000 0000 0000     .....JZT$$......
    450c:	0000 7600 1824 1818 6e24 0000 0000 0000     ...v$...$n......
    451c:	0000 e700 2442 1824 1018 6010 0000 0000     ....B$$....`....
    452c:	0000 7e00 0844 1010 7e22 0000 0300 0404     ...~D..."~......
    453c:	0404 0404 0408 0404 0404 0003 0808 0808     ................
    454c:	0808 0808 0808 0808 0808 0808 c000 2020     ..............  
    455c:	2020 2020 2010 2020 2020 00c0 5a20 0004         .     .. Z..
	...

00004578 <bitmap_bytes>:
    4578:	0001 0000 0000 0001 f01f 047f fc7f 1010     ................
    4588:	0441 0001 1010 087f f83f 1010 1041 0002     A.......?...A...
    4598:	1010 227f feff 1010 0208 2008 f01f c4ff     ..."....... ....
    45a8:	1010 1010 0800 e82f 1010 107f 26c8 1010     ....../......&..
    45b8:	2241 2008 1010 027f e00f 1010 0408 2008     A". ........... 
    45c8:	1010 0849 2008 f01f 9088 e00f 1010 6018     ..I.. .........`
    45d8:	6577 765f 6c61 6469 253a 0064 0000 0000     we_valid:%d.....
    45e8:	7cee 353f ba5e 4040 aaab aaaa aaaa 4040     .|?5^.@@......@@
    45f8:	6548 6c6c 206f 6952 6373 562d 5020 6e61     Hello Risc-V Pan
    4608:	6f67 3220 3130 0a39 0000 0000 3032 3931     go 2019.....2019
    4618:	0000 0000 6574 7473 6420 7461 2061 203d     ....test data = 
    4628:	6425 252c 2c66 7325 302c 2078 203d 7825     %d,%f,%s,0x = %x
    4638:	000a 0000 6973 706d 656c 6320 6d6f 7570     ....simple compu
    4648:	6574 3a20 3520 2a30 3031 3d20 2520 2c64     te : 50*10 = %d,
    4658:	3031 2f30 2033 203d 6625 312c 3030 3325     100/3 = %f,100%3
    4668:	3d20 2520 0a64 0000 6574 7473 000a 0000      = %d...test....
    4678:	6567 7074 3273 3d20 2520 0a64 0000 0000     getps2 = %d.....
    4688:	6f59 2075 6564 6461 2121 0021 7250 7365     You dead!!!.Pres
    4698:	2073 4227 7427 206f 6572 7473 7261 0074     s 'B'to restart.
    46a8:	7250 7365 2073 5827 7427 206f 7571 7469     Press 'X'to quit
    46b8:	0000 0000 6353 726f 3a65 0000 2caa 0000     ....Score:...,..
    46c8:	2caa 0000 2caa 0000 2caa 0000 2caa 0000     .,...,...,...,..
    46d8:	2caa 0000 2caa 0000 2caa 0000 2caa 0000     .,...,...,...,..
    46e8:	2caa 0000 2caa 0000 2caa 0000 2caa 0000     .,...,...,...,..
    46f8:	2caa 0000 2caa 0000 2caa 0000 2caa 0000     .,...,...,...,..
    4708:	2caa 0000 2caa 0000 2caa 0000 2caa 0000     .,...,...,...,..
    4718:	2caa 0000 2caa 0000 2caa 0000 2caa 0000     .,...,...,...,..
    4728:	2caa 0000 2caa 0000 2caa 0000 2caa 0000     .,...,...,...,..
    4738:	2caa 0000 2caa 0000 2ce2 0000 2caa 0000     .,...,...,...,..
    4748:	2caa 0000 2caa 0000 2caa 0000 2caa 0000     .,...,...,...,..
    4758:	2caa 0000 2caa 0000 2caa 0000 2caa 0000     .,...,...,...,..
    4768:	2caa 0000 2caa 0000 2caa 0000 2caa 0000     .,...,...,...,..
    4778:	2caa 0000 2cf4 0000 2caa 0000 2caa 0000     .,...,...,...,..
    4788:	2caa 0000 2caa 0000 2ccc 0000 2caa 0000     .,...,...,...,..
    4798:	2caa 0000 2caa 0000 2caa 0000 2caa 0000     .,...,...,...,..
    47a8:	2caa 0000 2caa 0000 2caa 0000 2caa 0000     .,...,...,...,..
    47b8:	2caa 0000 2cb6 0000 2ce2 0000 2caa 0000     .,...,...,...,..
    47c8:	2d1e 0000 2caa 0000 2caa 0000 2ce2 0000     .-...,...,...,..
    47d8:	2caa 0000 2caa 0000 2caa 0000 2caa 0000     .,...,...,...,..
    47e8:	2caa 0000 2caa 0000 2caa 0000 2caa 0000     .,...,...,...,..
    47f8:	2caa 0000 2cf4 0000 2caa 0000 2caa 0000     .,...,...,...,..
    4808:	2caa 0000 2caa 0000 2ccc 0000 0000 0000     .,...,...,......
    4818:	0000 0000 8480 412e 3130 3332 3534 3736     .......A01234567
    4828:	3938 6261 6463 6665 0000 0000 e878 ffff     89abcdef....x...
    4838:	e7a4 ffff e7a4 ffff e7a0 ffff e7c4 ffff     ................
    4848:	e7c4 ffff e734 ffff e7a0 ffff e7c4 ffff     ....4...........
    4858:	e734 ffff e7c4 ffff e7a0 ffff e7c0 ffff     4...............
    4868:	e7c0 ffff e7c0 ffff e734 ffff               ........4...

00004874 <__clz_tab>:
    4874:	0100 0202 0303 0303 0404 0404 0404 0404     ................
    4884:	0505 0505 0505 0505 0505 0505 0505 0505     ................
    4894:	0606 0606 0606 0606 0606 0606 0606 0606     ................
    48a4:	0606 0606 0606 0606 0606 0606 0606 0606     ................
    48b4:	0707 0707 0707 0707 0707 0707 0707 0707     ................
    48c4:	0707 0707 0707 0707 0707 0707 0707 0707     ................
    48d4:	0707 0707 0707 0707 0707 0707 0707 0707     ................
    48e4:	0707 0707 0707 0707 0707 0707 0707 0707     ................
    48f4:	0808 0808 0808 0808 0808 0808 0808 0808     ................
    4904:	0808 0808 0808 0808 0808 0808 0808 0808     ................
    4914:	0808 0808 0808 0808 0808 0808 0808 0808     ................
    4924:	0808 0808 0808 0808 0808 0808 0808 0808     ................
    4934:	0808 0808 0808 0808 0808 0808 0808 0808     ................
    4944:	0808 0808 0808 0808 0808 0808 0808 0808     ................
    4954:	0808 0808 0808 0808 0808 0808 0808 0808     ................
    4964:	0808 0808 0808 0808 0808 0808 0808 0808     ................
