   1              		.file	"InfoNES_system.c"
   2              		.option nopic
   3              		.text
   4              	.Ltext0:
   5              		.cfi_sections	.debug_frame
   6              		.section	.text.InfoNES_Menu,"ax",@progbits
   7              		.align	1
   8              		.globl	InfoNES_Menu
  10              	InfoNES_Menu:
  11              	.LFB2:
  12              		.file 1 "../src/nes/InfoNES_system.c"
   1:../src/nes/InfoNES_system.c **** /*-------------------------------------------------------------------*/
   2:../src/nes/InfoNES_system.c **** /*  InfoNES_system.c                                                 */
   3:../src/nes/InfoNES_system.c **** /*-------------------------------------------------------------------*/
   4:../src/nes/InfoNES_system.c **** #include "InfoNES.h"
   5:../src/nes/InfoNES_system.c **** 
   6:../src/nes/InfoNES_system.c **** #include <string.h>
   7:../src/nes/InfoNES_system.c **** #include <stdio.h>
   8:../src/nes/InfoNES_system.c **** 
   9:../src/nes/InfoNES_system.c **** unsigned int FrameCount=0;
  10:../src/nes/InfoNES_system.c **** 
  11:../src/nes/InfoNES_system.c **** //*****************************************************************************
  12:../src/nes/InfoNES_system.c **** //
  13:../src/nes/InfoNES_system.c **** // The interrupt handler for the for Systick interrupt.
  14:../src/nes/InfoNES_system.c **** //
  15:../src/nes/InfoNES_system.c **** //*****************************************************************************
  16:../src/nes/InfoNES_system.c **** 
  17:../src/nes/InfoNES_system.c **** 
  18:../src/nes/InfoNES_system.c **** 
  19:../src/nes/InfoNES_system.c **** //*****************************************************************************
  20:../src/nes/InfoNES_system.c **** //
  21:../src/nes/InfoNES_system.c **** // Operation of Joy
  22:../src/nes/InfoNES_system.c **** //
  23:../src/nes/InfoNES_system.c **** //*****************************************************************************
  24:../src/nes/InfoNES_system.c **** 
  25:../src/nes/InfoNES_system.c **** 
  26:../src/nes/InfoNES_system.c **** 
  27:../src/nes/InfoNES_system.c **** /*-------------------------------------------------------------------*/
  28:../src/nes/InfoNES_system.c **** /*  Palette data                                                     */
  29:../src/nes/InfoNES_system.c **** /*-------------------------------------------------------------------*/
  30:../src/nes/InfoNES_system.c **** WORD NesPalette[64]={
  31:../src/nes/InfoNES_system.c **** #if 0
  32:../src/nes/InfoNES_system.c ****   0x738E,0x88C4,0xA800,0x9808,0x7011,0x1015,0x0014,0x004F,
  33:../src/nes/InfoNES_system.c ****   0x0148,0x0200,0x0280,0x11C0,0x59C3,0x0000,0x0000,0x0000,
  34:../src/nes/InfoNES_system.c ****   0xBDD7,0xEB80,0xE9C4,0xF010,0xB817,0x581C,0x015B,0x0A59,
  35:../src/nes/InfoNES_system.c ****   0x0391,0x0480,0x0540,0x3C80,0x8C00,0x0000,0x0000,0x0000,
  36:../src/nes/InfoNES_system.c ****   0xFFDF,0xFDC7,0xFC8B,0xFC48,0xFBDE,0xB39F,0x639F,0x3CDF,
  37:../src/nes/InfoNES_system.c ****   0x3DDE,0x1690,0x4EC9,0x9FCB,0xDF40,0x0000,0x0000,0x0000,
  38:../src/nes/InfoNES_system.c ****   0xFFDF,0xFF15,0xFE98,0xFE5A,0xFE1F,0xDE1F,0xB5DF,0xAEDF,
  39:../src/nes/InfoNES_system.c ****   0xA71F,0xA7DC,0xBF95,0xCFD6,0xF7D3,0x0000,0x0000,0x0000,
  40:../src/nes/InfoNES_system.c **** //#else
  41:../src/nes/InfoNES_system.c ****   0x738E,0x20D1,0x0015,0x4013,0x880E,0xA802,0xA000,0x7840,
  42:../src/nes/InfoNES_system.c ****   0x4140,0x0200,0x0280,0x01C2,0x19CB,0x0000,0x0000,0x0000,
  43:../src/nes/InfoNES_system.c ****   0xBDD7,0x039D,0x21DD,0x801E,0xB817,0xE00B,0xD940,0xCA41,
  44:../src/nes/InfoNES_system.c ****   0x8B80,0x0480,0x0540,0x0487,0x0411,0x0000,0x0000,0x0000,
  45:../src/nes/InfoNES_system.c ****   0xFFDF,0x3DDF,0x5C9F,0x445F,0xF3DF,0xFB96,0xFB8C,0xFCC7,
  46:../src/nes/InfoNES_system.c ****   0xF5C7,0x8682,0x4EC9,0x5FD3,0x075B,0x0000,0x0000,0x0000,
  47:../src/nes/InfoNES_system.c ****   0xFFDF,0xAF1F,0xC69F,0xD65F,0xFE1F,0xFE1B,0xFDD6,0xFED5,
  48:../src/nes/InfoNES_system.c ****   0xFF14,0xE7D4,0xAF97,0xB7D9,0x9FDE,0x0000,0x0000,0x0000,
  49:../src/nes/InfoNES_system.c **** #endif
  50:../src/nes/InfoNES_system.c **** 
  51:../src/nes/InfoNES_system.c **** 	0x8E73,0xD120,0x1500,0x1340,0x0E88,0x02A8,0x00A0,0x4078,
  52:../src/nes/InfoNES_system.c **** 	0x4041,0x0002,0x8002,0xC201,0xCB19,0x0000,0x0000,0x0000,
  53:../src/nes/InfoNES_system.c **** 	0xD7BD,0x9D03,0xDD21,0x1E80,0x17B8,0x0BE0,0x40D9,0x41CA,
  54:../src/nes/InfoNES_system.c **** 	0x808B,0x8004,0x4005,0x8704,0x1104,0x0000,0x0000,0x0000,
  55:../src/nes/InfoNES_system.c **** 	0xDFFF,0xDF3D,0x9F5C,0x5F44,0xDFF3,0x96FB,0x8CFB,0xC7FC,
  56:../src/nes/InfoNES_system.c **** 	0xC7F5,0x8286,0xC94E,0xD35F,0x5B07,0x0000,0x0000,0x0000,
  57:../src/nes/InfoNES_system.c **** 	0xDFFF,0x1FAF,0x9FC6,0x5FD6,0x1FFE,0x1BFE,0xD6FD,0xD5FE,
  58:../src/nes/InfoNES_system.c **** 	0x14FF,0xD4E7,0x97AF,0xD9B7,0xDE9F,0x0000,0x0000,0x0000,
  59:../src/nes/InfoNES_system.c **** 
  60:../src/nes/InfoNES_system.c **** };
  61:../src/nes/InfoNES_system.c **** 
  62:../src/nes/InfoNES_system.c **** 
  63:../src/nes/InfoNES_system.c **** 
  64:../src/nes/InfoNES_system.c **** /*-------------------------------------------------------------------*/
  65:../src/nes/InfoNES_system.c **** /*  Function prototypes                                              */
  66:../src/nes/InfoNES_system.c **** /*-------------------------------------------------------------------*/
  67:../src/nes/InfoNES_system.c **** 
  68:../src/nes/InfoNES_system.c **** /* Menu screen */
  69:../src/nes/InfoNES_system.c **** int InfoNES_Menu()
  70:../src/nes/InfoNES_system.c **** {
  13              		.loc 1 70 0
  14              		.cfi_startproc
  71:../src/nes/InfoNES_system.c **** 	return 0;
  72:../src/nes/InfoNES_system.c **** }
  15              		.loc 1 72 0
  16 0000 0145     		li	a0,0
  17 0002 8280     		ret
  18              		.cfi_endproc
  19              	.LFE2:
  21              		.section	.text.InfoNES_ReadRom,"ax",@progbits
  22              		.align	1
  23              		.globl	InfoNES_ReadRom
  25              	InfoNES_ReadRom:
  26              	.LFB3:
  73:../src/nes/InfoNES_system.c **** 
  74:../src/nes/InfoNES_system.c **** /* Read ROM image file */
  75:../src/nes/InfoNES_system.c **** extern const BYTE nes_rom[];
  76:../src/nes/InfoNES_system.c **** int InfoNES_ReadRom( const char *pszFileName )
  77:../src/nes/InfoNES_system.c **** {
  27              		.loc 1 77 0
  28              		.cfi_startproc
  29              	.LVL0:
  30 0000 4111     		addi	sp,sp,-16
  31              		.cfi_def_cfa_offset 16
  32 0002 22C4     		sw	s0,8(sp)
  78:../src/nes/InfoNES_system.c **** /*
  79:../src/nes/InfoNES_system.c ****  *  Read ROM image file
  80:../src/nes/InfoNES_system.c ****  *
  81:../src/nes/InfoNES_system.c ****  *  Parameters
  82:../src/nes/InfoNES_system.c ****  *    const char *pszFileName          (Read)
  83:../src/nes/InfoNES_system.c ****  *
  84:../src/nes/InfoNES_system.c ****  *  Return values
  85:../src/nes/InfoNES_system.c ****  *     0 : Normally
  86:../src/nes/InfoNES_system.c ****  *    -1 : Error
  87:../src/nes/InfoNES_system.c ****  */
  88:../src/nes/InfoNES_system.c **** 
  89:../src/nes/InfoNES_system.c ****   
  90:../src/nes/InfoNES_system.c ****   /* Read ROM Header */
  91:../src/nes/InfoNES_system.c ****   BYTE * rom = (BYTE*)nes_rom;
  92:../src/nes/InfoNES_system.c ****   memcpy( &NesHeader, rom, sizeof(NesHeader));
  33              		.loc 1 92 0
  34 0004 B7050000 		lui	a1,%hi(nes_rom)
  35              		.cfi_offset 8, -8
  36 0008 37040000 		lui	s0,%hi(NesHeader)
  37 000c 4146     		li	a2,16
  38 000e 93850500 		addi	a1,a1,%lo(nes_rom)
  39 0012 13050400 		addi	a0,s0,%lo(NesHeader)
  40              	.LVL1:
  77:../src/nes/InfoNES_system.c **** /*
  41              		.loc 1 77 0
  42 0016 06C6     		sw	ra,12(sp)
  43              		.cfi_offset 1, -4
  44              		.loc 1 92 0
  45 0018 97000000 		call	memcpy
  45      E7800000 
  46              	.LVL2:
  93:../src/nes/InfoNES_system.c ****   if ( memcmp( NesHeader.byID, "NES\x1a", 4 ) != 0 )
  47              		.loc 1 93 0
  48 0020 03470400 		lbu	a4,%lo(NesHeader)(s0)
  49 0024 9307E004 		li	a5,78
  50 0028 6307F700 		beq	a4,a5,.L15
  51              	.L4:
  94:../src/nes/InfoNES_system.c ****   {
  95:../src/nes/InfoNES_system.c ****     /* not .nes file */
  96:../src/nes/InfoNES_system.c ****     return -1;
  52              		.loc 1 96 0
  53 002c 7D55     		li	a0,-1
  54              	.LVL3:
  55              	.L3:
  97:../src/nes/InfoNES_system.c ****   }
  98:../src/nes/InfoNES_system.c ****   rom += sizeof(NesHeader);
  99:../src/nes/InfoNES_system.c **** 
 100:../src/nes/InfoNES_system.c ****   /* Clear SRAM */
 101:../src/nes/InfoNES_system.c ****   memset( SRAM, 0, SRAM_SIZE );
 102:../src/nes/InfoNES_system.c **** 
 103:../src/nes/InfoNES_system.c ****   /* If trainer presents Read Triner at 0x7000-0x71ff */
 104:../src/nes/InfoNES_system.c ****   if ( NesHeader.byInfo1 & 4 )
 105:../src/nes/InfoNES_system.c ****   {
 106:../src/nes/InfoNES_system.c ****     //memcpy( &SRAM[ 0x1000 ], rom, 512);
 107:../src/nes/InfoNES_system.c **** 	rom += 512;
 108:../src/nes/InfoNES_system.c ****   }
 109:../src/nes/InfoNES_system.c **** 
 110:../src/nes/InfoNES_system.c ****   /* Allocate Memory for ROM Image */
 111:../src/nes/InfoNES_system.c ****   ROM = rom;
 112:../src/nes/InfoNES_system.c ****   rom += NesHeader.byRomSize * 0x4000;
 113:../src/nes/InfoNES_system.c **** 
 114:../src/nes/InfoNES_system.c ****   if ( NesHeader.byVRomSize > 0 )
 115:../src/nes/InfoNES_system.c ****   {
 116:../src/nes/InfoNES_system.c ****     /* Allocate Memory for VROM Image */
 117:../src/nes/InfoNES_system.c **** 	VROM = (BYTE*)rom;
 118:../src/nes/InfoNES_system.c **** 	rom += NesHeader.byVRomSize * 0x2000;
 119:../src/nes/InfoNES_system.c ****   }
 120:../src/nes/InfoNES_system.c **** 
 121:../src/nes/InfoNES_system.c **** 
 122:../src/nes/InfoNES_system.c ****   /* Successful */
 123:../src/nes/InfoNES_system.c ****   return 0;
 124:../src/nes/InfoNES_system.c **** }
  56              		.loc 1 124 0
  57 002e B240     		lw	ra,12(sp)
  58              		.cfi_remember_state
  59              		.cfi_restore 1
  60 0030 2244     		lw	s0,8(sp)
  61              		.cfi_restore 8
  62 0032 4101     		addi	sp,sp,16
  63              		.cfi_def_cfa_offset 0
  64 0034 8280     		jr	ra
  65              	.LVL4:
  66              	.L15:
  67              		.cfi_restore_state
  68 0036 13040400 		addi	s0,s0,%lo(NesHeader)
  93:../src/nes/InfoNES_system.c ****   {
  69              		.loc 1 93 0
  70 003a 03471400 		lbu	a4,1(s0)
  71 003e 93075004 		li	a5,69
  72 0042 E315F7FE 		bne	a4,a5,.L4
  73 0046 03472400 		lbu	a4,2(s0)
  74 004a 93073005 		li	a5,83
  75 004e E31FF7FC 		bne	a4,a5,.L4
  76 0052 03473400 		lbu	a4,3(s0)
  77 0056 E947     		li	a5,26
  78 0058 E31AF7FC 		bne	a4,a5,.L4
 101:../src/nes/InfoNES_system.c **** 
  79              		.loc 1 101 0
  80 005c 37050000 		lui	a0,%hi(SRAM)
  81 0060 0966     		li	a2,8192
  82 0062 8145     		li	a1,0
  83 0064 13050500 		addi	a0,a0,%lo(SRAM)
  84 0068 97000000 		call	memset
  84      E7800000 
  85              	.LVL5:
 104:../src/nes/InfoNES_system.c ****   {
  86              		.loc 1 104 0
  87 0070 83476400 		lbu	a5,6(s0)
  93:../src/nes/InfoNES_system.c ****   {
  88              		.loc 1 93 0
  89 0074 0145     		li	a0,0
  90              	.LVL6:
 104:../src/nes/InfoNES_system.c ****   {
  91              		.loc 1 104 0
  92 0076 918B     		andi	a5,a5,4
  93 0078 85CB     		beqz	a5,.L9
 107:../src/nes/InfoNES_system.c ****   }
  94              		.loc 1 107 0
  95 007a B7070000 		lui	a5,%hi(nes_rom+528)
  96 007e 93870721 		addi	a5,a5,%lo(nes_rom+528)
  97              	.L7:
  98              	.LVL7:
 114:../src/nes/InfoNES_system.c ****   {
  99              		.loc 1 114 0
 100 0082 03475400 		lbu	a4,5(s0)
 111:../src/nes/InfoNES_system.c ****   rom += NesHeader.byRomSize * 0x4000;
 101              		.loc 1 111 0
 102 0086 B7060000 		lui	a3,%hi(ROM)
 103 008a 23A0F600 		sw	a5,%lo(ROM)(a3)
 104              	.LVL8:
 114:../src/nes/InfoNES_system.c ****   {
 105              		.loc 1 114 0
 106 008e 45D3     		beqz	a4,.L3
 112:../src/nes/InfoNES_system.c **** 
 107              		.loc 1 112 0
 108 0090 03474400 		lbu	a4,4(s0)
 109              		.loc 1 124 0
 110 0094 B240     		lw	ra,12(sp)
 111              		.cfi_remember_state
 112              		.cfi_restore 1
 113 0096 2244     		lw	s0,8(sp)
 114              		.cfi_restore 8
 112:../src/nes/InfoNES_system.c **** 
 115              		.loc 1 112 0
 116 0098 3A07     		slli	a4,a4,14
 117 009a BA97     		add	a5,a5,a4
 118              	.LVL9:
 117:../src/nes/InfoNES_system.c **** 	rom += NesHeader.byVRomSize * 0x2000;
 119              		.loc 1 117 0
 120 009c 37070000 		lui	a4,%hi(VROM)
 121 00a0 2320F700 		sw	a5,%lo(VROM)(a4)
 122              	.LVL10:
 123              		.loc 1 124 0
 124 00a4 4101     		addi	sp,sp,16
 125              		.cfi_def_cfa_offset 0
 126 00a6 8280     		jr	ra
 127              	.LVL11:
 128              	.L9:
 129              		.cfi_restore_state
  98:../src/nes/InfoNES_system.c **** 
 130              		.loc 1 98 0
 131 00a8 B7070000 		lui	a5,%hi(nes_rom+16)
 132 00ac 93870701 		addi	a5,a5,%lo(nes_rom+16)
 133 00b0 C9BF     		j	.L7
 134              		.cfi_endproc
 135              	.LFE3:
 137              		.section	.text.InfoNES_ReleaseRom,"ax",@progbits
 138              		.align	1
 139              		.globl	InfoNES_ReleaseRom
 141              	InfoNES_ReleaseRom:
 142              	.LFB4:
 125:../src/nes/InfoNES_system.c **** 
 126:../src/nes/InfoNES_system.c **** /* Release a memory for ROM */
 127:../src/nes/InfoNES_system.c **** void InfoNES_ReleaseRom()
 128:../src/nes/InfoNES_system.c **** {
 143              		.loc 1 128 0
 144              		.cfi_startproc
 129:../src/nes/InfoNES_system.c **** }
 145              		.loc 1 129 0
 146 0000 8280     		ret
 147              		.cfi_endproc
 148              	.LFE4:
 150              		.section	.text.InfoNES_LoadFrame,"ax",@progbits
 151              		.align	1
 152              		.globl	InfoNES_LoadFrame
 154              	InfoNES_LoadFrame:
 155              	.LFB18:
 156              		.cfi_startproc
 157 0000 8280     		ret
 158              		.cfi_endproc
 159              	.LFE18:
 161              		.section	.text.InfoNES_LoadLine,"ax",@progbits
 162              		.align	1
 163              		.globl	InfoNES_LoadLine
 165              	InfoNES_LoadLine:
 166              	.LFB6:
 130:../src/nes/InfoNES_system.c **** 
 131:../src/nes/InfoNES_system.c **** /* Transfer the contents of work frame on the screen */
 132:../src/nes/InfoNES_system.c **** void InfoNES_LoadFrame()
 133:../src/nes/InfoNES_system.c **** {
 134:../src/nes/InfoNES_system.c **** 	//char buf[20];
 135:../src/nes/InfoNES_system.c **** 	//printf( "%02d fps\n",FrameCount);
 136:../src/nes/InfoNES_system.c **** 	//LCD_DisplayStringLine(0x110,buf);
 137:../src/nes/InfoNES_system.c **** }
 138:../src/nes/InfoNES_system.c **** 
 139:../src/nes/InfoNES_system.c **** /* Transfer the contents of work line on the screen */
 140:../src/nes/InfoNES_system.c **** //void InfoNES_LoadLine()
 141:../src/nes/InfoNES_system.c **** //{
 142:../src/nes/InfoNES_system.c **** //	//int i;
 143:../src/nes/InfoNES_system.c **** //	if(PPU_Scanline==100)
 144:../src/nes/InfoNES_system.c **** //	{
 145:../src/nes/InfoNES_system.c **** //		FrameCount++;
 146:../src/nes/InfoNES_system.c **** //	}
 147:../src/nes/InfoNES_system.c **** //	//InfoNES_LoadFrame();
 148:../src/nes/InfoNES_system.c **** //	//ILI9341_DrawLineOne(PPU_Scanline,WorkLine);
 149:../src/nes/InfoNES_system.c **** //	ILI9341_DrawLine(PPU_Scanline,WorkLine);
 150:../src/nes/InfoNES_system.c **** //	//printf("PPU_Scanline:%d\n",PPU_Scanline);
 151:../src/nes/InfoNES_system.c **** //
 152:../src/nes/InfoNES_system.c **** //}
 153:../src/nes/InfoNES_system.c **** /* Transfer the contents of work line on the screen */
 154:../src/nes/InfoNES_system.c **** void InfoNES_LoadLine()
 155:../src/nes/InfoNES_system.c **** {
 167              		.loc 1 155 0
 168              		.cfi_startproc
 169              	.LVL12:
 170              		.loc 1 155 0
 171 0000 0111     		addi	sp,sp,-32
 172              		.cfi_def_cfa_offset 32
 173 0002 26CA     		sw	s1,20(sp)
 174 0004 4EC6     		sw	s3,12(sp)
 175 0006 52C4     		sw	s4,8(sp)
 176              		.cfi_offset 9, -12
 177              		.cfi_offset 19, -20
 178              		.cfi_offset 20, -24
 179 0008 B7040000 		lui	s1,%hi(WorkLine)
 156:../src/nes/InfoNES_system.c ****   int i;
 157:../src/nes/InfoNES_system.c ****   for(i=0;i<256;i++)
 158:../src/nes/InfoNES_system.c ****   {
 159:../src/nes/InfoNES_system.c **** 	  if(WorkLine[i]!=0)
 160:../src/nes/InfoNES_system.c **** 		  if(WorkLine[i]!=40828)
 180              		.loc 1 160 0
 181 000c A969     		li	s3,40960
 161:../src/nes/InfoNES_system.c **** 			  if(WorkLine[i]!=57343)
 182              		.loc 1 161 0
 183 000e 396A     		li	s4,57344
 155:../src/nes/InfoNES_system.c ****   int i;
 184              		.loc 1 155 0
 185 0010 22CC     		sw	s0,24(sp)
 186 0012 4AC8     		sw	s2,16(sp)
 187 0014 56C2     		sw	s5,4(sp)
 188 0016 5AC0     		sw	s6,0(sp)
 189 0018 06CE     		sw	ra,28(sp)
 190              		.cfi_offset 8, -8
 191              		.cfi_offset 18, -16
 192              		.cfi_offset 21, -28
 193              		.cfi_offset 22, -32
 194              		.cfi_offset 1, -4
 195 001a 93840400 		addi	s1,s1,%lo(WorkLine)
 157:../src/nes/InfoNES_system.c ****   {
 196              		.loc 1 157 0
 197 001e 0144     		li	s0,0
 160:../src/nes/InfoNES_system.c **** 			  if(WorkLine[i]!=57343)
 198              		.loc 1 160 0
 199 0020 9389C9F7 		addi	s3,s3,-132
 200              		.loc 1 161 0
 201 0024 7D1A     		addi	s4,s4,-1
 162:../src/nes/InfoNES_system.c **** 			  printk("WorkLine[%d]:%x,PPU_Scanline:%d\n",i,WorkLine[i],PPU_Scanline);
 202              		.loc 1 162 0
 203 0026 370B0000 		lui	s6,%hi(PPU_Scanline)
 204 002a B70A0000 		lui	s5,%hi(.LC1)
 157:../src/nes/InfoNES_system.c ****   {
 205              		.loc 1 157 0
 206 002e 13090010 		li	s2,256
 207              	.LVL13:
 208              	.L20:
 159:../src/nes/InfoNES_system.c **** 		  if(WorkLine[i]!=40828)
 209              		.loc 1 159 0
 210 0032 83D70400 		lhu	a5,0(s1)
 211 0036 8904     		addi	s1,s1,2
 212 0038 99CF     		beqz	a5,.L19
 160:../src/nes/InfoNES_system.c **** 			  if(WorkLine[i]!=57343)
 213              		.loc 1 160 0
 214 003a 638E3701 		beq	a5,s3,.L19
 215              		.loc 1 162 0
 216 003e A285     		mv	a1,s0
 217 0040 3E86     		mv	a2,a5
 218 0042 13850A00 		addi	a0,s5,%lo(.LC1)
 161:../src/nes/InfoNES_system.c **** 			  printk("WorkLine[%d]:%x,PPU_Scanline:%d\n",i,WorkLine[i],PPU_Scanline);
 219              		.loc 1 161 0
 220 0046 63884701 		beq	a5,s4,.L19
 221              		.loc 1 162 0
 222 004a 83560B00 		lhu	a3,%lo(PPU_Scanline)(s6)
 223 004e 97000000 		call	printk
 223      E7800000 
 224              	.LVL14:
 225              	.L19:
 157:../src/nes/InfoNES_system.c ****   {
 226              		.loc 1 157 0 discriminator 2
 227 0056 0504     		addi	s0,s0,1
 228              	.LVL15:
 229 0058 E31D24FD 		bne	s0,s2,.L20
 163:../src/nes/InfoNES_system.c **** //    GrContextForegroundSet(&sContext, WorkLine[i]);
 164:../src/nes/InfoNES_system.c **** //  GrPixelDraw(&sContext, i, PPU_Scanline);
 165:../src/nes/InfoNES_system.c **** 
 166:../src/nes/InfoNES_system.c ****   }
 167:../src/nes/InfoNES_system.c **** }
 230              		.loc 1 167 0
 231 005c F240     		lw	ra,28(sp)
 232              		.cfi_restore 1
 233 005e 6244     		lw	s0,24(sp)
 234              		.cfi_restore 8
 235              	.LVL16:
 236 0060 D244     		lw	s1,20(sp)
 237              		.cfi_restore 9
 238 0062 4249     		lw	s2,16(sp)
 239              		.cfi_restore 18
 240 0064 B249     		lw	s3,12(sp)
 241              		.cfi_restore 19
 242 0066 224A     		lw	s4,8(sp)
 243              		.cfi_restore 20
 244 0068 924A     		lw	s5,4(sp)
 245              		.cfi_restore 21
 246 006a 024B     		lw	s6,0(sp)
 247              		.cfi_restore 22
 248 006c 0561     		addi	sp,sp,32
 249              		.cfi_def_cfa_offset 0
 250 006e 8280     		jr	ra
 251              		.cfi_endproc
 252              	.LFE6:
 254              		.section	.text.InfoNES_PadState,"ax",@progbits
 255              		.align	1
 256              		.globl	InfoNES_PadState
 258              	InfoNES_PadState:
 259              	.LFB7:
 168:../src/nes/InfoNES_system.c **** /* Get a joypad state */
 169:../src/nes/InfoNES_system.c **** //#ifdef GPIO_UP
 170:../src/nes/InfoNES_system.c **** //extern bool up_key;
 171:../src/nes/InfoNES_system.c **** //#endif
 172:../src/nes/InfoNES_system.c **** //#ifdef GPIO_DOWN
 173:../src/nes/InfoNES_system.c **** //extern bool down_key;
 174:../src/nes/InfoNES_system.c **** //#endif
 175:../src/nes/InfoNES_system.c **** //#ifdef GPIO_LFT
 176:../src/nes/InfoNES_system.c **** //extern bool lft_key;
 177:../src/nes/InfoNES_system.c **** //#endif
 178:../src/nes/InfoNES_system.c **** //#ifdef GPIO_RHT
 179:../src/nes/InfoNES_system.c **** //extern bool rht_key;
 180:../src/nes/InfoNES_system.c **** //#endif
 181:../src/nes/InfoNES_system.c **** //#ifdef GPIO_START
 182:../src/nes/InfoNES_system.c **** //extern bool start_key;
 183:../src/nes/InfoNES_system.c **** //#endif
 184:../src/nes/InfoNES_system.c **** //#ifdef GPIO_A
 185:../src/nes/InfoNES_system.c **** //extern bool a_key;
 186:../src/nes/InfoNES_system.c **** //#endif
 187:../src/nes/InfoNES_system.c **** //#ifdef GPIO_B
 188:../src/nes/InfoNES_system.c **** //extern bool b_key;
 189:../src/nes/InfoNES_system.c **** //#endif
 190:../src/nes/InfoNES_system.c **** 
 191:../src/nes/InfoNES_system.c **** 
 192:../src/nes/InfoNES_system.c **** void InfoNES_PadState( DWORD *pdwPad1, DWORD *pdwPad2, DWORD *pdwSystem )
 193:../src/nes/InfoNES_system.c **** {
 260              		.loc 1 193 0
 261              		.cfi_startproc
 262              	.LVL17:
 194:../src/nes/InfoNES_system.c ****   
 195:../src/nes/InfoNES_system.c **** //    *pdwPad1 = 0;
 196:../src/nes/InfoNES_system.c **** //#ifdef GPIO_UP
 197:../src/nes/InfoNES_system.c **** //	if(up_key)
 198:../src/nes/InfoNES_system.c **** //	{
 199:../src/nes/InfoNES_system.c **** //		*pdwPad1 |= PAD_JOY_UP;
 200:../src/nes/InfoNES_system.c **** //		//printf("up\n");
 201:../src/nes/InfoNES_system.c **** //	}
 202:../src/nes/InfoNES_system.c **** //#endif
 203:../src/nes/InfoNES_system.c **** //#ifdef GPIO_DOWN
 204:../src/nes/InfoNES_system.c **** //	if(down_key)
 205:../src/nes/InfoNES_system.c **** //	{
 206:../src/nes/InfoNES_system.c **** //		*pdwPad1 |= PAD_JOY_DOWN;
 207:../src/nes/InfoNES_system.c **** //		//printf("DOWN\n");
 208:../src/nes/InfoNES_system.c **** //	}
 209:../src/nes/InfoNES_system.c **** //#endif
 210:../src/nes/InfoNES_system.c **** //#ifdef GPIO_LFT
 211:../src/nes/InfoNES_system.c **** //	if(lft_key)
 212:../src/nes/InfoNES_system.c **** //	{
 213:../src/nes/InfoNES_system.c **** //		*pdwPad1 |= PAD_JOY_LEFT;
 214:../src/nes/InfoNES_system.c **** //		//printf("LEFT\n");
 215:../src/nes/InfoNES_system.c **** //	}
 216:../src/nes/InfoNES_system.c **** //#endif
 217:../src/nes/InfoNES_system.c **** //#ifdef GPIO_RHT
 218:../src/nes/InfoNES_system.c **** //	if(rht_key)
 219:../src/nes/InfoNES_system.c **** //	{
 220:../src/nes/InfoNES_system.c **** //		*pdwPad1 |= PAD_JOY_RIGHT;
 221:../src/nes/InfoNES_system.c **** //		//printf("RIGHT\n");
 222:../src/nes/InfoNES_system.c **** //	}
 223:../src/nes/InfoNES_system.c **** //#endif
 224:../src/nes/InfoNES_system.c **** //#ifdef GPIO_START
 225:../src/nes/InfoNES_system.c **** //	if(start_key)
 226:../src/nes/InfoNES_system.c **** //	{
 227:../src/nes/InfoNES_system.c **** //		*pdwPad1 |= PAD_JOY_START;
 228:../src/nes/InfoNES_system.c **** //		//printf("start\n");
 229:../src/nes/InfoNES_system.c **** //	}
 230:../src/nes/InfoNES_system.c **** //#endif
 231:../src/nes/InfoNES_system.c **** //#ifdef GPIO_A
 232:../src/nes/InfoNES_system.c **** //	if(a_key)
 233:../src/nes/InfoNES_system.c **** //	{
 234:../src/nes/InfoNES_system.c **** //		*pdwPad1 |= PAD_JOY_A;
 235:../src/nes/InfoNES_system.c **** //		//printf("A\n");
 236:../src/nes/InfoNES_system.c **** //	}
 237:../src/nes/InfoNES_system.c **** //#endif
 238:../src/nes/InfoNES_system.c **** //#ifdef GPIO_B
 239:../src/nes/InfoNES_system.c **** //	if(b_key)
 240:../src/nes/InfoNES_system.c **** //	{
 241:../src/nes/InfoNES_system.c **** //		*pdwPad1 |= PAD_JOY_B;
 242:../src/nes/InfoNES_system.c **** //		//printf("B\n");
 243:../src/nes/InfoNES_system.c **** //	}
 244:../src/nes/InfoNES_system.c **** //#endif
 245:../src/nes/InfoNES_system.c **** //
 246:../src/nes/InfoNES_system.c **** //
 247:../src/nes/InfoNES_system.c **** //
 248:../src/nes/InfoNES_system.c **** }
 263              		.loc 1 248 0
 264 0000 8280     		ret
 265              		.cfi_endproc
 266              	.LFE7:
 268              		.section	.text.InfoNES_MemoryCopy,"ax",@progbits
 269              		.align	1
 270              		.globl	InfoNES_MemoryCopy
 272              	InfoNES_MemoryCopy:
 273              	.LFB8:
 249:../src/nes/InfoNES_system.c **** 
 250:../src/nes/InfoNES_system.c **** /* memcpy */
 251:../src/nes/InfoNES_system.c **** void *InfoNES_MemoryCopy( void *dest, const void *src, int count ){return memcpy(dest,src,count);}
 274              		.loc 1 251 0
 275              		.cfi_startproc
 276              	.LVL18:
 277              		.loc 1 251 0
 278 0000 17030000 		tail	memcpy
 278      67000300 
 279              	.LVL19:
 280              		.cfi_endproc
 281              	.LFE8:
 283              		.section	.text.InfoNES_MemorySet,"ax",@progbits
 284              		.align	1
 285              		.globl	InfoNES_MemorySet
 287              	InfoNES_MemorySet:
 288              	.LFB9:
 252:../src/nes/InfoNES_system.c **** 
 253:../src/nes/InfoNES_system.c **** /* memset */
 254:../src/nes/InfoNES_system.c **** void *InfoNES_MemorySet( void *dest, int c, int count ){return memset(dest,c,count);}
 289              		.loc 1 254 0
 290              		.cfi_startproc
 291              	.LVL20:
 292              		.loc 1 254 0
 293 0000 17030000 		tail	memset
 293      67000300 
 294              	.LVL21:
 295              		.cfi_endproc
 296              	.LFE9:
 298              		.section	.text.InfoNES_DebugPrint,"ax",@progbits
 299              		.align	1
 300              		.globl	InfoNES_DebugPrint
 302              	InfoNES_DebugPrint:
 303              	.LFB10:
 255:../src/nes/InfoNES_system.c **** 
 256:../src/nes/InfoNES_system.c **** /* Print debug message */
 257:../src/nes/InfoNES_system.c **** void InfoNES_DebugPrint( char *pszMsg )
 258:../src/nes/InfoNES_system.c **** {
 304              		.loc 1 258 0
 305              		.cfi_startproc
 306              	.LVL22:
 259:../src/nes/InfoNES_system.c **** }
 307              		.loc 1 259 0
 308 0000 8280     		ret
 309              		.cfi_endproc
 310              	.LFE10:
 312              		.section	.text.InfoNES_Wait,"ax",@progbits
 313              		.align	1
 314              		.globl	InfoNES_Wait
 316              	InfoNES_Wait:
 317              	.LFB20:
 318              		.cfi_startproc
 319 0000 8280     		ret
 320              		.cfi_endproc
 321              	.LFE20:
 323              		.section	.text.InfoNES_SoundInit,"ax",@progbits
 324              		.align	1
 325              		.globl	InfoNES_SoundInit
 327              	InfoNES_SoundInit:
 328              	.LFB12:
 260:../src/nes/InfoNES_system.c **** 
 261:../src/nes/InfoNES_system.c **** /* Wait */
 262:../src/nes/InfoNES_system.c **** void InfoNES_Wait()
 263:../src/nes/InfoNES_system.c **** {
 264:../src/nes/InfoNES_system.c **** 
 265:../src/nes/InfoNES_system.c **** }
 266:../src/nes/InfoNES_system.c **** 
 267:../src/nes/InfoNES_system.c **** /* Sound Initialize */
 268:../src/nes/InfoNES_system.c **** void InfoNES_SoundInit( void )
 269:../src/nes/InfoNES_system.c **** {
 329              		.loc 1 269 0
 330              		.cfi_startproc
 270:../src/nes/InfoNES_system.c **** 	
 271:../src/nes/InfoNES_system.c **** }
 331              		.loc 1 271 0
 332 0000 8280     		ret
 333              		.cfi_endproc
 334              	.LFE12:
 336              		.section	.text.InfoNES_SoundOpen,"ax",@progbits
 337              		.align	1
 338              		.globl	InfoNES_SoundOpen
 340              	InfoNES_SoundOpen:
 341              	.LFB13:
 272:../src/nes/InfoNES_system.c **** 
 273:../src/nes/InfoNES_system.c **** /* Sound Open */
 274:../src/nes/InfoNES_system.c **** int InfoNES_SoundOpen( int samples_per_sync, int sample_rate )
 275:../src/nes/InfoNES_system.c **** {
 342              		.loc 1 275 0
 343              		.cfi_startproc
 344              	.LVL23:
 276:../src/nes/InfoNES_system.c ****   return 0;
 277:../src/nes/InfoNES_system.c **** }
 345              		.loc 1 277 0
 346 0000 0145     		li	a0,0
 347              	.LVL24:
 348 0002 8280     		ret
 349              		.cfi_endproc
 350              	.LFE13:
 352              		.section	.text.InfoNES_SoundClose,"ax",@progbits
 353              		.align	1
 354              		.globl	InfoNES_SoundClose
 356              	InfoNES_SoundClose:
 357              	.LFB22:
 358              		.cfi_startproc
 359 0000 8280     		ret
 360              		.cfi_endproc
 361              	.LFE22:
 363              		.section	.text.InfoNES_SoundOutput,"ax",@progbits
 364              		.align	1
 365              		.globl	InfoNES_SoundOutput
 367              	InfoNES_SoundOutput:
 368              	.LFB15:
 278:../src/nes/InfoNES_system.c **** 
 279:../src/nes/InfoNES_system.c **** /* Sound Close */
 280:../src/nes/InfoNES_system.c **** void InfoNES_SoundClose( void )
 281:../src/nes/InfoNES_system.c **** {
 282:../src/nes/InfoNES_system.c **** }
 283:../src/nes/InfoNES_system.c **** 
 284:../src/nes/InfoNES_system.c **** /* Sound Output 5 Waves - 2 Pulse, 1 Triangle, 1 Noise, 1 DPCM */
 285:../src/nes/InfoNES_system.c **** void InfoNES_SoundOutput(int samples, BYTE *wave1, BYTE *wave2, BYTE *wave3, BYTE *wave4, BYTE *wav
 286:../src/nes/InfoNES_system.c **** {
 369              		.loc 1 286 0
 370              		.cfi_startproc
 371              	.LVL25:
 287:../src/nes/InfoNES_system.c **** }
 372              		.loc 1 287 0
 373 0000 8280     		ret
 374              		.cfi_endproc
 375              	.LFE15:
 377              		.section	.text.InfoNES_MessageBox,"ax",@progbits
 378              		.align	1
 379              		.globl	InfoNES_MessageBox
 381              	InfoNES_MessageBox:
 382              	.LFB16:
 288:../src/nes/InfoNES_system.c **** 
 289:../src/nes/InfoNES_system.c **** /* Print system message */
 290:../src/nes/InfoNES_system.c **** void InfoNES_MessageBox( char *pszMsg, ... )
 291:../src/nes/InfoNES_system.c **** {
 383              		.loc 1 291 0
 384              		.cfi_startproc
 385              	.LVL26:
 386 0000 0111     		addi	sp,sp,-32
 387              		.cfi_def_cfa_offset 32
 388              		.loc 1 291 0
 389 0002 2EC2     		sw	a1,4(sp)
 390 0004 32C4     		sw	a2,8(sp)
 391 0006 36C6     		sw	a3,12(sp)
 392 0008 3AC8     		sw	a4,16(sp)
 393 000a 3ECA     		sw	a5,20(sp)
 394 000c 42CC     		sw	a6,24(sp)
 395 000e 46CE     		sw	a7,28(sp)
 292:../src/nes/InfoNES_system.c **** }
 396              		.loc 1 292 0
 397 0010 0561     		addi	sp,sp,32
 398              		.cfi_def_cfa_offset 0
 399 0012 8280     		jr	ra
 400              		.cfi_endproc
 401              	.LFE16:
 403              		.globl	NesPalette
 404              		.globl	FrameCount
 405              		.section	.data.NesPalette,"aw",@progbits
 406              		.align	2
 409              	NesPalette:
 410 0000 738E     		.half	-29069
 411 0002 20D1     		.half	-12000
 412 0004 0015     		.half	5376
 413 0006 4013     		.half	4928
 414 0008 880E     		.half	3720
 415 000a A802     		.half	680
 416 000c A000     		.half	160
 417 000e 7840     		.half	16504
 418 0010 4140     		.half	16449
 419 0012 0200     		.half	2
 420 0014 0280     		.half	-32766
 421 0016 01C2     		.half	-15871
 422 0018 19CB     		.half	-13543
 423 001a 0000     		.half	0
 424 001c 0000     		.half	0
 425 001e 0000     		.half	0
 426 0020 BDD7     		.half	-10307
 427 0022 039D     		.half	-25341
 428 0024 21DD     		.half	-8927
 429 0026 801E     		.half	7808
 430 0028 B817     		.half	6072
 431 002a E00B     		.half	3040
 432 002c D940     		.half	16601
 433 002e CA41     		.half	16842
 434 0030 8B80     		.half	-32629
 435 0032 0480     		.half	-32764
 436 0034 0540     		.half	16389
 437 0036 0487     		.half	-30972
 438 0038 0411     		.half	4356
 439 003a 0000     		.half	0
 440 003c 0000     		.half	0
 441 003e 0000     		.half	0
 442 0040 FFDF     		.half	-8193
 443 0042 3DDF     		.half	-8387
 444 0044 5C9F     		.half	-24740
 445 0046 445F     		.half	24388
 446 0048 F3DF     		.half	-8205
 447 004a FB96     		.half	-26885
 448 004c FB8C     		.half	-29445
 449 004e FCC7     		.half	-14340
 450 0050 F5C7     		.half	-14347
 451 0052 8682     		.half	-32122
 452 0054 4EC9     		.half	-14002
 453 0056 5FD3     		.half	-11425
 454 0058 075B     		.half	23303
 455 005a 0000     		.half	0
 456 005c 0000     		.half	0
 457 005e 0000     		.half	0
 458 0060 FFDF     		.half	-8193
 459 0062 AF1F     		.half	8111
 460 0064 C69F     		.half	-24634
 461 0066 D65F     		.half	24534
 462 0068 FE1F     		.half	8190
 463 006a FE1B     		.half	7166
 464 006c FDD6     		.half	-10499
 465 006e FED5     		.half	-10754
 466 0070 FF14     		.half	5375
 467 0072 E7D4     		.half	-11033
 468 0074 AF97     		.half	-26705
 469 0076 B7D9     		.half	-9801
 470 0078 9FDE     		.half	-8545
 471 007a 0000     		.half	0
 472 007c 0000     		.half	0
 473 007e 0000     		.half	0
 474              		.section	.rodata.InfoNES_LoadLine.str1.4,"aMS",@progbits,1
 475              		.align	2
 476              	.LC1:
 477 0000 576F726B 		.string	"WorkLine[%d]:%x,PPU_Scanline:%d\n"
 477      4C696E65 
 477      5B25645D 
 477      3A25782C 
 477      5050555F 
 478              		.section	.rodata.InfoNES_ReadRom.str1.4,"aMS",@progbits,1
 479              		.align	2
 480              	.LC0:
 481 0000 4E45531A 		.string	"NES\032"
 481      00
 482              		.section	.sbss.FrameCount,"aw",@nobits
 483              		.align	2
 486              	FrameCount:
 487 0000 00000000 		.zero	4
 488              		.text
 489              	.Letext0:
 490              		.file 2 "../src/nes/InfoNES_Types.h"
 491              		.file 3 "d:\\hummingbird\\hbird-eclipse_2018_09\\gnu mcu eclipse\\risc-v embedded gcc\\7.2.0-4-201
 492              		.file 4 "d:\\hummingbird\\hbird-eclipse_2018_09\\gnu mcu eclipse\\risc-v embedded gcc\\7.2.0-4-201
 493              		.file 5 "d:\\hummingbird\\hbird-eclipse_2018_09\\gnu mcu eclipse\\risc-v embedded gcc\\7.2.0-4-201
 494              		.file 6 "d:\\hummingbird\\hbird-eclipse_2018_09\\gnu mcu eclipse\\risc-v embedded gcc\\7.2.0-4-201
 495              		.file 7 "../src/nes/InfoNES.h"
 496              		.file 8 "d:\\hummingbird\\hbird-eclipse_2018_09\\gnu mcu eclipse\\risc-v embedded gcc\\7.2.0-4-201
 497              		.file 9 "../src/nes/../uart.h"
 498              		.file 10 "<built-in>"