   1              		.file	"InfoNES.c"
   2              		.option nopic
   3              		.text
   4              	.Ltext0:
   5              		.cfi_sections	.debug_frame
   6              		.section	.text.InfoNES_Init,"ax",@progbits
   7              		.align	1
   8              		.globl	InfoNES_Init
  10              	InfoNES_Init:
  11              	.LFB1:
  12              		.file 1 "../src/nes/InfoNES.c"
   1:../src/nes/InfoNES.c **** /*===================================================================*/
   2:../src/nes/InfoNES.c **** /*                                                                   */
   3:../src/nes/InfoNES.c **** /*  InfoNES.cpp : NES Emulator for Win32, Linux(x86), Linux(PS2)     */
   4:../src/nes/InfoNES.c **** /*                                                                   */
   5:../src/nes/InfoNES.c **** /*  2000/05/18  InfoNES Project ( based on pNesX )                   */
   6:../src/nes/InfoNES.c **** /*                                                                   */
   7:../src/nes/InfoNES.c **** /*===================================================================*/
   8:../src/nes/InfoNES.c **** 
   9:../src/nes/InfoNES.c **** /*-------------------------------------------------------------------
  10:../src/nes/InfoNES.c ****  * File List :
  11:../src/nes/InfoNES.c ****  *
  12:../src/nes/InfoNES.c ****  * [NES Hardware]
  13:../src/nes/InfoNES.c ****  *   InfoNES.cpp
  14:../src/nes/InfoNES.c ****  *   InfoNES.h
  15:../src/nes/InfoNES.c ****  *   K6502_rw.h
  16:../src/nes/InfoNES.c ****  *
  17:../src/nes/InfoNES.c ****  * [Mapper function]
  18:../src/nes/InfoNES.c ****  *   InfoNES_Mapper.cpp
  19:../src/nes/InfoNES.c ****  *   InfoNES_Mapper.h
  20:../src/nes/InfoNES.c ****  *
  21:../src/nes/InfoNES.c ****  * [The function which depends on a system]
  22:../src/nes/InfoNES.c ****  *   InfoNES_System_ooo.cpp (ooo is a system name. win, ...)
  23:../src/nes/InfoNES.c ****  *   InfoNES_System.h
  24:../src/nes/InfoNES.c ****  *
  25:../src/nes/InfoNES.c ****  * [CPU]
  26:../src/nes/InfoNES.c ****  *   K6502.cpp
  27:../src/nes/InfoNES.c ****  *   K6502.h
  28:../src/nes/InfoNES.c ****  *
  29:../src/nes/InfoNES.c ****  * [Others]
  30:../src/nes/InfoNES.c ****  *   InfoNES_Types.h
  31:../src/nes/InfoNES.c ****  *
  32:../src/nes/InfoNES.c ****  --------------------------------------------------------------------*/
  33:../src/nes/InfoNES.c **** /*-------------------------------------------------------------------*/
  34:../src/nes/InfoNES.c **** /*  Include files                                                    */
  35:../src/nes/InfoNES.c **** /*-------------------------------------------------------------------*/
  36:../src/nes/InfoNES.c **** 
  37:../src/nes/InfoNES.c **** #include "InfoNES.h"
  38:../src/nes/InfoNES.c **** #include "InfoNES_System.h"
  39:../src/nes/InfoNES.c **** #include "InfoNES_Mapper.h"
  40:../src/nes/InfoNES.c **** #include "InfoNES_pAPU.h"
  41:../src/nes/InfoNES.c **** #include "K6502.h"
  42:../src/nes/InfoNES.c **** 
  43:../src/nes/InfoNES.c **** #ifdef __cplusplus 
  44:../src/nes/InfoNES.c **** extern "C" { 
  45:../src/nes/InfoNES.c **** #endif /* __cplusplus */ 
  46:../src/nes/InfoNES.c **** 
  47:../src/nes/InfoNES.c **** /*-------------------------------------------------------------------*/
  48:../src/nes/InfoNES.c **** /*  NES resources                                                    */
  49:../src/nes/InfoNES.c **** /*-------------------------------------------------------------------*/
  50:../src/nes/InfoNES.c **** 
  51:../src/nes/InfoNES.c **** /* RAM */
  52:../src/nes/InfoNES.c **** BYTE RAM[ RAM_SIZE ];
  53:../src/nes/InfoNES.c **** 
  54:../src/nes/InfoNES.c **** /* SRAM */
  55:../src/nes/InfoNES.c **** BYTE SRAM[ SRAM_SIZE ];
  56:../src/nes/InfoNES.c **** 
  57:../src/nes/InfoNES.c **** /* ROM */
  58:../src/nes/InfoNES.c **** BYTE *ROM;
  59:../src/nes/InfoNES.c **** 
  60:../src/nes/InfoNES.c **** /* SRAM BANK ( 8Kb ) */
  61:../src/nes/InfoNES.c **** BYTE *SRAMBANK;
  62:../src/nes/InfoNES.c **** 
  63:../src/nes/InfoNES.c **** /* ROM BANK ( 8Kb * 4 ) */
  64:../src/nes/InfoNES.c **** BYTE *ROMBANK0;
  65:../src/nes/InfoNES.c **** BYTE *ROMBANK1;
  66:../src/nes/InfoNES.c **** BYTE *ROMBANK2;
  67:../src/nes/InfoNES.c **** BYTE *ROMBANK3;
  68:../src/nes/InfoNES.c **** 
  69:../src/nes/InfoNES.c **** /*-------------------------------------------------------------------*/
  70:../src/nes/InfoNES.c **** /*  PPU resources                                                    */
  71:../src/nes/InfoNES.c **** /*-------------------------------------------------------------------*/
  72:../src/nes/InfoNES.c **** 
  73:../src/nes/InfoNES.c **** #ifdef RAM_LACK
  74:../src/nes/InfoNES.c **** /* PPU VRAM */
  75:../src/nes/InfoNES.c **** BYTE VRAM[ VRAM_SIZE ];
  76:../src/nes/InfoNES.c **** #else
  77:../src/nes/InfoNES.c **** /* PPU RAM */
  78:../src/nes/InfoNES.c **** BYTE PPURAM[ PPURAM_SIZE ];
  79:../src/nes/InfoNES.c **** #endif
  80:../src/nes/InfoNES.c **** 
  81:../src/nes/InfoNES.c **** /* VROM */
  82:../src/nes/InfoNES.c **** BYTE *VROM;
  83:../src/nes/InfoNES.c **** 
  84:../src/nes/InfoNES.c **** /* PPU BANK ( 1Kb * 16 ) */
  85:../src/nes/InfoNES.c **** BYTE *PPUBANK[ 16 ];
  86:../src/nes/InfoNES.c **** 
  87:../src/nes/InfoNES.c **** /* Sprite RAM */
  88:../src/nes/InfoNES.c **** BYTE SPRRAM[ SPRRAM_SIZE ];
  89:../src/nes/InfoNES.c **** 
  90:../src/nes/InfoNES.c **** /* PPU Register */
  91:../src/nes/InfoNES.c **** BYTE PPU_R0;
  92:../src/nes/InfoNES.c **** BYTE PPU_R1;
  93:../src/nes/InfoNES.c **** BYTE PPU_R2;
  94:../src/nes/InfoNES.c **** BYTE PPU_R3;
  95:../src/nes/InfoNES.c **** BYTE PPU_R7;
  96:../src/nes/InfoNES.c **** 
  97:../src/nes/InfoNES.c **** /* PPU Address */
  98:../src/nes/InfoNES.c **** WORD loopy_v;
  99:../src/nes/InfoNES.c **** 
 100:../src/nes/InfoNES.c **** /* PPU Address */
 101:../src/nes/InfoNES.c **** WORD loopy_t;
 102:../src/nes/InfoNES.c **** 
 103:../src/nes/InfoNES.c **** WORD loopy_x;
 104:../src/nes/InfoNES.c **** WORD loopy_y;
 105:../src/nes/InfoNES.c **** WORD loopy_shift;
 106:../src/nes/InfoNES.c **** 
 107:../src/nes/InfoNES.c **** /* The increase value of the PPU Address */
 108:../src/nes/InfoNES.c **** WORD PPU_Increment;
 109:../src/nes/InfoNES.c **** 
 110:../src/nes/InfoNES.c **** /* Current Scanline */
 111:../src/nes/InfoNES.c **** WORD PPU_Scanline;
 112:../src/nes/InfoNES.c **** 
 113:../src/nes/InfoNES.c **** /* Scanline Table */
 114:../src/nes/InfoNES.c **** BYTE PPU_ScanTable[ 263 ];
 115:../src/nes/InfoNES.c **** 
 116:../src/nes/InfoNES.c **** /* Name Table Bank */
 117:../src/nes/InfoNES.c **** BYTE PPU_NameTableBank;
 118:../src/nes/InfoNES.c **** 
 119:../src/nes/InfoNES.c **** /* BG Base Address */
 120:../src/nes/InfoNES.c **** BYTE *PPU_BG_Base;
 121:../src/nes/InfoNES.c **** 
 122:../src/nes/InfoNES.c **** /* Sprite Base Address */
 123:../src/nes/InfoNES.c **** BYTE *PPU_SP_Base;
 124:../src/nes/InfoNES.c **** 
 125:../src/nes/InfoNES.c **** /* Sprite Height */
 126:../src/nes/InfoNES.c **** WORD PPU_SP_Height;
 127:../src/nes/InfoNES.c **** 
 128:../src/nes/InfoNES.c **** /* Sprite #0 Scanline Hit Position */
 129:../src/nes/InfoNES.c **** int SpriteJustHit;
 130:../src/nes/InfoNES.c **** 
 131:../src/nes/InfoNES.c **** /* VRAM Write Enable ( 0: Disable, 1: Enable ) */
 132:../src/nes/InfoNES.c **** BYTE byVramWriteEnable;
 133:../src/nes/InfoNES.c **** 
 134:../src/nes/InfoNES.c **** /* PPU Address and Scroll Latch Flag*/
 135:../src/nes/InfoNES.c **** BYTE PPU_Latch_Flag;
 136:../src/nes/InfoNES.c **** 
 137:../src/nes/InfoNES.c **** /* Up and Down Clipping Flag ( 0: non-clip, 1: clip ) */ 
 138:../src/nes/InfoNES.c **** BYTE PPU_UpDown_Clip;
 139:../src/nes/InfoNES.c **** 
 140:../src/nes/InfoNES.c **** /* Frame IRQ ( 0: Disabled, 1: Enabled )*/
 141:../src/nes/InfoNES.c **** BYTE FrameIRQ_Enable;
 142:../src/nes/InfoNES.c **** WORD FrameStep;
 143:../src/nes/InfoNES.c **** 
 144:../src/nes/InfoNES.c **** /*-------------------------------------------------------------------*/
 145:../src/nes/InfoNES.c **** /*  Display and Others resouces                                      */
 146:../src/nes/InfoNES.c **** /*-------------------------------------------------------------------*/
 147:../src/nes/InfoNES.c **** 
 148:../src/nes/InfoNES.c **** /* Frame Skip */
 149:../src/nes/InfoNES.c **** WORD FrameSkip;
 150:../src/nes/InfoNES.c **** WORD FrameCnt;
 151:../src/nes/InfoNES.c **** 
 152:../src/nes/InfoNES.c **** /* Display Buffer */
 153:../src/nes/InfoNES.c **** WORD FrameScanLine;
 154:../src/nes/InfoNES.c **** #if WORKFRAME_DEFINE == WORKFRAME_DOUBLE
 155:../src/nes/InfoNES.c ****   PIXEL DoubleFrame[ 2 ][ NES_DISP_WIDTH * NES_DISP_HEIGHT ];
 156:../src/nes/InfoNES.c ****   PIXEL *WorkFrame;
 157:../src/nes/InfoNES.c ****   WORD WorkFrameIdx;
 158:../src/nes/InfoNES.c **** #elif WORKFRAME_DEFINE == WORKFRAME_SINGLE
 159:../src/nes/InfoNES.c ****   PIXEL WorkFrame[ NES_DISP_WIDTH * NES_DISP_HEIGHT ];
 160:../src/nes/InfoNES.c **** #else
 161:../src/nes/InfoNES.c ****   PIXEL WorkLine[ NES_DISP_WIDTH ];
 162:../src/nes/InfoNES.c **** #endif
 163:../src/nes/InfoNES.c **** 
 164:../src/nes/InfoNES.c **** #ifndef RAM_LACK
 165:../src/nes/InfoNES.c **** /* Character Buffer */
 166:../src/nes/InfoNES.c **** BYTE ChrBuf[ 256 * 2 * 8 * 8 ];
 167:../src/nes/InfoNES.c **** /* Update flag for ChrBuf */
 168:../src/nes/InfoNES.c **** BYTE ChrBufUpdate;
 169:../src/nes/InfoNES.c **** #endif /* !RAM_LACK */
 170:../src/nes/InfoNES.c **** 
 171:../src/nes/InfoNES.c **** /* Palette Table */
 172:../src/nes/InfoNES.c **** PIXEL PalTable[ 32 ];
 173:../src/nes/InfoNES.c **** 
 174:../src/nes/InfoNES.c **** /* Table for Mirroring */
 175:../src/nes/InfoNES.c **** BYTE PPU_MirrorTable[][ 4 ] =
 176:../src/nes/InfoNES.c **** {
 177:../src/nes/InfoNES.c **** #ifdef RAM_LACK
 178:../src/nes/InfoNES.c ****   { NAME_TABLE0 & 0x3, NAME_TABLE0 & 0x3, NAME_TABLE1 & 0x3, NAME_TABLE1 & 0x3 },
 179:../src/nes/InfoNES.c ****   { NAME_TABLE0 & 0x3, NAME_TABLE1 & 0x3, NAME_TABLE0 & 0x3, NAME_TABLE1 & 0x3 },
 180:../src/nes/InfoNES.c ****   { NAME_TABLE1 & 0x3, NAME_TABLE1 & 0x3, NAME_TABLE1 & 0x3, NAME_TABLE1 & 0x3 },
 181:../src/nes/InfoNES.c ****   { NAME_TABLE0 & 0x3, NAME_TABLE0 & 0x3, NAME_TABLE0 & 0x3, NAME_TABLE0 & 0x3 },
 182:../src/nes/InfoNES.c ****   { NAME_TABLE0 & 0x3, NAME_TABLE1 & 0x3, NAME_TABLE2 & 0x3, NAME_TABLE3 & 0x3 },
 183:../src/nes/InfoNES.c ****   { NAME_TABLE0 & 0x3, NAME_TABLE0 & 0x3, NAME_TABLE0 & 0x3, NAME_TABLE1 & 0x3 }
 184:../src/nes/InfoNES.c **** #else
 185:../src/nes/InfoNES.c ****   { NAME_TABLE0, NAME_TABLE0, NAME_TABLE1, NAME_TABLE1 },
 186:../src/nes/InfoNES.c ****   { NAME_TABLE0, NAME_TABLE1, NAME_TABLE0, NAME_TABLE1 },
 187:../src/nes/InfoNES.c ****   { NAME_TABLE1, NAME_TABLE1, NAME_TABLE1, NAME_TABLE1 },
 188:../src/nes/InfoNES.c ****   { NAME_TABLE0, NAME_TABLE0, NAME_TABLE0, NAME_TABLE0 },
 189:../src/nes/InfoNES.c ****   { NAME_TABLE0, NAME_TABLE1, NAME_TABLE2, NAME_TABLE3 },
 190:../src/nes/InfoNES.c ****   { NAME_TABLE0, NAME_TABLE0, NAME_TABLE0, NAME_TABLE1 }
 191:../src/nes/InfoNES.c **** #endif
 192:../src/nes/InfoNES.c **** };
 193:../src/nes/InfoNES.c **** 
 194:../src/nes/InfoNES.c **** #define HS(x) ((x) * STEP_PER_SCANLINE / NES_DISP_WIDTH)
 195:../src/nes/InfoNES.c **** const WORD JustHitStep[256]={
 196:../src/nes/InfoNES.c ****   HS(0x00), HS(0x01), HS(0x02), HS(0x03), HS(0x04), HS(0x05), HS(0x06), HS(0x07), HS(0x08), HS(0x09
 197:../src/nes/InfoNES.c ****   HS(0x10), HS(0x11), HS(0x12), HS(0x13), HS(0x14), HS(0x15), HS(0x16), HS(0x17), HS(0x18), HS(0x19
 198:../src/nes/InfoNES.c ****   HS(0x20), HS(0x21), HS(0x22), HS(0x23), HS(0x24), HS(0x25), HS(0x26), HS(0x27), HS(0x28), HS(0x29
 199:../src/nes/InfoNES.c ****   HS(0x30), HS(0x31), HS(0x32), HS(0x33), HS(0x34), HS(0x35), HS(0x36), HS(0x37), HS(0x38), HS(0x39
 200:../src/nes/InfoNES.c ****   HS(0x40), HS(0x41), HS(0x42), HS(0x43), HS(0x44), HS(0x45), HS(0x46), HS(0x47), HS(0x48), HS(0x49
 201:../src/nes/InfoNES.c ****   HS(0x50), HS(0x51), HS(0x52), HS(0x53), HS(0x54), HS(0x55), HS(0x56), HS(0x57), HS(0x58), HS(0x59
 202:../src/nes/InfoNES.c ****   HS(0x60), HS(0x61), HS(0x62), HS(0x63), HS(0x64), HS(0x65), HS(0x66), HS(0x67), HS(0x68), HS(0x69
 203:../src/nes/InfoNES.c ****   HS(0x70), HS(0x71), HS(0x72), HS(0x73), HS(0x74), HS(0x75), HS(0x76), HS(0x77), HS(0x78), HS(0x79
 204:../src/nes/InfoNES.c ****   HS(0x80), HS(0x81), HS(0x82), HS(0x83), HS(0x84), HS(0x85), HS(0x86), HS(0x87), HS(0x88), HS(0x89
 205:../src/nes/InfoNES.c ****   HS(0x90), HS(0x91), HS(0x92), HS(0x93), HS(0x94), HS(0x95), HS(0x96), HS(0x97), HS(0x98), HS(0x99
 206:../src/nes/InfoNES.c ****   HS(0xA0), HS(0xA1), HS(0xA2), HS(0xA3), HS(0xA4), HS(0xA5), HS(0xA6), HS(0xA7), HS(0xA8), HS(0xA9
 207:../src/nes/InfoNES.c ****   HS(0xB0), HS(0xB1), HS(0xB2), HS(0xB3), HS(0xB4), HS(0xB5), HS(0xB6), HS(0xB7), HS(0xB8), HS(0xB9
 208:../src/nes/InfoNES.c ****   HS(0xC0), HS(0xC1), HS(0xC2), HS(0xC3), HS(0xC4), HS(0xC5), HS(0xC6), HS(0xC7), HS(0xC8), HS(0xC9
 209:../src/nes/InfoNES.c ****   HS(0xD0), HS(0xD1), HS(0xD2), HS(0xD3), HS(0xD4), HS(0xD5), HS(0xD6), HS(0xD7), HS(0xD8), HS(0xD9
 210:../src/nes/InfoNES.c ****   HS(0xE0), HS(0xE1), HS(0xE2), HS(0xE3), HS(0xE4), HS(0xE5), HS(0xE6), HS(0xE7), HS(0xE8), HS(0xE9
 211:../src/nes/InfoNES.c ****   HS(0xF0), HS(0xF1), HS(0xF2), HS(0xF3), HS(0xF4), HS(0xF5), HS(0xF6), HS(0xF7), HS(0xF8), HS(0xF9
 212:../src/nes/InfoNES.c **** };
 213:../src/nes/InfoNES.c **** #undef HS
 214:../src/nes/InfoNES.c **** 
 215:../src/nes/InfoNES.c **** /*-------------------------------------------------------------------*/
 216:../src/nes/InfoNES.c **** /*  APU and Pad resources                                            */
 217:../src/nes/InfoNES.c **** /*-------------------------------------------------------------------*/
 218:../src/nes/InfoNES.c **** 
 219:../src/nes/InfoNES.c **** #ifndef APU_NONE
 220:../src/nes/InfoNES.c **** /* APU Register */
 221:../src/nes/InfoNES.c **** BYTE APU_Reg[ 0x18 ];
 222:../src/nes/InfoNES.c **** 
 223:../src/nes/InfoNES.c **** /* APU Mute ( 0:OFF, 1:ON ) */
 224:../src/nes/InfoNES.c **** int APU_Mute = 0;
 225:../src/nes/InfoNES.c **** #endif /* APU_NONE */
 226:../src/nes/InfoNES.c **** 
 227:../src/nes/InfoNES.c **** /* Pad data */
 228:../src/nes/InfoNES.c **** DWORD PAD1_Latch;
 229:../src/nes/InfoNES.c **** DWORD PAD2_Latch;
 230:../src/nes/InfoNES.c **** DWORD PAD_System;
 231:../src/nes/InfoNES.c **** DWORD PAD1_Bit;
 232:../src/nes/InfoNES.c **** DWORD PAD2_Bit;
 233:../src/nes/InfoNES.c **** 
 234:../src/nes/InfoNES.c **** /*-------------------------------------------------------------------*/
 235:../src/nes/InfoNES.c **** /*  ROM information                                                  */
 236:../src/nes/InfoNES.c **** /*-------------------------------------------------------------------*/
 237:../src/nes/InfoNES.c **** 
 238:../src/nes/InfoNES.c **** /* .nes File Header */
 239:../src/nes/InfoNES.c **** struct NesHeader_tag NesHeader;
 240:../src/nes/InfoNES.c **** 
 241:../src/nes/InfoNES.c **** /* Mapper Number */
 242:../src/nes/InfoNES.c **** BYTE MapperNo;
 243:../src/nes/InfoNES.c **** 
 244:../src/nes/InfoNES.c **** /* Mirroring 0:Horizontal 1:Vertical */
 245:../src/nes/InfoNES.c **** BYTE ROM_Mirroring;
 246:../src/nes/InfoNES.c **** /* It has SRAM */
 247:../src/nes/InfoNES.c **** BYTE ROM_SRAM;
 248:../src/nes/InfoNES.c **** /* It has Trainer */
 249:../src/nes/InfoNES.c **** BYTE ROM_Trainer;
 250:../src/nes/InfoNES.c **** /* Four screen VRAM  */
 251:../src/nes/InfoNES.c **** BYTE ROM_FourScr;
 252:../src/nes/InfoNES.c **** 
 253:../src/nes/InfoNES.c **** /*===================================================================*/
 254:../src/nes/InfoNES.c **** /*                                                                   */
 255:../src/nes/InfoNES.c **** /*                InfoNES_Init() : Initialize InfoNES                */
 256:../src/nes/InfoNES.c **** /*                                                                   */
 257:../src/nes/InfoNES.c **** /*===================================================================*/
 258:../src/nes/InfoNES.c **** void InfoNES_Init()
 259:../src/nes/InfoNES.c **** {
  13              		.loc 1 259 0
  14              		.cfi_startproc
  15 0000 4111     		addi	sp,sp,-16
  16              		.cfi_def_cfa_offset 16
  17 0002 06C6     		sw	ra,12(sp)
  18              		.cfi_offset 1, -4
 260:../src/nes/InfoNES.c **** /*
 261:../src/nes/InfoNES.c ****  *  Initialize InfoNES
 262:../src/nes/InfoNES.c ****  *
 263:../src/nes/InfoNES.c ****  *  Remarks
 264:../src/nes/InfoNES.c ****  *    Initialize K6502 and Scanline Table.
 265:../src/nes/InfoNES.c ****  */
 266:../src/nes/InfoNES.c ****   int nIdx;
 267:../src/nes/InfoNES.c **** 
 268:../src/nes/InfoNES.c ****   // Initialize 6502
 269:../src/nes/InfoNES.c ****   K6502_Init();
  19              		.loc 1 269 0
  20 0004 97000000 		call	K6502_Init
  20      E7800000 
  21              	.LVL0:
  22 000c 37070000 		lui	a4,%hi(.LANCHOR0)
  23 0010 13070700 		addi	a4,a4,%lo(.LANCHOR0)
 270:../src/nes/InfoNES.c **** 
 271:../src/nes/InfoNES.c ****   // Initialize Scanline Table
 272:../src/nes/InfoNES.c ****   for ( nIdx = 0; nIdx < 263; ++nIdx )
  24              		.loc 1 272 0
  25 0014 8147     		li	a5,0
 273:../src/nes/InfoNES.c ****   {
 274:../src/nes/InfoNES.c ****     if ( nIdx < SCAN_ON_SCREEN_START )
  26              		.loc 1 274 0
  27 0016 1D46     		li	a2,7
 275:../src/nes/InfoNES.c ****       PPU_ScanTable[ nIdx ] = SCAN_UNKNOWN;
 276:../src/nes/InfoNES.c ****     else
 277:../src/nes/InfoNES.c ****     if ( nIdx < SCAN_BOTTOM_OFF_SCREEN_START )
  28              		.loc 1 277 0
  29 0018 9305700E 		li	a1,231
 278:../src/nes/InfoNES.c ****       PPU_ScanTable[ nIdx ] = SCAN_ON_SCREEN;
 279:../src/nes/InfoNES.c ****     else
 280:../src/nes/InfoNES.c ****     if ( nIdx < SCAN_UNKNOWN_START )
  30              		.loc 1 280 0
  31 001c 9308F00E 		li	a7,239
 281:../src/nes/InfoNES.c ****       PPU_ScanTable[ nIdx ] = SCAN_UNKNOWN;
 282:../src/nes/InfoNES.c ****     else
 283:../src/nes/InfoNES.c ****     if ( nIdx < SCAN_VBLANK_START )
  32              		.loc 1 283 0
  33 0020 1303200F 		li	t1,242
 284:../src/nes/InfoNES.c ****       PPU_ScanTable[ nIdx ] = SCAN_UNKNOWN;
 285:../src/nes/InfoNES.c ****     else
 286:../src/nes/InfoNES.c ****       PPU_ScanTable[ nIdx ] = SCAN_VBLANK;
  34              		.loc 1 286 0
  35 0024 114E     		li	t3,4
 284:../src/nes/InfoNES.c ****       PPU_ScanTable[ nIdx ] = SCAN_UNKNOWN;
  36              		.loc 1 284 0
  37 0026 0D48     		li	a6,3
 278:../src/nes/InfoNES.c ****     else
  38              		.loc 1 278 0
  39 0028 0545     		li	a0,1
 272:../src/nes/InfoNES.c ****   {
  40              		.loc 1 272 0
  41 002a 93067010 		li	a3,263
  42              	.LVL1:
  43              	.L7:
 274:../src/nes/InfoNES.c ****       PPU_ScanTable[ nIdx ] = SCAN_UNKNOWN;
  44              		.loc 1 274 0
  45 002e 6351F602 		ble	a5,a2,.L11
 277:../src/nes/InfoNES.c ****       PPU_ScanTable[ nIdx ] = SCAN_ON_SCREEN;
  46              		.loc 1 277 0
  47 0032 63CBF500 		bgt	a5,a1,.L4
 278:../src/nes/InfoNES.c ****     else
  48              		.loc 1 278 0
  49 0036 2300A700 		sb	a0,0(a4)
  50              	.L3:
 272:../src/nes/InfoNES.c ****   {
  51              		.loc 1 272 0 discriminator 2
  52 003a 8507     		addi	a5,a5,1
  53              	.LVL2:
  54 003c 0507     		addi	a4,a4,1
  55 003e E398D7FE 		bne	a5,a3,.L7
 287:../src/nes/InfoNES.c ****   }
 288:../src/nes/InfoNES.c **** }
  56              		.loc 1 288 0
  57 0042 B240     		lw	ra,12(sp)
  58              		.cfi_remember_state
  59              		.cfi_restore 1
  60 0044 4101     		addi	sp,sp,16
  61              		.cfi_def_cfa_offset 0
  62 0046 8280     		jr	ra
  63              	.L4:
  64              		.cfi_restore_state
 280:../src/nes/InfoNES.c ****       PPU_ScanTable[ nIdx ] = SCAN_UNKNOWN;
  65              		.loc 1 280 0
  66 0048 63D4F800 		ble	a5,a7,.L11
 283:../src/nes/InfoNES.c ****       PPU_ScanTable[ nIdx ] = SCAN_UNKNOWN;
  67              		.loc 1 283 0
  68 004c 6345F300 		bgt	a5,t1,.L6
  69              	.L11:
 284:../src/nes/InfoNES.c ****     else
  70              		.loc 1 284 0
  71 0050 23000701 		sb	a6,0(a4)
  72 0054 DDB7     		j	.L3
  73              	.L6:
 286:../src/nes/InfoNES.c ****   }
  74              		.loc 1 286 0
  75 0056 2300C701 		sb	t3,0(a4)
  76 005a C5B7     		j	.L3
  77              		.cfi_endproc
  78              	.LFE1:
  80              		.section	.text.InfoNES_Fin,"ax",@progbits
  81              		.align	1
  82              		.globl	InfoNES_Fin
  84              	InfoNES_Fin:
  85              	.LFB2:
 289:../src/nes/InfoNES.c **** 
 290:../src/nes/InfoNES.c **** /*===================================================================*/
 291:../src/nes/InfoNES.c **** /*                                                                   */
 292:../src/nes/InfoNES.c **** /*                InfoNES_Fin() : Completion treatment               */
 293:../src/nes/InfoNES.c **** /*                                                                   */
 294:../src/nes/InfoNES.c **** /*===================================================================*/
 295:../src/nes/InfoNES.c **** void InfoNES_Fin()
 296:../src/nes/InfoNES.c **** {
  86              		.loc 1 296 0
  87              		.cfi_startproc
 297:../src/nes/InfoNES.c **** /*
 298:../src/nes/InfoNES.c ****  *  Completion treatment
 299:../src/nes/InfoNES.c ****  *
 300:../src/nes/InfoNES.c ****  *  Remarks
 301:../src/nes/InfoNES.c ****  *    Release resources
 302:../src/nes/InfoNES.c ****  */
 303:../src/nes/InfoNES.c **** #ifndef APU_NONE
 304:../src/nes/InfoNES.c ****   // Finalize pAPU
 305:../src/nes/InfoNES.c ****   InfoNES_pAPUDone();
 306:../src/nes/InfoNES.c **** #endif /* APU_NONE */
 307:../src/nes/InfoNES.c **** 
 308:../src/nes/InfoNES.c ****   // Release a memory for ROM
 309:../src/nes/InfoNES.c ****   InfoNES_ReleaseRom();
  88              		.loc 1 309 0
  89 0000 17030000 		tail	InfoNES_ReleaseRom
  89      67000300 
  90              	.LVL3:
  91              		.cfi_endproc
  92              	.LFE2:
  94              		.section	.text.InfoNES_SetupPPU,"ax",@progbits
  95              		.align	1
  96              		.globl	InfoNES_SetupPPU
  98              	InfoNES_SetupPPU:
  99              	.LFB5:
 310:../src/nes/InfoNES.c **** }
 311:../src/nes/InfoNES.c **** 
 312:../src/nes/InfoNES.c **** /*===================================================================*/
 313:../src/nes/InfoNES.c **** /*                                                                   */
 314:../src/nes/InfoNES.c **** /*                  InfoNES_Load() : Load a cassette                 */
 315:../src/nes/InfoNES.c **** /*                                                                   */
 316:../src/nes/InfoNES.c **** /*===================================================================*/
 317:../src/nes/InfoNES.c **** int InfoNES_Load( const char *pszFileName )
 318:../src/nes/InfoNES.c **** {
 319:../src/nes/InfoNES.c **** /*
 320:../src/nes/InfoNES.c ****  *  Load a cassette
 321:../src/nes/InfoNES.c ****  *
 322:../src/nes/InfoNES.c ****  *  Parameters
 323:../src/nes/InfoNES.c ****  *    const char *pszFileName            (Read)
 324:../src/nes/InfoNES.c ****  *      File name of ROM image
 325:../src/nes/InfoNES.c ****  *
 326:../src/nes/InfoNES.c ****  *  Return values
 327:../src/nes/InfoNES.c ****  *     0 : It was finished normally.
 328:../src/nes/InfoNES.c ****  *    -1 : An error occurred.
 329:../src/nes/InfoNES.c ****  *
 330:../src/nes/InfoNES.c ****  *  Remarks
 331:../src/nes/InfoNES.c ****  *    Read a ROM image in the memory. 
 332:../src/nes/InfoNES.c ****  *    Reset InfoNES.
 333:../src/nes/InfoNES.c ****  */
 334:../src/nes/InfoNES.c **** 
 335:../src/nes/InfoNES.c ****   // Release a memory for ROM
 336:../src/nes/InfoNES.c ****   InfoNES_ReleaseRom();
 337:../src/nes/InfoNES.c **** 
 338:../src/nes/InfoNES.c ****   // Read a ROM image in the memory
 339:../src/nes/InfoNES.c ****   if ( InfoNES_ReadRom( pszFileName ) < 0 )
 340:../src/nes/InfoNES.c ****     return -1;
 341:../src/nes/InfoNES.c **** 
 342:../src/nes/InfoNES.c ****   // Reset InfoNES
 343:../src/nes/InfoNES.c ****   if ( InfoNES_Reset() < 0 )
 344:../src/nes/InfoNES.c ****     return -1;
 345:../src/nes/InfoNES.c **** 
 346:../src/nes/InfoNES.c ****   // Successful
 347:../src/nes/InfoNES.c ****   return 0;
 348:../src/nes/InfoNES.c **** }
 349:../src/nes/InfoNES.c **** 
 350:../src/nes/InfoNES.c **** /*===================================================================*/
 351:../src/nes/InfoNES.c **** /*                                                                   */
 352:../src/nes/InfoNES.c **** /*                 InfoNES_Reset() : Reset InfoNES                   */
 353:../src/nes/InfoNES.c **** /*                                                                   */
 354:../src/nes/InfoNES.c **** /*===================================================================*/
 355:../src/nes/InfoNES.c **** int InfoNES_Reset()
 356:../src/nes/InfoNES.c **** {
 357:../src/nes/InfoNES.c **** /*
 358:../src/nes/InfoNES.c ****  *  Reset InfoNES
 359:../src/nes/InfoNES.c ****  *
 360:../src/nes/InfoNES.c ****  *  Return values
 361:../src/nes/InfoNES.c ****  *     0 : Normally
 362:../src/nes/InfoNES.c ****  *    -1 : Non support mapper
 363:../src/nes/InfoNES.c ****  *
 364:../src/nes/InfoNES.c ****  *  Remarks
 365:../src/nes/InfoNES.c ****  *    Initialize Resources, PPU and Mapper.
 366:../src/nes/InfoNES.c ****  *    Reset CPU.
 367:../src/nes/InfoNES.c ****  */
 368:../src/nes/InfoNES.c **** 
 369:../src/nes/InfoNES.c ****   int nIdx;
 370:../src/nes/InfoNES.c **** 
 371:../src/nes/InfoNES.c ****   /*-------------------------------------------------------------------*/
 372:../src/nes/InfoNES.c ****   /*  Get information on the cassette                                  */
 373:../src/nes/InfoNES.c ****   /*-------------------------------------------------------------------*/
 374:../src/nes/InfoNES.c **** 
 375:../src/nes/InfoNES.c ****   // Get Mapper Number
 376:../src/nes/InfoNES.c ****   MapperNo = NesHeader.byInfo1 >> 4;
 377:../src/nes/InfoNES.c **** 
 378:../src/nes/InfoNES.c ****   // Check bit counts of Mapper No.
 379:../src/nes/InfoNES.c ****   for ( nIdx = 4; nIdx < 8 && NesHeader.byReserve[ nIdx ] == 0; ++nIdx )
 380:../src/nes/InfoNES.c ****     ;
 381:../src/nes/InfoNES.c **** 
 382:../src/nes/InfoNES.c ****   if ( nIdx == 8 )
 383:../src/nes/InfoNES.c ****   {
 384:../src/nes/InfoNES.c ****     // Mapper Number is 8bits
 385:../src/nes/InfoNES.c ****     MapperNo |= ( NesHeader.byInfo2 & 0xf0 );
 386:../src/nes/InfoNES.c ****   }
 387:../src/nes/InfoNES.c **** 
 388:../src/nes/InfoNES.c ****   // Get information on the ROM
 389:../src/nes/InfoNES.c ****   ROM_Mirroring = NesHeader.byInfo1 & 1;
 390:../src/nes/InfoNES.c ****   ROM_SRAM = NesHeader.byInfo1 & 2;
 391:../src/nes/InfoNES.c ****   ROM_Trainer = NesHeader.byInfo1 & 4;
 392:../src/nes/InfoNES.c ****   ROM_FourScr = NesHeader.byInfo1 & 8;
 393:../src/nes/InfoNES.c **** 
 394:../src/nes/InfoNES.c ****   /*-------------------------------------------------------------------*/
 395:../src/nes/InfoNES.c ****   /*  Initialize resources                                             */
 396:../src/nes/InfoNES.c ****   /*-------------------------------------------------------------------*/
 397:../src/nes/InfoNES.c **** 
 398:../src/nes/InfoNES.c ****   // Clear RAM
 399:../src/nes/InfoNES.c ****   InfoNES_MemorySet( RAM, 0, sizeof RAM );
 400:../src/nes/InfoNES.c **** 
 401:../src/nes/InfoNES.c ****   // Reset frame skip and frame count
 402:../src/nes/InfoNES.c ****   FrameSkip = 0;
 403:../src/nes/InfoNES.c ****   FrameCnt = 0;
 404:../src/nes/InfoNES.c **** 
 405:../src/nes/InfoNES.c **** #if WORKFRAME_DEFINE == WORKFRAME_DOUBLE
 406:../src/nes/InfoNES.c ****   // Reset work frame
 407:../src/nes/InfoNES.c ****   WorkFrame = DoubleFrame[ 0 ];
 408:../src/nes/InfoNES.c ****   WorkFrameIdx = 0;
 409:../src/nes/InfoNES.c **** #endif
 410:../src/nes/InfoNES.c **** 
 411:../src/nes/InfoNES.c **** #ifndef RAM_LACK
 412:../src/nes/InfoNES.c ****   // Reset update flag of ChrBuf
 413:../src/nes/InfoNES.c ****   ChrBufUpdate = 0xff;
 414:../src/nes/InfoNES.c **** #endif /* !RAM_LACK */
 415:../src/nes/InfoNES.c **** 
 416:../src/nes/InfoNES.c ****   // Reset palette table
 417:../src/nes/InfoNES.c ****   InfoNES_MemorySet( PalTable, 0, sizeof PalTable );
 418:../src/nes/InfoNES.c **** 
 419:../src/nes/InfoNES.c **** #ifndef APU_NONE
 420:../src/nes/InfoNES.c ****   // Reset APU register
 421:../src/nes/InfoNES.c ****   InfoNES_MemorySet( APU_Reg, 0, sizeof APU_Reg );
 422:../src/nes/InfoNES.c **** #endif /* APU_NONE */
 423:../src/nes/InfoNES.c **** 
 424:../src/nes/InfoNES.c ****   // Reset joypad
 425:../src/nes/InfoNES.c ****   PAD1_Latch = PAD2_Latch = PAD_System = 0;
 426:../src/nes/InfoNES.c ****   PAD1_Bit = PAD2_Bit = 0;
 427:../src/nes/InfoNES.c **** 
 428:../src/nes/InfoNES.c ****   /*-------------------------------------------------------------------*/
 429:../src/nes/InfoNES.c ****   /*  Initialize PPU                                                   */
 430:../src/nes/InfoNES.c ****   /*-------------------------------------------------------------------*/
 431:../src/nes/InfoNES.c **** 
 432:../src/nes/InfoNES.c ****   InfoNES_SetupPPU();
 433:../src/nes/InfoNES.c **** 
 434:../src/nes/InfoNES.c **** #ifndef APU_NONE
 435:../src/nes/InfoNES.c ****   /*-------------------------------------------------------------------*/
 436:../src/nes/InfoNES.c ****   /*  Initialize pAPU                                                  */
 437:../src/nes/InfoNES.c ****   /*-------------------------------------------------------------------*/
 438:../src/nes/InfoNES.c **** 
 439:../src/nes/InfoNES.c ****   InfoNES_pAPUInit();
 440:../src/nes/InfoNES.c **** #endif /* APU_NONE */
 441:../src/nes/InfoNES.c **** 
 442:../src/nes/InfoNES.c ****   /*-------------------------------------------------------------------*/
 443:../src/nes/InfoNES.c ****   /*  Initialize Mapper                                                */
 444:../src/nes/InfoNES.c ****   /*-------------------------------------------------------------------*/
 445:../src/nes/InfoNES.c **** 
 446:../src/nes/InfoNES.c ****   // Get Mapper Table Index
 447:../src/nes/InfoNES.c ****   for ( nIdx = 0; MapperTable[ nIdx ].nMapperNo != -1; ++nIdx )
 448:../src/nes/InfoNES.c ****   {
 449:../src/nes/InfoNES.c ****     if ( MapperTable[ nIdx ].nMapperNo == MapperNo )
 450:../src/nes/InfoNES.c ****       break;
 451:../src/nes/InfoNES.c ****   }
 452:../src/nes/InfoNES.c **** 
 453:../src/nes/InfoNES.c ****   if ( MapperTable[ nIdx ].nMapperNo == -1 )
 454:../src/nes/InfoNES.c ****   {
 455:../src/nes/InfoNES.c ****     // Non support mapper
 456:../src/nes/InfoNES.c ****     InfoNES_MessageBox( "Mapper #%d is unsupported.\n", MapperNo );
 457:../src/nes/InfoNES.c ****     return -1;
 458:../src/nes/InfoNES.c ****   }
 459:../src/nes/InfoNES.c **** 
 460:../src/nes/InfoNES.c ****   // Set up a mapper initialization function
 461:../src/nes/InfoNES.c ****   MapperTable[ nIdx ].pMapperInit();
 462:../src/nes/InfoNES.c **** 
 463:../src/nes/InfoNES.c ****   /*-------------------------------------------------------------------*/
 464:../src/nes/InfoNES.c ****   /*  Reset CPU                                                        */
 465:../src/nes/InfoNES.c ****   /*-------------------------------------------------------------------*/
 466:../src/nes/InfoNES.c **** 
 467:../src/nes/InfoNES.c ****   K6502_Reset();
 468:../src/nes/InfoNES.c **** 
 469:../src/nes/InfoNES.c ****   // Successful
 470:../src/nes/InfoNES.c ****   return 0;
 471:../src/nes/InfoNES.c **** }
 472:../src/nes/InfoNES.c **** 
 473:../src/nes/InfoNES.c **** /*===================================================================*/
 474:../src/nes/InfoNES.c **** /*                                                                   */
 475:../src/nes/InfoNES.c **** /*                InfoNES_SetupPPU() : Initialize PPU                */
 476:../src/nes/InfoNES.c **** /*                                                                   */
 477:../src/nes/InfoNES.c **** /*===================================================================*/
 478:../src/nes/InfoNES.c **** void InfoNES_SetupPPU()
 479:../src/nes/InfoNES.c **** {
 100              		.loc 1 479 0
 101              		.cfi_startproc
 102 0000 4111     		addi	sp,sp,-16
 103              		.cfi_def_cfa_offset 16
 104 0002 26C2     		sw	s1,4(sp)
 105              		.cfi_offset 9, -12
 480:../src/nes/InfoNES.c **** /*
 481:../src/nes/InfoNES.c ****  *  Initialize PPU
 482:../src/nes/InfoNES.c ****  *
 483:../src/nes/InfoNES.c ****  */
 484:../src/nes/InfoNES.c ****   int nPage;
 485:../src/nes/InfoNES.c **** 
 486:../src/nes/InfoNES.c ****   // Clear PPU and Sprite Memory
 487:../src/nes/InfoNES.c **** #ifdef RAM_LACK
 488:../src/nes/InfoNES.c ****   InfoNES_MemorySet( CRAM, 0, CRAM_SIZE );
 106              		.loc 1 488 0
 107 0004 B7040000 		lui	s1,%hi(CRAM)
 108 0008 0966     		li	a2,8192
 109 000a 8145     		li	a1,0
 110 000c 13850400 		addi	a0,s1,%lo(CRAM)
 479:../src/nes/InfoNES.c **** /*
 111              		.loc 1 479 0
 112 0010 06C6     		sw	ra,12(sp)
 113 0012 22C4     		sw	s0,8(sp)
 114              		.cfi_offset 1, -4
 115              		.cfi_offset 8, -8
 116              		.loc 1 488 0
 117 0014 97000000 		call	InfoNES_MemorySet
 117      E7800000 
 118              	.LVL4:
 489:../src/nes/InfoNES.c ****   InfoNES_MemorySet( VRAM, 0, VRAM_SIZE );
 119              		.loc 1 489 0
 120 001c 37040000 		lui	s0,%hi(VRAM)
 121 0020 0566     		li	a2,4096
 122 0022 13060680 		addi	a2,a2,-2048
 123 0026 8145     		li	a1,0
 124 0028 13050400 		addi	a0,s0,%lo(VRAM)
 125 002c 97000000 		call	InfoNES_MemorySet
 125      E7800000 
 126              	.LVL5:
 490:../src/nes/InfoNES.c **** #else
 491:../src/nes/InfoNES.c ****   InfoNES_MemorySet( PPURAM, 0, sizeof PPURAM );
 492:../src/nes/InfoNES.c **** #endif
 493:../src/nes/InfoNES.c ****   InfoNES_MemorySet( SPRRAM, 0, sizeof SPRRAM );
 127              		.loc 1 493 0
 128 0034 37050000 		lui	a0,%hi(.LANCHOR1)
 129 0038 13060010 		li	a2,256
 130 003c 8145     		li	a1,0
 131 003e 13050500 		addi	a0,a0,%lo(.LANCHOR1)
 132 0042 97000000 		call	InfoNES_MemorySet
 132      E7800000 
 133              	.LVL6:
 494:../src/nes/InfoNES.c **** 
 495:../src/nes/InfoNES.c ****   // Reset PPU Register
 496:../src/nes/InfoNES.c ****   PPU_R0 = PPU_R1 = PPU_R2 = PPU_R3 = PPU_R7 = 0;
 134              		.loc 1 496 0
 135 004a 37070000 		lui	a4,%hi(.LANCHOR2)
 136 004e 23000700 		sb	zero,%lo(.LANCHOR2)(a4)
 137 0052 37070000 		lui	a4,%hi(.LANCHOR3)
 138 0056 23000700 		sb	zero,%lo(.LANCHOR3)(a4)
 139 005a 37070000 		lui	a4,%hi(.LANCHOR4)
 140 005e 23000700 		sb	zero,%lo(.LANCHOR4)(a4)
 141 0062 37070000 		lui	a4,%hi(.LANCHOR5)
 142 0066 23000700 		sb	zero,%lo(.LANCHOR5)(a4)
 143 006a 37070000 		lui	a4,%hi(.LANCHOR6)
 144 006e 23000700 		sb	zero,%lo(.LANCHOR6)(a4)
 497:../src/nes/InfoNES.c **** 
 498:../src/nes/InfoNES.c ****   // Reset latch flag
 499:../src/nes/InfoNES.c ****   PPU_Latch_Flag = 0;
 145              		.loc 1 499 0
 146 0072 37070000 		lui	a4,%hi(.LANCHOR7)
 147 0076 23000700 		sb	zero,%lo(.LANCHOR7)(a4)
 500:../src/nes/InfoNES.c **** 
 501:../src/nes/InfoNES.c ****   // Reset up and down clipping flag
 502:../src/nes/InfoNES.c ****   PPU_UpDown_Clip = 0;
 148              		.loc 1 502 0
 149 007a 37070000 		lui	a4,%hi(.LANCHOR8)
 150 007e 23000700 		sb	zero,%lo(.LANCHOR8)(a4)
 503:../src/nes/InfoNES.c **** 
 504:../src/nes/InfoNES.c ****   FrameStep = 0;
 151              		.loc 1 504 0
 152 0082 37070000 		lui	a4,%hi(.LANCHOR9)
 153 0086 23100700 		sh	zero,%lo(.LANCHOR9)(a4)
 505:../src/nes/InfoNES.c ****   FrameIRQ_Enable = 0;
 154              		.loc 1 505 0
 155 008a 37070000 		lui	a4,%hi(.LANCHOR10)
 156 008e 23000700 		sb	zero,%lo(.LANCHOR10)(a4)
 506:../src/nes/InfoNES.c **** 
 507:../src/nes/InfoNES.c ****   // Reset PPU address
 508:../src/nes/InfoNES.c ****   loopy_v = loopy_t = 0;
 157              		.loc 1 508 0
 158 0092 37070000 		lui	a4,%hi(.LANCHOR11)
 159 0096 23100700 		sh	zero,%lo(.LANCHOR11)(a4)
 160 009a 37070000 		lui	a4,%hi(.LANCHOR12)
 161 009e 23100700 		sh	zero,%lo(.LANCHOR12)(a4)
 509:../src/nes/InfoNES.c ****   loopy_x = loopy_y = 0;
 162              		.loc 1 509 0
 163 00a2 37070000 		lui	a4,%hi(.LANCHOR13)
 164 00a6 23100700 		sh	zero,%lo(.LANCHOR13)(a4)
 165 00aa 37070000 		lui	a4,%hi(.LANCHOR14)
 166 00ae 23100700 		sh	zero,%lo(.LANCHOR14)(a4)
 510:../src/nes/InfoNES.c ****   loopy_shift = 0;
 167              		.loc 1 510 0
 168 00b2 37070000 		lui	a4,%hi(.LANCHOR15)
 169 00b6 23100700 		sh	zero,%lo(.LANCHOR15)(a4)
 511:../src/nes/InfoNES.c **** 
 512:../src/nes/InfoNES.c ****   // Reset scanline
 513:../src/nes/InfoNES.c ****   PPU_Scanline = 0;
 170              		.loc 1 513 0
 171 00ba 37070000 		lui	a4,%hi(.LANCHOR16)
 172 00be 23100700 		sh	zero,%lo(.LANCHOR16)(a4)
 514:../src/nes/InfoNES.c ****   FrameScanLine = 0;
 515:../src/nes/InfoNES.c **** 
 516:../src/nes/InfoNES.c **** 
 517:../src/nes/InfoNES.c ****   // Reset hit position of sprite #0 
 518:../src/nes/InfoNES.c ****   SpriteJustHit = 0;
 519:../src/nes/InfoNES.c **** 
 520:../src/nes/InfoNES.c ****   // Reset information on PPU_R0
 521:../src/nes/InfoNES.c ****   PPU_Increment = 1;
 522:../src/nes/InfoNES.c ****   PPU_NameTableBank = NAME_TABLE0;
 523:../src/nes/InfoNES.c **** #ifdef RAM_LACK
 524:../src/nes/InfoNES.c ****   PPU_BG_Base = PPUBANK[ 0 ];
 173              		.loc 1 524 0
 174 00c2 B7070000 		lui	a5,%hi(.LANCHOR22)
 514:../src/nes/InfoNES.c ****   FrameScanLine = 0;
 175              		.loc 1 514 0
 176 00c6 37070000 		lui	a4,%hi(.LANCHOR17)
 177              		.loc 1 524 0
 178 00ca 93870700 		addi	a5,a5,%lo(.LANCHOR22)
 514:../src/nes/InfoNES.c ****   FrameScanLine = 0;
 179              		.loc 1 514 0
 180 00ce 23100700 		sh	zero,%lo(.LANCHOR17)(a4)
 518:../src/nes/InfoNES.c **** 
 181              		.loc 1 518 0
 182 00d2 37070000 		lui	a4,%hi(.LANCHOR18)
 183              		.loc 1 524 0
 184 00d6 9043     		lw	a2,0(a5)
 518:../src/nes/InfoNES.c **** 
 185              		.loc 1 518 0
 186 00d8 23200700 		sw	zero,%lo(.LANCHOR18)(a4)
 521:../src/nes/InfoNES.c ****   PPU_NameTableBank = NAME_TABLE0;
 187              		.loc 1 521 0
 188 00dc 8545     		li	a1,1
 189 00de 37070000 		lui	a4,%hi(.LANCHOR19)
 525:../src/nes/InfoNES.c ****   PPU_SP_Base = PPUBANK[ 4 ];
 190              		.loc 1 525 0
 191 00e2 944B     		lw	a3,16(a5)
 521:../src/nes/InfoNES.c ****   PPU_NameTableBank = NAME_TABLE0;
 192              		.loc 1 521 0
 193 00e4 2310B700 		sh	a1,%lo(.LANCHOR19)(a4)
 522:../src/nes/InfoNES.c **** #ifdef RAM_LACK
 194              		.loc 1 522 0
 195 00e8 37070000 		lui	a4,%hi(.LANCHOR20)
 196 00ec A145     		li	a1,8
 197 00ee 2300B700 		sb	a1,%lo(.LANCHOR20)(a4)
 524:../src/nes/InfoNES.c ****   PPU_SP_Base = PPUBANK[ 4 ];
 198              		.loc 1 524 0
 199 00f2 37070000 		lui	a4,%hi(.LANCHOR21)
 200 00f6 2320C700 		sw	a2,%lo(.LANCHOR21)(a4)
 201              		.loc 1 525 0
 202 00fa 37070000 		lui	a4,%hi(.LANCHOR23)
 203 00fe 2320D700 		sw	a3,%lo(.LANCHOR23)(a4)
 526:../src/nes/InfoNES.c **** #else
 527:../src/nes/InfoNES.c ****   PPU_BG_Base = ChrBuf;
 528:../src/nes/InfoNES.c ****   PPU_SP_Base = ChrBuf + 256 * 64;
 529:../src/nes/InfoNES.c **** #endif /* RAM_LACK */
 530:../src/nes/InfoNES.c ****   PPU_SP_Height = 8;
 204              		.loc 1 530 0
 205 0102 37070000 		lui	a4,%hi(.LANCHOR24)
 206 0106 A146     		li	a3,8
 207 0108 2310D700 		sh	a3,%lo(.LANCHOR24)(a4)
 208              	.LVL7:
 531:../src/nes/InfoNES.c **** 
 532:../src/nes/InfoNES.c ****   // Reset PPU banks
 533:../src/nes/InfoNES.c **** #ifdef RAM_LACK
 534:../src/nes/InfoNES.c ****   for ( nPage = 0; nPage < 8; ++nPage )
 535:../src/nes/InfoNES.c ****     PPUBANK[ nPage ] = CRAMPAGE( nPage );
 209              		.loc 1 535 0
 210 010c 37070000 		lui	a4,%hi(CRAM+1024)
 211 0110 13070740 		addi	a4,a4,%lo(CRAM+1024)
 212 0114 D8C3     		sw	a4,4(a5)
 213 0116 37170000 		lui	a4,%hi(CRAM+2048)
 214 011a 13070780 		addi	a4,a4,%lo(CRAM+2048)
 215 011e 98C7     		sw	a4,8(a5)
 216 0120 37170000 		lui	a4,%hi(CRAM+3072)
 217 0124 130707C0 		addi	a4,a4,%lo(CRAM+3072)
 218 0128 D8C7     		sw	a4,12(a5)
 219 012a 37170000 		lui	a4,%hi(CRAM+4096)
 220 012e 13070700 		addi	a4,a4,%lo(CRAM+4096)
 221 0132 98CB     		sw	a4,16(a5)
 222 0134 37170000 		lui	a4,%hi(CRAM+5120)
 223 0138 13070740 		addi	a4,a4,%lo(CRAM+5120)
 224 013c D8CB     		sw	a4,20(a5)
 225 013e 37270000 		lui	a4,%hi(CRAM+6144)
 226 0142 13070780 		addi	a4,a4,%lo(CRAM+6144)
 227 0146 98CF     		sw	a4,24(a5)
 228 0148 37270000 		lui	a4,%hi(CRAM+7168)
 229 014c 130707C0 		addi	a4,a4,%lo(CRAM+7168)
 230 0150 D8CF     		sw	a4,28(a5)
 231 0152 93840400 		addi	s1,s1,%lo(CRAM)
 536:../src/nes/InfoNES.c ****   for ( nPage = 8; nPage < 12; ++nPage )
 537:../src/nes/InfoNES.c ****     PPUBANK[ nPage ] = VRAMPAGE( nPage & 0x3 );
 538:../src/nes/InfoNES.c **** #else
 539:../src/nes/InfoNES.c ****   for ( nPage = 0; nPage < 16; ++nPage )
 540:../src/nes/InfoNES.c ****     PPUBANK[ nPage ] = &PPURAM[ nPage * 0x400 ];
 541:../src/nes/InfoNES.c **** #endif
 542:../src/nes/InfoNES.c **** 
 543:../src/nes/InfoNES.c ****   /* Mirroring of Name Table */
 544:../src/nes/InfoNES.c ****   InfoNES_Mirroring( ROM_Mirroring );
 232              		.loc 1 544 0
 233 0156 37070000 		lui	a4,%hi(.LANCHOR25)
 535:../src/nes/InfoNES.c ****   for ( nPage = 8; nPage < 12; ++nPage )
 234              		.loc 1 535 0
 235 015a 84C3     		sw	s1,0(a5)
 236              	.LVL8:
 237              		.loc 1 544 0
 238 015c 03470700 		lbu	a4,%lo(.LANCHOR25)(a4)
 239              	.LVL9:
 545:../src/nes/InfoNES.c **** 
 546:../src/nes/InfoNES.c ****   /* Reset VRAM Write Enable */
 547:../src/nes/InfoNES.c ****   byVramWriteEnable = ( NesHeader.byVRomSize == 0 ) ? 1 : 0;
 548:../src/nes/InfoNES.c **** }
 240              		.loc 1 548 0
 241 0160 B240     		lw	ra,12(sp)
 242              		.cfi_restore 1
 243 0162 9244     		lw	s1,4(sp)
 244              		.cfi_restore 9
 245              	.LBB6:
 246              	.LBB7:
 549:../src/nes/InfoNES.c **** 
 550:../src/nes/InfoNES.c **** /*===================================================================*/
 551:../src/nes/InfoNES.c **** /*                                                                   */
 552:../src/nes/InfoNES.c **** /*       InfoNES_Mirroring() : Set up a Mirroring of Name Table      */
 553:../src/nes/InfoNES.c **** /*                                                                   */
 554:../src/nes/InfoNES.c **** /*===================================================================*/
 555:../src/nes/InfoNES.c **** void InfoNES_Mirroring( int nType )
 556:../src/nes/InfoNES.c **** {
 557:../src/nes/InfoNES.c **** /*
 558:../src/nes/InfoNES.c ****  *  Set up a Mirroring of Name Table
 559:../src/nes/InfoNES.c ****  *
 560:../src/nes/InfoNES.c ****  *  Parameters
 561:../src/nes/InfoNES.c ****  *    int nType          (Read)
 562:../src/nes/InfoNES.c ****  *      Mirroring Type
 563:../src/nes/InfoNES.c ****  *        0 : Horizontal
 564:../src/nes/InfoNES.c ****  *        1 : Vertical
 565:../src/nes/InfoNES.c ****  *        2 : One Screen 0x2400
 566:../src/nes/InfoNES.c ****  *        3 : One Screen 0x2000
 567:../src/nes/InfoNES.c ****  *        4 : Four Screen
 568:../src/nes/InfoNES.c ****  *        5 : Special for Mapper #233
 569:../src/nes/InfoNES.c ****  */
 570:../src/nes/InfoNES.c **** #ifdef RAM_LACK
 571:../src/nes/InfoNES.c ****   PPUBANK[ NAME_TABLE0 ] = VRAMPAGE( PPU_MirrorTable[ nType ][ 0 ] );
 247              		.loc 1 571 0
 248 0164 93162700 		slli	a3,a4,2
 249 0168 37070000 		lui	a4,%hi(.LANCHOR26)
 250              	.LVL10:
 251 016c 13070700 		addi	a4,a4,%lo(.LANCHOR26)
 252 0170 3697     		add	a4,a4,a3
 253 0172 03450700 		lbu	a0,0(a4)
 572:../src/nes/InfoNES.c ****   PPUBANK[ NAME_TABLE1 ] = VRAMPAGE( PPU_MirrorTable[ nType ][ 1 ] );
 254              		.loc 1 572 0
 255 0176 83451700 		lbu	a1,1(a4)
 573:../src/nes/InfoNES.c ****   PPUBANK[ NAME_TABLE2 ] = VRAMPAGE( PPU_MirrorTable[ nType ][ 2 ] );
 256              		.loc 1 573 0
 257 017a 03462700 		lbu	a2,2(a4)
 574:../src/nes/InfoNES.c ****   PPUBANK[ NAME_TABLE3 ] = VRAMPAGE( PPU_MirrorTable[ nType ][ 3 ] );
 258              		.loc 1 574 0
 259 017e 83463700 		lbu	a3,3(a4)
 260              	.LBE7:
 261              	.LBE6:
 547:../src/nes/InfoNES.c **** }
 262              		.loc 1 547 0
 263 0182 37070000 		lui	a4,%hi(.LANCHOR28+5)
 264 0186 03485700 		lbu	a6,%lo(.LANCHOR28+5)(a4)
 265              	.LBB10:
 266              	.LBB8:
 267              		.loc 1 574 0
 268 018a AA06     		slli	a3,a3,10
 571:../src/nes/InfoNES.c ****   PPUBANK[ NAME_TABLE1 ] = VRAMPAGE( PPU_MirrorTable[ nType ][ 1 ] );
 269              		.loc 1 571 0
 270 018c 13070400 		addi	a4,s0,%lo(VRAM)
 271 0190 2A05     		slli	a0,a0,10
 572:../src/nes/InfoNES.c ****   PPUBANK[ NAME_TABLE2 ] = VRAMPAGE( PPU_MirrorTable[ nType ][ 2 ] );
 272              		.loc 1 572 0
 273 0192 AA05     		slli	a1,a1,10
 573:../src/nes/InfoNES.c ****   PPUBANK[ NAME_TABLE3 ] = VRAMPAGE( PPU_MirrorTable[ nType ][ 3 ] );
 274              		.loc 1 573 0
 275 0194 2A06     		slli	a2,a2,10
 571:../src/nes/InfoNES.c ****   PPUBANK[ NAME_TABLE1 ] = VRAMPAGE( PPU_MirrorTable[ nType ][ 1 ] );
 276              		.loc 1 571 0
 277 0196 3A95     		add	a0,a0,a4
 572:../src/nes/InfoNES.c ****   PPUBANK[ NAME_TABLE2 ] = VRAMPAGE( PPU_MirrorTable[ nType ][ 2 ] );
 278              		.loc 1 572 0
 279 0198 BA95     		add	a1,a1,a4
 573:../src/nes/InfoNES.c ****   PPUBANK[ NAME_TABLE3 ] = VRAMPAGE( PPU_MirrorTable[ nType ][ 3 ] );
 280              		.loc 1 573 0
 281 019a 3A96     		add	a2,a2,a4
 282              	.LBE8:
 283              	.LBE10:
 548:../src/nes/InfoNES.c **** 
 284              		.loc 1 548 0
 285 019c 2244     		lw	s0,8(sp)
 286              		.cfi_restore 8
 287              	.LBB11:
 288              	.LBB9:
 289              		.loc 1 574 0
 290 019e 3697     		add	a4,a3,a4
 571:../src/nes/InfoNES.c ****   PPUBANK[ NAME_TABLE1 ] = VRAMPAGE( PPU_MirrorTable[ nType ][ 1 ] );
 291              		.loc 1 571 0
 292 01a0 88D3     		sw	a0,32(a5)
 572:../src/nes/InfoNES.c ****   PPUBANK[ NAME_TABLE2 ] = VRAMPAGE( PPU_MirrorTable[ nType ][ 2 ] );
 293              		.loc 1 572 0
 294 01a2 CCD3     		sw	a1,36(a5)
 573:../src/nes/InfoNES.c ****   PPUBANK[ NAME_TABLE3 ] = VRAMPAGE( PPU_MirrorTable[ nType ][ 3 ] );
 295              		.loc 1 573 0
 296 01a4 90D7     		sw	a2,40(a5)
 297              		.loc 1 574 0
 298 01a6 D8D7     		sw	a4,44(a5)
 299              	.LVL11:
 300              	.LBE9:
 301              	.LBE11:
 547:../src/nes/InfoNES.c **** }
 302              		.loc 1 547 0
 303 01a8 93361800 		seqz	a3,a6
 304 01ac B7070000 		lui	a5,%hi(.LANCHOR27)
 305 01b0 2380D700 		sb	a3,%lo(.LANCHOR27)(a5)
 548:../src/nes/InfoNES.c **** 
 306              		.loc 1 548 0
 307 01b4 4101     		addi	sp,sp,16
 308              		.cfi_def_cfa_offset 0
 309 01b6 8280     		jr	ra
 310              		.cfi_endproc
 311              	.LFE5:
 313              		.section	.text.InfoNES_Reset,"ax",@progbits
 314              		.align	1
 315              		.globl	InfoNES_Reset
 317              	InfoNES_Reset:
 318              	.LFB4:
 356:../src/nes/InfoNES.c **** /*
 319              		.loc 1 356 0
 320              		.cfi_startproc
 376:../src/nes/InfoNES.c **** 
 321              		.loc 1 376 0
 322 0000 B7070000 		lui	a5,%hi(.LANCHOR28)
 356:../src/nes/InfoNES.c **** /*
 323              		.loc 1 356 0
 324 0004 4111     		addi	sp,sp,-16
 325              		.cfi_def_cfa_offset 16
 326 0006 22C4     		sw	s0,8(sp)
 327 0008 06C6     		sw	ra,12(sp)
 328              		.cfi_offset 8, -8
 329              		.cfi_offset 1, -4
 376:../src/nes/InfoNES.c **** 
 330              		.loc 1 376 0
 331 000a 13870700 		addi	a4,a5,%lo(.LANCHOR28)
 332 000e 03476700 		lbu	a4,6(a4)
 333 0012 37040000 		lui	s0,%hi(.LANCHOR29)
 334 0016 13850700 		addi	a0,a5,%lo(.LANCHOR28)
 335 001a 13040400 		addi	s0,s0,%lo(.LANCHOR29)
 336 001e 93554700 		srli	a1,a4,4
 337 0022 2300B400 		sb	a1,0(s0)
 338              	.LVL12:
 339 0026 93870700 		addi	a5,a5,%lo(.LANCHOR28)
 340 002a 13064500 		addi	a2,a0,4
 341              	.LVL13:
 342              	.L17:
 379:../src/nes/InfoNES.c ****     ;
 343              		.loc 1 379 0 discriminator 3
 344 002e 83C6C700 		lbu	a3,12(a5)
 345 0032 8507     		addi	a5,a5,1
 346              	.LVL14:
 347 0034 89EA     		bnez	a3,.L25
 379:../src/nes/InfoNES.c ****     ;
 348              		.loc 1 379 0 is_stmt 0 discriminator 4
 349 0036 E39CC7FE 		bne	a5,a2,.L17
 385:../src/nes/InfoNES.c ****   }
 350              		.loc 1 385 0 is_stmt 1
 351 003a 83477500 		lbu	a5,7(a0)
 352              	.LVL15:
 353 003e C19B     		andi	a5,a5,-16
 354 0040 CD8F     		or	a5,a5,a1
 355 0042 2300F400 		sb	a5,0(s0)
 356              	.L25:
 389:../src/nes/InfoNES.c ****   ROM_SRAM = NesHeader.byInfo1 & 2;
 357              		.loc 1 389 0
 358 0046 93781700 		andi	a7,a4,1
 359 004a B7070000 		lui	a5,%hi(.LANCHOR25)
 390:../src/nes/InfoNES.c ****   ROM_Trainer = NesHeader.byInfo1 & 4;
 360              		.loc 1 390 0
 361 004e 13782700 		andi	a6,a4,2
 389:../src/nes/InfoNES.c ****   ROM_SRAM = NesHeader.byInfo1 & 2;
 362              		.loc 1 389 0
 363 0052 23801701 		sb	a7,%lo(.LANCHOR25)(a5)
 390:../src/nes/InfoNES.c ****   ROM_Trainer = NesHeader.byInfo1 & 4;
 364              		.loc 1 390 0
 365 0056 B7070000 		lui	a5,%hi(.LANCHOR30)
 391:../src/nes/InfoNES.c ****   ROM_FourScr = NesHeader.byInfo1 & 8;
 366              		.loc 1 391 0
 367 005a 93764700 		andi	a3,a4,4
 390:../src/nes/InfoNES.c ****   ROM_Trainer = NesHeader.byInfo1 & 4;
 368              		.loc 1 390 0
 369 005e 23800701 		sb	a6,%lo(.LANCHOR30)(a5)
 399:../src/nes/InfoNES.c **** 
 370              		.loc 1 399 0
 371 0062 0566     		li	a2,4096
 391:../src/nes/InfoNES.c ****   ROM_FourScr = NesHeader.byInfo1 & 8;
 372              		.loc 1 391 0
 373 0064 B7070000 		lui	a5,%hi(.LANCHOR31)
 399:../src/nes/InfoNES.c **** 
 374              		.loc 1 399 0
 375 0068 37050000 		lui	a0,%hi(RAM)
 392:../src/nes/InfoNES.c **** 
 376              		.loc 1 392 0
 377 006c 218B     		andi	a4,a4,8
 391:../src/nes/InfoNES.c ****   ROM_FourScr = NesHeader.byInfo1 & 8;
 378              		.loc 1 391 0
 379 006e 2380D700 		sb	a3,%lo(.LANCHOR31)(a5)
 399:../src/nes/InfoNES.c **** 
 380              		.loc 1 399 0
 381 0072 13060680 		addi	a2,a2,-2048
 392:../src/nes/InfoNES.c **** 
 382              		.loc 1 392 0
 383 0076 B7070000 		lui	a5,%hi(.LANCHOR32)
 399:../src/nes/InfoNES.c **** 
 384              		.loc 1 399 0
 385 007a 8145     		li	a1,0
 386 007c 13050500 		addi	a0,a0,%lo(RAM)
 392:../src/nes/InfoNES.c **** 
 387              		.loc 1 392 0
 388 0080 2380E700 		sb	a4,%lo(.LANCHOR32)(a5)
 399:../src/nes/InfoNES.c **** 
 389              		.loc 1 399 0
 390 0084 97000000 		call	InfoNES_MemorySet
 390      E7800000 
 391              	.LVL16:
 402:../src/nes/InfoNES.c ****   FrameCnt = 0;
 392              		.loc 1 402 0
 393 008c B7070000 		lui	a5,%hi(.LANCHOR33)
 417:../src/nes/InfoNES.c **** 
 394              		.loc 1 417 0
 395 0090 37050000 		lui	a0,%hi(.LANCHOR35)
 396 0094 13060004 		li	a2,64
 397 0098 8145     		li	a1,0
 402:../src/nes/InfoNES.c ****   FrameCnt = 0;
 398              		.loc 1 402 0
 399 009a 23900700 		sh	zero,%lo(.LANCHOR33)(a5)
 417:../src/nes/InfoNES.c **** 
 400              		.loc 1 417 0
 401 009e 13050500 		addi	a0,a0,%lo(.LANCHOR35)
 403:../src/nes/InfoNES.c **** 
 402              		.loc 1 403 0
 403 00a2 B7070000 		lui	a5,%hi(.LANCHOR34)
 404 00a6 23900700 		sh	zero,%lo(.LANCHOR34)(a5)
 417:../src/nes/InfoNES.c **** 
 405              		.loc 1 417 0
 406 00aa 97000000 		call	InfoNES_MemorySet
 406      E7800000 
 407              	.LVL17:
 425:../src/nes/InfoNES.c ****   PAD1_Bit = PAD2_Bit = 0;
 408              		.loc 1 425 0
 409 00b2 B7070000 		lui	a5,%hi(.LANCHOR36)
 410 00b6 23A00700 		sw	zero,%lo(.LANCHOR36)(a5)
 411 00ba B7070000 		lui	a5,%hi(.LANCHOR37)
 412 00be 23A00700 		sw	zero,%lo(.LANCHOR37)(a5)
 413 00c2 B7070000 		lui	a5,%hi(.LANCHOR38)
 414 00c6 23A00700 		sw	zero,%lo(.LANCHOR38)(a5)
 426:../src/nes/InfoNES.c **** 
 415              		.loc 1 426 0
 416 00ca B7070000 		lui	a5,%hi(.LANCHOR39)
 417 00ce 23A00700 		sw	zero,%lo(.LANCHOR39)(a5)
 418 00d2 B7070000 		lui	a5,%hi(.LANCHOR40)
 419 00d6 23A00700 		sw	zero,%lo(.LANCHOR40)(a5)
 432:../src/nes/InfoNES.c **** 
 420              		.loc 1 432 0
 421 00da 97000000 		call	InfoNES_SetupPPU
 421      E7800000 
 422              	.LVL18:
 447:../src/nes/InfoNES.c ****   {
 423              		.loc 1 447 0
 424 00e2 37060000 		lui	a2,%hi(MapperTable)
 425 00e6 83270600 		lw	a5,%lo(MapperTable)(a2)
 426 00ea 7D57     		li	a4,-1
 449:../src/nes/InfoNES.c ****       break;
 427              		.loc 1 449 0
 428 00ec 83450400 		lbu	a1,0(s0)
 447:../src/nes/InfoNES.c ****   {
 429              		.loc 1 447 0
 430 00f0 6382E702 		beq	a5,a4,.L24
 449:../src/nes/InfoNES.c ****       break;
 431              		.loc 1 449 0
 432 00f4 638DB702 		beq	a5,a1,.L27
 433 00f8 B7070000 		lui	a5,%hi(MapperTable+8)
 434 00fc 93878700 		addi	a5,a5,%lo(MapperTable+8)
 447:../src/nes/InfoNES.c ****   {
 435              		.loc 1 447 0
 436 0100 8146     		li	a3,0
 437 0102 7D55     		li	a0,-1
 438 0104 19A0     		j	.L22
 439              	.LVL19:
 440              	.L23:
 449:../src/nes/InfoNES.c ****       break;
 441              		.loc 1 449 0
 442 0106 6305B702 		beq	a4,a1,.L21
 443              	.LVL20:
 444              	.L22:
 447:../src/nes/InfoNES.c ****   {
 445              		.loc 1 447 0 discriminator 2
 446 010a 9843     		lw	a4,0(a5)
 447 010c 8506     		addi	a3,a3,1
 448              	.LVL21:
 449 010e A107     		addi	a5,a5,8
 450 0110 E31BA7FE 		bne	a4,a0,.L23
 451              	.LVL22:
 452              	.L24:
 456:../src/nes/InfoNES.c ****     return -1;
 453              		.loc 1 456 0
 454 0114 37050000 		lui	a0,%hi(.LC0)
 455 0118 13050500 		addi	a0,a0,%lo(.LC0)
 456 011c 97000000 		call	InfoNES_MessageBox
 456      E7800000 
 457              	.LVL23:
 471:../src/nes/InfoNES.c **** 
 458              		.loc 1 471 0
 459 0124 B240     		lw	ra,12(sp)
 460              		.cfi_remember_state
 461              		.cfi_restore 1
 462 0126 2244     		lw	s0,8(sp)
 463              		.cfi_restore 8
 457:../src/nes/InfoNES.c ****   }
 464              		.loc 1 457 0
 465 0128 7D55     		li	a0,-1
 471:../src/nes/InfoNES.c **** 
 466              		.loc 1 471 0
 467 012a 4101     		addi	sp,sp,16
 468              		.cfi_def_cfa_offset 0
 469 012c 8280     		jr	ra
 470              	.LVL24:
 471              	.L27:
 472              		.cfi_restore_state
 447:../src/nes/InfoNES.c ****   {
 473              		.loc 1 447 0
 474 012e 8146     		li	a3,0
 475              	.LVL25:
 476              	.L21:
 461:../src/nes/InfoNES.c **** 
 477              		.loc 1 461 0
 478 0130 13060600 		addi	a2,a2,%lo(MapperTable)
 479 0134 8E06     		slli	a3,a3,3
 480 0136 B296     		add	a3,a2,a3
 481 0138 DC42     		lw	a5,4(a3)
 482 013a 8297     		jalr	a5
 483              	.LVL26:
 467:../src/nes/InfoNES.c **** 
 484              		.loc 1 467 0
 485 013c 97000000 		call	K6502_Reset
 485      E7800000 
 486              	.LVL27:
 471:../src/nes/InfoNES.c **** 
 487              		.loc 1 471 0
 488 0144 B240     		lw	ra,12(sp)
 489              		.cfi_restore 1
 490 0146 2244     		lw	s0,8(sp)
 491              		.cfi_restore 8
 470:../src/nes/InfoNES.c **** }
 492              		.loc 1 470 0
 493 0148 0145     		li	a0,0
 471:../src/nes/InfoNES.c **** 
 494              		.loc 1 471 0
 495 014a 4101     		addi	sp,sp,16
 496              		.cfi_def_cfa_offset 0
 497 014c 8280     		jr	ra
 498              		.cfi_endproc
 499              	.LFE4:
 501              		.section	.text.InfoNES_Load,"ax",@progbits
 502              		.align	1
 503              		.globl	InfoNES_Load
 505              	InfoNES_Load:
 506              	.LFB3:
 318:../src/nes/InfoNES.c **** /*
 507              		.loc 1 318 0
 508              		.cfi_startproc
 509              	.LVL28:
 510 0000 4111     		addi	sp,sp,-16
 511              		.cfi_def_cfa_offset 16
 512 0002 22C4     		sw	s0,8(sp)
 513 0004 06C6     		sw	ra,12(sp)
 514              		.cfi_offset 8, -8
 515              		.cfi_offset 1, -4
 318:../src/nes/InfoNES.c **** /*
 516              		.loc 1 318 0
 517 0006 2A84     		mv	s0,a0
 336:../src/nes/InfoNES.c **** 
 518              		.loc 1 336 0
 519 0008 97000000 		call	InfoNES_ReleaseRom
 519      E7800000 
 520              	.LVL29:
 339:../src/nes/InfoNES.c ****     return -1;
 521              		.loc 1 339 0
 522 0010 2285     		mv	a0,s0
 523 0012 97000000 		call	InfoNES_ReadRom
 523      E7800000 
 524              	.LVL30:
 525 001a 634B0500 		bltz	a0,.L31
 343:../src/nes/InfoNES.c ****     return -1;
 526              		.loc 1 343 0
 527 001e 97000000 		call	InfoNES_Reset
 527      E7800000 
 528              	.LVL31:
 529 0026 7D85     		srai	a0,a0,31
 530              	.L29:
 348:../src/nes/InfoNES.c **** 
 531              		.loc 1 348 0
 532 0028 B240     		lw	ra,12(sp)
 533              		.cfi_remember_state
 534              		.cfi_restore 1
 535 002a 2244     		lw	s0,8(sp)
 536              		.cfi_restore 8
 537              	.LVL32:
 538 002c 4101     		addi	sp,sp,16
 539              		.cfi_def_cfa_offset 0
 540 002e 8280     		jr	ra
 541              	.LVL33:
 542              	.L31:
 543              		.cfi_restore_state
 340:../src/nes/InfoNES.c **** 
 544              		.loc 1 340 0
 545 0030 7D55     		li	a0,-1
 546 0032 DDBF     		j	.L29
 547              		.cfi_endproc
 548              	.LFE3:
 550              		.section	.text.InfoNES_Mirroring,"ax",@progbits
 551              		.align	1
 552              		.globl	InfoNES_Mirroring
 554              	InfoNES_Mirroring:
 555              	.LFB6:
 556:../src/nes/InfoNES.c **** /*
 556              		.loc 1 556 0
 557              		.cfi_startproc
 558              	.LVL34:
 571:../src/nes/InfoNES.c ****   PPUBANK[ NAME_TABLE1 ] = VRAMPAGE( PPU_MirrorTable[ nType ][ 1 ] );
 559              		.loc 1 571 0
 560 0000 93172500 		slli	a5,a0,2
 561 0004 37050000 		lui	a0,%hi(.LANCHOR26)
 562              	.LVL35:
 563 0008 13050500 		addi	a0,a0,%lo(.LANCHOR26)
 564 000c 3E95     		add	a0,a0,a5
 565 000e 83470500 		lbu	a5,0(a0)
 572:../src/nes/InfoNES.c ****   PPUBANK[ NAME_TABLE2 ] = VRAMPAGE( PPU_MirrorTable[ nType ][ 2 ] );
 566              		.loc 1 572 0
 567 0012 83451500 		lbu	a1,1(a0)
 573:../src/nes/InfoNES.c ****   PPUBANK[ NAME_TABLE3 ] = VRAMPAGE( PPU_MirrorTable[ nType ][ 3 ] );
 568              		.loc 1 573 0
 569 0016 03462500 		lbu	a2,2(a0)
 570              		.loc 1 574 0
 571 001a 83463500 		lbu	a3,3(a0)
 571:../src/nes/InfoNES.c ****   PPUBANK[ NAME_TABLE1 ] = VRAMPAGE( PPU_MirrorTable[ nType ][ 1 ] );
 572              		.loc 1 571 0
 573 001e 37070000 		lui	a4,%hi(VRAM)
 574 0022 13070700 		addi	a4,a4,%lo(VRAM)
 575 0026 1395A700 		slli	a0,a5,10
 572:../src/nes/InfoNES.c ****   PPUBANK[ NAME_TABLE2 ] = VRAMPAGE( PPU_MirrorTable[ nType ][ 2 ] );
 576              		.loc 1 572 0
 577 002a AA05     		slli	a1,a1,10
 573:../src/nes/InfoNES.c ****   PPUBANK[ NAME_TABLE3 ] = VRAMPAGE( PPU_MirrorTable[ nType ][ 3 ] );
 578              		.loc 1 573 0
 579 002c 2A06     		slli	a2,a2,10
 580              		.loc 1 574 0
 581 002e AA06     		slli	a3,a3,10
 571:../src/nes/InfoNES.c ****   PPUBANK[ NAME_TABLE1 ] = VRAMPAGE( PPU_MirrorTable[ nType ][ 1 ] );
 582              		.loc 1 571 0
 583 0030 B7070000 		lui	a5,%hi(.LANCHOR22)
 584 0034 93870700 		addi	a5,a5,%lo(.LANCHOR22)
 585 0038 3A95     		add	a0,a0,a4
 572:../src/nes/InfoNES.c ****   PPUBANK[ NAME_TABLE2 ] = VRAMPAGE( PPU_MirrorTable[ nType ][ 2 ] );
 586              		.loc 1 572 0
 587 003a BA95     		add	a1,a1,a4
 573:../src/nes/InfoNES.c ****   PPUBANK[ NAME_TABLE3 ] = VRAMPAGE( PPU_MirrorTable[ nType ][ 3 ] );
 588              		.loc 1 573 0
 589 003c 3A96     		add	a2,a2,a4
 590              		.loc 1 574 0
 591 003e 3697     		add	a4,a3,a4
 571:../src/nes/InfoNES.c ****   PPUBANK[ NAME_TABLE1 ] = VRAMPAGE( PPU_MirrorTable[ nType ][ 1 ] );
 592              		.loc 1 571 0
 593 0040 88D3     		sw	a0,32(a5)
 572:../src/nes/InfoNES.c ****   PPUBANK[ NAME_TABLE2 ] = VRAMPAGE( PPU_MirrorTable[ nType ][ 2 ] );
 594              		.loc 1 572 0
 595 0042 CCD3     		sw	a1,36(a5)
 573:../src/nes/InfoNES.c ****   PPUBANK[ NAME_TABLE3 ] = VRAMPAGE( PPU_MirrorTable[ nType ][ 3 ] );
 596              		.loc 1 573 0
 597 0044 90D7     		sw	a2,40(a5)
 598              		.loc 1 574 0
 599 0046 D8D7     		sw	a4,44(a5)
 575:../src/nes/InfoNES.c **** #else
 576:../src/nes/InfoNES.c ****   PPUBANK[ NAME_TABLE0 ] = &PPURAM[ PPU_MirrorTable[ nType ][ 0 ] * 0x400 ];
 577:../src/nes/InfoNES.c ****   PPUBANK[ NAME_TABLE1 ] = &PPURAM[ PPU_MirrorTable[ nType ][ 1 ] * 0x400 ];
 578:../src/nes/InfoNES.c ****   PPUBANK[ NAME_TABLE2 ] = &PPURAM[ PPU_MirrorTable[ nType ][ 2 ] * 0x400 ];
 579:../src/nes/InfoNES.c ****   PPUBANK[ NAME_TABLE3 ] = &PPURAM[ PPU_MirrorTable[ nType ][ 3 ] * 0x400 ];
 580:../src/nes/InfoNES.c **** #endif
 581:../src/nes/InfoNES.c **** }
 600              		.loc 1 581 0
 601 0048 8280     		ret
 602              		.cfi_endproc
 603              	.LFE6:
 605              		.section	.text.InfoNES_DrawLine,"ax",@progbits
 606              		.align	1
 607              		.globl	InfoNES_DrawLine
 609              	InfoNES_DrawLine:
 610              	.LFB10:
 582:../src/nes/InfoNES.c **** 
 583:../src/nes/InfoNES.c **** /*===================================================================*/
 584:../src/nes/InfoNES.c **** /*                                                                   */
 585:../src/nes/InfoNES.c **** /*              InfoNES_Main() : The main loop of InfoNES            */
 586:../src/nes/InfoNES.c **** /*                                                                   */
 587:../src/nes/InfoNES.c **** /*===================================================================*/
 588:../src/nes/InfoNES.c **** void InfoNES_Main()
 589:../src/nes/InfoNES.c **** {
 590:../src/nes/InfoNES.c **** /*
 591:../src/nes/InfoNES.c ****  *  The main loop of InfoNES
 592:../src/nes/InfoNES.c ****  *
 593:../src/nes/InfoNES.c ****  */
 594:../src/nes/InfoNES.c **** 
 595:../src/nes/InfoNES.c ****   // Initialize InfoNES
 596:../src/nes/InfoNES.c ****   InfoNES_Init();
 597:../src/nes/InfoNES.c **** 
 598:../src/nes/InfoNES.c ****   // Main loop
 599:../src/nes/InfoNES.c ****   while ( 1 )
 600:../src/nes/InfoNES.c ****   {
 601:../src/nes/InfoNES.c ****     /*-------------------------------------------------------------------*/
 602:../src/nes/InfoNES.c ****     /*  To the menu screen                                               */
 603:../src/nes/InfoNES.c ****     /*-------------------------------------------------------------------*/
 604:../src/nes/InfoNES.c ****     if ( InfoNES_Menu() == -1 )
 605:../src/nes/InfoNES.c ****       break;  // Quit
 606:../src/nes/InfoNES.c ****     
 607:../src/nes/InfoNES.c ****     /*-------------------------------------------------------------------*/
 608:../src/nes/InfoNES.c ****     /*  Start a NES emulation                                            */
 609:../src/nes/InfoNES.c ****     /*-------------------------------------------------------------------*/
 610:../src/nes/InfoNES.c ****     InfoNES_Cycle();
 611:../src/nes/InfoNES.c ****   }
 612:../src/nes/InfoNES.c **** 
 613:../src/nes/InfoNES.c ****   // Completion treatment
 614:../src/nes/InfoNES.c ****   InfoNES_Fin();
 615:../src/nes/InfoNES.c **** }
 616:../src/nes/InfoNES.c **** 
 617:../src/nes/InfoNES.c **** /*===================================================================*/
 618:../src/nes/InfoNES.c **** /*                                                                   */
 619:../src/nes/InfoNES.c **** /*              InfoNES_Cycle() : The loop of emulation              */
 620:../src/nes/InfoNES.c **** /*                                                                   */
 621:../src/nes/InfoNES.c **** /*===================================================================*/
 622:../src/nes/InfoNES.c **** void InfoNES_Cycle()
 623:../src/nes/InfoNES.c **** {
 624:../src/nes/InfoNES.c **** /*
 625:../src/nes/InfoNES.c ****  *  The loop of emulation
 626:../src/nes/InfoNES.c ****  *
 627:../src/nes/InfoNES.c ****  */
 628:../src/nes/InfoNES.c **** 
 629:../src/nes/InfoNES.c **** #if 0
 630:../src/nes/InfoNES.c ****   // Set the PPU adress to the buffered value
 631:../src/nes/InfoNES.c ****   if ( ( PPU_R1 & R1_SHOW_SP ) || ( PPU_R1 & R1_SHOW_SCR ) )
 632:../src/nes/InfoNES.c **** 		PPU_Addr = PPU_Temp;
 633:../src/nes/InfoNES.c **** #endif
 634:../src/nes/InfoNES.c **** 
 635:../src/nes/InfoNES.c ****   // Emulation loop
 636:../src/nes/InfoNES.c ****   for (;;)
 637:../src/nes/InfoNES.c ****   {    
 638:../src/nes/InfoNES.c ****     int nStep;
 639:../src/nes/InfoNES.c **** 
 640:../src/nes/InfoNES.c ****     // Set a flag if a scanning line is a hit in the sprite #0
 641:../src/nes/InfoNES.c ****     if ( SpriteJustHit == PPU_Scanline && PPU_ScanTable[ PPU_Scanline ] == SCAN_ON_SCREEN )
 642:../src/nes/InfoNES.c ****     {
 643:../src/nes/InfoNES.c ****       // # of Steps to execute before sprite #0 hit
 644:../src/nes/InfoNES.c ****       nStep = JustHitStep[SPRRAM[ SPR_X ]];
 645:../src/nes/InfoNES.c **** 
 646:../src/nes/InfoNES.c ****       // Execute instructions
 647:../src/nes/InfoNES.c ****       K6502_Step( nStep );
 648:../src/nes/InfoNES.c **** 
 649:../src/nes/InfoNES.c ****       // Set a sprite hit flag
 650:../src/nes/InfoNES.c ****       if ( ( PPU_R1 & R1_SHOW_SP ) && ( PPU_R1 & R1_SHOW_SCR ) )
 651:../src/nes/InfoNES.c ****         PPU_R2 |= R2_HIT_SP;
 652:../src/nes/InfoNES.c **** 
 653:../src/nes/InfoNES.c ****       // NMI is required if there is necessity
 654:../src/nes/InfoNES.c ****       if ( ( PPU_R0 & R0_NMI_SP ) && ( PPU_R1 & R1_SHOW_SP ) )
 655:../src/nes/InfoNES.c ****         NMI_REQ;
 656:../src/nes/InfoNES.c **** 
 657:../src/nes/InfoNES.c ****       // Execute instructions
 658:../src/nes/InfoNES.c ****       K6502_Step( STEP_PER_SCANLINE - nStep );
 659:../src/nes/InfoNES.c ****     }
 660:../src/nes/InfoNES.c ****     else
 661:../src/nes/InfoNES.c ****     {
 662:../src/nes/InfoNES.c ****       // Execute instructions
 663:../src/nes/InfoNES.c ****       K6502_Step( STEP_PER_SCANLINE );
 664:../src/nes/InfoNES.c ****     }
 665:../src/nes/InfoNES.c **** 
 666:../src/nes/InfoNES.c ****     // Frame IRQ in H-Sync
 667:../src/nes/InfoNES.c ****     FrameStep += STEP_PER_SCANLINE;
 668:../src/nes/InfoNES.c ****     if ( FrameStep > STEP_PER_FRAME && FrameIRQ_Enable )
 669:../src/nes/InfoNES.c ****     {
 670:../src/nes/InfoNES.c ****       FrameStep %= STEP_PER_FRAME;
 671:../src/nes/InfoNES.c **** #ifndef APU_NONE
 672:../src/nes/InfoNES.c ****       IRQ_REQ;
 673:../src/nes/InfoNES.c ****       APU_Reg[ 0x4015 ] |= 0x40;
 674:../src/nes/InfoNES.c **** #endif /* APU_NONE */
 675:../src/nes/InfoNES.c ****     }
 676:../src/nes/InfoNES.c **** 
 677:../src/nes/InfoNES.c ****     // A mapper function in H-Sync
 678:../src/nes/InfoNES.c ****     MapperHSync();
 679:../src/nes/InfoNES.c ****     
 680:../src/nes/InfoNES.c ****     // A function in H-Sync
 681:../src/nes/InfoNES.c ****     if ( InfoNES_HSync() == -1 )
 682:../src/nes/InfoNES.c ****       return;  // To the menu screen
 683:../src/nes/InfoNES.c **** 
 684:../src/nes/InfoNES.c ****     // HSYNC Wait
 685:../src/nes/InfoNES.c ****     InfoNES_Wait();
 686:../src/nes/InfoNES.c ****   }
 687:../src/nes/InfoNES.c **** }
 688:../src/nes/InfoNES.c **** 
 689:../src/nes/InfoNES.c **** /*===================================================================*/
 690:../src/nes/InfoNES.c **** /*                                                                   */
 691:../src/nes/InfoNES.c **** /*              InfoNES_HSync() : A function in H-Sync               */
 692:../src/nes/InfoNES.c **** /*                                                                   */
 693:../src/nes/InfoNES.c **** /*===================================================================*/
 694:../src/nes/InfoNES.c **** int InfoNES_HSync()
 695:../src/nes/InfoNES.c **** {
 696:../src/nes/InfoNES.c **** /*
 697:../src/nes/InfoNES.c ****  *  A function in H-Sync
 698:../src/nes/InfoNES.c ****  *
 699:../src/nes/InfoNES.c ****  *  Return values
 700:../src/nes/InfoNES.c ****  *    0 : Normally
 701:../src/nes/InfoNES.c ****  *   -1 : Exit an emulation
 702:../src/nes/InfoNES.c ****  */
 703:../src/nes/InfoNES.c **** 
 704:../src/nes/InfoNES.c ****   /*-------------------------------------------------------------------*/
 705:../src/nes/InfoNES.c ****   /*  Render a scanline                                                */
 706:../src/nes/InfoNES.c ****   /*-------------------------------------------------------------------*/
 707:../src/nes/InfoNES.c ****   if ( FrameCnt == 0 &&  PPU_ScanTable[ PPU_Scanline ] == SCAN_ON_SCREEN )
 708:../src/nes/InfoNES.c ****   {
 709:../src/nes/InfoNES.c ****     InfoNES_DrawLine();
 710:../src/nes/InfoNES.c **** #if WORKFRAME_DEFINE == WORKFRAME_NONE
 711:../src/nes/InfoNES.c **** 	// Render a scanline to screen
 712:../src/nes/InfoNES.c **** 	InfoNES_LoadLine();
 713:../src/nes/InfoNES.c **** #endif  
 714:../src/nes/InfoNES.c **** 	FrameScanLine++;
 715:../src/nes/InfoNES.c ****   }
 716:../src/nes/InfoNES.c **** 
 717:../src/nes/InfoNES.c **** 
 718:../src/nes/InfoNES.c ****   /*-------------------------------------------------------------------*/
 719:../src/nes/InfoNES.c ****   /*  Next Scanline                                                    */
 720:../src/nes/InfoNES.c ****   /*-------------------------------------------------------------------*/
 721:../src/nes/InfoNES.c ****   PPU_Scanline = ( PPU_Scanline == SCAN_VBLANK_END ) ? 0 : PPU_Scanline + 1;
 722:../src/nes/InfoNES.c **** 	if( PPU_R1 & (R1_SHOW_SCR|R1_SHOW_SP) ) {
 723:../src/nes/InfoNES.c **** 		if( (loopy_v & 0x7000) == 0x7000 ) {
 724:../src/nes/InfoNES.c **** 			loopy_v &= 0x8FFF;
 725:../src/nes/InfoNES.c **** 			if( (loopy_v & 0x03E0) == 0x03A0 ) {
 726:../src/nes/InfoNES.c **** 				loopy_v ^= 0x0800;
 727:../src/nes/InfoNES.c **** 				loopy_v &= 0xFC1F;
 728:../src/nes/InfoNES.c **** 			} else {
 729:../src/nes/InfoNES.c **** 				if( (loopy_v & 0x03E0) == 0x03E0 ) {
 730:../src/nes/InfoNES.c **** 					loopy_v &= 0xFC1F;
 731:../src/nes/InfoNES.c **** 				} else {
 732:../src/nes/InfoNES.c **** 					loopy_v += 0x0020;
 733:../src/nes/InfoNES.c **** 				}
 734:../src/nes/InfoNES.c **** 			}
 735:../src/nes/InfoNES.c **** 		} else {
 736:../src/nes/InfoNES.c **** 			loopy_v += 0x1000;
 737:../src/nes/InfoNES.c **** 		}
 738:../src/nes/InfoNES.c **** 		loopy_y = (loopy_v&0x7000)>>12;
 739:../src/nes/InfoNES.c **** 	}
 740:../src/nes/InfoNES.c **** 
 741:../src/nes/InfoNES.c ****   /*-------------------------------------------------------------------*/
 742:../src/nes/InfoNES.c ****   /*  Set new scroll values                                            */
 743:../src/nes/InfoNES.c ****   /*-------------------------------------------------------------------*/
 744:../src/nes/InfoNES.c ****   if( PPU_R1 & (R1_SHOW_SCR|R1_SHOW_SP) ) {
 745:../src/nes/InfoNES.c **** 	  loopy_v = (loopy_v & 0xFBE0)|(loopy_t & 0x041F);
 746:../src/nes/InfoNES.c **** 	  loopy_shift = loopy_x;
 747:../src/nes/InfoNES.c **** 	  loopy_y = (loopy_v&0x7000)>>12;
 748:../src/nes/InfoNES.c **** 
 749:../src/nes/InfoNES.c **** 	  //nes->mapper->PPU_Latch( 0x2000 + (loopy_v & 0x0FFF) );
 750:../src/nes/InfoNES.c ****   }
 751:../src/nes/InfoNES.c **** 
 752:../src/nes/InfoNES.c ****   /*-------------------------------------------------------------------*/
 753:../src/nes/InfoNES.c ****   /*  Operation in the specific scanning line                          */
 754:../src/nes/InfoNES.c ****   /*-------------------------------------------------------------------*/
 755:../src/nes/InfoNES.c ****   switch ( PPU_Scanline )
 756:../src/nes/InfoNES.c ****   {
 757:../src/nes/InfoNES.c ****     case SCAN_TOP_OFF_SCREEN:
 758:../src/nes/InfoNES.c **** 		// Reset a PPU status
 759:../src/nes/InfoNES.c **** 		PPU_R2 = 0;
 760:../src/nes/InfoNES.c **** 
 761:../src/nes/InfoNES.c **** 		if( PPU_R1 & (R1_SHOW_SCR|R1_SHOW_SP) ) {
 762:../src/nes/InfoNES.c **** 			loopy_v = loopy_t;
 763:../src/nes/InfoNES.c **** 			loopy_shift = loopy_x;
 764:../src/nes/InfoNES.c **** 			loopy_y = (loopy_v&0x7000)>>12;
 765:../src/nes/InfoNES.c **** 		}
 766:../src/nes/InfoNES.c **** 
 767:../src/nes/InfoNES.c **** 
 768:../src/nes/InfoNES.c **** 		// Set up a character data
 769:../src/nes/InfoNES.c **** 		if ( NesHeader.byVRomSize == 0 && FrameCnt == 0 )
 770:../src/nes/InfoNES.c **** 			InfoNES_SetupChr();
 771:../src/nes/InfoNES.c **** 
 772:../src/nes/InfoNES.c ****       // Get position of sprite #0
 773:../src/nes/InfoNES.c ****       InfoNES_GetSprHitY();
 774:../src/nes/InfoNES.c **** 	  FrameScanLine = 0;
 775:../src/nes/InfoNES.c ****       break;
 776:../src/nes/InfoNES.c **** 
 777:../src/nes/InfoNES.c ****     case SCAN_UNKNOWN_START:
 778:../src/nes/InfoNES.c ****       if ( FrameCnt == 0 )
 779:../src/nes/InfoNES.c ****       {
 780:../src/nes/InfoNES.c **** #if WORKFRAME_DEFINE != WORKFRAME_NONE
 781:../src/nes/InfoNES.c ****         // Transfer the contents of work frame on the screen
 782:../src/nes/InfoNES.c ****         InfoNES_LoadFrame();
 783:../src/nes/InfoNES.c **** #if WORKFRAME_DEFINE == WORKFRAME_DOUBLE
 784:../src/nes/InfoNES.c ****         // Switching of the double buffer
 785:../src/nes/InfoNES.c ****         WorkFrameIdx = 1 - WorkFrameIdx;
 786:../src/nes/InfoNES.c ****         WorkFrame = DoubleFrame[ WorkFrameIdx ];
 787:../src/nes/InfoNES.c **** #endif
 788:../src/nes/InfoNES.c **** #endif
 789:../src/nes/InfoNES.c ****       }
 790:../src/nes/InfoNES.c ****       break;
 791:../src/nes/InfoNES.c **** 
 792:../src/nes/InfoNES.c ****     case SCAN_VBLANK_START:
 793:../src/nes/InfoNES.c ****       // FrameCnt + 1
 794:../src/nes/InfoNES.c ****       FrameCnt = ( FrameCnt >= FrameSkip ) ? 0 : FrameCnt + 1;
 795:../src/nes/InfoNES.c **** 
 796:../src/nes/InfoNES.c ****       // Set a V-Blank flag
 797:../src/nes/InfoNES.c ****       PPU_R2 = R2_IN_VBLANK;
 798:../src/nes/InfoNES.c **** 
 799:../src/nes/InfoNES.c ****       // Reset latch flag
 800:../src/nes/InfoNES.c ****       PPU_Latch_Flag = 0;
 801:../src/nes/InfoNES.c **** 
 802:../src/nes/InfoNES.c **** #ifndef APU_NONE
 803:../src/nes/InfoNES.c ****       // pAPU Sound function in V-Sync
 804:../src/nes/InfoNES.c ****       if ( !APU_Mute )
 805:../src/nes/InfoNES.c ****         InfoNES_pAPUVsync();
 806:../src/nes/InfoNES.c **** #endif /* APU_NONE */
 807:../src/nes/InfoNES.c **** 
 808:../src/nes/InfoNES.c ****       // A mapper function in V-Sync
 809:../src/nes/InfoNES.c ****       MapperVSync();
 810:../src/nes/InfoNES.c **** 
 811:../src/nes/InfoNES.c ****       // Get the condition of the joypad
 812:../src/nes/InfoNES.c ****       InfoNES_PadState( &PAD1_Latch, &PAD2_Latch, &PAD_System );
 813:../src/nes/InfoNES.c ****       
 814:../src/nes/InfoNES.c ****       // NMI on V-Blank
 815:../src/nes/InfoNES.c ****       if ( PPU_R0 & R0_NMI_VB )
 816:../src/nes/InfoNES.c ****         NMI_REQ;
 817:../src/nes/InfoNES.c **** 
 818:../src/nes/InfoNES.c ****       // Exit an emulation if a QUIT button is pushed
 819:../src/nes/InfoNES.c ****       if ( PAD_PUSH( PAD_System, PAD_SYS_QUIT ) )
 820:../src/nes/InfoNES.c ****         return -1;  // Exit an emulation      
 821:../src/nes/InfoNES.c ****       
 822:../src/nes/InfoNES.c ****       break;
 823:../src/nes/InfoNES.c ****   }
 824:../src/nes/InfoNES.c **** 
 825:../src/nes/InfoNES.c ****   // Successful
 826:../src/nes/InfoNES.c ****   return 0;
 827:../src/nes/InfoNES.c **** }
 828:../src/nes/InfoNES.c **** 
 829:../src/nes/InfoNES.c **** /*===================================================================*/
 830:../src/nes/InfoNES.c **** /*                                                                   */
 831:../src/nes/InfoNES.c **** /*              InfoNES_DrawLine() : Render a scanline               */
 832:../src/nes/InfoNES.c **** /*                                                                   */
 833:../src/nes/InfoNES.c **** /*===================================================================*/
 834:../src/nes/InfoNES.c **** void InfoNES_DrawLine()
 835:../src/nes/InfoNES.c **** {
 611              		.loc 1 835 0
 612              		.cfi_startproc
 836:../src/nes/InfoNES.c **** /*
 837:../src/nes/InfoNES.c ****  *  Render a scanline
 838:../src/nes/InfoNES.c ****  *
 839:../src/nes/InfoNES.c ****  */
 840:../src/nes/InfoNES.c **** 
 841:../src/nes/InfoNES.c ****   PIXEL *pPoint;
 842:../src/nes/InfoNES.c **** 
 843:../src/nes/InfoNES.c ****   /*-------------------------------------------------------------------*/
 844:../src/nes/InfoNES.c ****   /*  Render Background                                                */
 845:../src/nes/InfoNES.c ****   /*-------------------------------------------------------------------*/
 846:../src/nes/InfoNES.c **** 
 847:../src/nes/InfoNES.c ****   /* MMC5 VROM switch */
 848:../src/nes/InfoNES.c ****   MapperRenderScreen( 1 );
 613              		.loc 1 848 0
 614 0000 B7070000 		lui	a5,%hi(MapperRenderScreen)
 615 0004 83A70700 		lw	a5,%lo(MapperRenderScreen)(a5)
 835:../src/nes/InfoNES.c **** /*
 616              		.loc 1 835 0
 617 0008 130101D9 		addi	sp,sp,-624
 618              		.cfi_def_cfa_offset 624
 619 000c 23229126 		sw	s1,612(sp)
 620 0010 23261126 		sw	ra,620(sp)
 621 0014 23248126 		sw	s0,616(sp)
 622 0018 23202127 		sw	s2,608(sp)
 623 001c 232E3125 		sw	s3,604(sp)
 624 0020 232C4125 		sw	s4,600(sp)
 625 0024 232A5125 		sw	s5,596(sp)
 626 0028 23286125 		sw	s6,592(sp)
 627 002c 23267125 		sw	s7,588(sp)
 628 0030 23248125 		sw	s8,584(sp)
 629 0034 23229125 		sw	s9,580(sp)
 630 0038 2320A125 		sw	s10,576(sp)
 631 003c 232EB123 		sw	s11,572(sp)
 632              		.cfi_offset 9, -12
 633              		.cfi_offset 1, -4
 634              		.cfi_offset 8, -8
 635              		.cfi_offset 18, -16
 636              		.cfi_offset 19, -20
 637              		.cfi_offset 20, -24
 638              		.cfi_offset 21, -28
 639              		.cfi_offset 22, -32
 640              		.cfi_offset 23, -36
 641              		.cfi_offset 24, -40
 642              		.cfi_offset 25, -44
 643              		.cfi_offset 26, -48
 644              		.cfi_offset 27, -52
 645              		.loc 1 848 0
 646 0040 0545     		li	a0,1
 647 0042 8297     		jalr	a5
 648              	.LVL36:
 849:../src/nes/InfoNES.c **** 
 850:../src/nes/InfoNES.c ****   // Pointer to the render position
 851:../src/nes/InfoNES.c **** #if WORKFRAME_DEFINE == WORKFRAME_NONE
 852:../src/nes/InfoNES.c ****   pPoint = WorkLine;
 853:../src/nes/InfoNES.c **** #else
 854:../src/nes/InfoNES.c ****   pPoint = &WorkFrame[ FrameScanLine * NES_DISP_WIDTH ];
 855:../src/nes/InfoNES.c **** #endif
 856:../src/nes/InfoNES.c **** 
 857:../src/nes/InfoNES.c ****   // Clear a scanline if screen is off
 858:../src/nes/InfoNES.c ****   if ( !( PPU_R1 & R1_SHOW_SCR ) )
 649              		.loc 1 858 0
 650 0044 B7040000 		lui	s1,%hi(.LANCHOR5)
 651 0048 93870400 		addi	a5,s1,%lo(.LANCHOR5)
 652 004c 3EC6     		sw	a5,12(sp)
 653 004e 83C70700 		lbu	a5,0(a5)
 654 0052 A18B     		andi	a5,a5,8
 655 0054 6386075A 		beqz	a5,.L136
 656              	.LBB12:
 859:../src/nes/InfoNES.c ****   {
 860:../src/nes/InfoNES.c ****     InfoNES_MemorySet( pPoint, 0, NES_DISP_WIDTH * sizeof(PIXEL) );
 861:../src/nes/InfoNES.c ****   }
 862:../src/nes/InfoNES.c ****   else
 863:../src/nes/InfoNES.c ****   {
 864:../src/nes/InfoNES.c **** 	  PIXEL	lpScanline[256+16];
 865:../src/nes/InfoNES.c **** 	  PIXEL*	pScn = lpScanline+(8-loopy_shift);
 866:../src/nes/InfoNES.c **** 
 867:../src/nes/InfoNES.c **** 	  WORD	ntbladr = 0x2000+(loopy_v&0x0FFF);
 657              		.loc 1 867 0
 658 0058 B7070000 		lui	a5,%hi(.LANCHOR12)
 659 005c 83D70700 		lhu	a5,%lo(.LANCHOR12)(a5)
 660 0060 0566     		li	a2,4096
 661 0062 7D16     		addi	a2,a2,-1
 662 0064 7D8E     		and	a2,a5,a2
 663 0066 0967     		li	a4,8192
 664 0068 3A96     		add	a2,a2,a4
 665 006a 931C0601 		slli	s9,a2,16
 865:../src/nes/InfoNES.c **** 
 666              		.loc 1 865 0
 667 006e 37070000 		lui	a4,%hi(.LANCHOR15)
 668              		.loc 1 867 0
 669 0072 93DC0C01 		srli	s9,s9,16
 865:../src/nes/InfoNES.c **** 
 670              		.loc 1 865 0
 671 0076 83560700 		lhu	a3,%lo(.LANCHOR15)(a4)
 868:../src/nes/InfoNES.c **** 	  WORD	attradr = 0x23C0+(loopy_v&0x0C00)+((loopy_v&0x0380)>>4);
 869:../src/nes/InfoNES.c **** 	  WORD	ntbl_x  = ntbladr&0x001F;
 870:../src/nes/InfoNES.c **** 	  WORD	attrsft = (ntbladr&0x0040)>>4;
 871:../src/nes/InfoNES.c **** 	  BYTE*	pNTBL = PPUBANK[ntbladr>>10];
 672              		.loc 1 871 0
 673 007a 37090000 		lui	s2,%hi(.LANCHOR22)
 674 007e 13D7AC00 		srli	a4,s9,10
 872:../src/nes/InfoNES.c **** 
 873:../src/nes/InfoNES.c **** #ifdef RAM_LACK
 874:../src/nes/InfoNES.c **** 	  WORD	tileofs = (PPU_R0&R0_BG_ADDR)<<8;
 675              		.loc 1 874 0
 676 0082 B7050000 		lui	a1,%hi(.LANCHOR6)
 871:../src/nes/InfoNES.c **** 
 677              		.loc 1 871 0
 678 0086 13090900 		addi	s2,s2,%lo(.LANCHOR22)
 679 008a 0A07     		slli	a4,a4,2
 680              		.loc 1 874 0
 681 008c 83C90500 		lbu	s3,%lo(.LANCHOR6)(a1)
 865:../src/nes/InfoNES.c **** 
 682              		.loc 1 865 0
 683 0090 214D     		li	s10,8
 868:../src/nes/InfoNES.c **** 	  WORD	ntbl_x  = ntbladr&0x001F;
 684              		.loc 1 868 0
 685 0092 13D44740 		srai	s0,a5,4
 865:../src/nes/InfoNES.c **** 
 686              		.loc 1 865 0
 687 0096 330DDD40 		sub	s10,s10,a3
 871:../src/nes/InfoNES.c **** 
 688              		.loc 1 871 0
 689 009a B307E900 		add	a5,s2,a4
 865:../src/nes/InfoNES.c **** 
 690              		.loc 1 865 0
 691 009e 060D     		slli	s10,s10,1
 868:../src/nes/InfoNES.c **** 	  WORD	ntbl_x  = ntbladr&0x001F;
 692              		.loc 1 868 0
 693 00a0 13748403 		andi	s0,s0,56
 871:../src/nes/InfoNES.c **** 
 694              		.loc 1 871 0
 695 00a4 83AB0700 		lw	s7,0(a5)
 865:../src/nes/InfoNES.c **** 
 696              		.loc 1 865 0
 697 00a8 1C08     		addi	a5,sp,16
 698 00aa 3E9D     		add	s10,a5,s10
 699              	.LVL37:
 868:../src/nes/InfoNES.c **** 	  WORD	ntbl_x  = ntbladr&0x001F;
 700              		.loc 1 868 0
 701 00ac 1304043C 		addi	s0,s0,960
 702              	.LVL38:
 703              		.loc 1 874 0
 704 00b0 A209     		slli	s3,s3,8
 870:../src/nes/InfoNES.c **** 	  BYTE*	pNTBL = PPUBANK[ntbladr>>10];
 705              		.loc 1 870 0
 706 00b2 13DB4C40 		srai	s6,s9,4
 707              		.loc 1 874 0
 708 00b6 8567     		li	a5,4096
 709 00b8 370A0000 		lui	s4,%hi(.LANCHOR35)
 710 00bc B70A0000 		lui	s5,%hi(.LANCHOR13)
 869:../src/nes/InfoNES.c **** 	  WORD	attrsft = (ntbladr&0x0040)>>4;
 711              		.loc 1 869 0
 712 00c0 93FDFC01 		andi	s11,s9,31
 713              	.LVL39:
 714              		.loc 1 874 0
 715 00c4 B3F9F900 		and	s3,s3,a5
 716              	.LVL40:
 875:../src/nes/InfoNES.c **** 	  WORD	tileadr;
 876:../src/nes/InfoNES.c **** 	  BYTE	chr_h, chr_l;
 877:../src/nes/InfoNES.c **** #else
 878:../src/nes/InfoNES.c **** 	  BYTE*	tileadr;
 879:../src/nes/InfoNES.c **** #endif /* RAM_LACK */
 880:../src/nes/InfoNES.c **** 
 881:../src/nes/InfoNES.c **** 	  BYTE	attr;
 882:../src/nes/InfoNES.c **** 
 883:../src/nes/InfoNES.c **** 	  attradr &= 0x3FF;
 717              		.loc 1 883 0
 718 00c8 1374843F 		andi	s0,s0,1016
 719              	.LVL41:
 720 00cc 137B4B00 		andi	s6,s6,4
 721 00d0 130C0D21 		addi	s8,s10,528
 722 00d4 130A0A00 		addi	s4,s4,%lo(.LANCHOR35)
 723 00d8 938A0A00 		addi	s5,s5,%lo(.LANCHOR13)
 724 00dc B7040000 		lui	s1,%hi(MapperPPU)
 725              	.LVL42:
 726              	.L39:
 727              	.LBB13:
 728              	.LBB14:
 884:../src/nes/InfoNES.c **** 
 885:../src/nes/InfoNES.c **** 	  for( WORD i = 0; i < 33; i++ )
 886:../src/nes/InfoNES.c **** 	  {
 887:../src/nes/InfoNES.c **** 		  attr = ((pNTBL[attradr+(ntbl_x>>2)]>>((ntbl_x&2)+attrsft))&3)<<2;
 888:../src/nes/InfoNES.c **** 		  PIXEL*	pBGPAL = &PalTable[attr];
 889:../src/nes/InfoNES.c **** 
 890:../src/nes/InfoNES.c **** #ifdef RAM_LACK
 891:../src/nes/InfoNES.c **** 		  tileadr = tileofs+pNTBL[ntbladr&0x03FF]*0x10+loopy_y;
 729              		.loc 1 891 0
 730 00e0 93F7FC3F 		andi	a5,s9,1023
 731 00e4 DE97     		add	a5,s7,a5
 732 00e6 03C50700 		lbu	a0,0(a5)
 733 00ea 83D70A00 		lhu	a5,0(s5)
 887:../src/nes/InfoNES.c **** 		  PIXEL*	pBGPAL = &PalTable[attr];
 734              		.loc 1 887 0
 735 00ee 33878B00 		add	a4,s7,s0
 736              		.loc 1 891 0
 737 00f2 1205     		slli	a0,a0,4
 738 00f4 CE97     		add	a5,s3,a5
 739 00f6 3E95     		add	a0,a0,a5
 740 00f8 4205     		slli	a0,a0,16
 741 00fa 4181     		srli	a0,a0,16
 892:../src/nes/InfoNES.c **** 		  chr_l = PPUBANK[tileadr>>10][ tileadr&0x03FF   ];
 742              		.loc 1 892 0
 743 00fc 9357A500 		srli	a5,a0,10
 744 0100 8A07     		slli	a5,a5,2
 745 0102 CA97     		add	a5,s2,a5
 746 0104 9443     		lw	a3,0(a5)
 747 0106 9378F53F 		andi	a7,a0,1023
 887:../src/nes/InfoNES.c **** 		  PIXEL*	pBGPAL = &PalTable[attr];
 748              		.loc 1 887 0
 749 010a 93D72D00 		srli	a5,s11,2
 750              		.loc 1 892 0
 751 010e C696     		add	a3,a3,a7
 752 0110 83C80600 		lbu	a7,0(a3)
 893:../src/nes/InfoNES.c **** 		  chr_h = PPUBANK[tileadr>>10][(tileadr&0x03FF)+8];
 753              		.loc 1 893 0
 754 0114 83C68600 		lbu	a3,8(a3)
 887:../src/nes/InfoNES.c **** 		  PIXEL*	pBGPAL = &PalTable[attr];
 755              		.loc 1 887 0
 756 0118 3E97     		add	a4,a4,a5
 757 011a 03470700 		lbu	a4,0(a4)
 758              	.LBB15:
 894:../src/nes/InfoNES.c **** 		  {
 895:../src/nes/InfoNES.c **** 			  register WORD	c1 = ((chr_l>>1)&0x55)|(chr_h&0xAA);
 759              		.loc 1 895 0
 760 011e 13DE1800 		srli	t3,a7,1
 761              	.LBE15:
 887:../src/nes/InfoNES.c **** 		  PIXEL*	pBGPAL = &PalTable[attr];
 762              		.loc 1 887 0
 763 0122 13F32D00 		andi	t1,s11,2
 764 0126 137E5E05 		andi	t3,t3,85
 765 012a 93FEA6FA 		andi	t4,a3,-86
 766              	.LBB16:
 896:../src/nes/InfoNES.c **** 			  register WORD	c2 = (chr_l&0x55)|((chr_h<<1)&0xAA);
 767              		.loc 1 896 0
 768 012e 93971600 		slli	a5,a3,1
 769              	.LBE16:
 887:../src/nes/InfoNES.c **** 		  PIXEL*	pBGPAL = &PalTable[attr];
 770              		.loc 1 887 0
 771 0132 5A93     		add	t1,t1,s6
 772 0134 B366DE01 		or	a3,t3,t4
 773              	.LBB17:
 774              		.loc 1 896 0
 775 0138 93F85805 		andi	a7,a7,85
 776 013c 93F7A70A 		andi	a5,a5,170
 777 0140 B3E71701 		or	a5,a5,a7
 778              	.LBE17:
 887:../src/nes/InfoNES.c **** 		  PIXEL*	pBGPAL = &PalTable[attr];
 779              		.loc 1 887 0
 780 0144 33576740 		sra	a4,a4,t1
 781              	.LBB18:
 895:../src/nes/InfoNES.c **** 			  register WORD	c2 = (chr_l&0x55)|((chr_h<<1)&0xAA);
 782              		.loc 1 895 0
 783 0148 93980601 		slli	a7,a3,16
 784 014c 93D80801 		srli	a7,a7,16
 785              	.LBE18:
 888:../src/nes/InfoNES.c **** 
 786              		.loc 1 888 0
 787 0150 0E07     		slli	a4,a4,3
 788              	.LBB19:
 897:../src/nes/InfoNES.c **** 			  pScn[0] = pBGPAL[(c1>>6)];
 789              		.loc 1 897 0
 790 0152 93DF6800 		srli	t6,a7,6
 898:../src/nes/InfoNES.c **** 			  pScn[4] = pBGPAL[(c1>>2)&3];
 791              		.loc 1 898 0
 792 0156 13DF1800 		srli	t5,a7,1
 899:../src/nes/InfoNES.c **** 			  pScn[1] = pBGPAL[(c2>>6)];
 793              		.loc 1 899 0
 794 015a 13DE6700 		srli	t3,a5,6
 900:../src/nes/InfoNES.c **** 			  pScn[5] = pBGPAL[(c2>>2)&3];
 795              		.loc 1 900 0
 796 015e 13D31700 		srli	t1,a5,1
 901:../src/nes/InfoNES.c **** 			  pScn[2] = pBGPAL[(c1>>4)&3];
 902:../src/nes/InfoNES.c **** 			  pScn[6] = pBGPAL[c1&3];
 903:../src/nes/InfoNES.c **** 			  pScn[3] = pBGPAL[(c2>>4)&3];
 797              		.loc 1 903 0
 798 0162 93DE3700 		srli	t4,a5,3
 799              	.LBE19:
 888:../src/nes/InfoNES.c **** 
 800              		.loc 1 888 0
 801 0166 618B     		andi	a4,a4,24
 802              	.LBB20:
 901:../src/nes/InfoNES.c **** 			  pScn[2] = pBGPAL[(c1>>4)&3];
 803              		.loc 1 901 0
 804 0168 93D83800 		srli	a7,a7,3
 902:../src/nes/InfoNES.c **** 			  pScn[3] = pBGPAL[(c2>>4)&3];
 805              		.loc 1 902 0
 806 016c 8D8A     		andi	a3,a3,3
 904:../src/nes/InfoNES.c **** 			  pScn[7] = pBGPAL[c2&3];
 807              		.loc 1 904 0
 808 016e 8D8B     		andi	a5,a5,3
 809              	.LBE20:
 888:../src/nes/InfoNES.c **** 
 810              		.loc 1 888 0
 811 0170 5297     		add	a4,s4,a4
 812              	.LVL43:
 813              	.LBB21:
 899:../src/nes/InfoNES.c **** 			  pScn[5] = pBGPAL[(c2>>2)&3];
 814              		.loc 1 899 0
 815 0172 060E     		slli	t3,t3,1
 816              		.loc 1 904 0
 817 0174 8607     		slli	a5,a5,1
 897:../src/nes/InfoNES.c **** 			  pScn[4] = pBGPAL[(c1>>2)&3];
 818              		.loc 1 897 0
 819 0176 860F     		slli	t6,t6,1
 898:../src/nes/InfoNES.c **** 			  pScn[1] = pBGPAL[(c2>>6)];
 820              		.loc 1 898 0
 821 0178 137F6F00 		andi	t5,t5,6
 900:../src/nes/InfoNES.c **** 			  pScn[2] = pBGPAL[(c1>>4)&3];
 822              		.loc 1 900 0
 823 017c 13736300 		andi	t1,t1,6
 901:../src/nes/InfoNES.c **** 			  pScn[6] = pBGPAL[c1&3];
 824              		.loc 1 901 0
 825 0180 93F86800 		andi	a7,a7,6
 902:../src/nes/InfoNES.c **** 			  pScn[3] = pBGPAL[(c2>>4)&3];
 826              		.loc 1 902 0
 827 0184 8606     		slli	a3,a3,1
 903:../src/nes/InfoNES.c **** 			  pScn[7] = pBGPAL[c2&3];
 828              		.loc 1 903 0
 829 0186 93FE6E00 		andi	t4,t4,6
 899:../src/nes/InfoNES.c **** 			  pScn[5] = pBGPAL[(c2>>2)&3];
 830              		.loc 1 899 0
 831 018a B302C701 		add	t0,a4,t3
 897:../src/nes/InfoNES.c **** 			  pScn[4] = pBGPAL[(c1>>2)&3];
 832              		.loc 1 897 0
 833 018e BA9F     		add	t6,a4,t6
 900:../src/nes/InfoNES.c **** 			  pScn[2] = pBGPAL[(c1>>4)&3];
 834              		.loc 1 900 0
 835 0190 3A93     		add	t1,a4,t1
 901:../src/nes/InfoNES.c **** 			  pScn[6] = pBGPAL[c1&3];
 836              		.loc 1 901 0
 837 0192 BA98     		add	a7,a4,a7
 902:../src/nes/InfoNES.c **** 			  pScn[3] = pBGPAL[(c2>>4)&3];
 838              		.loc 1 902 0
 839 0194 BA96     		add	a3,a4,a3
 903:../src/nes/InfoNES.c **** 			  pScn[7] = pBGPAL[c2&3];
 840              		.loc 1 903 0
 841 0196 BA9E     		add	t4,a4,t4
 898:../src/nes/InfoNES.c **** 			  pScn[1] = pBGPAL[(c2>>6)];
 842              		.loc 1 898 0
 843 0198 3A9F     		add	t5,a4,t5
 844              		.loc 1 904 0
 845 019a 3E97     		add	a4,a4,a5
 846              	.LVL44:
 897:../src/nes/InfoNES.c **** 			  pScn[4] = pBGPAL[(c1>>2)&3];
 847              		.loc 1 897 0
 848 019c 03DE0F00 		lhu	t3,0(t6)
 849              		.loc 1 904 0
 850 01a0 03570700 		lhu	a4,0(a4)
 899:../src/nes/InfoNES.c **** 			  pScn[5] = pBGPAL[(c2>>2)&3];
 851              		.loc 1 899 0
 852 01a4 83DF0200 		lhu	t6,0(t0)
 898:../src/nes/InfoNES.c **** 			  pScn[1] = pBGPAL[(c2>>6)];
 853              		.loc 1 898 0
 854 01a8 035F0F00 		lhu	t5,0(t5)
 900:../src/nes/InfoNES.c **** 			  pScn[2] = pBGPAL[(c1>>4)&3];
 855              		.loc 1 900 0
 856 01ac 83520300 		lhu	t0,0(t1)
 901:../src/nes/InfoNES.c **** 			  pScn[6] = pBGPAL[c1&3];
 857              		.loc 1 901 0
 858 01b0 03D30800 		lhu	t1,0(a7)
 902:../src/nes/InfoNES.c **** 			  pScn[3] = pBGPAL[(c2>>4)&3];
 859              		.loc 1 902 0
 860 01b4 83D80600 		lhu	a7,0(a3)
 903:../src/nes/InfoNES.c **** 			  pScn[7] = pBGPAL[c2&3];
 861              		.loc 1 903 0
 862 01b8 83D60E00 		lhu	a3,0(t4)
 863              	.LBE21:
 905:../src/nes/InfoNES.c **** 		  }
 906:../src/nes/InfoNES.c **** 		  // Character latch(For MMC2/MMC4)
 907:../src/nes/InfoNES.c ****       // Callback at PPU read/write
 908:../src/nes/InfoNES.c ****       MapperPPU( tileadr );
 864              		.loc 1 908 0
 865 01bc 83A70400 		lw	a5,%lo(MapperPPU)(s1)
 866              	.LBB22:
 904:../src/nes/InfoNES.c **** 		  }
 867              		.loc 1 904 0
 868 01c0 2317ED00 		sh	a4,14(s10)
 869              	.LVL45:
 897:../src/nes/InfoNES.c **** 			  pScn[4] = pBGPAL[(c1>>2)&3];
 870              		.loc 1 897 0
 871 01c4 2310CD01 		sh	t3,0(s10)
 898:../src/nes/InfoNES.c **** 			  pScn[1] = pBGPAL[(c2>>6)];
 872              		.loc 1 898 0
 873 01c8 2314ED01 		sh	t5,8(s10)
 899:../src/nes/InfoNES.c **** 			  pScn[5] = pBGPAL[(c2>>2)&3];
 874              		.loc 1 899 0
 875 01cc 2311FD01 		sh	t6,2(s10)
 900:../src/nes/InfoNES.c **** 			  pScn[2] = pBGPAL[(c1>>4)&3];
 876              		.loc 1 900 0
 877 01d0 23155D00 		sh	t0,10(s10)
 901:../src/nes/InfoNES.c **** 			  pScn[6] = pBGPAL[c1&3];
 878              		.loc 1 901 0
 879 01d4 23126D00 		sh	t1,4(s10)
 902:../src/nes/InfoNES.c **** 			  pScn[3] = pBGPAL[(c2>>4)&3];
 880              		.loc 1 902 0
 881 01d8 23161D01 		sh	a7,12(s10)
 903:../src/nes/InfoNES.c **** 			  pScn[7] = pBGPAL[c2&3];
 882              		.loc 1 903 0
 883 01dc 2313DD00 		sh	a3,6(s10)
 884              	.LBE22:
 909:../src/nes/InfoNES.c **** #else
 910:../src/nes/InfoNES.c **** 		  tileadr = PPU_BG_Base+pNTBL[ntbladr&0x03FF]*0x40+loopy_y*8;
 911:../src/nes/InfoNES.c **** 		  pScn[0] = pBGPAL[tileadr[0]];
 912:../src/nes/InfoNES.c **** 		  pScn[1] = pBGPAL[tileadr[1]];
 913:../src/nes/InfoNES.c **** 		  pScn[2] = pBGPAL[tileadr[2]];
 914:../src/nes/InfoNES.c **** 		  pScn[3] = pBGPAL[tileadr[3]];
 915:../src/nes/InfoNES.c **** 		  pScn[4] = pBGPAL[tileadr[4]];
 916:../src/nes/InfoNES.c **** 		  pScn[5] = pBGPAL[tileadr[5]];
 917:../src/nes/InfoNES.c **** 		  pScn[6] = pBGPAL[tileadr[6]];
 918:../src/nes/InfoNES.c **** 		  pScn[7] = pBGPAL[tileadr[7]];
 919:../src/nes/InfoNES.c ****       // Character latch(For MMC2/MMC4)
 920:../src/nes/InfoNES.c ****       // Callback at PPU read/write
 921:../src/nes/InfoNES.c ****       MapperPPU( ( ( tileadr - ChrBuf ) >> 2 ) );
 922:../src/nes/InfoNES.c **** #endif /* RAM_LACK */
 923:../src/nes/InfoNES.c **** 		  pScn+=8;
 924:../src/nes/InfoNES.c **** 
 925:../src/nes/InfoNES.c **** 		  if( ++ntbl_x == 32 ) {
 885              		.loc 1 925 0
 886 01e0 850D     		addi	s11,s11,1
 887              	.LVL46:
 908:../src/nes/InfoNES.c **** #else
 888              		.loc 1 908 0
 889 01e2 8297     		jalr	a5
 890              	.LVL47:
 891              		.loc 1 925 0
 892 01e4 C20D     		slli	s11,s11,16
 893 01e6 93DD0D01 		srli	s11,s11,16
 894 01ea 13070002 		li	a4,32
 926:../src/nes/InfoNES.c **** 			  ntbl_x = 0;
 927:../src/nes/InfoNES.c **** 			  ntbladr ^= 0x41F;
 928:../src/nes/InfoNES.c **** 			  attradr = 0x03C0+((ntbladr&0x0380)>>4);
 929:../src/nes/InfoNES.c **** 			  pNTBL = PPUBANK[ntbladr>>10];
 930:../src/nes/InfoNES.c **** 		  } else {
 931:../src/nes/InfoNES.c **** 			  ntbladr++;
 895              		.loc 1 931 0
 896 01ee 93871C00 		addi	a5,s9,1
 923:../src/nes/InfoNES.c **** 
 897              		.loc 1 923 0
 898 01f2 410D     		addi	s10,s10,16
 899              	.LVL48:
 925:../src/nes/InfoNES.c **** 			  ntbl_x = 0;
 900              		.loc 1 925 0
 901 01f4 638DED08 		beq	s11,a4,.L137
 902              		.loc 1 931 0
 903 01f8 939C0701 		slli	s9,a5,16
 904              	.LVL49:
 905 01fc 93DC0C01 		srli	s9,s9,16
 906              	.LVL50:
 907              	.LBE14:
 885:../src/nes/InfoNES.c **** 	  {
 908              		.loc 1 885 0
 909 0200 E3108DEF 		bne	s10,s8,.L39
 910              	.L139:
 911              	.LBE13:
 932:../src/nes/InfoNES.c **** 		  }
 933:../src/nes/InfoNES.c **** 	  }
 934:../src/nes/InfoNES.c **** 
 935:../src/nes/InfoNES.c **** 
 936:../src/nes/InfoNES.c ****     /*-------------------------------------------------------------------*/
 937:../src/nes/InfoNES.c ****     /*  Backgroud Clipping                                               */
 938:../src/nes/InfoNES.c ****     /*-------------------------------------------------------------------*/
 939:../src/nes/InfoNES.c ****     if ( PPU_UpDown_Clip && 
 912              		.loc 1 939 0
 913 0204 B7070000 		lui	a5,%hi(.LANCHOR8)
 914 0208 83C70700 		lbu	a5,%lo(.LANCHOR8)(a5)
 915 020c 37040000 		lui	s0,%hi(.LANCHOR41)
 916              	.LVL51:
 917 0210 DDC3     		beqz	a5,.L40
 940:../src/nes/InfoNES.c ****        ( SCAN_ON_SCREEN_START > PPU_Scanline || PPU_Scanline > SCAN_BOTTOM_OFF_SCREEN_START ) )
 918              		.loc 1 940 0 discriminator 1
 919 0212 B7070000 		lui	a5,%hi(.LANCHOR16)
 920 0216 83D70700 		lhu	a5,%lo(.LANCHOR16)(a5)
 939:../src/nes/InfoNES.c ****        ( SCAN_ON_SCREEN_START > PPU_Scanline || PPU_Scanline > SCAN_BOTTOM_OFF_SCREEN_START ) )
 921              		.loc 1 939 0 discriminator 1
 922 021a 1307000E 		li	a4,224
 923              		.loc 1 940 0 discriminator 1
 924 021e E117     		addi	a5,a5,-8
 939:../src/nes/InfoNES.c ****        ( SCAN_ON_SCREEN_START > PPU_Scanline || PPU_Scanline > SCAN_BOTTOM_OFF_SCREEN_START ) )
 925              		.loc 1 939 0 discriminator 1
 926 0220 C207     		slli	a5,a5,16
 927 0222 C183     		srli	a5,a5,16
 928 0224 6379F708 		bleu	a5,a4,.L40
 929              	.LBB24:
 941:../src/nes/InfoNES.c ****     {
 942:../src/nes/InfoNES.c **** 	  for( WORD i = 0; i < NES_DISP_WIDTH; i++ ) {
 943:../src/nes/InfoNES.c **** 		  pPoint[i] = PalTable[0];
 930              		.loc 1 943 0
 931 0228 83560A00 		lhu	a3,0(s4)
 932 022c 93070400 		addi	a5,s0,%lo(.LANCHOR41)
 933 0230 13870720 		addi	a4,a5,512
 934              	.L41:
 935              		.loc 1 943 0 is_stmt 0 discriminator 3
 936 0234 2390D700 		sh	a3,0(a5)
 937              	.LVL52:
 938 0238 8907     		addi	a5,a5,2
 942:../src/nes/InfoNES.c **** 		  pPoint[i] = PalTable[0];
 939              		.loc 1 942 0 is_stmt 1 discriminator 3
 940 023a E39DE7FE 		bne	a5,a4,.L41
 941              	.LVL53:
 942              	.L36:
 943              	.LBE24:
 944              	.LBE12:
 944:../src/nes/InfoNES.c **** 	  }
 945:../src/nes/InfoNES.c ****     }
 946:../src/nes/InfoNES.c ****     else
 947:../src/nes/InfoNES.c ****     {
 948:../src/nes/InfoNES.c ****       InfoNES_MemoryCopy(pPoint, &lpScanline[8], NES_DISP_WIDTH * sizeof(PIXEL));
 949:../src/nes/InfoNES.c ****       if( !(PPU_R1&R1_CLIP_BG) ) {
 950:../src/nes/InfoNES.c ****         for( BYTE i = 0; i < 8; i++ ) {
 951:../src/nes/InfoNES.c ****           pPoint[i] = PalTable[0];
 952:../src/nes/InfoNES.c ****         }
 953:../src/nes/InfoNES.c ****       }
 954:../src/nes/InfoNES.c ****     }
 955:../src/nes/InfoNES.c ****   }
 956:../src/nes/InfoNES.c **** 
 957:../src/nes/InfoNES.c **** 
 958:../src/nes/InfoNES.c ****   /* MMC5 VROM switch */
 959:../src/nes/InfoNES.c ****   MapperRenderScreen( 0 );
 945              		.loc 1 959 0
 946 023e B7070000 		lui	a5,%hi(MapperRenderScreen)
 947 0242 83A70700 		lw	a5,%lo(MapperRenderScreen)(a5)
 948 0246 0145     		li	a0,0
 949 0248 8297     		jalr	a5
 950              	.LVL54:
 960:../src/nes/InfoNES.c **** 
 961:../src/nes/InfoNES.c **** 
 962:../src/nes/InfoNES.c ****   /*-------------------------------------------------------------------*/
 963:../src/nes/InfoNES.c ****   /*  Render a sprite                                                  */
 964:../src/nes/InfoNES.c ****   /*-------------------------------------------------------------------*/
 965:../src/nes/InfoNES.c ****   if ( PPU_R1 & R1_SHOW_SP )
 951              		.loc 1 965 0
 952 024a B247     		lw	a5,12(sp)
 953 024c 83C70700 		lbu	a5,0(a5)
 954 0250 C18B     		andi	a5,a5,16
 955 0252 CDE7     		bnez	a5,.L138
 956              	.L34:
 966:../src/nes/InfoNES.c ****   {
 967:../src/nes/InfoNES.c ****     WORD nX;
 968:../src/nes/InfoNES.c ****     WORD nY;
 969:../src/nes/InfoNES.c ****     WORD nYBit;
 970:../src/nes/InfoNES.c ****     BYTE *pbyChrData;
 971:../src/nes/InfoNES.c **** #ifdef RAM_LACK
 972:../src/nes/InfoNES.c ****     BYTE tileData[2] = {0, 0};
 973:../src/nes/InfoNES.c **** #endif /* RAM_LACK */
 974:../src/nes/InfoNES.c ****     BYTE *pSPRRAM;
 975:../src/nes/InfoNES.c ****     WORD nAttr;
 976:../src/nes/InfoNES.c ****     WORD nSprCnt;
 977:../src/nes/InfoNES.c ****     WORD nSprData;
 978:../src/nes/InfoNES.c ****     BYTE bySprCol;
 979:../src/nes/InfoNES.c ****     BYTE pSprBuf[ NES_DISP_WIDTH + 7 ];
 980:../src/nes/InfoNES.c **** 
 981:../src/nes/InfoNES.c ****     // Reset Scanline Sprite Count
 982:../src/nes/InfoNES.c ****     PPU_R2 &= ~R2_MAX_SP;
 983:../src/nes/InfoNES.c **** 
 984:../src/nes/InfoNES.c ****     // Reset sprite buffer
 985:../src/nes/InfoNES.c ****     InfoNES_MemorySet( pSprBuf, 0, sizeof pSprBuf );
 986:../src/nes/InfoNES.c **** 
 987:../src/nes/InfoNES.c ****     // Render a sprite to the sprite buffer
 988:../src/nes/InfoNES.c ****     nSprCnt = 0;
 989:../src/nes/InfoNES.c ****     for ( pSPRRAM = SPRRAM + ( 63 << 2 ); pSPRRAM >= SPRRAM; pSPRRAM -= 4 )
 990:../src/nes/InfoNES.c ****     {
 991:../src/nes/InfoNES.c ****       nY = pSPRRAM[ SPR_Y ] + 1;
 992:../src/nes/InfoNES.c ****       if ( nY > PPU_Scanline || nY + PPU_SP_Height <= PPU_Scanline )
 993:../src/nes/InfoNES.c ****         continue;  // Next sprite
 994:../src/nes/InfoNES.c **** 
 995:../src/nes/InfoNES.c ****       /*-------------------------------------------------------------------*/
 996:../src/nes/InfoNES.c ****       /*  A sprite in scanning line                                        */
 997:../src/nes/InfoNES.c ****       /*-------------------------------------------------------------------*/
 998:../src/nes/InfoNES.c **** 
 999:../src/nes/InfoNES.c ****       // Holizontal Sprite Count +1
1000:../src/nes/InfoNES.c ****       ++nSprCnt;
1001:../src/nes/InfoNES.c **** 
1002:../src/nes/InfoNES.c ****       nAttr = pSPRRAM[ SPR_ATTR ];
1003:../src/nes/InfoNES.c ****       nYBit = PPU_Scanline - nY;
1004:../src/nes/InfoNES.c ****       nYBit = ( nAttr & SPR_ATTR_V_FLIP ) ? ( PPU_SP_Height - nYBit - 1 ) : nYBit;
1005:../src/nes/InfoNES.c **** #ifndef RAM_LACK
1006:../src/nes/InfoNES.c ****       nYBit <<= 3;
1007:../src/nes/InfoNES.c **** #endif /* !RAM_LACK */
1008:../src/nes/InfoNES.c **** 
1009:../src/nes/InfoNES.c ****       if ( PPU_R0 & R0_SP_SIZE )
1010:../src/nes/InfoNES.c ****       {
1011:../src/nes/InfoNES.c ****         // Sprite size 8x16
1012:../src/nes/InfoNES.c ****         if ( pSPRRAM[ SPR_CHR ] & 1 )
1013:../src/nes/InfoNES.c ****         {
1014:../src/nes/InfoNES.c **** #ifdef RAM_LACK
1015:../src/nes/InfoNES.c ****           pbyChrData = PPUBANK[ 4 ] + ( ( pSPRRAM[ SPR_CHR ] & 0xfe ) << 4 ) + ((nYBit & 0x8) << 1)
1016:../src/nes/InfoNES.c **** #else
1017:../src/nes/InfoNES.c ****           pbyChrData = ChrBuf + 256 * 64 + ( ( pSPRRAM[ SPR_CHR ] & 0xfe ) << 6 ) + nYBit;
1018:../src/nes/InfoNES.c **** #endif /* RAM_LACK */
1019:../src/nes/InfoNES.c ****         }
1020:../src/nes/InfoNES.c ****         else
1021:../src/nes/InfoNES.c ****         {
1022:../src/nes/InfoNES.c **** #ifdef RAM_LACK
1023:../src/nes/InfoNES.c ****           pbyChrData = PPUBANK[ 0 ] + ( ( pSPRRAM[ SPR_CHR ] & 0xfe ) << 4 ) + ((nYBit & 0x8) << 1)
1024:../src/nes/InfoNES.c **** #else
1025:../src/nes/InfoNES.c ****           pbyChrData = ChrBuf + ( ( pSPRRAM[ SPR_CHR ] & 0xfe ) << 6 ) + nYBit;
1026:../src/nes/InfoNES.c **** #endif /* RAM_LACK */
1027:../src/nes/InfoNES.c ****         }
1028:../src/nes/InfoNES.c ****       }
1029:../src/nes/InfoNES.c ****       else
1030:../src/nes/InfoNES.c ****       {
1031:../src/nes/InfoNES.c ****         // Sprite size 8x8
1032:../src/nes/InfoNES.c **** #ifdef RAM_LACK
1033:../src/nes/InfoNES.c ****         pbyChrData = PPU_SP_Base + ( pSPRRAM[ SPR_CHR ] << 4 ) + nYBit;
1034:../src/nes/InfoNES.c **** #else
1035:../src/nes/InfoNES.c ****         pbyChrData = PPU_SP_Base + ( pSPRRAM[ SPR_CHR ] << 6 ) + nYBit;
1036:../src/nes/InfoNES.c **** #endif /* RAM_LACK */
1037:../src/nes/InfoNES.c ****       }
1038:../src/nes/InfoNES.c **** 
1039:../src/nes/InfoNES.c ****       nAttr ^= SPR_ATTR_PRI;
1040:../src/nes/InfoNES.c ****       bySprCol = ( nAttr & ( SPR_ATTR_COLOR | SPR_ATTR_PRI ) ) << 2;
1041:../src/nes/InfoNES.c ****       nX = pSPRRAM[ SPR_X ];
1042:../src/nes/InfoNES.c **** #ifdef RAM_LACK
1043:../src/nes/InfoNES.c ****       tileData[0] = ( ( pbyChrData[ 0 ] >> 1 ) & 0x55 ) | ( pbyChrData[ 8 ] & 0xAA );
1044:../src/nes/InfoNES.c ****       tileData[1] = ( pbyChrData[ 0 ] & 0x55 ) | ( ( pbyChrData[ 8 ] << 1 ) & 0xAA );
1045:../src/nes/InfoNES.c **** #endif /* RAM_LACK */
1046:../src/nes/InfoNES.c ****       if ( nAttr & SPR_ATTR_H_FLIP )
1047:../src/nes/InfoNES.c ****       {
1048:../src/nes/InfoNES.c ****         // Horizontal flip
1049:../src/nes/InfoNES.c **** #ifdef RAM_LACK
1050:../src/nes/InfoNES.c ****         if ( ( tileData[1] ) & 3 )
1051:../src/nes/InfoNES.c ****           pSprBuf[ nX ]     = bySprCol | (( tileData[1] ) & 3);
1052:../src/nes/InfoNES.c ****         if ( ( tileData[0] ) & 3 )
1053:../src/nes/InfoNES.c ****           pSprBuf[ nX + 1 ] = bySprCol | (( tileData[0] ) & 3);
1054:../src/nes/InfoNES.c ****         if ( ( tileData[1] >> 2 ) & 3 )
1055:../src/nes/InfoNES.c ****           pSprBuf[ nX + 2 ] = bySprCol | (( tileData[1] >> 2 ) & 3);
1056:../src/nes/InfoNES.c ****         if ( ( tileData[0] >> 2 ) & 3 )
1057:../src/nes/InfoNES.c ****           pSprBuf[ nX + 3 ] = bySprCol | (( tileData[0] >> 2 ) & 3);
1058:../src/nes/InfoNES.c ****         if ( ( tileData[1] >> 4 ) & 3 )
1059:../src/nes/InfoNES.c ****           pSprBuf[ nX + 4 ] = bySprCol | (( tileData[1] >> 4 ) & 3);
1060:../src/nes/InfoNES.c ****         if ( ( tileData[0] >> 4 ) & 3 )
1061:../src/nes/InfoNES.c ****           pSprBuf[ nX + 5 ] = bySprCol | (( tileData[0] >> 4 ) & 3);
1062:../src/nes/InfoNES.c ****         if ( ( tileData[1] >> 6 ) & 3 )
1063:../src/nes/InfoNES.c ****           pSprBuf[ nX + 6 ] = bySprCol | (( tileData[1] >> 6 ) & 3);
1064:../src/nes/InfoNES.c ****         if ( ( tileData[0] >> 6 ) & 3 )
1065:../src/nes/InfoNES.c ****           pSprBuf[ nX + 7 ] = bySprCol | (( tileData[0] >> 6 ) & 3);
1066:../src/nes/InfoNES.c **** #else
1067:../src/nes/InfoNES.c ****         if ( pbyChrData[ 7 ] )
1068:../src/nes/InfoNES.c ****           pSprBuf[ nX ]     = bySprCol | pbyChrData[ 7 ];
1069:../src/nes/InfoNES.c ****         if ( pbyChrData[ 6 ] )
1070:../src/nes/InfoNES.c ****           pSprBuf[ nX + 1 ] = bySprCol | pbyChrData[ 6 ];
1071:../src/nes/InfoNES.c ****         if ( pbyChrData[ 5 ] )
1072:../src/nes/InfoNES.c ****           pSprBuf[ nX + 2 ] = bySprCol | pbyChrData[ 5 ];
1073:../src/nes/InfoNES.c ****         if ( pbyChrData[ 4 ] )
1074:../src/nes/InfoNES.c ****           pSprBuf[ nX + 3 ] = bySprCol | pbyChrData[ 4 ];
1075:../src/nes/InfoNES.c ****         if ( pbyChrData[ 3 ] )
1076:../src/nes/InfoNES.c ****           pSprBuf[ nX + 4 ] = bySprCol | pbyChrData[ 3 ];
1077:../src/nes/InfoNES.c ****         if ( pbyChrData[ 2 ] )
1078:../src/nes/InfoNES.c ****           pSprBuf[ nX + 5 ] = bySprCol | pbyChrData[ 2 ];
1079:../src/nes/InfoNES.c ****         if ( pbyChrData[ 1 ] )
1080:../src/nes/InfoNES.c ****           pSprBuf[ nX + 6 ] = bySprCol | pbyChrData[ 1 ];
1081:../src/nes/InfoNES.c ****         if ( pbyChrData[ 0 ] )
1082:../src/nes/InfoNES.c ****           pSprBuf[ nX + 7 ] = bySprCol | pbyChrData[ 0 ];
1083:../src/nes/InfoNES.c **** #endif /* RAM_LACK */
1084:../src/nes/InfoNES.c ****       }
1085:../src/nes/InfoNES.c ****       else
1086:../src/nes/InfoNES.c ****       {
1087:../src/nes/InfoNES.c ****         // Non flip
1088:../src/nes/InfoNES.c **** #ifdef RAM_LACK
1089:../src/nes/InfoNES.c ****         if ( ( tileData[0] >> 6 ) & 3 )
1090:../src/nes/InfoNES.c ****           pSprBuf[ nX ]     = bySprCol | (( tileData[0] >> 6 ) & 3);
1091:../src/nes/InfoNES.c ****         if ( ( tileData[1] >> 6 ) & 3 )
1092:../src/nes/InfoNES.c ****           pSprBuf[ nX + 1 ] = bySprCol | (( tileData[1] >> 6 ) & 3);
1093:../src/nes/InfoNES.c ****         if ( ( tileData[0] >> 4 ) & 3 )
1094:../src/nes/InfoNES.c ****           pSprBuf[ nX + 2 ] = bySprCol | (( tileData[0] >> 4 ) & 3);
1095:../src/nes/InfoNES.c ****         if ( ( tileData[1] >> 4 ) & 3 )
1096:../src/nes/InfoNES.c ****           pSprBuf[ nX + 3 ] = bySprCol | (( tileData[1] >> 4 ) & 3);
1097:../src/nes/InfoNES.c ****         if ( ( tileData[0] >> 2 ) & 3 )
1098:../src/nes/InfoNES.c ****           pSprBuf[ nX + 4 ] = bySprCol | (( tileData[0] >> 2 ) & 3);
1099:../src/nes/InfoNES.c ****         if ( ( tileData[1] >> 2 ) & 3 )
1100:../src/nes/InfoNES.c ****           pSprBuf[ nX + 5 ] = bySprCol | (( tileData[1] >> 2 ) & 3);
1101:../src/nes/InfoNES.c ****         if ( ( tileData[0] ) & 3 )
1102:../src/nes/InfoNES.c ****           pSprBuf[ nX + 6 ] = bySprCol | (( tileData[0] ) & 3);
1103:../src/nes/InfoNES.c ****         if ( ( tileData[1] ) & 3 )
1104:../src/nes/InfoNES.c ****           pSprBuf[ nX + 7 ] = bySprCol | (( tileData[1] ) & 3);
1105:../src/nes/InfoNES.c **** #else
1106:../src/nes/InfoNES.c ****         if ( pbyChrData[ 0 ] )
1107:../src/nes/InfoNES.c ****           pSprBuf[ nX ]     = bySprCol | pbyChrData[ 0 ];
1108:../src/nes/InfoNES.c ****         if ( pbyChrData[ 1 ] )
1109:../src/nes/InfoNES.c ****           pSprBuf[ nX + 1 ] = bySprCol | pbyChrData[ 1 ];
1110:../src/nes/InfoNES.c ****         if ( pbyChrData[ 2 ] )
1111:../src/nes/InfoNES.c ****           pSprBuf[ nX + 2 ] = bySprCol | pbyChrData[ 2 ];
1112:../src/nes/InfoNES.c ****         if ( pbyChrData[ 3 ] )
1113:../src/nes/InfoNES.c ****           pSprBuf[ nX + 3 ] = bySprCol | pbyChrData[ 3 ];
1114:../src/nes/InfoNES.c ****         if ( pbyChrData[ 4 ] )
1115:../src/nes/InfoNES.c ****           pSprBuf[ nX + 4 ] = bySprCol | pbyChrData[ 4 ];
1116:../src/nes/InfoNES.c ****         if ( pbyChrData[ 5 ] )
1117:../src/nes/InfoNES.c ****           pSprBuf[ nX + 5 ] = bySprCol | pbyChrData[ 5 ];
1118:../src/nes/InfoNES.c ****         if ( pbyChrData[ 6 ] )
1119:../src/nes/InfoNES.c ****           pSprBuf[ nX + 6 ] = bySprCol | pbyChrData[ 6 ];
1120:../src/nes/InfoNES.c ****         if ( pbyChrData[ 7 ] )
1121:../src/nes/InfoNES.c ****           pSprBuf[ nX + 7 ] = bySprCol | pbyChrData[ 7 ];
1122:../src/nes/InfoNES.c **** #endif /* RAM_LACK */
1123:../src/nes/InfoNES.c ****       }
1124:../src/nes/InfoNES.c ****     }
1125:../src/nes/InfoNES.c **** 
1126:../src/nes/InfoNES.c ****     /*-------------------------------------------------------------------*/
1127:../src/nes/InfoNES.c ****     /*  Sprite Clipping                                                  */
1128:../src/nes/InfoNES.c ****     /*-------------------------------------------------------------------*/
1129:../src/nes/InfoNES.c ****     if ( !( PPU_R1 & R1_CLIP_SP ) )
1130:../src/nes/InfoNES.c ****     {
1131:../src/nes/InfoNES.c ****       InfoNES_MemorySet( pSprBuf, 0, 8 );
1132:../src/nes/InfoNES.c ****     }
1133:../src/nes/InfoNES.c ****     
1134:../src/nes/InfoNES.c ****     // Rendering sprite
1135:../src/nes/InfoNES.c ****     //pPoint -= ( NES_DISP_WIDTH - loopy_x );
1136:../src/nes/InfoNES.c ****     for ( nX = 0; nX < NES_DISP_WIDTH; ++nX )
1137:../src/nes/InfoNES.c ****     {
1138:../src/nes/InfoNES.c ****       nSprData = pSprBuf[ nX ];
1139:../src/nes/InfoNES.c ****       if ( nSprData  && ( nSprData & 0x80 || pPoint[ nX ] & TRANSPARENT_COLOR ) )
1140:../src/nes/InfoNES.c ****       {
1141:../src/nes/InfoNES.c ****         pPoint[ nX ] = PalTable[ ( nSprData & 0xf ) | 0x10 ];
1142:../src/nes/InfoNES.c ****       }
1143:../src/nes/InfoNES.c ****     }
1144:../src/nes/InfoNES.c **** 
1145:../src/nes/InfoNES.c ****     if ( nSprCnt >= 8 )
1146:../src/nes/InfoNES.c ****       PPU_R2 |= R2_MAX_SP;  // Set a flag of maximum sprites on scanline
1147:../src/nes/InfoNES.c ****   }
1148:../src/nes/InfoNES.c **** }
 957              		.loc 1 1148 0
 958 0254 8320C126 		lw	ra,620(sp)
 959              		.cfi_remember_state
 960              		.cfi_restore 1
 961 0258 03248126 		lw	s0,616(sp)
 962              		.cfi_restore 8
 963 025c 83244126 		lw	s1,612(sp)
 964              		.cfi_restore 9
 965 0260 03290126 		lw	s2,608(sp)
 966              		.cfi_restore 18
 967 0264 8329C125 		lw	s3,604(sp)
 968              		.cfi_restore 19
 969 0268 032A8125 		lw	s4,600(sp)
 970              		.cfi_restore 20
 971 026c 832A4125 		lw	s5,596(sp)
 972              		.cfi_restore 21
 973 0270 032B0125 		lw	s6,592(sp)
 974              		.cfi_restore 22
 975 0274 832BC124 		lw	s7,588(sp)
 976              		.cfi_restore 23
 977 0278 032C8124 		lw	s8,584(sp)
 978              		.cfi_restore 24
 979 027c 832C4124 		lw	s9,580(sp)
 980              		.cfi_restore 25
 981 0280 032D0124 		lw	s10,576(sp)
 982              		.cfi_restore 26
 983 0284 832DC123 		lw	s11,572(sp)
 984              		.cfi_restore 27
 985 0288 13010127 		addi	sp,sp,624
 986              		.cfi_def_cfa_offset 0
 987 028c 8280     		jr	ra
 988              	.LVL55:
 989              	.L137:
 990              		.cfi_restore_state
 991              	.LBB27:
 992              	.LBB25:
 993              	.LBB23:
 927:../src/nes/InfoNES.c **** 			  attradr = 0x03C0+((ntbladr&0x0380)>>4);
 994              		.loc 1 927 0
 995 028e 93CCFC41 		xori	s9,s9,1055
 996              	.LVL56:
 929:../src/nes/InfoNES.c **** 		  } else {
 997              		.loc 1 929 0
 998 0292 93D7AC00 		srli	a5,s9,10
 999 0296 C207     		slli	a5,a5,16
 1000 0298 C183     		srli	a5,a5,16
 928:../src/nes/InfoNES.c **** 			  pNTBL = PPUBANK[ntbladr>>10];
 1001              		.loc 1 928 0
 1002 029a 13D44C40 		srai	s0,s9,4
 1003              	.LVL57:
 929:../src/nes/InfoNES.c **** 		  } else {
 1004              		.loc 1 929 0
 1005 029e 8A07     		slli	a5,a5,2
 928:../src/nes/InfoNES.c **** 			  pNTBL = PPUBANK[ntbladr>>10];
 1006              		.loc 1 928 0
 1007 02a0 13748403 		andi	s0,s0,56
 929:../src/nes/InfoNES.c **** 		  } else {
 1008              		.loc 1 929 0
 1009 02a4 CA97     		add	a5,s2,a5
 928:../src/nes/InfoNES.c **** 			  pNTBL = PPUBANK[ntbladr>>10];
 1010              		.loc 1 928 0
 1011 02a6 1304043C 		addi	s0,s0,960
 1012              	.LVL58:
 929:../src/nes/InfoNES.c **** 		  } else {
 1013              		.loc 1 929 0
 1014 02aa 83AB0700 		lw	s7,0(a5)
 1015              	.LVL59:
 926:../src/nes/InfoNES.c **** 			  ntbladr ^= 0x41F;
 1016              		.loc 1 926 0
 1017 02ae 814D     		li	s11,0
 1018              	.LVL60:
 1019              	.LBE23:
 885:../src/nes/InfoNES.c **** 	  {
 1020              		.loc 1 885 0
 1021 02b0 E3188DE3 		bne	s10,s8,.L39
 1022 02b4 81BF     		j	.L139
 1023              	.LVL61:
 1024              	.L40:
 1025              	.LBE25:
 948:../src/nes/InfoNES.c ****       if( !(PPU_R1&R1_CLIP_BG) ) {
 1026              		.loc 1 948 0
 1027 02b6 13060020 		li	a2,512
 1028 02ba 0C10     		addi	a1,sp,32
 1029 02bc 13050400 		addi	a0,s0,%lo(.LANCHOR41)
 1030 02c0 97000000 		call	InfoNES_MemoryCopy
 1030      E7800000 
 1031              	.LVL62:
 949:../src/nes/InfoNES.c ****         for( BYTE i = 0; i < 8; i++ ) {
 1032              		.loc 1 949 0
 1033 02c8 B247     		lw	a5,12(sp)
 1034 02ca 03C70700 		lbu	a4,0(a5)
 948:../src/nes/InfoNES.c ****       if( !(PPU_R1&R1_CLIP_BG) ) {
 1035              		.loc 1 948 0
 1036 02ce 93070400 		addi	a5,s0,%lo(.LANCHOR41)
 949:../src/nes/InfoNES.c ****         for( BYTE i = 0; i < 8; i++ ) {
 1037              		.loc 1 949 0
 1038 02d2 098B     		andi	a4,a4,2
 1039 02d4 2DF7     		bnez	a4,.L36
 1040              	.LBB26:
 951:../src/nes/InfoNES.c ****         }
 1041              		.loc 1 951 0
 1042 02d6 03570A00 		lhu	a4,0(s4)
 1043              	.LVL63:
 1044 02da 2390E700 		sh	a4,0(a5)
 1045              	.LVL64:
 1046 02de 2391E700 		sh	a4,2(a5)
 1047              	.LVL65:
 1048 02e2 2392E700 		sh	a4,4(a5)
 1049              	.LVL66:
 1050 02e6 2393E700 		sh	a4,6(a5)
 1051              	.LVL67:
 1052 02ea 2394E700 		sh	a4,8(a5)
 1053              	.LVL68:
 1054 02ee 2395E700 		sh	a4,10(a5)
 1055              	.LVL69:
 1056 02f2 2396E700 		sh	a4,12(a5)
 1057              	.LVL70:
 1058 02f6 2397E700 		sh	a4,14(a5)
 1059              	.LVL71:
 1060 02fa 91B7     		j	.L36
 1061              	.LVL72:
 1062              	.L138:
 1063              	.LBE26:
 1064              	.LBE27:
 1065              	.LBB28:
 982:../src/nes/InfoNES.c **** 
 1066              		.loc 1 982 0
 1067 02fc B7090000 		lui	s3,%hi(.LANCHOR4)
 1068 0300 93890900 		addi	s3,s3,%lo(.LANCHOR4)
 1069 0304 83C70900 		lbu	a5,0(s3)
 985:../src/nes/InfoNES.c **** 
 1070              		.loc 1 985 0
 1071 0308 13067010 		li	a2,263
 1072 030c 8145     		li	a1,0
 982:../src/nes/InfoNES.c **** 
 1073              		.loc 1 982 0
 1074 030e 93F7F7FD 		andi	a5,a5,-33
 985:../src/nes/InfoNES.c **** 
 1075              		.loc 1 985 0
 1076 0312 0808     		addi	a0,sp,16
 982:../src/nes/InfoNES.c **** 
 1077              		.loc 1 982 0
 1078 0314 2380F900 		sb	a5,0(s3)
 985:../src/nes/InfoNES.c **** 
 1079              		.loc 1 985 0
 1080 0318 97000000 		call	InfoNES_MemorySet
 1080      E7800000 
 1081              	.LVL73:
 992:../src/nes/InfoNES.c ****         continue;  // Next sprite
 1082              		.loc 1 992 0
 1083 0320 B7070000 		lui	a5,%hi(.LANCHOR24)
 1084 0324 03D50700 		lhu	a0,%lo(.LANCHOR24)(a5)
 1085 0328 37070000 		lui	a4,%hi(.LANCHOR6)
 1086 032c 03480700 		lbu	a6,%lo(.LANCHOR6)(a4)
1023:../src/nes/InfoNES.c **** #else
 1087              		.loc 1 1023 0
 1088 0330 B7070000 		lui	a5,%hi(.LANCHOR22)
 992:../src/nes/InfoNES.c ****         continue;  // Next sprite
 1089              		.loc 1 992 0
 1090 0334 37070000 		lui	a4,%hi(.LANCHOR16)
1023:../src/nes/InfoNES.c **** #else
 1091              		.loc 1 1023 0
 1092 0338 93870700 		addi	a5,a5,%lo(.LANCHOR22)
 992:../src/nes/InfoNES.c ****         continue;  // Next sprite
 1093              		.loc 1 992 0
 1094 033c 03560700 		lhu	a2,%lo(.LANCHOR16)(a4)
1033:../src/nes/InfoNES.c **** #else
 1095              		.loc 1 1033 0
 1096 0340 37070000 		lui	a4,%hi(.LANCHOR23)
 1097 0344 930EF5FF 		addi	t4,a0,-1
 989:../src/nes/InfoNES.c ****     {
 1098              		.loc 1 989 0
 1099 0348 B7050000 		lui	a1,%hi(.LANCHOR1)
1033:../src/nes/InfoNES.c **** #else
 1100              		.loc 1 1033 0
 1101 034c 032E0700 		lw	t3,%lo(.LANCHOR23)(a4)
1023:../src/nes/InfoNES.c **** #else
 1102              		.loc 1 1023 0
 1103 0350 03A30700 		lw	t1,0(a5)
1015:../src/nes/InfoNES.c **** #else
 1104              		.loc 1 1015 0
 1105 0354 03AF0701 		lw	t5,16(a5)
 989:../src/nes/InfoNES.c ****     {
 1106              		.loc 1 989 0
 1107 0358 93850500 		addi	a1,a1,%lo(.LANCHOR1)
 1108 035c C20E     		slli	t4,t4,16
 1109 035e 8568     		li	a7,4096
 1110 0360 93DE0E01 		srli	t4,t4,16
 1111 0364 13780802 		andi	a6,a6,32
 988:../src/nes/InfoNES.c ****     for ( pSPRRAM = SPRRAM + ( 63 << 2 ); pSPRRAM >= SPRRAM; pSPRRAM -= 4 )
 1112              		.loc 1 988 0
 1113 0368 0149     		li	s2,0
 989:../src/nes/InfoNES.c ****     {
 1114              		.loc 1 989 0
 1115 036a 9386C50F 		addi	a3,a1,252
 1116 036e 8118     		addi	a7,a7,-32
 1117              	.LVL74:
 1118              	.L64:
 991:../src/nes/InfoNES.c ****       if ( nY > PPU_Scanline || nY + PPU_SP_Height <= PPU_Scanline )
 1119              		.loc 1 991 0
 1120 0370 83C70600 		lbu	a5,0(a3)
 1121 0374 8507     		addi	a5,a5,1
 1122              	.LVL75:
 992:../src/nes/InfoNES.c ****         continue;  // Next sprite
 1123              		.loc 1 992 0
 1124 0376 6361F616 		bltu	a2,a5,.L44
 992:../src/nes/InfoNES.c ****         continue;  // Next sprite
 1125              		.loc 1 992 0 is_stmt 0 discriminator 1
 1126 037a 3387A700 		add	a4,a5,a0
 1127 037e 635DE614 		ble	a4,a2,.L44
1002:../src/nes/InfoNES.c ****       nYBit = PPU_Scanline - nY;
 1128              		.loc 1 1002 0 is_stmt 1
 1129 0382 83C22600 		lbu	t0,2(a3)
1000:../src/nes/InfoNES.c **** 
 1130              		.loc 1 1000 0
 1131 0386 0509     		addi	s2,s2,1
 1132              	.LVL76:
1003:../src/nes/InfoNES.c ****       nYBit = ( nAttr & SPR_ATTR_V_FLIP ) ? ( PPU_SP_Height - nYBit - 1 ) : nYBit;
 1133              		.loc 1 1003 0
 1134 0388 B307F640 		sub	a5,a2,a5
 1135              	.LVL77:
1004:../src/nes/InfoNES.c **** #ifndef RAM_LACK
 1136              		.loc 1 1004 0
 1137 038c 13978201 		slli	a4,t0,24
1000:../src/nes/InfoNES.c **** 
 1138              		.loc 1 1000 0
 1139 0390 4209     		slli	s2,s2,16
1003:../src/nes/InfoNES.c ****       nYBit = ( nAttr & SPR_ATTR_V_FLIP ) ? ( PPU_SP_Height - nYBit - 1 ) : nYBit;
 1140              		.loc 1 1003 0
 1141 0392 C207     		slli	a5,a5,16
1004:../src/nes/InfoNES.c **** #ifndef RAM_LACK
 1142              		.loc 1 1004 0
 1143 0394 6187     		srai	a4,a4,24
1000:../src/nes/InfoNES.c **** 
 1144              		.loc 1 1000 0
 1145 0396 13590901 		srli	s2,s2,16
 1146              	.LVL78:
1003:../src/nes/InfoNES.c ****       nYBit = ( nAttr & SPR_ATTR_V_FLIP ) ? ( PPU_SP_Height - nYBit - 1 ) : nYBit;
 1147              		.loc 1 1003 0
 1148 039a C183     		srli	a5,a5,16
 1149              	.LVL79:
1004:../src/nes/InfoNES.c **** #ifndef RAM_LACK
 1150              		.loc 1 1004 0
 1151 039c 63560700 		bgez	a4,.L45
1004:../src/nes/InfoNES.c **** #ifndef RAM_LACK
 1152              		.loc 1 1004 0 is_stmt 0 discriminator 1
 1153 03a0 B387FE40 		sub	a5,t4,a5
 1154              	.LVL80:
 1155 03a4 C207     		slli	a5,a5,16
 1156 03a6 C183     		srli	a5,a5,16
 1157              	.L45:
 1158              	.LVL81:
 1159 03a8 83CF1600 		lbu	t6,1(a3)
 1160 03ac 93934F00 		slli	t2,t6,4
1009:../src/nes/InfoNES.c ****       {
 1161              		.loc 1 1009 0 is_stmt 1 discriminator 4
 1162 03b0 63050824 		beqz	a6,.L46
 1163 03b4 13971700 		slli	a4,a5,1
 1164 03b8 418B     		andi	a4,a4,16
 1165 03ba B3F31301 		and	t2,t2,a7
 1166 03be 9D8B     		andi	a5,a5,7
 1167              	.LVL82:
 1168 03c0 33677700 		or	a4,a4,t2
 1169 03c4 3E97     		add	a4,a4,a5
1012:../src/nes/InfoNES.c ****         {
 1170              		.loc 1 1012 0
 1171 03c6 93FF1F00 		andi	t6,t6,1
1023:../src/nes/InfoNES.c **** #else
 1172              		.loc 1 1023 0
 1173 03ca B307E300 		add	a5,t1,a4
1012:../src/nes/InfoNES.c ****         {
 1174              		.loc 1 1012 0
 1175 03ce 63840F00 		beqz	t6,.L48
1015:../src/nes/InfoNES.c **** #else
 1176              		.loc 1 1015 0
 1177 03d2 B307EF00 		add	a5,t5,a4
 1178              	.LVL83:
 1179              	.L48:
1043:../src/nes/InfoNES.c ****       tileData[1] = ( pbyChrData[ 0 ] & 0x55 ) | ( ( pbyChrData[ 8 ] << 1 ) & 0xAA );
 1180              		.loc 1 1043 0
 1181 03d6 83CF0700 		lbu	t6,0(a5)
 1182 03da 83C38700 		lbu	t2,8(a5)
 1183 03de 93C20202 		xori	t0,t0,32
 1184              	.LVL84:
 1185 03e2 13D71F00 		srli	a4,t6,1
1044:../src/nes/InfoNES.c **** #endif /* RAM_LACK */
 1186              		.loc 1 1044 0
 1187 03e6 93971300 		slli	a5,t2,1
 1188              	.LVL85:
 1189 03ea 93FF5F05 		andi	t6,t6,85
1043:../src/nes/InfoNES.c ****       tileData[1] = ( pbyChrData[ 0 ] & 0x55 ) | ( ( pbyChrData[ 8 ] << 1 ) & 0xAA );
 1190              		.loc 1 1043 0
 1191 03ee 93F3A3FA 		andi	t2,t2,-86
 1192 03f2 13775705 		andi	a4,a4,85
1044:../src/nes/InfoNES.c **** #endif /* RAM_LACK */
 1193              		.loc 1 1044 0
 1194 03f6 93F7A7FA 		andi	a5,a5,-86
1043:../src/nes/InfoNES.c ****       tileData[1] = ( pbyChrData[ 0 ] & 0x55 ) | ( ( pbyChrData[ 8 ] << 1 ) & 0xAA );
 1195              		.loc 1 1043 0
 1196 03fa 33677700 		or	a4,a4,t2
1044:../src/nes/InfoNES.c **** #endif /* RAM_LACK */
 1197              		.loc 1 1044 0
 1198 03fe B3E7F701 		or	a5,a5,t6
1043:../src/nes/InfoNES.c ****       tileData[1] = ( pbyChrData[ 0 ] & 0x55 ) | ( ( pbyChrData[ 8 ] << 1 ) & 0xAA );
 1199              		.loc 1 1043 0
 1200 0402 93138701 		slli	t2,a4,24
1044:../src/nes/InfoNES.c **** #endif /* RAM_LACK */
 1201              		.loc 1 1044 0
 1202 0406 E207     		slli	a5,a5,24
1043:../src/nes/InfoNES.c ****       tileData[1] = ( pbyChrData[ 0 ] & 0x55 ) | ( ( pbyChrData[ 8 ] << 1 ) & 0xAA );
 1203              		.loc 1 1043 0
 1204 0408 93D38341 		srai	t2,t2,24
1044:../src/nes/InfoNES.c **** #endif /* RAM_LACK */
 1205              		.loc 1 1044 0
 1206 040c E187     		srai	a5,a5,24
1040:../src/nes/InfoNES.c ****       nX = pSPRRAM[ SPR_X ];
 1207              		.loc 1 1040 0
 1208 040e 139A2200 		slli	s4,t0,2
1043:../src/nes/InfoNES.c ****       tileData[1] = ( pbyChrData[ 0 ] & 0x55 ) | ( ( pbyChrData[ 8 ] << 1 ) & 0xAA );
 1209              		.loc 1 1043 0
 1210 0412 93FFF30F 		andi	t6,t2,0xff
1044:../src/nes/InfoNES.c **** #endif /* RAM_LACK */
 1211              		.loc 1 1044 0
 1212 0416 13F7F70F 		andi	a4,a5,0xff
1046:../src/nes/InfoNES.c ****       {
 1213              		.loc 1 1046 0
 1214 041a 93F20204 		andi	t0,t0,64
 1215              	.LVL86:
1040:../src/nes/InfoNES.c ****       nX = pSPRRAM[ SPR_X ];
 1216              		.loc 1 1040 0
 1217 041e 137ACA08 		andi	s4,s4,140
 1218              	.LVL87:
1041:../src/nes/InfoNES.c **** #ifdef RAM_LACK
 1219              		.loc 1 1041 0
 1220 0422 83CA3600 		lbu	s5,3(a3)
 1221              	.LVL88:
 1222 0426 93DB6F00 		srli	s7,t6,6
 1223 042a 137B3700 		andi	s6,a4,3
1046:../src/nes/InfoNES.c ****       {
 1224              		.loc 1 1046 0
 1225 042e 638B0210 		beqz	t0,.L49
1050:../src/nes/InfoNES.c ****           pSprBuf[ nX ]     = bySprCol | (( tileData[1] ) & 3);
 1226              		.loc 1 1050 0
 1227 0432 630A0B00 		beqz	s6,.L50
1051:../src/nes/InfoNES.c ****         if ( ( tileData[0] ) & 3 )
 1228              		.loc 1 1051 0
 1229 0436 8D8B     		andi	a5,a5,3
 1230 0438 041C     		addi	s1,sp,560
 1231 043a B3E74701 		or	a5,a5,s4
 1232 043e B3825401 		add	t0,s1,s5
 1233 0442 2380F2DE 		sb	a5,-544(t0)
 1234              	.L50:
1052:../src/nes/InfoNES.c ****           pSprBuf[ nX + 1 ] = bySprCol | (( tileData[0] ) & 3);
 1235              		.loc 1 1052 0
 1236 0446 93F73F00 		andi	a5,t6,3
 1237 044a 89CB     		beqz	a5,.L51
1053:../src/nes/InfoNES.c ****         if ( ( tileData[1] >> 2 ) & 3 )
 1238              		.loc 1 1053 0
 1239 044c 93F33300 		andi	t2,t2,3
 1240 0450 1C1C     		addi	a5,sp,560
 1241 0452 B3E34301 		or	t2,t2,s4
 1242 0456 D697     		add	a5,a5,s5
 1243 0458 A38077DE 		sb	t2,-543(a5)
 1244              	.L51:
1054:../src/nes/InfoNES.c ****           pSprBuf[ nX + 2 ] = bySprCol | (( tileData[1] >> 2 ) & 3);
 1245              		.loc 1 1054 0
 1246 045c 93572700 		srli	a5,a4,2
 1247 0460 8D8B     		andi	a5,a5,3
 1248 0462 81CB     		beqz	a5,.L52
1055:../src/nes/InfoNES.c ****         if ( ( tileData[0] >> 2 ) & 3 )
 1249              		.loc 1 1055 0
 1250 0464 041C     		addi	s1,sp,560
 1251 0466 B3E74701 		or	a5,a5,s4
 1252 046a B3825401 		add	t0,s1,s5
 1253 046e 2381F2DE 		sb	a5,-542(t0)
 1254              	.L52:
1056:../src/nes/InfoNES.c ****           pSprBuf[ nX + 3 ] = bySprCol | (( tileData[0] >> 2 ) & 3);
 1255              		.loc 1 1056 0
 1256 0472 93D72F00 		srli	a5,t6,2
 1257 0476 8D8B     		andi	a5,a5,3
 1258 0478 81CB     		beqz	a5,.L53
1057:../src/nes/InfoNES.c ****         if ( ( tileData[1] >> 4 ) & 3 )
 1259              		.loc 1 1057 0
 1260 047a 041C     		addi	s1,sp,560
 1261 047c B3E74701 		or	a5,a5,s4
 1262 0480 B3825401 		add	t0,s1,s5
 1263 0484 A381F2DE 		sb	a5,-541(t0)
 1264              	.L53:
1058:../src/nes/InfoNES.c ****           pSprBuf[ nX + 4 ] = bySprCol | (( tileData[1] >> 4 ) & 3);
 1265              		.loc 1 1058 0
 1266 0488 93574700 		srli	a5,a4,4
 1267 048c 8D8B     		andi	a5,a5,3
 1268 048e 81CB     		beqz	a5,.L54
1059:../src/nes/InfoNES.c ****         if ( ( tileData[0] >> 4 ) & 3 )
 1269              		.loc 1 1059 0
 1270 0490 041C     		addi	s1,sp,560
 1271 0492 B3E74701 		or	a5,a5,s4
 1272 0496 B3825401 		add	t0,s1,s5
 1273 049a 2382F2DE 		sb	a5,-540(t0)
 1274              	.L54:
1060:../src/nes/InfoNES.c ****           pSprBuf[ nX + 5 ] = bySprCol | (( tileData[0] >> 4 ) & 3);
 1275              		.loc 1 1060 0
 1276 049e 93DF4F00 		srli	t6,t6,4
 1277              	.LVL89:
 1278 04a2 93FF3F00 		andi	t6,t6,3
 1279 04a6 63880F00 		beqz	t6,.L55
1061:../src/nes/InfoNES.c ****         if ( ( tileData[1] >> 6 ) & 3 )
 1280              		.loc 1 1061 0
 1281 04aa 1C1C     		addi	a5,sp,560
 1282 04ac B3EF4F01 		or	t6,t6,s4
 1283 04b0 D697     		add	a5,a5,s5
 1284 04b2 A382F7DF 		sb	t6,-539(a5)
 1285              	.L55:
1062:../src/nes/InfoNES.c ****           pSprBuf[ nX + 6 ] = bySprCol | (( tileData[1] >> 6 ) & 3);
 1286              		.loc 1 1062 0
 1287 04b6 1983     		srli	a4,a4,6
 1288              	.LVL90:
 1289 04b8 19C7     		beqz	a4,.L56
1063:../src/nes/InfoNES.c ****         if ( ( tileData[0] >> 6 ) & 3 )
 1290              		.loc 1 1063 0
 1291 04ba 1C1C     		addi	a5,sp,560
 1292 04bc 33674701 		or	a4,a4,s4
 1293 04c0 D697     		add	a5,a5,s5
 1294 04c2 2383E7DE 		sb	a4,-538(a5)
 1295              	.L56:
1064:../src/nes/InfoNES.c ****           pSprBuf[ nX + 7 ] = bySprCol | (( tileData[0] >> 6 ) & 3);
 1296              		.loc 1 1064 0
 1297 04c6 63890B00 		beqz	s7,.L44
1065:../src/nes/InfoNES.c **** #else
 1298              		.loc 1 1065 0
 1299 04ca 1C1C     		addi	a5,sp,560
 1300 04cc 33875701 		add	a4,a5,s5
 1301 04d0 B3E74B01 		or	a5,s7,s4
 1302 04d4 A303F7DE 		sb	a5,-537(a4)
 1303              	.LVL91:
 1304              	.L44:
 989:../src/nes/InfoNES.c ****     {
 1305              		.loc 1 989 0 discriminator 2
 1306 04d8 F116     		addi	a3,a3,-4
 1307              	.LVL92:
 1308 04da E3FBB6E8 		bgeu	a3,a1,.L64
1129:../src/nes/InfoNES.c ****     {
 1309              		.loc 1 1129 0
 1310 04de B247     		lw	a5,12(sp)
 1311 04e0 83C70700 		lbu	a5,0(a5)
 1312 04e4 918B     		andi	a5,a5,4
 1313 04e6 63890712 		beqz	a5,.L140
 1314              	.LVL93:
 1315              	.L65:
 1316 04ea 13070400 		addi	a4,s0,%lo(.LANCHOR41)
1141:../src/nes/InfoNES.c ****       }
 1317              		.loc 1 1141 0
 1318 04ee 37050000 		lui	a0,%hi(.LANCHOR35)
 1319 04f2 1408     		addi	a3,sp,16
 1320 04f4 93050720 		addi	a1,a4,512
 1321 04f8 13050500 		addi	a0,a0,%lo(.LANCHOR35)
 1322              	.L68:
 1323              	.LVL94:
1138:../src/nes/InfoNES.c ****       if ( nSprData  && ( nSprData & 0x80 || pPoint[ nX ] & TRANSPARENT_COLOR ) )
 1324              		.loc 1 1138 0
 1325 04fc 83C70600 		lbu	a5,0(a3)
 1326              	.LVL95:
 1327 0500 8506     		addi	a3,a3,1
 1328              	.LVL96:
1139:../src/nes/InfoNES.c ****       {
 1329              		.loc 1 1139 0
 1330 0502 13968701 		slli	a2,a5,24
 1331 0506 6186     		srai	a2,a2,24
 1332 0508 8DC3     		beqz	a5,.L66
1141:../src/nes/InfoNES.c ****       }
 1333              		.loc 1 1141 0 discriminator 1
 1334 050a BD8B     		andi	a5,a5,15
 1335              	.LVL97:
 1336 050c 93E70701 		ori	a5,a5,16
 1337 0510 8607     		slli	a5,a5,1
 1338 0512 AA97     		add	a5,a0,a5
1139:../src/nes/InfoNES.c ****       {
 1339              		.loc 1 1139 0 discriminator 1
 1340 0514 63470600 		bltz	a2,.L67
1139:../src/nes/InfoNES.c ****       {
 1341              		.loc 1 1139 0 is_stmt 0 discriminator 2
 1342 0518 03560700 		lhu	a2,0(a4)
 1343 051c 13760602 		andi	a2,a2,32
 1344 0520 09C6     		beqz	a2,.L66
 1345              	.L67:
1141:../src/nes/InfoNES.c ****       }
 1346              		.loc 1 1141 0 is_stmt 1
 1347 0522 83D70700 		lhu	a5,0(a5)
 1348 0526 2310F700 		sh	a5,0(a4)
 1349              	.L66:
 1350 052a 0907     		addi	a4,a4,2
1136:../src/nes/InfoNES.c ****     {
 1351              		.loc 1 1136 0 discriminator 2
 1352 052c E318B7FC 		bne	a4,a1,.L68
1145:../src/nes/InfoNES.c ****       PPU_R2 |= R2_MAX_SP;  // Set a flag of maximum sprites on scanline
 1353              		.loc 1 1145 0
 1354 0530 9D47     		li	a5,7
 1355 0532 E3F127D3 		bleu	s2,a5,.L34
1146:../src/nes/InfoNES.c ****   }
 1356              		.loc 1 1146 0
 1357 0536 83C70900 		lbu	a5,0(s3)
 1358 053a 93E70702 		ori	a5,a5,32
 1359 053e 2380F900 		sb	a5,0(s3)
 1360              	.LBE28:
 1361              		.loc 1 1148 0
 1362 0542 09BB     		j	.L34
 1363              	.LVL98:
 1364              	.L49:
 1365              	.LBB29:
1089:../src/nes/InfoNES.c ****           pSprBuf[ nX ]     = bySprCol | (( tileData[0] >> 6 ) & 3);
 1366              		.loc 1 1089 0
 1367 0544 63890B00 		beqz	s7,.L57
1090:../src/nes/InfoNES.c ****         if ( ( tileData[1] >> 6 ) & 3 )
 1368              		.loc 1 1090 0
 1369 0548 041C     		addi	s1,sp,560
 1370 054a B3EB4B01 		or	s7,s7,s4
 1371 054e B3825401 		add	t0,s1,s5
 1372 0552 238072DF 		sb	s7,-544(t0)
 1373              	.L57:
1091:../src/nes/InfoNES.c ****           pSprBuf[ nX + 1 ] = bySprCol | (( tileData[1] >> 6 ) & 3);
 1374              		.loc 1 1091 0
 1375 0556 93526700 		srli	t0,a4,6
 1376 055a 63890200 		beqz	t0,.L58
1092:../src/nes/InfoNES.c ****         if ( ( tileData[0] >> 4 ) & 3 )
 1377              		.loc 1 1092 0
 1378 055e 041C     		addi	s1,sp,560
 1379 0560 B3E24201 		or	t0,t0,s4
 1380 0564 B38B5401 		add	s7,s1,s5
 1381 0568 A3805BDE 		sb	t0,-543(s7)
 1382              	.L58:
1093:../src/nes/InfoNES.c ****           pSprBuf[ nX + 2 ] = bySprCol | (( tileData[0] >> 4 ) & 3);
 1383              		.loc 1 1093 0
 1384 056c 93D24F00 		srli	t0,t6,4
 1385 0570 93F23200 		andi	t0,t0,3
 1386 0574 63890200 		beqz	t0,.L59
1094:../src/nes/InfoNES.c ****         if ( ( tileData[1] >> 4 ) & 3 )
 1387              		.loc 1 1094 0
 1388 0578 041C     		addi	s1,sp,560
 1389 057a B3E24201 		or	t0,t0,s4
 1390 057e B38B5401 		add	s7,s1,s5
 1391 0582 23815BDE 		sb	t0,-542(s7)
 1392              	.L59:
1095:../src/nes/InfoNES.c ****           pSprBuf[ nX + 3 ] = bySprCol | (( tileData[1] >> 4 ) & 3);
 1393              		.loc 1 1095 0
 1394 0586 93524700 		srli	t0,a4,4
 1395 058a 93F23200 		andi	t0,t0,3
 1396 058e 63890200 		beqz	t0,.L60
1096:../src/nes/InfoNES.c ****         if ( ( tileData[0] >> 2 ) & 3 )
 1397              		.loc 1 1096 0
 1398 0592 041C     		addi	s1,sp,560
 1399 0594 B3E24201 		or	t0,t0,s4
 1400 0598 B38B5401 		add	s7,s1,s5
 1401 059c A3815BDE 		sb	t0,-541(s7)
 1402              	.L60:
1097:../src/nes/InfoNES.c ****           pSprBuf[ nX + 4 ] = bySprCol | (( tileData[0] >> 2 ) & 3);
 1403              		.loc 1 1097 0
 1404 05a0 93D22F00 		srli	t0,t6,2
 1405 05a4 93F23200 		andi	t0,t0,3
 1406 05a8 63890200 		beqz	t0,.L61
1098:../src/nes/InfoNES.c ****         if ( ( tileData[1] >> 2 ) & 3 )
 1407              		.loc 1 1098 0
 1408 05ac 041C     		addi	s1,sp,560
 1409 05ae B3E24201 		or	t0,t0,s4
 1410 05b2 B38B5401 		add	s7,s1,s5
 1411 05b6 23825BDE 		sb	t0,-540(s7)
 1412              	.L61:
1099:../src/nes/InfoNES.c ****           pSprBuf[ nX + 5 ] = bySprCol | (( tileData[1] >> 2 ) & 3);
 1413              		.loc 1 1099 0
 1414 05ba 0983     		srli	a4,a4,2
 1415              	.LVL99:
 1416 05bc 0D8B     		andi	a4,a4,3
 1417 05be 01CB     		beqz	a4,.L62
1100:../src/nes/InfoNES.c ****         if ( ( tileData[0] ) & 3 )
 1418              		.loc 1 1100 0
 1419 05c0 041C     		addi	s1,sp,560
 1420 05c2 33674701 		or	a4,a4,s4
 1421 05c6 B3825401 		add	t0,s1,s5
 1422 05ca A382E2DE 		sb	a4,-539(t0)
 1423              	.L62:
1101:../src/nes/InfoNES.c ****           pSprBuf[ nX + 6 ] = bySprCol | (( tileData[0] ) & 3);
 1424              		.loc 1 1101 0
 1425 05ce 93FF3F00 		andi	t6,t6,3
 1426              	.LVL100:
 1427 05d2 638A0F00 		beqz	t6,.L63
1102:../src/nes/InfoNES.c ****         if ( ( tileData[1] ) & 3 )
 1428              		.loc 1 1102 0
 1429 05d6 93F33300 		andi	t2,t2,3
 1430              	.LVL101:
 1431 05da 181C     		addi	a4,sp,560
 1432 05dc B3E34301 		or	t2,t2,s4
 1433 05e0 5697     		add	a4,a4,s5
 1434 05e2 230377DE 		sb	t2,-538(a4)
 1435              	.L63:
1103:../src/nes/InfoNES.c ****           pSprBuf[ nX + 7 ] = bySprCol | (( tileData[1] ) & 3);
 1436              		.loc 1 1103 0
 1437 05e6 E3090BEE 		beqz	s6,.L44
1104:../src/nes/InfoNES.c **** #else
 1438              		.loc 1 1104 0
 1439 05ea 8D8B     		andi	a5,a5,3
 1440              	.LVL102:
 1441 05ec 181C     		addi	a4,sp,560
 1442 05ee 5697     		add	a4,a4,s5
 1443 05f0 B3E74701 		or	a5,a5,s4
 1444 05f4 A303F7DE 		sb	a5,-537(a4)
 1445 05f8 C5B5     		j	.L44
 1446              	.LVL103:
 1447              	.L46:
1033:../src/nes/InfoNES.c **** #else
 1448              		.loc 1 1033 0
 1449 05fa 9E97     		add	a5,a5,t2
 1450              	.LVL104:
 1451 05fc F297     		add	a5,t3,a5
 1452              	.LVL105:
 1453 05fe E1BB     		j	.L48
 1454              	.LVL106:
 1455              	.L136:
 1456              	.LBE29:
 860:../src/nes/InfoNES.c ****   }
 1457              		.loc 1 860 0
 1458 0600 37040000 		lui	s0,%hi(.LANCHOR41)
 1459 0604 13060020 		li	a2,512
 1460 0608 8145     		li	a1,0
 1461 060a 13050400 		addi	a0,s0,%lo(.LANCHOR41)
 1462 060e 97000000 		call	InfoNES_MemorySet
 1462      E7800000 
 1463              	.LVL107:
 1464 0616 25B1     		j	.L36
 1465              	.LVL108:
 1466              	.L140:
 1467              	.LBB30:
1131:../src/nes/InfoNES.c ****     }
 1468              		.loc 1 1131 0
 1469 0618 2146     		li	a2,8
 1470 061a 8145     		li	a1,0
 1471 061c 0808     		addi	a0,sp,16
 1472 061e 97000000 		call	InfoNES_MemorySet
 1472      E7800000 
 1473              	.LVL109:
 1474 0626 D1B5     		j	.L65
 1475              	.LBE30:
 1476              		.cfi_endproc
 1477              	.LFE10:
 1479              		.section	.text.InfoNES_GetSprHitY,"ax",@progbits
 1480              		.align	1
 1481              		.globl	InfoNES_GetSprHitY
 1483              	InfoNES_GetSprHitY:
 1484              	.LFB11:
1149:../src/nes/InfoNES.c **** 
1150:../src/nes/InfoNES.c **** /*===================================================================*/
1151:../src/nes/InfoNES.c **** /*                                                                   */
1152:../src/nes/InfoNES.c **** /* InfoNES_GetSprHitY() : Get a position of scanline hits sprite #0  */
1153:../src/nes/InfoNES.c **** /*                                                                   */
1154:../src/nes/InfoNES.c **** /*===================================================================*/
1155:../src/nes/InfoNES.c **** void InfoNES_GetSprHitY()
1156:../src/nes/InfoNES.c **** {
 1485              		.loc 1 1156 0
 1486              		.cfi_startproc
1157:../src/nes/InfoNES.c **** /*
1158:../src/nes/InfoNES.c ****  * Get a position of scanline hits sprite #0
1159:../src/nes/InfoNES.c ****  *
1160:../src/nes/InfoNES.c ****  */
1161:../src/nes/InfoNES.c ****   int nYBit;
1162:../src/nes/InfoNES.c **** 	int nLine;
1163:../src/nes/InfoNES.c **** #ifdef RAM_LACK
1164:../src/nes/InfoNES.c ****   BYTE *pbyChrData;
1165:../src/nes/InfoNES.c **** #else
1166:../src/nes/InfoNES.c ****   DWORD *pdwChrData;
1167:../src/nes/InfoNES.c **** #endif
1168:../src/nes/InfoNES.c ****   int nOff;
1169:../src/nes/InfoNES.c **** 
1170:../src/nes/InfoNES.c ****   if ( SPRRAM[ SPR_ATTR ] & SPR_ATTR_V_FLIP )
 1487              		.loc 1 1170 0
 1488 0000 B7060000 		lui	a3,%hi(.LANCHOR1)
 1489 0004 93860600 		addi	a3,a3,%lo(.LANCHOR1)
 1490 0008 83872600 		lb	a5,2(a3)
 1491 000c 63C1070E 		bltz	a5,.L157
 1492 0010 0146     		li	a2,0
1171:../src/nes/InfoNES.c ****   {
1172:../src/nes/InfoNES.c ****     // Vertical flip
1173:../src/nes/InfoNES.c ****     nYBit = ( PPU_SP_Height - 1 );
1174:../src/nes/InfoNES.c **** #ifdef RAM_LACK
1175:../src/nes/InfoNES.c ****     nOff = -1;
1176:../src/nes/InfoNES.c **** #else
1177:../src/nes/InfoNES.c ****     nYBit <<= 3;
1178:../src/nes/InfoNES.c ****     nOff = -2;
1179:../src/nes/InfoNES.c **** #endif /* RAM_LACK */
1180:../src/nes/InfoNES.c ****   }
1181:../src/nes/InfoNES.c ****   else
1182:../src/nes/InfoNES.c ****   {
1183:../src/nes/InfoNES.c ****     // Non flip
1184:../src/nes/InfoNES.c ****     nYBit = 0;
1185:../src/nes/InfoNES.c **** #ifdef RAM_LACK
1186:../src/nes/InfoNES.c ****     nOff = 1;
 1493              		.loc 1 1186 0
 1494 0012 0548     		li	a6,1
1184:../src/nes/InfoNES.c **** #ifdef RAM_LACK
 1495              		.loc 1 1184 0
 1496 0014 0147     		li	a4,0
 1497              	.L142:
 1498              	.LVL110:
1187:../src/nes/InfoNES.c **** #else
1188:../src/nes/InfoNES.c ****     nOff = 2;
1189:../src/nes/InfoNES.c **** #endif /* RAM_LACK */
1190:../src/nes/InfoNES.c ****   }
1191:../src/nes/InfoNES.c **** 
1192:../src/nes/InfoNES.c ****   if ( PPU_R0 & R0_SP_SIZE )
 1499              		.loc 1 1192 0
 1500 0016 B7070000 		lui	a5,%hi(.LANCHOR6)
 1501 001a 83C50700 		lbu	a1,%lo(.LANCHOR6)(a5)
 1502 001e 03C51600 		lbu	a0,1(a3)
 1503 0022 93F50502 		andi	a1,a1,32
 1504 0026 93184500 		slli	a7,a0,4
 1505 002a A1C5     		beqz	a1,.L143
 1506 002c 93171700 		slli	a5,a4,1
 1507 0030 0567     		li	a4,4096
 1508              	.LVL111:
 1509 0032 0117     		addi	a4,a4,-32
 1510 0034 C18B     		andi	a5,a5,16
 1511 0036 B3F8E800 		and	a7,a7,a4
 1512 003a B3E71701 		or	a5,a5,a7
 1513 003e 1D8A     		andi	a2,a2,7
1193:../src/nes/InfoNES.c ****   {
1194:../src/nes/InfoNES.c ****     // Sprite size 8x16
1195:../src/nes/InfoNES.c ****     if ( SPRRAM[ SPR_CHR ] & 1 )
 1514              		.loc 1 1195 0
 1515 0040 0589     		andi	a0,a0,1
 1516 0042 B297     		add	a5,a5,a2
 1517 0044 49C5     		beqz	a0,.L144
1196:../src/nes/InfoNES.c ****     {
1197:../src/nes/InfoNES.c **** #ifdef RAM_LACK
1198:../src/nes/InfoNES.c ****       pbyChrData = ( PPUBANK[ 4 ] + ( ( SPRRAM[ SPR_CHR ] & 0xfe ) << 4 ) + ((nYBit & 0x8) << 1) + 
 1518              		.loc 1 1198 0
 1519 0046 37070000 		lui	a4,%hi(.LANCHOR22+16)
 1520 004a 03270701 		lw	a4,%lo(.LANCHOR22+16)(a4)
1199:../src/nes/InfoNES.c **** #else
1200:../src/nes/InfoNES.c ****       pdwChrData = (DWORD *)( ChrBuf + 256 * 64 + ( ( SPRRAM[ SPR_CHR ] & 0xfe ) << 6 ) + nYBit );
1201:../src/nes/InfoNES.c **** #endif /* RAM_LACK */
1202:../src/nes/InfoNES.c ****     }
1203:../src/nes/InfoNES.c ****     else
1204:../src/nes/InfoNES.c ****     {
1205:../src/nes/InfoNES.c **** #ifdef RAM_LACK
1206:../src/nes/InfoNES.c ****       pbyChrData = ( PPUBANK[ 0 ] + ( ( SPRRAM[ SPR_CHR ] & 0xfe ) << 4 ) + ((nYBit & 0x8) << 1) + 
1207:../src/nes/InfoNES.c **** #else
1208:../src/nes/InfoNES.c ****       pdwChrData = (DWORD * )( ChrBuf + ( ( SPRRAM[ SPR_CHR ] & 0xfe ) << 6 ) + nYBit );
1209:../src/nes/InfoNES.c **** #endif /* RAM_LACK */
1210:../src/nes/InfoNES.c ****     } 
1211:../src/nes/InfoNES.c ****   }
1212:../src/nes/InfoNES.c ****   else
1213:../src/nes/InfoNES.c ****   {
1214:../src/nes/InfoNES.c ****     // Sprite size 8x8
1215:../src/nes/InfoNES.c **** #ifdef RAM_LACK
1216:../src/nes/InfoNES.c ****     pbyChrData = ( PPU_SP_Base + ( SPRRAM[ SPR_CHR ] << 4 ) + nYBit );
1217:../src/nes/InfoNES.c **** #else
1218:../src/nes/InfoNES.c ****     pdwChrData = (DWORD *)( PPU_SP_Base + ( SPRRAM[ SPR_CHR ] << 6 ) + nYBit );
1219:../src/nes/InfoNES.c **** #endif /* RAM_LACK */
1220:../src/nes/InfoNES.c ****   }
1221:../src/nes/InfoNES.c **** 
1222:../src/nes/InfoNES.c ****   if ( ( SPRRAM[ SPR_Y ] + 1 <= SCAN_UNKNOWN_START ) && ( SPRRAM[SPR_Y] > 0 ) )
 1521              		.loc 1 1222 0
 1522 004e 03C60600 		lbu	a2,0(a3)
 1523 0052 9306E00E 		li	a3,238
1198:../src/nes/InfoNES.c **** #else
 1524              		.loc 1 1198 0
 1525 0056 BA97     		add	a5,a4,a5
 1526              	.LVL112:
 1527              		.loc 1 1222 0
 1528 0058 1307F6FF 		addi	a4,a2,-1
 1529 005c 1377F70F 		andi	a4,a4,0xff
 1530 0060 63F9E602 		bleu	a4,a3,.L158
 1531              	.L146:
1223:../src/nes/InfoNES.c **** 	{
1224:../src/nes/InfoNES.c **** 		for ( nLine = 0; nLine < PPU_SP_Height; nLine++ )
1225:../src/nes/InfoNES.c **** 		{
1226:../src/nes/InfoNES.c **** #ifdef RAM_LACK
1227:../src/nes/InfoNES.c **** 			if ( pbyChrData[ 0 ] | pbyChrData[ 8 ] )
1228:../src/nes/InfoNES.c **** #else
1229:../src/nes/InfoNES.c **** 			if ( pdwChrData[ 0 ] | pdwChrData[ 1 ] )
1230:../src/nes/InfoNES.c **** #endif /* RAM_LACK */
1231:../src/nes/InfoNES.c **** 			{
1232:../src/nes/InfoNES.c ****         // Scanline hits sprite #0
1233:../src/nes/InfoNES.c **** 				SpriteJustHit = SPRRAM[SPR_Y] + 1 + nLine;
1234:../src/nes/InfoNES.c **** 				nLine = SCAN_VBLANK_END;
1235:../src/nes/InfoNES.c **** 			}
1236:../src/nes/InfoNES.c **** #ifdef RAM_LACK
1237:../src/nes/InfoNES.c ****       if( nLine == 7)
1238:../src/nes/InfoNES.c ****       {
1239:../src/nes/InfoNES.c ****         pbyChrData += nOff * 9;
1240:../src/nes/InfoNES.c ****       }
1241:../src/nes/InfoNES.c ****       else
1242:../src/nes/InfoNES.c ****       {
1243:../src/nes/InfoNES.c ****         pbyChrData += nOff;
1244:../src/nes/InfoNES.c ****       }
1245:../src/nes/InfoNES.c **** #else
1246:../src/nes/InfoNES.c **** 			pdwChrData += nOff;
1247:../src/nes/InfoNES.c **** #endif /* RAM_LACK */
1248:../src/nes/InfoNES.c **** 		}
1249:../src/nes/InfoNES.c ****   } else {
1250:../src/nes/InfoNES.c ****     // Scanline didn't hit sprite #0
1251:../src/nes/InfoNES.c **** 		SpriteJustHit = SCAN_UNKNOWN_START + 1;
 1532              		.loc 1 1251 0
 1533 0064 B7070000 		lui	a5,%hi(.LANCHOR18)
 1534              	.LVL113:
 1535 0068 1307100F 		li	a4,241
 1536 006c 23A0E700 		sw	a4,%lo(.LANCHOR18)(a5)
 1537              	.L141:
1252:../src/nes/InfoNES.c ****   }
1253:../src/nes/InfoNES.c **** }
 1538              		.loc 1 1253 0
 1539 0070 8280     		ret
 1540              	.LVL114:
 1541              	.L143:
1216:../src/nes/InfoNES.c **** #else
 1542              		.loc 1 1216 0
 1543 0072 B7070000 		lui	a5,%hi(.LANCHOR23)
 1544 0076 83A70700 		lw	a5,%lo(.LANCHOR23)(a5)
 1545 007a 4696     		add	a2,a2,a7
 1546 007c B297     		add	a5,a5,a2
 1547              	.LVL115:
 1548              	.L145:
1222:../src/nes/InfoNES.c **** 	{
 1549              		.loc 1 1222 0
 1550 007e 03C60600 		lbu	a2,0(a3)
 1551 0082 9306E00E 		li	a3,238
 1552 0086 1307F6FF 		addi	a4,a2,-1
 1553 008a 1377F70F 		andi	a4,a4,0xff
 1554 008e E3EBE6FC 		bgtu	a4,a3,.L146
 1555              	.L158:
 1556              	.LVL116:
1224:../src/nes/InfoNES.c **** 		{
 1557              		.loc 1 1224 0
 1558 0092 37070000 		lui	a4,%hi(.LANCHOR24)
 1559 0096 83580700 		lhu	a7,%lo(.LANCHOR24)(a4)
 1560 009a E38B08FC 		beqz	a7,.L141
1239:../src/nes/InfoNES.c ****       }
 1561              		.loc 1 1239 0
 1562 009e 931E3800 		slli	t4,a6,3
 1563 00a2 C29E     		add	t4,t4,a6
1224:../src/nes/InfoNES.c **** 		{
 1564              		.loc 1 1224 0
 1565 00a4 8146     		li	a3,0
1237:../src/nes/InfoNES.c ****       {
 1566              		.loc 1 1237 0
 1567 00a6 1D4E     		li	t3,7
1233:../src/nes/InfoNES.c **** 				nLine = SCAN_VBLANK_END;
 1568              		.loc 1 1233 0
 1569 00a8 37030000 		lui	t1,%hi(.LANCHOR18)
 1570 00ac 0506     		addi	a2,a2,1
 1571              	.LVL117:
 1572              	.L153:
1227:../src/nes/InfoNES.c **** #else
 1573              		.loc 1 1227 0
 1574 00ae 03C70700 		lbu	a4,0(a5)
 1575 00b2 83C58700 		lbu	a1,8(a5)
1233:../src/nes/InfoNES.c **** 				nLine = SCAN_VBLANK_END;
 1576              		.loc 1 1233 0
 1577 00b6 3305D600 		add	a0,a2,a3
1227:../src/nes/InfoNES.c **** #else
 1578              		.loc 1 1227 0
 1579 00ba 4D8F     		or	a4,a4,a1
 1580 00bc 19CF     		beqz	a4,.L149
1233:../src/nes/InfoNES.c **** 				nLine = SCAN_VBLANK_END;
 1581              		.loc 1 1233 0
 1582 00be 2320A300 		sw	a0,%lo(.LANCHOR18)(t1)
 1583              	.LVL118:
 1584 00c2 93067010 		li	a3,263
1243:../src/nes/InfoNES.c ****       }
 1585              		.loc 1 1243 0
 1586 00c6 C297     		add	a5,a5,a6
 1587              	.LVL119:
 1588              	.L152:
1224:../src/nes/InfoNES.c **** 		{
 1589              		.loc 1 1224 0 discriminator 2
 1590 00c8 E3C316FF 		bgt	a7,a3,.L153
 1591              	.L160:
 1592 00cc 8280     		ret
 1593              	.LVL120:
 1594              	.L144:
1206:../src/nes/InfoNES.c **** #else
 1595              		.loc 1 1206 0
 1596 00ce 37070000 		lui	a4,%hi(.LANCHOR22)
 1597 00d2 03270700 		lw	a4,%lo(.LANCHOR22)(a4)
 1598 00d6 BA97     		add	a5,a4,a5
 1599              	.LVL121:
 1600 00d8 5DB7     		j	.L145
 1601              	.LVL122:
 1602              	.L149:
1237:../src/nes/InfoNES.c ****       {
 1603              		.loc 1 1237 0
 1604 00da 6385C601 		beq	a3,t3,.L159
 1605 00de 8506     		addi	a3,a3,1
 1606              	.LVL123:
1243:../src/nes/InfoNES.c ****       }
 1607              		.loc 1 1243 0
 1608 00e0 C297     		add	a5,a5,a6
 1609              	.LVL124:
 1610 00e2 DDB7     		j	.L152
 1611              	.LVL125:
 1612              	.L159:
 1613 00e4 A146     		li	a3,8
 1614              	.LVL126:
1239:../src/nes/InfoNES.c ****       }
 1615              		.loc 1 1239 0
 1616 00e6 F697     		add	a5,a5,t4
 1617              	.LVL127:
1224:../src/nes/InfoNES.c **** 		{
 1618              		.loc 1 1224 0
 1619 00e8 E3C316FD 		bgt	a7,a3,.L153
 1620 00ec C5B7     		j	.L160
 1621              	.LVL128:
 1622              	.L157:
1173:../src/nes/InfoNES.c **** #ifdef RAM_LACK
 1623              		.loc 1 1173 0
 1624 00ee B7070000 		lui	a5,%hi(.LANCHOR24)
 1625 00f2 03D70700 		lhu	a4,%lo(.LANCHOR24)(a5)
1175:../src/nes/InfoNES.c **** #else
 1626              		.loc 1 1175 0
 1627 00f6 7D58     		li	a6,-1
1173:../src/nes/InfoNES.c **** #ifdef RAM_LACK
 1628              		.loc 1 1173 0
 1629 00f8 7D17     		addi	a4,a4,-1
 1630              	.LVL129:
 1631 00fa 3A86     		mv	a2,a4
 1632 00fc 29BF     		j	.L142
 1633              		.cfi_endproc
 1634              	.LFE11:
 1636              		.section	.text.InfoNES_HSync,"ax",@progbits
 1637              		.align	1
 1638              		.globl	InfoNES_HSync
 1640              	InfoNES_HSync:
 1641              	.LFB9:
 695:../src/nes/InfoNES.c **** /*
 1642              		.loc 1 695 0
 1643              		.cfi_startproc
 1644 0000 4111     		addi	sp,sp,-16
 1645              		.cfi_def_cfa_offset 16
 1646 0002 26C2     		sw	s1,4(sp)
 1647              		.cfi_offset 9, -12
 707:../src/nes/InfoNES.c ****   {
 1648              		.loc 1 707 0
 1649 0004 B7040000 		lui	s1,%hi(.LANCHOR34)
 1650 0008 93840400 		addi	s1,s1,%lo(.LANCHOR34)
 1651 000c 03D70400 		lhu	a4,0(s1)
 695:../src/nes/InfoNES.c **** /*
 1652              		.loc 1 695 0
 1653 0010 22C4     		sw	s0,8(sp)
 1654              		.cfi_offset 8, -8
 1655 0012 37040000 		lui	s0,%hi(.LANCHOR16)
 1656 0016 13040400 		addi	s0,s0,%lo(.LANCHOR16)
 1657 001a 06C6     		sw	ra,12(sp)
 1658              		.cfi_offset 1, -4
 1659 001c 83570400 		lhu	a5,0(s0)
 707:../src/nes/InfoNES.c ****   {
 1660              		.loc 1 707 0
 1661 0020 19EB     		bnez	a4,.L162
 707:../src/nes/InfoNES.c ****   {
 1662              		.loc 1 707 0 is_stmt 0 discriminator 1
 1663 0022 37070000 		lui	a4,%hi(.LANCHOR0)
 1664 0026 13070700 		addi	a4,a4,%lo(.LANCHOR0)
 1665 002a 3E97     		add	a4,a4,a5
 1666 002c 83460700 		lbu	a3,0(a4)
 1667 0030 0547     		li	a4,1
 1668 0032 6385E618 		beq	a3,a4,.L187
 1669              	.L162:
 721:../src/nes/InfoNES.c **** 	if( PPU_R1 & (R1_SHOW_SCR|R1_SHOW_SP) ) {
 1670              		.loc 1 721 0 is_stmt 1
 1671 0036 13076010 		li	a4,262
 1672 003a 6383E70A 		beq	a5,a4,.L163
 722:../src/nes/InfoNES.c **** 		if( (loopy_v & 0x7000) == 0x7000 ) {
 1673              		.loc 1 722 0 discriminator 1
 1674 003e 37070000 		lui	a4,%hi(.LANCHOR5)
 1675 0042 83460700 		lbu	a3,%lo(.LANCHOR5)(a4)
 721:../src/nes/InfoNES.c **** 	if( PPU_R1 & (R1_SHOW_SCR|R1_SHOW_SP) ) {
 1676              		.loc 1 721 0 discriminator 1
 1677 0046 8507     		addi	a5,a5,1
 1678 0048 13970701 		slli	a4,a5,16
 1679 004c 4183     		srli	a4,a4,16
 1680 004e 2310E400 		sh	a4,0(s0)
 722:../src/nes/InfoNES.c **** 		if( (loopy_v & 0x7000) == 0x7000 ) {
 1681              		.loc 1 722 0 discriminator 1
 1682 0052 93F78601 		andi	a5,a3,24
 1683 0056 D1EF     		bnez	a5,.L177
 755:../src/nes/InfoNES.c ****   {
 1684              		.loc 1 755 0
 1685 0058 630D0714 		beqz	a4,.L175
 1686              	.L185:
 1687 005c 9307300F 		li	a5,243
 1688 0060 6318F710 		bne	a4,a5,.L186
 794:../src/nes/InfoNES.c **** 
 1689              		.loc 1 794 0
 1690 0064 37070000 		lui	a4,%hi(.LANCHOR33)
 1691 0068 83560700 		lhu	a3,%lo(.LANCHOR33)(a4)
 1692 006c 83D70400 		lhu	a5,0(s1)
 1693 0070 0147     		li	a4,0
 1694 0072 63EBD712 		bgtu	a3,a5,.L188
 1695              	.L173:
 809:../src/nes/InfoNES.c **** 
 1696              		.loc 1 809 0 discriminator 4
 1697 0076 B7070000 		lui	a5,%hi(MapperVSync)
 1698 007a 83A70700 		lw	a5,%lo(MapperVSync)(a5)
 797:../src/nes/InfoNES.c **** 
 1699              		.loc 1 797 0 discriminator 4
 1700 007e 930600F8 		li	a3,-128
 794:../src/nes/InfoNES.c **** 
 1701              		.loc 1 794 0 discriminator 4
 1702 0082 2390E400 		sh	a4,0(s1)
 797:../src/nes/InfoNES.c **** 
 1703              		.loc 1 797 0 discriminator 4
 1704 0086 37070000 		lui	a4,%hi(.LANCHOR4)
 1705 008a 2300D700 		sb	a3,%lo(.LANCHOR4)(a4)
 800:../src/nes/InfoNES.c **** 
 1706              		.loc 1 800 0 discriminator 4
 1707 008e 37070000 		lui	a4,%hi(.LANCHOR7)
 1708 0092 23000700 		sb	zero,%lo(.LANCHOR7)(a4)
 809:../src/nes/InfoNES.c **** 
 1709              		.loc 1 809 0 discriminator 4
 1710 0096 8297     		jalr	a5
 1711              	.LVL130:
 812:../src/nes/InfoNES.c ****       
 1712              		.loc 1 812 0 discriminator 4
 1713 0098 37040000 		lui	s0,%hi(.LANCHOR36)
 1714 009c B7050000 		lui	a1,%hi(.LANCHOR37)
 1715 00a0 37050000 		lui	a0,%hi(.LANCHOR38)
 1716 00a4 13060400 		addi	a2,s0,%lo(.LANCHOR36)
 1717 00a8 93850500 		addi	a1,a1,%lo(.LANCHOR37)
 1718 00ac 13050500 		addi	a0,a0,%lo(.LANCHOR38)
 1719 00b0 97000000 		call	InfoNES_PadState
 1719      E7800000 
 1720              	.LVL131:
 815:../src/nes/InfoNES.c ****         NMI_REQ;
 1721              		.loc 1 815 0 discriminator 4
 1722 00b8 B7070000 		lui	a5,%hi(.LANCHOR6)
 1723 00bc 83870700 		lb	a5,%lo(.LANCHOR6)(a5)
 1724 00c0 63D60700 		bgez	a5,.L174
 816:../src/nes/InfoNES.c **** 
 1725              		.loc 1 816 0
 1726 00c4 B7070000 		lui	a5,%hi(NMI_State)
 1727 00c8 23800700 		sb	zero,%lo(NMI_State)(a5)
 1728              	.L174:
 819:../src/nes/InfoNES.c ****         return -1;  // Exit an emulation      
 1729              		.loc 1 819 0
 1730 00cc 03250400 		lw	a0,%lo(.LANCHOR36)(s0)
 827:../src/nes/InfoNES.c **** 
 1731              		.loc 1 827 0
 1732 00d0 B240     		lw	ra,12(sp)
 1733              		.cfi_remember_state
 1734              		.cfi_restore 1
 1735 00d2 2244     		lw	s0,8(sp)
 1736              		.cfi_restore 8
 819:../src/nes/InfoNES.c ****         return -1;  // Exit an emulation      
 1737              		.loc 1 819 0
 1738 00d4 0589     		andi	a0,a0,1
 827:../src/nes/InfoNES.c **** 
 1739              		.loc 1 827 0
 1740 00d6 9244     		lw	s1,4(sp)
 1741              		.cfi_restore 9
 819:../src/nes/InfoNES.c ****         return -1;  // Exit an emulation      
 1742              		.loc 1 819 0
 1743 00d8 3305A040 		sub	a0,zero,a0
 827:../src/nes/InfoNES.c **** 
 1744              		.loc 1 827 0
 1745 00dc 4101     		addi	sp,sp,16
 1746              		.cfi_def_cfa_offset 0
 1747 00de 8280     		jr	ra
 1748              	.L163:
 1749              		.cfi_restore_state
 722:../src/nes/InfoNES.c **** 		if( (loopy_v & 0x7000) == 0x7000 ) {
 1750              		.loc 1 722 0
 1751 00e0 B7070000 		lui	a5,%hi(.LANCHOR5)
 1752 00e4 83C70700 		lbu	a5,%lo(.LANCHOR5)(a5)
 721:../src/nes/InfoNES.c **** 	if( PPU_R1 & (R1_SHOW_SCR|R1_SHOW_SP) ) {
 1753              		.loc 1 721 0
 1754 00e8 23100400 		sh	zero,0(s0)
 1755 00ec 0147     		li	a4,0
 722:../src/nes/InfoNES.c **** 		if( (loopy_v & 0x7000) == 0x7000 ) {
 1756              		.loc 1 722 0
 1757 00ee E18B     		andi	a5,a5,24
 1758 00f0 E9C3     		beqz	a5,.L175
 1759              	.L177:
 723:../src/nes/InfoNES.c **** 			loopy_v &= 0x8FFF;
 1760              		.loc 1 723 0
 1761 00f2 B7060000 		lui	a3,%hi(.LANCHOR12)
 1762 00f6 93860600 		addi	a3,a3,%lo(.LANCHOR12)
 1763 00fa 83D70600 		lhu	a5,0(a3)
 1764 00fe 1D66     		li	a2,28672
 1765 0100 9D65     		li	a1,28672
 1766 0102 7D8E     		and	a2,a5,a2
 1767 0104 630CB606 		beq	a2,a1,.L189
 736:../src/nes/InfoNES.c **** 		}
 1768              		.loc 1 736 0
 1769 0108 0566     		li	a2,4096
 1770 010a B297     		add	a5,a5,a2
 1771 010c C207     		slli	a5,a5,16
 1772 010e C183     		srli	a5,a5,16
 1773              	.L167:
 745:../src/nes/InfoNES.c **** 	  loopy_shift = loopy_x;
 1774              		.loc 1 745 0
 1775 0110 37060000 		lui	a2,%hi(.LANCHOR11)
 1776 0114 03550600 		lhu	a0,%lo(.LANCHOR11)(a2)
 1777 0118 93F707BE 		andi	a5,a5,-1056
 1778 011c 1376F541 		andi	a2,a0,1055
 1779 0120 D18F     		or	a5,a5,a2
 746:../src/nes/InfoNES.c **** 	  loopy_y = (loopy_v&0x7000)>>12;
 1780              		.loc 1 746 0
 1781 0122 37060000 		lui	a2,%hi(.LANCHOR14)
 1782 0126 03580600 		lhu	a6,%lo(.LANCHOR14)(a2)
 747:../src/nes/InfoNES.c **** 
 1783              		.loc 1 747 0
 1784 012a 93D5C740 		srai	a1,a5,12
 1785 012e 37060000 		lui	a2,%hi(.LANCHOR13)
 1786 0132 13060600 		addi	a2,a2,%lo(.LANCHOR13)
 1787 0136 9D89     		andi	a1,a1,7
 745:../src/nes/InfoNES.c **** 	  loopy_shift = loopy_x;
 1788              		.loc 1 745 0
 1789 0138 2390F600 		sh	a5,0(a3)
 746:../src/nes/InfoNES.c **** 	  loopy_y = (loopy_v&0x7000)>>12;
 1790              		.loc 1 746 0
 1791 013c B7070000 		lui	a5,%hi(.LANCHOR15)
 1792 0140 23900701 		sh	a6,%lo(.LANCHOR15)(a5)
 747:../src/nes/InfoNES.c **** 
 1793              		.loc 1 747 0
 1794 0144 2310B600 		sh	a1,0(a2)
 755:../src/nes/InfoNES.c ****   {
 1795              		.loc 1 755 0
 1796 0148 11FB     		bnez	a4,.L185
 764:../src/nes/InfoNES.c **** 		}
 1797              		.loc 1 764 0
 1798 014a 9357C540 		srai	a5,a0,12
 1799 014e 9D8B     		andi	a5,a5,7
 759:../src/nes/InfoNES.c **** 
 1800              		.loc 1 759 0
 1801 0150 37070000 		lui	a4,%hi(.LANCHOR4)
 1802 0154 23000700 		sb	zero,%lo(.LANCHOR4)(a4)
 762:../src/nes/InfoNES.c **** 			loopy_shift = loopy_x;
 1803              		.loc 1 762 0
 1804 0158 2390A600 		sh	a0,0(a3)
 764:../src/nes/InfoNES.c **** 		}
 1805              		.loc 1 764 0
 1806 015c 2310F600 		sh	a5,0(a2)
 1807              	.L176:
 773:../src/nes/InfoNES.c **** 	  FrameScanLine = 0;
 1808              		.loc 1 773 0
 1809 0160 97000000 		call	InfoNES_GetSprHitY
 1809      E7800000 
 1810              	.LVL132:
 774:../src/nes/InfoNES.c ****       break;
 1811              		.loc 1 774 0
 1812 0168 B7070000 		lui	a5,%hi(.LANCHOR17)
 1813 016c 23900700 		sh	zero,%lo(.LANCHOR17)(a5)
 1814              	.L186:
 827:../src/nes/InfoNES.c **** 
 1815              		.loc 1 827 0
 1816 0170 B240     		lw	ra,12(sp)
 1817              		.cfi_remember_state
 1818              		.cfi_restore 1
 1819 0172 2244     		lw	s0,8(sp)
 1820              		.cfi_restore 8
 1821 0174 9244     		lw	s1,4(sp)
 1822              		.cfi_restore 9
 826:../src/nes/InfoNES.c **** }
 1823              		.loc 1 826 0
 1824 0176 0145     		li	a0,0
 827:../src/nes/InfoNES.c **** 
 1825              		.loc 1 827 0
 1826 0178 4101     		addi	sp,sp,16
 1827              		.cfi_def_cfa_offset 0
 1828 017a 8280     		jr	ra
 1829              	.L189:
 1830              		.cfi_restore_state
 724:../src/nes/InfoNES.c **** 			if( (loopy_v & 0x03E0) == 0x03A0 ) {
 1831              		.loc 1 724 0
 1832 017c E575     		li	a1,-28672
 1833 017e 1386F5FF 		addi	a2,a1,-1
 1834 0182 13F5073E 		andi	a0,a5,992
 725:../src/nes/InfoNES.c **** 				loopy_v ^= 0x0800;
 1835              		.loc 1 725 0
 1836 0186 1308003A 		li	a6,928
 724:../src/nes/InfoNES.c **** 			if( (loopy_v & 0x03E0) == 0x03A0 ) {
 1837              		.loc 1 724 0
 1838 018a 7D8E     		and	a2,a5,a2
 725:../src/nes/InfoNES.c **** 				loopy_v ^= 0x0800;
 1839              		.loc 1 725 0
 1840 018c 630C0505 		beq	a0,a6,.L190
 730:../src/nes/InfoNES.c **** 				} else {
 1841              		.loc 1 730 0
 1842 0190 9385F5C1 		addi	a1,a1,-993
 729:../src/nes/InfoNES.c **** 					loopy_v &= 0xFC1F;
 1843              		.loc 1 729 0
 1844 0194 1308003E 		li	a6,992
 730:../src/nes/InfoNES.c **** 				} else {
 1845              		.loc 1 730 0
 1846 0198 ED8F     		and	a5,a5,a1
 729:../src/nes/InfoNES.c **** 					loopy_v &= 0xFC1F;
 1847              		.loc 1 729 0
 1848 019a E30B05F7 		beq	a0,a6,.L167
 732:../src/nes/InfoNES.c **** 				}
 1849              		.loc 1 732 0
 1850 019e 93070602 		addi	a5,a2,32
 1851 01a2 C207     		slli	a5,a5,16
 1852 01a4 C183     		srli	a5,a5,16
 1853 01a6 ADB7     		j	.L167
 1854              	.L188:
 794:../src/nes/InfoNES.c **** 
 1855              		.loc 1 794 0 discriminator 1
 1856 01a8 8507     		addi	a5,a5,1
 1857 01aa 13970701 		slli	a4,a5,16
 1858 01ae 4183     		srli	a4,a4,16
 1859 01b0 D9B5     		j	.L173
 1860              	.L175:
 759:../src/nes/InfoNES.c **** 
 1861              		.loc 1 759 0
 1862 01b2 B7070000 		lui	a5,%hi(.LANCHOR4)
 1863 01b6 23800700 		sb	zero,%lo(.LANCHOR4)(a5)
 1864 01ba 5DB7     		j	.L176
 1865              	.L187:
 709:../src/nes/InfoNES.c **** #if WORKFRAME_DEFINE == WORKFRAME_NONE
 1866              		.loc 1 709 0
 1867 01bc 97000000 		call	InfoNES_DrawLine
 1867      E7800000 
 1868              	.LVL133:
 712:../src/nes/InfoNES.c **** #endif  
 1869              		.loc 1 712 0
 1870 01c4 97000000 		call	InfoNES_LoadLine
 1870      E7800000 
 1871              	.LVL134:
 714:../src/nes/InfoNES.c ****   }
 1872              		.loc 1 714 0
 1873 01cc 37070000 		lui	a4,%hi(.LANCHOR17)
 1874 01d0 13070700 		addi	a4,a4,%lo(.LANCHOR17)
 1875 01d4 83560700 		lhu	a3,0(a4)
 1876 01d8 83570400 		lhu	a5,0(s0)
 1877 01dc 8506     		addi	a3,a3,1
 1878 01de 2310D700 		sh	a3,0(a4)
 1879 01e2 91BD     		j	.L162
 1880              	.L190:
 726:../src/nes/InfoNES.c **** 				loopy_v &= 0xFC1F;
 1881              		.loc 1 726 0
 1882 01e4 8567     		li	a5,4096
 1883 01e6 93870780 		addi	a5,a5,-2048
 1884 01ea B18F     		xor	a5,a2,a5
 727:../src/nes/InfoNES.c **** 			} else {
 1885              		.loc 1 727 0
 1886 01ec 93F7F7C1 		andi	a5,a5,-993
 1887 01f0 C207     		slli	a5,a5,16
 1888 01f2 C183     		srli	a5,a5,16
 1889 01f4 31BF     		j	.L167
 1890              		.cfi_endproc
 1891              	.LFE9:
 1893              		.section	.text.InfoNES_Cycle,"ax",@progbits
 1894              		.align	1
 1895              		.globl	InfoNES_Cycle
 1897              	InfoNES_Cycle:
 1898              	.LFB8:
 623:../src/nes/InfoNES.c **** /*
 1899              		.loc 1 623 0
 1900              		.cfi_startproc
 1901 0000 7971     		addi	sp,sp,-48
 1902              		.cfi_def_cfa_offset 48
 1903 0002 22D4     		sw	s0,40(sp)
 1904 0004 26D2     		sw	s1,36(sp)
 1905 0006 4AD0     		sw	s2,32(sp)
 1906 0008 52CC     		sw	s4,24(sp)
 1907 000a 56CA     		sw	s5,20(sp)
 1908 000c 5AC8     		sw	s6,16(sp)
 1909              		.cfi_offset 8, -8
 1910              		.cfi_offset 9, -12
 1911              		.cfi_offset 18, -16
 1912              		.cfi_offset 20, -24
 1913              		.cfi_offset 21, -28
 1914              		.cfi_offset 22, -32
 1915 000e 37090000 		lui	s2,%hi(.LANCHOR16)
 1916 0012 B7040000 		lui	s1,%hi(.LANCHOR18)
 1917 0016 37040000 		lui	s0,%hi(.LANCHOR9)
 1918              	.LBB31:
 641:../src/nes/InfoNES.c ****     {
 1919              		.loc 1 641 0
 1920 001a 370A0000 		lui	s4,%hi(.LANCHOR0)
 644:../src/nes/InfoNES.c **** 
 1921              		.loc 1 644 0
 1922 001e 370B0000 		lui	s6,%hi(.LANCHOR42)
 1923 0022 B70A0000 		lui	s5,%hi(.LANCHOR1)
 1924              	.LBE31:
 623:../src/nes/InfoNES.c **** /*
 1925              		.loc 1 623 0
 1926 0026 4ECE     		sw	s3,28(sp)
 1927 0028 5EC6     		sw	s7,12(sp)
 1928 002a 62C4     		sw	s8,8(sp)
 1929 002c 06D6     		sw	ra,44(sp)
 1930 002e 66C2     		sw	s9,4(sp)
 1931              		.cfi_offset 19, -20
 1932              		.cfi_offset 23, -36
 1933              		.cfi_offset 24, -40
 1934              		.cfi_offset 1, -4
 1935              		.cfi_offset 25, -44
 1936 0030 13090900 		addi	s2,s2,%lo(.LANCHOR16)
 1937 0034 93840400 		addi	s1,s1,%lo(.LANCHOR18)
 1938 0038 13040400 		addi	s0,s0,%lo(.LANCHOR9)
 1939 003c B7090000 		lui	s3,%hi(MapperHSync)
 1940              	.LBB32:
 641:../src/nes/InfoNES.c ****     {
 1941              		.loc 1 641 0
 1942 0040 130A0A00 		addi	s4,s4,%lo(.LANCHOR0)
 644:../src/nes/InfoNES.c **** 
 1943              		.loc 1 644 0
 1944 0044 130B0B00 		addi	s6,s6,%lo(.LANCHOR42)
 1945 0048 938A0A00 		addi	s5,s5,%lo(.LANCHOR1)
 650:../src/nes/InfoNES.c ****         PPU_R2 |= R2_HIT_SP;
 1946              		.loc 1 650 0
 1947 004c 370C0000 		lui	s8,%hi(.LANCHOR5)
 654:../src/nes/InfoNES.c ****         NMI_REQ;
 1948              		.loc 1 654 0
 1949 0050 B70B0000 		lui	s7,%hi(.LANCHOR6)
 1950 0054 29A0     		j	.L198
 1951              	.L210:
 685:../src/nes/InfoNES.c ****   }
 1952              		.loc 1 685 0
 1953 0056 97000000 		call	InfoNES_Wait
 1953      E7800000 
 1954              	.LVL135:
 1955              	.L198:
 641:../src/nes/InfoNES.c ****     {
 1956              		.loc 1 641 0
 1957 005e 83570900 		lhu	a5,0(s2)
 1958 0062 9840     		lw	a4,0(s1)
 1959 0064 6398E700 		bne	a5,a4,.L192
 641:../src/nes/InfoNES.c ****     {
 1960              		.loc 1 641 0 is_stmt 0 discriminator 1
 1961 0068 D297     		add	a5,s4,a5
 1962 006a 03C70700 		lbu	a4,0(a5)
 1963 006e 8547     		li	a5,1
 1964 0070 6305F706 		beq	a4,a5,.L209
 1965              	.L192:
 663:../src/nes/InfoNES.c ****     }
 1966              		.loc 1 663 0 is_stmt 1
 1967 0074 13051007 		li	a0,113
 1968 0078 97000000 		call	K6502_Step
 1968      E7800000 
 1969              	.LVL136:
 1970              	.L195:
 667:../src/nes/InfoNES.c ****     if ( FrameStep > STEP_PER_FRAME && FrameIRQ_Enable )
 1971              		.loc 1 667 0
 1972 0080 83570400 		lhu	a5,0(s0)
 668:../src/nes/InfoNES.c ****     {
 1973              		.loc 1 668 0
 1974 0084 1D67     		li	a4,28672
 1975 0086 13074748 		addi	a4,a4,1156
 667:../src/nes/InfoNES.c ****     if ( FrameStep > STEP_PER_FRAME && FrameIRQ_Enable )
 1976              		.loc 1 667 0
 1977 008a 93871707 		addi	a5,a5,113
 1978 008e C207     		slli	a5,a5,16
 1979 0090 C183     		srli	a5,a5,16
 1980 0092 2310F400 		sh	a5,0(s0)
 668:../src/nes/InfoNES.c ****     {
 1981              		.loc 1 668 0
 1982 0096 637BF700 		bleu	a5,a4,.L196
 668:../src/nes/InfoNES.c ****     {
 1983              		.loc 1 668 0 is_stmt 0 discriminator 1
 1984 009a B7060000 		lui	a3,%hi(.LANCHOR10)
 1985 009e 83C60600 		lbu	a3,%lo(.LANCHOR10)(a3)
 1986 00a2 89C6     		beqz	a3,.L196
 670:../src/nes/InfoNES.c **** #ifndef APU_NONE
 1987              		.loc 1 670 0 is_stmt 1
 1988 00a4 B3F7E702 		remu	a5,a5,a4
 1989 00a8 2310F400 		sh	a5,0(s0)
 1990              	.L196:
 678:../src/nes/InfoNES.c ****     
 1991              		.loc 1 678 0
 1992 00ac 83A70900 		lw	a5,%lo(MapperHSync)(s3)
 1993 00b0 8297     		jalr	a5
 1994              	.LVL137:
 681:../src/nes/InfoNES.c ****       return;  // To the menu screen
 1995              		.loc 1 681 0
 1996 00b2 97000000 		call	InfoNES_HSync
 1996      E7800000 
 1997              	.LVL138:
 1998 00ba FD57     		li	a5,-1
 1999 00bc E31DF5F8 		bne	a0,a5,.L210
 2000              	.LBE32:
 687:../src/nes/InfoNES.c **** 
 2001              		.loc 1 687 0
 2002 00c0 B250     		lw	ra,44(sp)
 2003              		.cfi_remember_state
 2004              		.cfi_restore 1
 2005 00c2 2254     		lw	s0,40(sp)
 2006              		.cfi_restore 8
 2007 00c4 9254     		lw	s1,36(sp)
 2008              		.cfi_restore 9
 2009 00c6 0259     		lw	s2,32(sp)
 2010              		.cfi_restore 18
 2011 00c8 F249     		lw	s3,28(sp)
 2012              		.cfi_restore 19
 2013 00ca 624A     		lw	s4,24(sp)
 2014              		.cfi_restore 20
 2015 00cc D24A     		lw	s5,20(sp)
 2016              		.cfi_restore 21
 2017 00ce 424B     		lw	s6,16(sp)
 2018              		.cfi_restore 22
 2019 00d0 B24B     		lw	s7,12(sp)
 2020              		.cfi_restore 23
 2021 00d2 224C     		lw	s8,8(sp)
 2022              		.cfi_restore 24
 2023 00d4 924C     		lw	s9,4(sp)
 2024              		.cfi_restore 25
 2025 00d6 4561     		addi	sp,sp,48
 2026              		.cfi_def_cfa_offset 0
 2027 00d8 8280     		jr	ra
 2028              	.L209:
 2029              		.cfi_restore_state
 2030              	.LBB33:
 644:../src/nes/InfoNES.c **** 
 2031              		.loc 1 644 0
 2032 00da 83C73A00 		lbu	a5,3(s5)
 2033 00de 8607     		slli	a5,a5,1
 2034 00e0 DA97     		add	a5,s6,a5
 2035 00e2 83DC0700 		lhu	s9,0(a5)
 2036              	.LVL139:
 647:../src/nes/InfoNES.c **** 
 2037              		.loc 1 647 0
 2038 00e6 6685     		mv	a0,s9
 2039 00e8 97000000 		call	K6502_Step
 2039      E7800000 
 2040              	.LVL140:
 650:../src/nes/InfoNES.c ****         PPU_R2 |= R2_HIT_SP;
 2041              		.loc 1 650 0
 2042 00f0 03470C00 		lbu	a4,%lo(.LANCHOR5)(s8)
 2043 00f4 E147     		li	a5,24
 2044 00f6 93768701 		andi	a3,a4,24
 2045 00fa 6388F602 		beq	a3,a5,.L211
 654:../src/nes/InfoNES.c ****         NMI_REQ;
 2046              		.loc 1 654 0
 2047 00fe 83C70B00 		lbu	a5,%lo(.LANCHOR6)(s7)
 2048 0102 93F70704 		andi	a5,a5,64
 2049 0106 99C7     		beqz	a5,.L194
 2050              	.L212:
 654:../src/nes/InfoNES.c ****         NMI_REQ;
 2051              		.loc 1 654 0 is_stmt 0 discriminator 1
 2052 0108 418B     		andi	a4,a4,16
 2053 010a 09C7     		beqz	a4,.L194
 655:../src/nes/InfoNES.c **** 
 2054              		.loc 1 655 0 is_stmt 1
 2055 010c B7070000 		lui	a5,%hi(NMI_State)
 2056 0110 23800700 		sb	zero,%lo(NMI_State)(a5)
 2057              	.L194:
 658:../src/nes/InfoNES.c ****     }
 2058              		.loc 1 658 0
 2059 0114 13051007 		li	a0,113
 2060 0118 33059541 		sub	a0,a0,s9
 2061 011c 4205     		slli	a0,a0,16
 2062 011e 4181     		srli	a0,a0,16
 2063 0120 97000000 		call	K6502_Step
 2063      E7800000 
 2064              	.LVL141:
 2065 0128 A1BF     		j	.L195
 2066              	.L211:
 651:../src/nes/InfoNES.c **** 
 2067              		.loc 1 651 0
 2068 012a B7070000 		lui	a5,%hi(.LANCHOR4)
 2069 012e 93870700 		addi	a5,a5,%lo(.LANCHOR4)
 2070 0132 83C60700 		lbu	a3,0(a5)
 2071 0136 93E60604 		ori	a3,a3,64
 2072 013a 2380D700 		sb	a3,0(a5)
 654:../src/nes/InfoNES.c ****         NMI_REQ;
 2073              		.loc 1 654 0
 2074 013e 83C70B00 		lbu	a5,%lo(.LANCHOR6)(s7)
 2075 0142 93F70704 		andi	a5,a5,64
 2076 0146 F9D7     		beqz	a5,.L194
 2077 0148 C1B7     		j	.L212
 2078              	.LBE33:
 2079              		.cfi_endproc
 2080              	.LFE8:
 2082              		.section	.text.InfoNES_Main,"ax",@progbits
 2083              		.align	1
 2084              		.globl	InfoNES_Main
 2086              	InfoNES_Main:
 2087              	.LFB7:
 589:../src/nes/InfoNES.c **** /*
 2088              		.loc 1 589 0
 2089              		.cfi_startproc
 2090 0000 4111     		addi	sp,sp,-16
 2091              		.cfi_def_cfa_offset 16
 2092 0002 22C4     		sw	s0,8(sp)
 2093 0004 06C6     		sw	ra,12(sp)
 2094              		.cfi_offset 8, -8
 2095              		.cfi_offset 1, -4
 604:../src/nes/InfoNES.c ****       break;  // Quit
 2096              		.loc 1 604 0
 2097 0006 7D54     		li	s0,-1
 596:../src/nes/InfoNES.c **** 
 2098              		.loc 1 596 0
 2099 0008 97000000 		call	InfoNES_Init
 2099      E7800000 
 2100              	.LVL142:
 2101 0010 29A0     		j	.L215
 2102              	.L217:
 610:../src/nes/InfoNES.c ****   }
 2103              		.loc 1 610 0
 2104 0012 97000000 		call	InfoNES_Cycle
 2104      E7800000 
 2105              	.LVL143:
 2106              	.L215:
 604:../src/nes/InfoNES.c ****       break;  // Quit
 2107              		.loc 1 604 0
 2108 001a 97000000 		call	InfoNES_Menu
 2108      E7800000 
 2109              	.LVL144:
 2110 0022 E31885FE 		bne	a0,s0,.L217
 615:../src/nes/InfoNES.c **** 
 2111              		.loc 1 615 0
 2112 0026 2244     		lw	s0,8(sp)
 2113              		.cfi_restore 8
 2114 0028 B240     		lw	ra,12(sp)
 2115              		.cfi_restore 1
 2116 002a 4101     		addi	sp,sp,16
 2117              		.cfi_def_cfa_offset 0
 2118              	.LBB34:
 2119              	.LBB35:
 309:../src/nes/InfoNES.c **** }
 2120              		.loc 1 309 0
 2121 002c 17030000 		tail	InfoNES_ReleaseRom
 2121      67000300 
 2122              	.LVL145:
 2123              	.LBE35:
 2124              	.LBE34:
 2125              		.cfi_endproc
 2126              	.LFE7:
 2128              		.globl	ROM_FourScr
 2129              		.globl	ROM_Trainer
 2130              		.globl	ROM_SRAM
 2131              		.globl	ROM_Mirroring
 2132              		.globl	MapperNo
 2133              		.globl	NesHeader
 2134              		.globl	PAD2_Bit
 2135              		.globl	PAD1_Bit
 2136              		.globl	PAD_System
 2137              		.globl	PAD2_Latch
 2138              		.globl	PAD1_Latch
 2139              		.globl	JustHitStep
 2140              		.globl	PPU_MirrorTable
 2141              		.globl	PalTable
 2142              		.globl	WorkLine
 2143              		.globl	FrameScanLine
 2144              		.globl	FrameCnt
 2145              		.globl	FrameSkip
 2146              		.globl	FrameStep
 2147              		.globl	FrameIRQ_Enable
 2148              		.globl	PPU_UpDown_Clip
 2149              		.globl	PPU_Latch_Flag
 2150              		.globl	byVramWriteEnable
 2151              		.globl	SpriteJustHit
 2152              		.globl	PPU_SP_Height
 2153              		.globl	PPU_SP_Base
 2154              		.globl	PPU_BG_Base
 2155              		.globl	PPU_NameTableBank
 2156              		.globl	PPU_ScanTable
 2157              		.globl	PPU_Scanline
 2158              		.globl	PPU_Increment
 2159              		.globl	loopy_shift
 2160              		.globl	loopy_y
 2161              		.globl	loopy_x
 2162              		.globl	loopy_t
 2163              		.globl	loopy_v
 2164              		.globl	PPU_R7
 2165              		.globl	PPU_R3
 2166              		.globl	PPU_R2
 2167              		.globl	PPU_R1
 2168              		.globl	PPU_R0
 2169              		.globl	SPRRAM
 2170              		.globl	PPUBANK
 2171              		.globl	VROM
 2172              		.globl	VRAM
 2173              		.globl	ROMBANK3
 2174              		.globl	ROMBANK2
 2175              		.globl	ROMBANK1
 2176              		.globl	ROMBANK0
 2177              		.globl	SRAMBANK
 2178              		.globl	ROM
 2179              		.globl	SRAM
 2180              		.globl	RAM
 2181              		.section	.bss.NesHeader,"aw",@nobits
 2182              		.align	2
 2183              		.set	.LANCHOR28,. + 0
 2186              	NesHeader:
 2187 0000 00000000 		.zero	16
 2187      00000000 
 2187      00000000 
 2187      00000000 
 2188              		.section	.bss.PPUBANK,"aw",@nobits
 2189              		.align	2
 2190              		.set	.LANCHOR22,. + 0
 2193              	PPUBANK:
 2194 0000 00000000 		.zero	64
 2194      00000000 
 2194      00000000 
 2194      00000000 
 2194      00000000 
 2195              		.section	.bss.PPU_ScanTable,"aw",@nobits
 2196              		.align	2
 2197              		.set	.LANCHOR0,. + 0
 2200              	PPU_ScanTable:
 2201 0000 00000000 		.zero	263
 2201      00000000 
 2201      00000000 
 2201      00000000 
 2201      00000000 
 2202              		.section	.bss.PalTable,"aw",@nobits
 2203              		.align	2
 2204              		.set	.LANCHOR35,. + 0
 2207              	PalTable:
 2208 0000 00000000 		.zero	64
 2208      00000000 
 2208      00000000 
 2208      00000000 
 2208      00000000 
 2209              		.section	.bss.RAM,"aw",@nobits
 2210              		.align	2
 2213              	RAM:
 2214 0000 00000000 		.zero	2048
 2214      00000000 
 2214      00000000 
 2214      00000000 
 2214      00000000 
 2215              		.section	.bss.SPRRAM,"aw",@nobits
 2216              		.align	2
 2217              		.set	.LANCHOR1,. + 0
 2220              	SPRRAM:
 2221 0000 00000000 		.zero	256
 2221      00000000 
 2221      00000000 
 2221      00000000 
 2221      00000000 
 2222              		.section	.bss.SRAM,"aw",@nobits
 2223              		.align	2
 2226              	SRAM:
 2227 0000 00000000 		.zero	8192
 2227      00000000 
 2227      00000000 
 2227      00000000 
 2227      00000000 
 2228              		.section	.bss.VRAM,"aw",@nobits
 2229              		.align	2
 2232              	VRAM:
 2233 0000 00000000 		.zero	2048
 2233      00000000 
 2233      00000000 
 2233      00000000 
 2233      00000000 
 2234              		.section	.bss.WorkLine,"aw",@nobits
 2235              		.align	2
 2236              		.set	.LANCHOR41,. + 0
 2239              	WorkLine:
 2240 0000 00000000 		.zero	512
 2240      00000000 
 2240      00000000 
 2240      00000000 
 2240      00000000 
 2241              		.section	.data.PPU_MirrorTable,"aw",@progbits
 2242              		.align	2
 2243              		.set	.LANCHOR26,. + 0
 2246              	PPU_MirrorTable:
 2247 0000 00       		.byte	0
 2248 0001 00       		.byte	0
 2249 0002 01       		.byte	1
 2250 0003 01       		.byte	1
 2251 0004 00       		.byte	0
 2252 0005 01       		.byte	1
 2253 0006 00       		.byte	0
 2254 0007 01       		.byte	1
 2255 0008 01       		.byte	1
 2256 0009 01       		.byte	1
 2257 000a 01       		.byte	1
 2258 000b 01       		.byte	1
 2259 000c 00       		.byte	0
 2260 000d 00       		.byte	0
 2261 000e 00       		.byte	0
 2262 000f 00       		.byte	0
 2263 0010 00       		.byte	0
 2264 0011 01       		.byte	1
 2265 0012 02       		.byte	2
 2266 0013 03       		.byte	3
 2267 0014 00       		.byte	0
 2268 0015 00       		.byte	0
 2269 0016 00       		.byte	0
 2270 0017 01       		.byte	1
 2271              		.section	.rodata.InfoNES_Reset.str1.4,"aMS",@progbits,1
 2272              		.align	2
 2273              	.LC0:
 2274 0000 4D617070 		.string	"Mapper #%d is unsupported.\n"
 2274      65722023 
 2274      25642069 
 2274      7320756E 
 2274      73757070 
 2275              		.section	.rodata.JustHitStep,"a",@progbits
 2276              		.align	2
 2277              		.set	.LANCHOR42,. + 0
 2280              	JustHitStep:
 2281 0000 0000     		.half	0
 2282 0002 0000     		.half	0
 2283 0004 0000     		.half	0
 2284 0006 0100     		.half	1
 2285 0008 0100     		.half	1
 2286 000a 0200     		.half	2
 2287 000c 0200     		.half	2
 2288 000e 0300     		.half	3
 2289 0010 0300     		.half	3
 2290 0012 0300     		.half	3
 2291 0014 0400     		.half	4
 2292 0016 0400     		.half	4
 2293 0018 0500     		.half	5
 2294 001a 0500     		.half	5
 2295 001c 0600     		.half	6
 2296 001e 0600     		.half	6
 2297 0020 0700     		.half	7
 2298 0022 0700     		.half	7
 2299 0024 0700     		.half	7
 2300 0026 0800     		.half	8
 2301 0028 0800     		.half	8
 2302 002a 0900     		.half	9
 2303 002c 0900     		.half	9
 2304 002e 0A00     		.half	10
 2305 0030 0A00     		.half	10
 2306 0032 0B00     		.half	11
 2307 0034 0B00     		.half	11
 2308 0036 0B00     		.half	11
 2309 0038 0C00     		.half	12
 2310 003a 0C00     		.half	12
 2311 003c 0D00     		.half	13
 2312 003e 0D00     		.half	13
 2313 0040 0E00     		.half	14
 2314 0042 0E00     		.half	14
 2315 0044 0F00     		.half	15
 2316 0046 0F00     		.half	15
 2317 0048 0F00     		.half	15
 2318 004a 1000     		.half	16
 2319 004c 1000     		.half	16
 2320 004e 1100     		.half	17
 2321 0050 1100     		.half	17
 2322 0052 1200     		.half	18
 2323 0054 1200     		.half	18
 2324 0056 1200     		.half	18
 2325 0058 1300     		.half	19
 2326 005a 1300     		.half	19
 2327 005c 1400     		.half	20
 2328 005e 1400     		.half	20
 2329 0060 1500     		.half	21
 2330 0062 1500     		.half	21
 2331 0064 1600     		.half	22
 2332 0066 1600     		.half	22
 2333 0068 1600     		.half	22
 2334 006a 1700     		.half	23
 2335 006c 1700     		.half	23
 2336 006e 1800     		.half	24
 2337 0070 1800     		.half	24
 2338 0072 1900     		.half	25
 2339 0074 1900     		.half	25
 2340 0076 1A00     		.half	26
 2341 0078 1A00     		.half	26
 2342 007a 1A00     		.half	26
 2343 007c 1B00     		.half	27
 2344 007e 1B00     		.half	27
 2345 0080 1C00     		.half	28
 2346 0082 1C00     		.half	28
 2347 0084 1D00     		.half	29
 2348 0086 1D00     		.half	29
 2349 0088 1E00     		.half	30
 2350 008a 1E00     		.half	30
 2351 008c 1E00     		.half	30
 2352 008e 1F00     		.half	31
 2353 0090 1F00     		.half	31
 2354 0092 2000     		.half	32
 2355 0094 2000     		.half	32
 2356 0096 2100     		.half	33
 2357 0098 2100     		.half	33
 2358 009a 2100     		.half	33
 2359 009c 2200     		.half	34
 2360 009e 2200     		.half	34
 2361 00a0 2300     		.half	35
 2362 00a2 2300     		.half	35
 2363 00a4 2400     		.half	36
 2364 00a6 2400     		.half	36
 2365 00a8 2500     		.half	37
 2366 00aa 2500     		.half	37
 2367 00ac 2500     		.half	37
 2368 00ae 2600     		.half	38
 2369 00b0 2600     		.half	38
 2370 00b2 2700     		.half	39
 2371 00b4 2700     		.half	39
 2372 00b6 2800     		.half	40
 2373 00b8 2800     		.half	40
 2374 00ba 2900     		.half	41
 2375 00bc 2900     		.half	41
 2376 00be 2900     		.half	41
 2377 00c0 2A00     		.half	42
 2378 00c2 2A00     		.half	42
 2379 00c4 2B00     		.half	43
 2380 00c6 2B00     		.half	43
 2381 00c8 2C00     		.half	44
 2382 00ca 2C00     		.half	44
 2383 00cc 2D00     		.half	45
 2384 00ce 2D00     		.half	45
 2385 00d0 2D00     		.half	45
 2386 00d2 2E00     		.half	46
 2387 00d4 2E00     		.half	46
 2388 00d6 2F00     		.half	47
 2389 00d8 2F00     		.half	47
 2390 00da 3000     		.half	48
 2391 00dc 3000     		.half	48
 2392 00de 3000     		.half	48
 2393 00e0 3100     		.half	49
 2394 00e2 3100     		.half	49
 2395 00e4 3200     		.half	50
 2396 00e6 3200     		.half	50
 2397 00e8 3300     		.half	51
 2398 00ea 3300     		.half	51
 2399 00ec 3400     		.half	52
 2400 00ee 3400     		.half	52
 2401 00f0 3400     		.half	52
 2402 00f2 3500     		.half	53
 2403 00f4 3500     		.half	53
 2404 00f6 3600     		.half	54
 2405 00f8 3600     		.half	54
 2406 00fa 3700     		.half	55
 2407 00fc 3700     		.half	55
 2408 00fe 3800     		.half	56
 2409 0100 3800     		.half	56
 2410 0102 3800     		.half	56
 2411 0104 3900     		.half	57
 2412 0106 3900     		.half	57
 2413 0108 3A00     		.half	58
 2414 010a 3A00     		.half	58
 2415 010c 3B00     		.half	59
 2416 010e 3B00     		.half	59
 2417 0110 3C00     		.half	60
 2418 0112 3C00     		.half	60
 2419 0114 3C00     		.half	60
 2420 0116 3D00     		.half	61
 2421 0118 3D00     		.half	61
 2422 011a 3E00     		.half	62
 2423 011c 3E00     		.half	62
 2424 011e 3F00     		.half	63
 2425 0120 3F00     		.half	63
 2426 0122 4000     		.half	64
 2427 0124 4000     		.half	64
 2428 0126 4000     		.half	64
 2429 0128 4100     		.half	65
 2430 012a 4100     		.half	65
 2431 012c 4200     		.half	66
 2432 012e 4200     		.half	66
 2433 0130 4300     		.half	67
 2434 0132 4300     		.half	67
 2435 0134 4300     		.half	67
 2436 0136 4400     		.half	68
 2437 0138 4400     		.half	68
 2438 013a 4500     		.half	69
 2439 013c 4500     		.half	69
 2440 013e 4600     		.half	70
 2441 0140 4600     		.half	70
 2442 0142 4700     		.half	71
 2443 0144 4700     		.half	71
 2444 0146 4700     		.half	71
 2445 0148 4800     		.half	72
 2446 014a 4800     		.half	72
 2447 014c 4900     		.half	73
 2448 014e 4900     		.half	73
 2449 0150 4A00     		.half	74
 2450 0152 4A00     		.half	74
 2451 0154 4B00     		.half	75
 2452 0156 4B00     		.half	75
 2453 0158 4B00     		.half	75
 2454 015a 4C00     		.half	76
 2455 015c 4C00     		.half	76
 2456 015e 4D00     		.half	77
 2457 0160 4D00     		.half	77
 2458 0162 4E00     		.half	78
 2459 0164 4E00     		.half	78
 2460 0166 4F00     		.half	79
 2461 0168 4F00     		.half	79
 2462 016a 4F00     		.half	79
 2463 016c 5000     		.half	80
 2464 016e 5000     		.half	80
 2465 0170 5100     		.half	81
 2466 0172 5100     		.half	81
 2467 0174 5200     		.half	82
 2468 0176 5200     		.half	82
 2469 0178 5200     		.half	82
 2470 017a 5300     		.half	83
 2471 017c 5300     		.half	83
 2472 017e 5400     		.half	84
 2473 0180 5400     		.half	84
 2474 0182 5500     		.half	85
 2475 0184 5500     		.half	85
 2476 0186 5600     		.half	86
 2477 0188 5600     		.half	86
 2478 018a 5600     		.half	86
 2479 018c 5700     		.half	87
 2480 018e 5700     		.half	87
 2481 0190 5800     		.half	88
 2482 0192 5800     		.half	88
 2483 0194 5900     		.half	89
 2484 0196 5900     		.half	89
 2485 0198 5A00     		.half	90
 2486 019a 5A00     		.half	90
 2487 019c 5A00     		.half	90
 2488 019e 5B00     		.half	91
 2489 01a0 5B00     		.half	91
 2490 01a2 5C00     		.half	92
 2491 01a4 5C00     		.half	92
 2492 01a6 5D00     		.half	93
 2493 01a8 5D00     		.half	93
 2494 01aa 5E00     		.half	94
 2495 01ac 5E00     		.half	94
 2496 01ae 5E00     		.half	94
 2497 01b0 5F00     		.half	95
 2498 01b2 5F00     		.half	95
 2499 01b4 6000     		.half	96
 2500 01b6 6000     		.half	96
 2501 01b8 6100     		.half	97
 2502 01ba 6100     		.half	97
 2503 01bc 6100     		.half	97
 2504 01be 6200     		.half	98
 2505 01c0 6200     		.half	98
 2506 01c2 6300     		.half	99
 2507 01c4 6300     		.half	99
 2508 01c6 6400     		.half	100
 2509 01c8 6400     		.half	100
 2510 01ca 6500     		.half	101
 2511 01cc 6500     		.half	101
 2512 01ce 6500     		.half	101
 2513 01d0 6600     		.half	102
 2514 01d2 6600     		.half	102
 2515 01d4 6700     		.half	103
 2516 01d6 6700     		.half	103
 2517 01d8 6800     		.half	104
 2518 01da 6800     		.half	104
 2519 01dc 6900     		.half	105
 2520 01de 6900     		.half	105
 2521 01e0 6900     		.half	105
 2522 01e2 6A00     		.half	106
 2523 01e4 6A00     		.half	106
 2524 01e6 6B00     		.half	107
 2525 01e8 6B00     		.half	107
 2526 01ea 6C00     		.half	108
 2527 01ec 6C00     		.half	108
 2528 01ee 6D00     		.half	109
 2529 01f0 6D00     		.half	109
 2530 01f2 6D00     		.half	109
 2531 01f4 6E00     		.half	110
 2532 01f6 6E00     		.half	110
 2533 01f8 6F00     		.half	111
 2534 01fa 6F00     		.half	111
 2535 01fc 7000     		.half	112
 2536 01fe 7000     		.half	112
 2537              		.section	.sbss.FrameCnt,"aw",@nobits
 2538              		.align	1
 2539              		.set	.LANCHOR34,. + 0
 2542              	FrameCnt:
 2543 0000 0000     		.zero	2
 2544              		.section	.sbss.FrameIRQ_Enable,"aw",@nobits
 2545              		.set	.LANCHOR10,. + 0
 2548              	FrameIRQ_Enable:
 2549 0000 00       		.zero	1
 2550              		.section	.sbss.FrameScanLine,"aw",@nobits
 2551              		.align	1
 2552              		.set	.LANCHOR17,. + 0
 2555              	FrameScanLine:
 2556 0000 0000     		.zero	2
 2557              		.section	.sbss.FrameSkip,"aw",@nobits
 2558              		.align	1
 2559              		.set	.LANCHOR33,. + 0
 2562              	FrameSkip:
 2563 0000 0000     		.zero	2
 2564              		.section	.sbss.FrameStep,"aw",@nobits
 2565              		.align	1
 2566              		.set	.LANCHOR9,. + 0
 2569              	FrameStep:
 2570 0000 0000     		.zero	2
 2571              		.section	.sbss.MapperNo,"aw",@nobits
 2572              		.set	.LANCHOR29,. + 0
 2575              	MapperNo:
 2576 0000 00       		.zero	1
 2577              		.section	.sbss.PAD1_Bit,"aw",@nobits
 2578              		.align	2
 2579              		.set	.LANCHOR40,. + 0
 2582              	PAD1_Bit:
 2583 0000 00000000 		.zero	4
 2584              		.section	.sbss.PAD1_Latch,"aw",@nobits
 2585              		.align	2
 2586              		.set	.LANCHOR38,. + 0
 2589              	PAD1_Latch:
 2590 0000 00000000 		.zero	4
 2591              		.section	.sbss.PAD2_Bit,"aw",@nobits
 2592              		.align	2
 2593              		.set	.LANCHOR39,. + 0
 2596              	PAD2_Bit:
 2597 0000 00000000 		.zero	4
 2598              		.section	.sbss.PAD2_Latch,"aw",@nobits
 2599              		.align	2
 2600              		.set	.LANCHOR37,. + 0
 2603              	PAD2_Latch:
 2604 0000 00000000 		.zero	4
 2605              		.section	.sbss.PAD_System,"aw",@nobits
 2606              		.align	2
 2607              		.set	.LANCHOR36,. + 0
 2610              	PAD_System:
 2611 0000 00000000 		.zero	4
 2612              		.section	.sbss.PPU_BG_Base,"aw",@nobits
 2613              		.align	2
 2614              		.set	.LANCHOR21,. + 0
 2617              	PPU_BG_Base:
 2618 0000 00000000 		.zero	4
 2619              		.section	.sbss.PPU_Increment,"aw",@nobits
 2620              		.align	1
 2621              		.set	.LANCHOR19,. + 0
 2624              	PPU_Increment:
 2625 0000 0000     		.zero	2
 2626              		.section	.sbss.PPU_Latch_Flag,"aw",@nobits
 2627              		.set	.LANCHOR7,. + 0
 2630              	PPU_Latch_Flag:
 2631 0000 00       		.zero	1
 2632              		.section	.sbss.PPU_NameTableBank,"aw",@nobits
 2633              		.set	.LANCHOR20,. + 0
 2636              	PPU_NameTableBank:
 2637 0000 00       		.zero	1
 2638              		.section	.sbss.PPU_R0,"aw",@nobits
 2639              		.set	.LANCHOR6,. + 0
 2642              	PPU_R0:
 2643 0000 00       		.zero	1
 2644              		.section	.sbss.PPU_R1,"aw",@nobits
 2645              		.set	.LANCHOR5,. + 0
 2648              	PPU_R1:
 2649 0000 00       		.zero	1
 2650              		.section	.sbss.PPU_R2,"aw",@nobits
 2651              		.set	.LANCHOR4,. + 0
 2654              	PPU_R2:
 2655 0000 00       		.zero	1
 2656              		.section	.sbss.PPU_R3,"aw",@nobits
 2657              		.set	.LANCHOR3,. + 0
 2660              	PPU_R3:
 2661 0000 00       		.zero	1
 2662              		.section	.sbss.PPU_R7,"aw",@nobits
 2663              		.set	.LANCHOR2,. + 0
 2666              	PPU_R7:
 2667 0000 00       		.zero	1
 2668              		.section	.sbss.PPU_SP_Base,"aw",@nobits
 2669              		.align	2
 2670              		.set	.LANCHOR23,. + 0
 2673              	PPU_SP_Base:
 2674 0000 00000000 		.zero	4
 2675              		.section	.sbss.PPU_SP_Height,"aw",@nobits
 2676              		.align	1
 2677              		.set	.LANCHOR24,. + 0
 2680              	PPU_SP_Height:
 2681 0000 0000     		.zero	2
 2682              		.section	.sbss.PPU_Scanline,"aw",@nobits
 2683              		.align	1
 2684              		.set	.LANCHOR16,. + 0
 2687              	PPU_Scanline:
 2688 0000 0000     		.zero	2
 2689              		.section	.sbss.PPU_UpDown_Clip,"aw",@nobits
 2690              		.set	.LANCHOR8,. + 0
 2693              	PPU_UpDown_Clip:
 2694 0000 00       		.zero	1
 2695              		.section	.sbss.ROM,"aw",@nobits
 2696              		.align	2
 2699              	ROM:
 2700 0000 00000000 		.zero	4
 2701              		.section	.sbss.ROMBANK0,"aw",@nobits
 2702              		.align	2
 2705              	ROMBANK0:
 2706 0000 00000000 		.zero	4
 2707              		.section	.sbss.ROMBANK1,"aw",@nobits
 2708              		.align	2
 2711              	ROMBANK1:
 2712 0000 00000000 		.zero	4
 2713              		.section	.sbss.ROMBANK2,"aw",@nobits
 2714              		.align	2
 2717              	ROMBANK2:
 2718 0000 00000000 		.zero	4
 2719              		.section	.sbss.ROMBANK3,"aw",@nobits
 2720              		.align	2
 2723              	ROMBANK3:
 2724 0000 00000000 		.zero	4
 2725              		.section	.sbss.ROM_FourScr,"aw",@nobits
 2726              		.set	.LANCHOR32,. + 0
 2729              	ROM_FourScr:
 2730 0000 00       		.zero	1
 2731              		.section	.sbss.ROM_Mirroring,"aw",@nobits
 2732              		.set	.LANCHOR25,. + 0
 2735              	ROM_Mirroring:
 2736 0000 00       		.zero	1
 2737              		.section	.sbss.ROM_SRAM,"aw",@nobits
 2738              		.set	.LANCHOR30,. + 0
 2741              	ROM_SRAM:
 2742 0000 00       		.zero	1
 2743              		.section	.sbss.ROM_Trainer,"aw",@nobits
 2744              		.set	.LANCHOR31,. + 0
 2747              	ROM_Trainer:
 2748 0000 00       		.zero	1
 2749              		.section	.sbss.SRAMBANK,"aw",@nobits
 2750              		.align	2
 2753              	SRAMBANK:
 2754 0000 00000000 		.zero	4
 2755              		.section	.sbss.SpriteJustHit,"aw",@nobits
 2756              		.align	2
 2757              		.set	.LANCHOR18,. + 0
 2760              	SpriteJustHit:
 2761 0000 00000000 		.zero	4
 2762              		.section	.sbss.VROM,"aw",@nobits
 2763              		.align	2
 2766              	VROM:
 2767 0000 00000000 		.zero	4
 2768              		.section	.sbss.byVramWriteEnable,"aw",@nobits
 2769              		.set	.LANCHOR27,. + 0
 2772              	byVramWriteEnable:
 2773 0000 00       		.zero	1
 2774              		.section	.sbss.loopy_shift,"aw",@nobits
 2775              		.align	1
 2776              		.set	.LANCHOR15,. + 0
 2779              	loopy_shift:
 2780 0000 0000     		.zero	2
 2781              		.section	.sbss.loopy_t,"aw",@nobits
 2782              		.align	1
 2783              		.set	.LANCHOR11,. + 0
 2786              	loopy_t:
 2787 0000 0000     		.zero	2
 2788              		.section	.sbss.loopy_v,"aw",@nobits
 2789              		.align	1
 2790              		.set	.LANCHOR12,. + 0
 2793              	loopy_v:
 2794 0000 0000     		.zero	2
 2795              		.section	.sbss.loopy_x,"aw",@nobits
 2796              		.align	1
 2797              		.set	.LANCHOR14,. + 0
 2800              	loopy_x:
 2801 0000 0000     		.zero	2
 2802              		.section	.sbss.loopy_y,"aw",@nobits
 2803              		.align	1
 2804              		.set	.LANCHOR13,. + 0
 2807              	loopy_y:
 2808 0000 0000     		.zero	2
 2809              		.text
 2810              	.Letext0:
 2811              		.file 2 "../src/nes/InfoNES_Types.h"
 2812              		.file 3 "d:\\hummingbird\\hbird-eclipse_2018_09\\gnu mcu eclipse\\risc-v embedded gcc\\7.2.0-4-201
 2813              		.file 4 "d:\\hummingbird\\hbird-eclipse_2018_09\\gnu mcu eclipse\\risc-v embedded gcc\\7.2.0-4-201
 2814              		.file 5 "d:\\hummingbird\\hbird-eclipse_2018_09\\gnu mcu eclipse\\risc-v embedded gcc\\7.2.0-4-201
 2815              		.file 6 "d:\\hummingbird\\hbird-eclipse_2018_09\\gnu mcu eclipse\\risc-v embedded gcc\\7.2.0-4-201
 2816              		.file 7 "../src/nes/InfoNES.h"
 2817              		.file 8 "../src/nes/InfoNES_System.h"
 2818              		.file 9 "../src/nes/InfoNES_Mapper.h"
 2819              		.file 10 "../src/nes/K6502.h"
DEFINED SYMBOLS
                            *ABS*:0000000000000000 InfoNES.c
C:\Users\rana\AppData\Local\Temp\ccI1844i.s:10     .text.InfoNES_Init:0000000000000000 InfoNES_Init
C:\Users\rana\AppData\Local\Temp\ccI1844i.s:14     .text.InfoNES_Init:0000000000000000 .L0 
C:\Users\rana\AppData\Local\Temp\ccI1844i.s:15     .text.InfoNES_Init:0000000000000000 .L0 
C:\Users\rana\AppData\Local\Temp\ccI1844i.s:16     .text.InfoNES_Init:0000000000000002 .L0 
C:\Users\rana\AppData\Local\Temp\ccI1844i.s:18     .text.InfoNES_Init:0000000000000004 .L0 
C:\Users\rana\AppData\Local\Temp\ccI1844i.s:20     .text.InfoNES_Init:0000000000000004 .L0 
C:\Users\rana\AppData\Local\Temp\ccI1844i.s:25     .text.InfoNES_Init:0000000000000014 .L0 
C:\Users\rana\AppData\Local\Temp\ccI1844i.s:27     .text.InfoNES_Init:0000000000000016 .L0 
C:\Users\rana\AppData\Local\Temp\ccI1844i.s:29     .text.InfoNES_Init:0000000000000018 .L0 
C:\Users\rana\AppData\Local\Temp\ccI1844i.s:31     .text.InfoNES_Init:000000000000001c .L0 
C:\Users\rana\AppData\Local\Temp\ccI1844i.s:33     .text.InfoNES_Init:0000000000000020 .L0 
C:\Users\rana\AppData\Local\Temp\ccI1844i.s:35     .text.InfoNES_Init:0000000000000024 .L0 
C:\Users\rana\AppData\Local\Temp\ccI1844i.s:37     .text.InfoNES_Init:0000000000000026 .L0 
C:\Users\rana\AppData\Local\Temp\ccI1844i.s:39     .text.InfoNES_Init:0000000000000028 .L0 
C:\Users\rana\AppData\Local\Temp\ccI1844i.s:41     .text.InfoNES_Init:000000000000002a .L0 
C:\Users\rana\AppData\Local\Temp\ccI1844i.s:45     .text.InfoNES_Init:000000000000002e .L0 
C:\Users\rana\AppData\Local\Temp\ccI1844i.s:47     .text.InfoNES_Init:0000000000000032 .L0 
C:\Users\rana\AppData\Local\Temp\ccI1844i.s:49     .text.InfoNES_Init:0000000000000036 .L0 
C:\Users\rana\AppData\Local\Temp\ccI1844i.s:52     .text.InfoNES_Init:000000000000003a .L0 
C:\Users\rana\AppData\Local\Temp\ccI1844i.s:57     .text.InfoNES_Init:0000000000000042 .L0 
C:\Users\rana\AppData\Local\Temp\ccI1844i.s:58     .text.InfoNES_Init:0000000000000044 .L0 
C:\Users\rana\AppData\Local\Temp\ccI1844i.s:59     .text.InfoNES_Init:0000000000000044 .L0 
C:\Users\rana\AppData\Local\Temp\ccI1844i.s:61     .text.InfoNES_Init:0000000000000046 .L0 
C:\Users\rana\AppData\Local\Temp\ccI1844i.s:64     .text.InfoNES_Init:0000000000000048 .L0 
C:\Users\rana\AppData\Local\Temp\ccI1844i.s:66     .text.InfoNES_Init:0000000000000048 .L0 
C:\Users\rana\AppData\Local\Temp\ccI1844i.s:68     .text.InfoNES_Init:000000000000004c .L0 
C:\Users\rana\AppData\Local\Temp\ccI1844i.s:71     .text.InfoNES_Init:0000000000000050 .L0 
C:\Users\rana\AppData\Local\Temp\ccI1844i.s:75     .text.InfoNES_Init:0000000000000056 .L0 
C:\Users\rana\AppData\Local\Temp\ccI1844i.s:77     .text.InfoNES_Init:000000000000005c .L0 
C:\Users\rana\AppData\Local\Temp\ccI1844i.s:84     .text.InfoNES_Fin:0000000000000000 InfoNES_Fin
C:\Users\rana\AppData\Local\Temp\ccI1844i.s:87     .text.InfoNES_Fin:0000000000000000 .L0 
C:\Users\rana\AppData\Local\Temp\ccI1844i.s:88     .text.InfoNES_Fin:0000000000000000 .L0 
C:\Users\rana\AppData\Local\Temp\ccI1844i.s:89     .text.InfoNES_Fin:0000000000000000 .L0 
C:\Users\rana\AppData\Local\Temp\ccI1844i.s:91     .text.InfoNES_Fin:0000000000000008 .L0 
C:\Users\rana\AppData\Local\Temp\ccI1844i.s:98     .text.InfoNES_SetupPPU:0000000000000000 InfoNES_SetupPPU
C:\Users\rana\AppData\Local\Temp\ccI1844i.s:101    .text.InfoNES_SetupPPU:0000000000000000 .L0 
C:\Users\rana\AppData\Local\Temp\ccI1844i.s:102    .text.InfoNES_SetupPPU:0000000000000000 .L0 
C:\Users\rana\AppData\Local\Temp\ccI1844i.s:103    .text.InfoNES_SetupPPU:0000000000000002 .L0 
C:\Users\rana\AppData\Local\Temp\ccI1844i.s:105    .text.InfoNES_SetupPPU:0000000000000004 .L0 
C:\Users\rana\AppData\Local\Temp\ccI1844i.s:107    .text.InfoNES_SetupPPU:0000000000000004 .L0 
C:\Users\rana\AppData\Local\Temp\ccI1844i.s:112    .text.InfoNES_SetupPPU:0000000000000010 .L0 
C:\Users\rana\AppData\Local\Temp\ccI1844i.s:114    .text.InfoNES_SetupPPU:0000000000000014 .L0 
C:\Users\rana\AppData\Local\Temp\ccI1844i.s:115    .text.InfoNES_SetupPPU:0000000000000014 .L0 
C:\Users\rana\AppData\Local\Temp\ccI1844i.s:117    .text.InfoNES_SetupPPU:0000000000000014 .L0 
C:\Users\rana\AppData\Local\Temp\ccI1844i.s:2232   .bss.VRAM:0000000000000000 VRAM
C:\Users\rana\AppData\Local\Temp\ccI1844i.s:120    .text.InfoNES_SetupPPU:000000000000001c .L0 
C:\Users\rana\AppData\Local\Temp\ccI1844i.s:128    .text.InfoNES_SetupPPU:0000000000000034 .L0 
C:\Users\rana\AppData\Local\Temp\ccI1844i.s:135    .text.InfoNES_SetupPPU:000000000000004a .L0 
C:\Users\rana\AppData\Local\Temp\ccI1844i.s:146    .text.InfoNES_SetupPPU:0000000000000072 .L0 
C:\Users\rana\AppData\Local\Temp\ccI1844i.s:149    .text.InfoNES_SetupPPU:000000000000007a .L0 
C:\Users\rana\AppData\Local\Temp\ccI1844i.s:152    .text.InfoNES_SetupPPU:0000000000000082 .L0 
C:\Users\rana\AppData\Local\Temp\ccI1844i.s:155    .text.InfoNES_SetupPPU:000000000000008a .L0 
C:\Users\rana\AppData\Local\Temp\ccI1844i.s:158    .text.InfoNES_SetupPPU:0000000000000092 .L0 
C:\Users\rana\AppData\Local\Temp\ccI1844i.s:163    .text.InfoNES_SetupPPU:00000000000000a2 .L0 
C:\Users\rana\AppData\Local\Temp\ccI1844i.s:168    .text.InfoNES_SetupPPU:00000000000000b2 .L0 
C:\Users\rana\AppData\Local\Temp\ccI1844i.s:171    .text.InfoNES_SetupPPU:00000000000000ba .L0 
C:\Users\rana\AppData\Local\Temp\ccI1844i.s:174    .text.InfoNES_SetupPPU:00000000000000c2 .L0 
C:\Users\rana\AppData\Local\Temp\ccI1844i.s:176    .text.InfoNES_SetupPPU:00000000000000c6 .L0 
C:\Users\rana\AppData\Local\Temp\ccI1844i.s:178    .text.InfoNES_SetupPPU:00000000000000ca .L0 
C:\Users\rana\AppData\Local\Temp\ccI1844i.s:180    .text.InfoNES_SetupPPU:00000000000000ce .L0 
C:\Users\rana\AppData\Local\Temp\ccI1844i.s:182    .text.InfoNES_SetupPPU:00000000000000d2 .L0 
C:\Users\rana\AppData\Local\Temp\ccI1844i.s:184    .text.InfoNES_SetupPPU:00000000000000d6 .L0 
C:\Users\rana\AppData\Local\Temp\ccI1844i.s:186    .text.InfoNES_SetupPPU:00000000000000d8 .L0 
C:\Users\rana\AppData\Local\Temp\ccI1844i.s:188    .text.InfoNES_SetupPPU:00000000000000dc .L0 
C:\Users\rana\AppData\Local\Temp\ccI1844i.s:191    .text.InfoNES_SetupPPU:00000000000000e2 .L0 
C:\Users\rana\AppData\Local\Temp\ccI1844i.s:193    .text.InfoNES_SetupPPU:00000000000000e4 .L0 
C:\Users\rana\AppData\Local\Temp\ccI1844i.s:195    .text.InfoNES_SetupPPU:00000000000000e8 .L0 
C:\Users\rana\AppData\Local\Temp\ccI1844i.s:199    .text.InfoNES_SetupPPU:00000000000000f2 .L0 
C:\Users\rana\AppData\Local\Temp\ccI1844i.s:202    .text.InfoNES_SetupPPU:00000000000000fa .L0 
C:\Users\rana\AppData\Local\Temp\ccI1844i.s:205    .text.InfoNES_SetupPPU:0000000000000102 .L0 
C:\Users\rana\AppData\Local\Temp\ccI1844i.s:210    .text.InfoNES_SetupPPU:000000000000010c .L0 
C:\Users\rana\AppData\Local\Temp\ccI1844i.s:233    .text.InfoNES_SetupPPU:0000000000000156 .L0 
C:\Users\rana\AppData\Local\Temp\ccI1844i.s:235    .text.InfoNES_SetupPPU:000000000000015a .L0 
C:\Users\rana\AppData\Local\Temp\ccI1844i.s:238    .text.InfoNES_SetupPPU:000000000000015c .L0 
C:\Users\rana\AppData\Local\Temp\ccI1844i.s:241    .text.InfoNES_SetupPPU:0000000000000160 .L0 
C:\Users\rana\AppData\Local\Temp\ccI1844i.s:242    .text.InfoNES_SetupPPU:0000000000000162 .L0 
C:\Users\rana\AppData\Local\Temp\ccI1844i.s:244    .text.InfoNES_SetupPPU:0000000000000164 .L0 
C:\Users\rana\AppData\Local\Temp\ccI1844i.s:248    .text.InfoNES_SetupPPU:0000000000000164 .L0 
C:\Users\rana\AppData\Local\Temp\ccI1844i.s:255    .text.InfoNES_SetupPPU:0000000000000176 .L0 
C:\Users\rana\AppData\Local\Temp\ccI1844i.s:257    .text.InfoNES_SetupPPU:000000000000017a .L0 
C:\Users\rana\AppData\Local\Temp\ccI1844i.s:259    .text.InfoNES_SetupPPU:000000000000017e .L0 
C:\Users\rana\AppData\Local\Temp\ccI1844i.s:263    .text.InfoNES_SetupPPU:0000000000000182 .L0 
C:\Users\rana\AppData\Local\Temp\ccI1844i.s:268    .text.InfoNES_SetupPPU:000000000000018a .L0 
C:\Users\rana\AppData\Local\Temp\ccI1844i.s:270    .text.InfoNES_SetupPPU:000000000000018c .L0 
C:\Users\rana\AppData\Local\Temp\ccI1844i.s:273    .text.InfoNES_SetupPPU:0000000000000192 .L0 
C:\Users\rana\AppData\Local\Temp\ccI1844i.s:275    .text.InfoNES_SetupPPU:0000000000000194 .L0 
C:\Users\rana\AppData\Local\Temp\ccI1844i.s:277    .text.InfoNES_SetupPPU:0000000000000196 .L0 
C:\Users\rana\AppData\Local\Temp\ccI1844i.s:279    .text.InfoNES_SetupPPU:0000000000000198 .L0 
C:\Users\rana\AppData\Local\Temp\ccI1844i.s:281    .text.InfoNES_SetupPPU:000000000000019a .L0 
C:\Users\rana\AppData\Local\Temp\ccI1844i.s:285    .text.InfoNES_SetupPPU:000000000000019c .L0 
C:\Users\rana\AppData\Local\Temp\ccI1844i.s:286    .text.InfoNES_SetupPPU:000000000000019e .L0 
C:\Users\rana\AppData\Local\Temp\ccI1844i.s:290    .text.InfoNES_SetupPPU:000000000000019e .L0 
C:\Users\rana\AppData\Local\Temp\ccI1844i.s:292    .text.InfoNES_SetupPPU:00000000000001a0 .L0 
C:\Users\rana\AppData\Local\Temp\ccI1844i.s:294    .text.InfoNES_SetupPPU:00000000000001a2 .L0 
C:\Users\rana\AppData\Local\Temp\ccI1844i.s:296    .text.InfoNES_SetupPPU:00000000000001a4 .L0 
C:\Users\rana\AppData\Local\Temp\ccI1844i.s:298    .text.InfoNES_SetupPPU:00000000000001a6 .L0 
C:\Users\rana\AppData\Local\Temp\ccI1844i.s:303    .text.InfoNES_SetupPPU:00000000000001a8 .L0 
C:\Users\rana\AppData\Local\Temp\ccI1844i.s:307    .text.InfoNES_SetupPPU:00000000000001b4 .L0 
C:\Users\rana\AppData\Local\Temp\ccI1844i.s:308    .text.InfoNES_SetupPPU:00000000000001b6 .L0 
C:\Users\rana\AppData\Local\Temp\ccI1844i.s:310    .text.InfoNES_SetupPPU:00000000000001b8 .L0 
C:\Users\rana\AppData\Local\Temp\ccI1844i.s:317    .text.InfoNES_Reset:0000000000000000 InfoNES_Reset
C:\Users\rana\AppData\Local\Temp\ccI1844i.s:320    .text.InfoNES_Reset:0000000000000000 .L0 
C:\Users\rana\AppData\Local\Temp\ccI1844i.s:321    .text.InfoNES_Reset:0000000000000000 .L0 
C:\Users\rana\AppData\Local\Temp\ccI1844i.s:322    .text.InfoNES_Reset:0000000000000000 .L0 
C:\Users\rana\AppData\Local\Temp\ccI1844i.s:324    .text.InfoNES_Reset:0000000000000004 .L0 
C:\Users\rana\AppData\Local\Temp\ccI1844i.s:325    .text.InfoNES_Reset:0000000000000006 .L0 
C:\Users\rana\AppData\Local\Temp\ccI1844i.s:328    .text.InfoNES_Reset:000000000000000a .L0 
C:\Users\rana\AppData\Local\Temp\ccI1844i.s:329    .text.InfoNES_Reset:000000000000000a .L0 
C:\Users\rana\AppData\Local\Temp\ccI1844i.s:331    .text.InfoNES_Reset:000000000000000a .L0 
C:\Users\rana\AppData\Local\Temp\ccI1844i.s:344    .text.InfoNES_Reset:000000000000002e .L0 
C:\Users\rana\AppData\Local\Temp\ccI1844i.s:349    .text.InfoNES_Reset:0000000000000036 .L0 
C:\Users\rana\AppData\Local\Temp\ccI1844i.s:351    .text.InfoNES_Reset:000000000000003a .L0 
C:\Users\rana\AppData\Local\Temp\ccI1844i.s:358    .text.InfoNES_Reset:0000000000000046 .L0 
C:\Users\rana\AppData\Local\Temp\ccI1844i.s:361    .text.InfoNES_Reset:000000000000004e .L0 
C:\Users\rana\AppData\Local\Temp\ccI1844i.s:363    .text.InfoNES_Reset:0000000000000052 .L0 
C:\Users\rana\AppData\Local\Temp\ccI1844i.s:365    .text.InfoNES_Reset:0000000000000056 .L0 
C:\Users\rana\AppData\Local\Temp\ccI1844i.s:367    .text.InfoNES_Reset:000000000000005a .L0 
C:\Users\rana\AppData\Local\Temp\ccI1844i.s:369    .text.InfoNES_Reset:000000000000005e .L0 
C:\Users\rana\AppData\Local\Temp\ccI1844i.s:371    .text.InfoNES_Reset:0000000000000062 .L0 
C:\Users\rana\AppData\Local\Temp\ccI1844i.s:373    .text.InfoNES_Reset:0000000000000064 .L0 
C:\Users\rana\AppData\Local\Temp\ccI1844i.s:2213   .bss.RAM:0000000000000000 RAM
C:\Users\rana\AppData\Local\Temp\ccI1844i.s:375    .text.InfoNES_Reset:0000000000000068 .L0 
C:\Users\rana\AppData\Local\Temp\ccI1844i.s:377    .text.InfoNES_Reset:000000000000006c .L0 
C:\Users\rana\AppData\Local\Temp\ccI1844i.s:379    .text.InfoNES_Reset:000000000000006e .L0 
C:\Users\rana\AppData\Local\Temp\ccI1844i.s:381    .text.InfoNES_Reset:0000000000000072 .L0 
C:\Users\rana\AppData\Local\Temp\ccI1844i.s:383    .text.InfoNES_Reset:0000000000000076 .L0 
C:\Users\rana\AppData\Local\Temp\ccI1844i.s:385    .text.InfoNES_Reset:000000000000007a .L0 
C:\Users\rana\AppData\Local\Temp\ccI1844i.s:388    .text.InfoNES_Reset:0000000000000080 .L0 
C:\Users\rana\AppData\Local\Temp\ccI1844i.s:390    .text.InfoNES_Reset:0000000000000084 .L0 
C:\Users\rana\AppData\Local\Temp\ccI1844i.s:393    .text.InfoNES_Reset:000000000000008c .L0 
C:\Users\rana\AppData\Local\Temp\ccI1844i.s:395    .text.InfoNES_Reset:0000000000000090 .L0 
C:\Users\rana\AppData\Local\Temp\ccI1844i.s:399    .text.InfoNES_Reset:000000000000009a .L0 
C:\Users\rana\AppData\Local\Temp\ccI1844i.s:401    .text.InfoNES_Reset:000000000000009e .L0 
C:\Users\rana\AppData\Local\Temp\ccI1844i.s:403    .text.InfoNES_Reset:00000000000000a2 .L0 
C:\Users\rana\AppData\Local\Temp\ccI1844i.s:406    .text.InfoNES_Reset:00000000000000aa .L0 
C:\Users\rana\AppData\Local\Temp\ccI1844i.s:409    .text.InfoNES_Reset:00000000000000b2 .L0 
C:\Users\rana\AppData\Local\Temp\ccI1844i.s:416    .text.InfoNES_Reset:00000000000000ca .L0 
C:\Users\rana\AppData\Local\Temp\ccI1844i.s:421    .text.InfoNES_Reset:00000000000000da .L0 
C:\Users\rana\AppData\Local\Temp\ccI1844i.s:424    .text.InfoNES_Reset:00000000000000e2 .L0 
C:\Users\rana\AppData\Local\Temp\ccI1844i.s:428    .text.InfoNES_Reset:00000000000000ec .L0 
C:\Users\rana\AppData\Local\Temp\ccI1844i.s:430    .text.InfoNES_Reset:00000000000000f0 .L0 
C:\Users\rana\AppData\Local\Temp\ccI1844i.s:432    .text.InfoNES_Reset:00000000000000f4 .L0 
C:\Users\rana\AppData\Local\Temp\ccI1844i.s:436    .text.InfoNES_Reset:0000000000000100 .L0 
C:\Users\rana\AppData\Local\Temp\ccI1844i.s:442    .text.InfoNES_Reset:0000000000000106 .L0 
C:\Users\rana\AppData\Local\Temp\ccI1844i.s:446    .text.InfoNES_Reset:000000000000010a .L0 
C:\Users\rana\AppData\Local\Temp\ccI1844i.s:454    .text.InfoNES_Reset:0000000000000114 .L0 
C:\Users\rana\AppData\Local\Temp\ccI1844i.s:459    .text.InfoNES_Reset:0000000000000124 .L0 
C:\Users\rana\AppData\Local\Temp\ccI1844i.s:460    .text.InfoNES_Reset:0000000000000126 .L0 
C:\Users\rana\AppData\Local\Temp\ccI1844i.s:461    .text.InfoNES_Reset:0000000000000126 .L0 
C:\Users\rana\AppData\Local\Temp\ccI1844i.s:463    .text.InfoNES_Reset:0000000000000128 .L0 
C:\Users\rana\AppData\Local\Temp\ccI1844i.s:465    .text.InfoNES_Reset:0000000000000128 .L0 
C:\Users\rana\AppData\Local\Temp\ccI1844i.s:467    .text.InfoNES_Reset:000000000000012a .L0 
C:\Users\rana\AppData\Local\Temp\ccI1844i.s:468    .text.InfoNES_Reset:000000000000012c .L0 
C:\Users\rana\AppData\Local\Temp\ccI1844i.s:472    .text.InfoNES_Reset:000000000000012e .L0 
C:\Users\rana\AppData\Local\Temp\ccI1844i.s:474    .text.InfoNES_Reset:000000000000012e .L0 
C:\Users\rana\AppData\Local\Temp\ccI1844i.s:478    .text.InfoNES_Reset:0000000000000130 .L0 
C:\Users\rana\AppData\Local\Temp\ccI1844i.s:485    .text.InfoNES_Reset:000000000000013c .L0 
C:\Users\rana\AppData\Local\Temp\ccI1844i.s:488    .text.InfoNES_Reset:0000000000000144 .L0 
C:\Users\rana\AppData\Local\Temp\ccI1844i.s:489    .text.InfoNES_Reset:0000000000000146 .L0 
C:\Users\rana\AppData\Local\Temp\ccI1844i.s:491    .text.InfoNES_Reset:0000000000000148 .L0 
C:\Users\rana\AppData\Local\Temp\ccI1844i.s:493    .text.InfoNES_Reset:0000000000000148 .L0 
C:\Users\rana\AppData\Local\Temp\ccI1844i.s:495    .text.InfoNES_Reset:000000000000014a .L0 
C:\Users\rana\AppData\Local\Temp\ccI1844i.s:496    .text.InfoNES_Reset:000000000000014c .L0 
C:\Users\rana\AppData\Local\Temp\ccI1844i.s:498    .text.InfoNES_Reset:000000000000014e .L0 
C:\Users\rana\AppData\Local\Temp\ccI1844i.s:505    .text.InfoNES_Load:0000000000000000 InfoNES_Load
C:\Users\rana\AppData\Local\Temp\ccI1844i.s:508    .text.InfoNES_Load:0000000000000000 .L0 
C:\Users\rana\AppData\Local\Temp\ccI1844i.s:510    .text.InfoNES_Load:0000000000000000 .L0 
C:\Users\rana\AppData\Local\Temp\ccI1844i.s:511    .text.InfoNES_Load:0000000000000002 .L0 
C:\Users\rana\AppData\Local\Temp\ccI1844i.s:514    .text.InfoNES_Load:0000000000000006 .L0 
C:\Users\rana\AppData\Local\Temp\ccI1844i.s:515    .text.InfoNES_Load:0000000000000006 .L0 
C:\Users\rana\AppData\Local\Temp\ccI1844i.s:517    .text.InfoNES_Load:0000000000000006 .L0 
C:\Users\rana\AppData\Local\Temp\ccI1844i.s:519    .text.InfoNES_Load:0000000000000008 .L0 
C:\Users\rana\AppData\Local\Temp\ccI1844i.s:522    .text.InfoNES_Load:0000000000000010 .L0 
C:\Users\rana\AppData\Local\Temp\ccI1844i.s:527    .text.InfoNES_Load:000000000000001e .L0 
C:\Users\rana\AppData\Local\Temp\ccI1844i.s:532    .text.InfoNES_Load:0000000000000028 .L0 
C:\Users\rana\AppData\Local\Temp\ccI1844i.s:533    .text.InfoNES_Load:000000000000002a .L0 
C:\Users\rana\AppData\Local\Temp\ccI1844i.s:534    .text.InfoNES_Load:000000000000002a .L0 
C:\Users\rana\AppData\Local\Temp\ccI1844i.s:536    .text.InfoNES_Load:000000000000002c .L0 
C:\Users\rana\AppData\Local\Temp\ccI1844i.s:539    .text.InfoNES_Load:000000000000002e .L0 
C:\Users\rana\AppData\Local\Temp\ccI1844i.s:543    .text.InfoNES_Load:0000000000000030 .L0 
C:\Users\rana\AppData\Local\Temp\ccI1844i.s:545    .text.InfoNES_Load:0000000000000030 .L0 
C:\Users\rana\AppData\Local\Temp\ccI1844i.s:547    .text.InfoNES_Load:0000000000000034 .L0 
C:\Users\rana\AppData\Local\Temp\ccI1844i.s:554    .text.InfoNES_Mirroring:0000000000000000 InfoNES_Mirroring
C:\Users\rana\AppData\Local\Temp\ccI1844i.s:557    .text.InfoNES_Mirroring:0000000000000000 .L0 
C:\Users\rana\AppData\Local\Temp\ccI1844i.s:559    .text.InfoNES_Mirroring:0000000000000000 .L0 
C:\Users\rana\AppData\Local\Temp\ccI1844i.s:560    .text.InfoNES_Mirroring:0000000000000000 .L0 
C:\Users\rana\AppData\Local\Temp\ccI1844i.s:567    .text.InfoNES_Mirroring:0000000000000012 .L0 
C:\Users\rana\AppData\Local\Temp\ccI1844i.s:569    .text.InfoNES_Mirroring:0000000000000016 .L0 
C:\Users\rana\AppData\Local\Temp\ccI1844i.s:571    .text.InfoNES_Mirroring:000000000000001a .L0 
C:\Users\rana\AppData\Local\Temp\ccI1844i.s:573    .text.InfoNES_Mirroring:000000000000001e .L0 
C:\Users\rana\AppData\Local\Temp\ccI1844i.s:577    .text.InfoNES_Mirroring:000000000000002a .L0 
C:\Users\rana\AppData\Local\Temp\ccI1844i.s:579    .text.InfoNES_Mirroring:000000000000002c .L0 
C:\Users\rana\AppData\Local\Temp\ccI1844i.s:581    .text.InfoNES_Mirroring:000000000000002e .L0 
C:\Users\rana\AppData\Local\Temp\ccI1844i.s:583    .text.InfoNES_Mirroring:0000000000000030 .L0 
C:\Users\rana\AppData\Local\Temp\ccI1844i.s:587    .text.InfoNES_Mirroring:000000000000003a .L0 
C:\Users\rana\AppData\Local\Temp\ccI1844i.s:589    .text.InfoNES_Mirroring:000000000000003c .L0 
C:\Users\rana\AppData\Local\Temp\ccI1844i.s:591    .text.InfoNES_Mirroring:000000000000003e .L0 
C:\Users\rana\AppData\Local\Temp\ccI1844i.s:593    .text.InfoNES_Mirroring:0000000000000040 .L0 
C:\Users\rana\AppData\Local\Temp\ccI1844i.s:595    .text.InfoNES_Mirroring:0000000000000042 .L0 
C:\Users\rana\AppData\Local\Temp\ccI1844i.s:597    .text.InfoNES_Mirroring:0000000000000044 .L0 
C:\Users\rana\AppData\Local\Temp\ccI1844i.s:599    .text.InfoNES_Mirroring:0000000000000046 .L0 
C:\Users\rana\AppData\Local\Temp\ccI1844i.s:601    .text.InfoNES_Mirroring:0000000000000048 .L0 
C:\Users\rana\AppData\Local\Temp\ccI1844i.s:602    .text.InfoNES_Mirroring:000000000000004a .L0 
C:\Users\rana\AppData\Local\Temp\ccI1844i.s:609    .text.InfoNES_DrawLine:0000000000000000 InfoNES_DrawLine
C:\Users\rana\AppData\Local\Temp\ccI1844i.s:612    .text.InfoNES_DrawLine:0000000000000000 .L0 
C:\Users\rana\AppData\Local\Temp\ccI1844i.s:613    .text.InfoNES_DrawLine:0000000000000000 .L0 
C:\Users\rana\AppData\Local\Temp\ccI1844i.s:614    .text.InfoNES_DrawLine:0000000000000000 .L0 
C:\Users\rana\AppData\Local\Temp\ccI1844i.s:617    .text.InfoNES_DrawLine:0000000000000008 .L0 
C:\Users\rana\AppData\Local\Temp\ccI1844i.s:618    .text.InfoNES_DrawLine:000000000000000c .L0 
C:\Users\rana\AppData\Local\Temp\ccI1844i.s:632    .text.InfoNES_DrawLine:0000000000000040 .L0 
C:\Users\rana\AppData\Local\Temp\ccI1844i.s:633    .text.InfoNES_DrawLine:0000000000000040 .L0 
C:\Users\rana\AppData\Local\Temp\ccI1844i.s:634    .text.InfoNES_DrawLine:0000000000000040 .L0 
C:\Users\rana\AppData\Local\Temp\ccI1844i.s:635    .text.InfoNES_DrawLine:0000000000000040 .L0 
C:\Users\rana\AppData\Local\Temp\ccI1844i.s:636    .text.InfoNES_DrawLine:0000000000000040 .L0 
C:\Users\rana\AppData\Local\Temp\ccI1844i.s:637    .text.InfoNES_DrawLine:0000000000000040 .L0 
C:\Users\rana\AppData\Local\Temp\ccI1844i.s:638    .text.InfoNES_DrawLine:0000000000000040 .L0 
C:\Users\rana\AppData\Local\Temp\ccI1844i.s:639    .text.InfoNES_DrawLine:0000000000000040 .L0 
C:\Users\rana\AppData\Local\Temp\ccI1844i.s:640    .text.InfoNES_DrawLine:0000000000000040 .L0 
C:\Users\rana\AppData\Local\Temp\ccI1844i.s:641    .text.InfoNES_DrawLine:0000000000000040 .L0 
C:\Users\rana\AppData\Local\Temp\ccI1844i.s:642    .text.InfoNES_DrawLine:0000000000000040 .L0 
C:\Users\rana\AppData\Local\Temp\ccI1844i.s:643    .text.InfoNES_DrawLine:0000000000000040 .L0 
C:\Users\rana\AppData\Local\Temp\ccI1844i.s:644    .text.InfoNES_DrawLine:0000000000000040 .L0 
C:\Users\rana\AppData\Local\Temp\ccI1844i.s:646    .text.InfoNES_DrawLine:0000000000000040 .L0 
C:\Users\rana\AppData\Local\Temp\ccI1844i.s:650    .text.InfoNES_DrawLine:0000000000000044 .L0 
C:\Users\rana\AppData\Local\Temp\ccI1844i.s:658    .text.InfoNES_DrawLine:0000000000000058 .L0 
C:\Users\rana\AppData\Local\Temp\ccI1844i.s:667    .text.InfoNES_DrawLine:000000000000006e .L0 
C:\Users\rana\AppData\Local\Temp\ccI1844i.s:669    .text.InfoNES_DrawLine:0000000000000072 .L0 
C:\Users\rana\AppData\Local\Temp\ccI1844i.s:671    .text.InfoNES_DrawLine:0000000000000076 .L0 
C:\Users\rana\AppData\Local\Temp\ccI1844i.s:673    .text.InfoNES_DrawLine:000000000000007a .L0 
C:\Users\rana\AppData\Local\Temp\ccI1844i.s:676    .text.InfoNES_DrawLine:0000000000000082 .L0 
C:\Users\rana\AppData\Local\Temp\ccI1844i.s:678    .text.InfoNES_DrawLine:0000000000000086 .L0 
C:\Users\rana\AppData\Local\Temp\ccI1844i.s:681    .text.InfoNES_DrawLine:000000000000008c .L0 
C:\Users\rana\AppData\Local\Temp\ccI1844i.s:683    .text.InfoNES_DrawLine:0000000000000090 .L0 
C:\Users\rana\AppData\Local\Temp\ccI1844i.s:685    .text.InfoNES_DrawLine:0000000000000092 .L0 
C:\Users\rana\AppData\Local\Temp\ccI1844i.s:687    .text.InfoNES_DrawLine:0000000000000096 .L0 
C:\Users\rana\AppData\Local\Temp\ccI1844i.s:689    .text.InfoNES_DrawLine:000000000000009a .L0 
C:\Users\rana\AppData\Local\Temp\ccI1844i.s:691    .text.InfoNES_DrawLine:000000000000009e .L0 
C:\Users\rana\AppData\Local\Temp\ccI1844i.s:693    .text.InfoNES_DrawLine:00000000000000a0 .L0 
C:\Users\rana\AppData\Local\Temp\ccI1844i.s:695    .text.InfoNES_DrawLine:00000000000000a4 .L0 
C:\Users\rana\AppData\Local\Temp\ccI1844i.s:697    .text.InfoNES_DrawLine:00000000000000a8 .L0 
C:\Users\rana\AppData\Local\Temp\ccI1844i.s:701    .text.InfoNES_DrawLine:00000000000000ac .L0 
C:\Users\rana\AppData\Local\Temp\ccI1844i.s:704    .text.InfoNES_DrawLine:00000000000000b0 .L0 
C:\Users\rana\AppData\Local\Temp\ccI1844i.s:706    .text.InfoNES_DrawLine:00000000000000b2 .L0 
C:\Users\rana\AppData\Local\Temp\ccI1844i.s:708    .text.InfoNES_DrawLine:00000000000000b6 .L0 
C:\Users\rana\AppData\Local\Temp\ccI1844i.s:712    .text.InfoNES_DrawLine:00000000000000c0 .L0 
C:\Users\rana\AppData\Local\Temp\ccI1844i.s:715    .text.InfoNES_DrawLine:00000000000000c4 .L0 
C:\Users\rana\AppData\Local\Temp\ccI1844i.s:718    .text.InfoNES_DrawLine:00000000000000c8 .L0 
C:\Users\rana\AppData\Local\Temp\ccI1844i.s:730    .text.InfoNES_DrawLine:00000000000000e0 .L0 
C:\Users\rana\AppData\Local\Temp\ccI1844i.s:735    .text.InfoNES_DrawLine:00000000000000ee .L0 
C:\Users\rana\AppData\Local\Temp\ccI1844i.s:737    .text.InfoNES_DrawLine:00000000000000f2 .L0 
C:\Users\rana\AppData\Local\Temp\ccI1844i.s:743    .text.InfoNES_DrawLine:00000000000000fc .L0 
C:\Users\rana\AppData\Local\Temp\ccI1844i.s:749    .text.InfoNES_DrawLine:000000000000010a .L0 
C:\Users\rana\AppData\Local\Temp\ccI1844i.s:751    .text.InfoNES_DrawLine:000000000000010e .L0 
C:\Users\rana\AppData\Local\Temp\ccI1844i.s:754    .text.InfoNES_DrawLine:0000000000000114 .L0 
C:\Users\rana\AppData\Local\Temp\ccI1844i.s:756    .text.InfoNES_DrawLine:0000000000000118 .L0 
C:\Users\rana\AppData\Local\Temp\ccI1844i.s:760    .text.InfoNES_DrawLine:000000000000011e .L0 
C:\Users\rana\AppData\Local\Temp\ccI1844i.s:763    .text.InfoNES_DrawLine:0000000000000122 .L0 
C:\Users\rana\AppData\Local\Temp\ccI1844i.s:768    .text.InfoNES_DrawLine:000000000000012e .L0 
C:\Users\rana\AppData\Local\Temp\ccI1844i.s:771    .text.InfoNES_DrawLine:0000000000000132 .L0 
C:\Users\rana\AppData\Local\Temp\ccI1844i.s:775    .text.InfoNES_DrawLine:0000000000000138 .L0 
C:\Users\rana\AppData\Local\Temp\ccI1844i.s:780    .text.InfoNES_DrawLine:0000000000000144 .L0 
C:\Users\rana\AppData\Local\Temp\ccI1844i.s:783    .text.InfoNES_DrawLine:0000000000000148 .L0 
C:\Users\rana\AppData\Local\Temp\ccI1844i.s:787    .text.InfoNES_DrawLine:0000000000000150 .L0 
C:\Users\rana\AppData\Local\Temp\ccI1844i.s:790    .text.InfoNES_DrawLine:0000000000000152 .L0 
C:\Users\rana\AppData\Local\Temp\ccI1844i.s:792    .text.InfoNES_DrawLine:0000000000000156 .L0 
C:\Users\rana\AppData\Local\Temp\ccI1844i.s:794    .text.InfoNES_DrawLine:000000000000015a .L0 
C:\Users\rana\AppData\Local\Temp\ccI1844i.s:796    .text.InfoNES_DrawLine:000000000000015e .L0 
C:\Users\rana\AppData\Local\Temp\ccI1844i.s:798    .text.InfoNES_DrawLine:0000000000000162 .L0 
C:\Users\rana\AppData\Local\Temp\ccI1844i.s:801    .text.InfoNES_DrawLine:0000000000000166 .L0 
C:\Users\rana\AppData\Local\Temp\ccI1844i.s:804    .text.InfoNES_DrawLine:0000000000000168 .L0 
C:\Users\rana\AppData\Local\Temp\ccI1844i.s:806    .text.InfoNES_DrawLine:000000000000016c .L0 
C:\Users\rana\AppData\Local\Temp\ccI1844i.s:808    .text.InfoNES_DrawLine:000000000000016e .L0 
C:\Users\rana\AppData\Local\Temp\ccI1844i.s:811    .text.InfoNES_DrawLine:0000000000000170 .L0 
C:\Users\rana\AppData\Local\Temp\ccI1844i.s:815    .text.InfoNES_DrawLine:0000000000000172 .L0 
C:\Users\rana\AppData\Local\Temp\ccI1844i.s:817    .text.InfoNES_DrawLine:0000000000000174 .L0 
C:\Users\rana\AppData\Local\Temp\ccI1844i.s:819    .text.InfoNES_DrawLine:0000000000000176 .L0 
C:\Users\rana\AppData\Local\Temp\ccI1844i.s:821    .text.InfoNES_DrawLine:0000000000000178 .L0 
C:\Users\rana\AppData\Local\Temp\ccI1844i.s:823    .text.InfoNES_DrawLine:000000000000017c .L0 
C:\Users\rana\AppData\Local\Temp\ccI1844i.s:825    .text.InfoNES_DrawLine:0000000000000180 .L0 
C:\Users\rana\AppData\Local\Temp\ccI1844i.s:827    .text.InfoNES_DrawLine:0000000000000184 .L0 
C:\Users\rana\AppData\Local\Temp\ccI1844i.s:829    .text.InfoNES_DrawLine:0000000000000186 .L0 
C:\Users\rana\AppData\Local\Temp\ccI1844i.s:831    .text.InfoNES_DrawLine:000000000000018a .L0 
C:\Users\rana\AppData\Local\Temp\ccI1844i.s:833    .text.InfoNES_DrawLine:000000000000018e .L0 
C:\Users\rana\AppData\Local\Temp\ccI1844i.s:835    .text.InfoNES_DrawLine:0000000000000190 .L0 
C:\Users\rana\AppData\Local\Temp\ccI1844i.s:837    .text.InfoNES_DrawLine:0000000000000192 .L0 
C:\Users\rana\AppData\Local\Temp\ccI1844i.s:839    .text.InfoNES_DrawLine:0000000000000194 .L0 
C:\Users\rana\AppData\Local\Temp\ccI1844i.s:841    .text.InfoNES_DrawLine:0000000000000196 .L0 
C:\Users\rana\AppData\Local\Temp\ccI1844i.s:843    .text.InfoNES_DrawLine:0000000000000198 .L0 
C:\Users\rana\AppData\Local\Temp\ccI1844i.s:845    .text.InfoNES_DrawLine:000000000000019a .L0 
C:\Users\rana\AppData\Local\Temp\ccI1844i.s:848    .text.InfoNES_DrawLine:000000000000019c .L0 
C:\Users\rana\AppData\Local\Temp\ccI1844i.s:850    .text.InfoNES_DrawLine:00000000000001a0 .L0 
C:\Users\rana\AppData\Local\Temp\ccI1844i.s:852    .text.InfoNES_DrawLine:00000000000001a4 .L0 
C:\Users\rana\AppData\Local\Temp\ccI1844i.s:854    .text.InfoNES_DrawLine:00000000000001a8 .L0 
C:\Users\rana\AppData\Local\Temp\ccI1844i.s:856    .text.InfoNES_DrawLine:00000000000001ac .L0 
C:\Users\rana\AppData\Local\Temp\ccI1844i.s:858    .text.InfoNES_DrawLine:00000000000001b0 .L0 
C:\Users\rana\AppData\Local\Temp\ccI1844i.s:860    .text.InfoNES_DrawLine:00000000000001b4 .L0 
C:\Users\rana\AppData\Local\Temp\ccI1844i.s:862    .text.InfoNES_DrawLine:00000000000001b8 .L0 
C:\Users\rana\AppData\Local\Temp\ccI1844i.s:865    .text.InfoNES_DrawLine:00000000000001bc .L0 
C:\Users\rana\AppData\Local\Temp\ccI1844i.s:868    .text.InfoNES_DrawLine:00000000000001c0 .L0 
C:\Users\rana\AppData\Local\Temp\ccI1844i.s:871    .text.InfoNES_DrawLine:00000000000001c4 .L0 
C:\Users\rana\AppData\Local\Temp\ccI1844i.s:873    .text.InfoNES_DrawLine:00000000000001c8 .L0 
C:\Users\rana\AppData\Local\Temp\ccI1844i.s:875    .text.InfoNES_DrawLine:00000000000001cc .L0 
C:\Users\rana\AppData\Local\Temp\ccI1844i.s:877    .text.InfoNES_DrawLine:00000000000001d0 .L0 
C:\Users\rana\AppData\Local\Temp\ccI1844i.s:879    .text.InfoNES_DrawLine:00000000000001d4 .L0 
C:\Users\rana\AppData\Local\Temp\ccI1844i.s:881    .text.InfoNES_DrawLine:00000000000001d8 .L0 
C:\Users\rana\AppData\Local\Temp\ccI1844i.s:883    .text.InfoNES_DrawLine:00000000000001dc .L0 
C:\Users\rana\AppData\Local\Temp\ccI1844i.s:886    .text.InfoNES_DrawLine:00000000000001e0 .L0 
C:\Users\rana\AppData\Local\Temp\ccI1844i.s:889    .text.InfoNES_DrawLine:00000000000001e2 .L0 
C:\Users\rana\AppData\Local\Temp\ccI1844i.s:892    .text.InfoNES_DrawLine:00000000000001e4 .L0 
C:\Users\rana\AppData\Local\Temp\ccI1844i.s:896    .text.InfoNES_DrawLine:00000000000001ee .L0 
C:\Users\rana\AppData\Local\Temp\ccI1844i.s:898    .text.InfoNES_DrawLine:00000000000001f2 .L0 
C:\Users\rana\AppData\Local\Temp\ccI1844i.s:901    .text.InfoNES_DrawLine:00000000000001f4 .L0 
C:\Users\rana\AppData\Local\Temp\ccI1844i.s:903    .text.InfoNES_DrawLine:00000000000001f8 .L0 
C:\Users\rana\AppData\Local\Temp\ccI1844i.s:909    .text.InfoNES_DrawLine:0000000000000200 .L0 
C:\Users\rana\AppData\Local\Temp\ccI1844i.s:913    .text.InfoNES_DrawLine:0000000000000204 .L0 
C:\Users\rana\AppData\Local\Temp\ccI1844i.s:919    .text.InfoNES_DrawLine:0000000000000212 .L0 
C:\Users\rana\AppData\Local\Temp\ccI1844i.s:922    .text.InfoNES_DrawLine:000000000000021a .L0 
C:\Users\rana\AppData\Local\Temp\ccI1844i.s:924    .text.InfoNES_DrawLine:000000000000021e .L0 
C:\Users\rana\AppData\Local\Temp\ccI1844i.s:926    .text.InfoNES_DrawLine:0000000000000220 .L0 
C:\Users\rana\AppData\Local\Temp\ccI1844i.s:931    .text.InfoNES_DrawLine:0000000000000228 .L0 
C:\Users\rana\AppData\Local\Temp\ccI1844i.s:936    .text.InfoNES_DrawLine:0000000000000234 .L0 
C:\Users\rana\AppData\Local\Temp\ccI1844i.s:940    .text.InfoNES_DrawLine:000000000000023a .L0 
C:\Users\rana\AppData\Local\Temp\ccI1844i.s:946    .text.InfoNES_DrawLine:000000000000023e .L0 
C:\Users\rana\AppData\Local\Temp\ccI1844i.s:952    .text.InfoNES_DrawLine:000000000000024a .L0 
C:\Users\rana\AppData\Local\Temp\ccI1844i.s:958    .text.InfoNES_DrawLine:0000000000000254 .L0 
C:\Users\rana\AppData\Local\Temp\ccI1844i.s:959    .text.InfoNES_DrawLine:0000000000000258 .L0 
C:\Users\rana\AppData\Local\Temp\ccI1844i.s:960    .text.InfoNES_DrawLine:0000000000000258 .L0 
C:\Users\rana\AppData\Local\Temp\ccI1844i.s:962    .text.InfoNES_DrawLine:000000000000025c .L0 
C:\Users\rana\AppData\Local\Temp\ccI1844i.s:964    .text.InfoNES_DrawLine:0000000000000260 .L0 
C:\Users\rana\AppData\Local\Temp\ccI1844i.s:966    .text.InfoNES_DrawLine:0000000000000264 .L0 
C:\Users\rana\AppData\Local\Temp\ccI1844i.s:968    .text.InfoNES_DrawLine:0000000000000268 .L0 
C:\Users\rana\AppData\Local\Temp\ccI1844i.s:970    .text.InfoNES_DrawLine:000000000000026c .L0 
C:\Users\rana\AppData\Local\Temp\ccI1844i.s:972    .text.InfoNES_DrawLine:0000000000000270 .L0 
C:\Users\rana\AppData\Local\Temp\ccI1844i.s:974    .text.InfoNES_DrawLine:0000000000000274 .L0 
C:\Users\rana\AppData\Local\Temp\ccI1844i.s:976    .text.InfoNES_DrawLine:0000000000000278 .L0 
C:\Users\rana\AppData\Local\Temp\ccI1844i.s:978    .text.InfoNES_DrawLine:000000000000027c .L0 
C:\Users\rana\AppData\Local\Temp\ccI1844i.s:980    .text.InfoNES_DrawLine:0000000000000280 .L0 
C:\Users\rana\AppData\Local\Temp\ccI1844i.s:982    .text.InfoNES_DrawLine:0000000000000284 .L0 
C:\Users\rana\AppData\Local\Temp\ccI1844i.s:984    .text.InfoNES_DrawLine:0000000000000288 .L0 
C:\Users\rana\AppData\Local\Temp\ccI1844i.s:986    .text.InfoNES_DrawLine:000000000000028c .L0 
C:\Users\rana\AppData\Local\Temp\ccI1844i.s:990    .text.InfoNES_DrawLine:000000000000028e .L0 
C:\Users\rana\AppData\Local\Temp\ccI1844i.s:995    .text.InfoNES_DrawLine:000000000000028e .L0 
C:\Users\rana\AppData\Local\Temp\ccI1844i.s:998    .text.InfoNES_DrawLine:0000000000000292 .L0 
C:\Users\rana\AppData\Local\Temp\ccI1844i.s:1002   .text.InfoNES_DrawLine:000000000000029a .L0 
C:\Users\rana\AppData\Local\Temp\ccI1844i.s:1005   .text.InfoNES_DrawLine:000000000000029e .L0 
C:\Users\rana\AppData\Local\Temp\ccI1844i.s:1007   .text.InfoNES_DrawLine:00000000000002a0 .L0 
C:\Users\rana\AppData\Local\Temp\ccI1844i.s:1009   .text.InfoNES_DrawLine:00000000000002a4 .L0 
C:\Users\rana\AppData\Local\Temp\ccI1844i.s:1011   .text.InfoNES_DrawLine:00000000000002a6 .L0 
C:\Users\rana\AppData\Local\Temp\ccI1844i.s:1014   .text.InfoNES_DrawLine:00000000000002aa .L0 
C:\Users\rana\AppData\Local\Temp\ccI1844i.s:1017   .text.InfoNES_DrawLine:00000000000002ae .L0 
C:\Users\rana\AppData\Local\Temp\ccI1844i.s:1021   .text.InfoNES_DrawLine:00000000000002b0 .L0 
C:\Users\rana\AppData\Local\Temp\ccI1844i.s:1027   .text.InfoNES_DrawLine:00000000000002b6 .L0 
C:\Users\rana\AppData\Local\Temp\ccI1844i.s:1033   .text.InfoNES_DrawLine:00000000000002c8 .L0 
C:\Users\rana\AppData\Local\Temp\ccI1844i.s:1036   .text.InfoNES_DrawLine:00000000000002ce .L0 
C:\Users\rana\AppData\Local\Temp\ccI1844i.s:1038   .text.InfoNES_DrawLine:00000000000002d2 .L0 
C:\Users\rana\AppData\Local\Temp\ccI1844i.s:1042   .text.InfoNES_DrawLine:00000000000002d6 .L0 
C:\Users\rana\AppData\Local\Temp\ccI1844i.s:1067   .text.InfoNES_DrawLine:00000000000002fc .L0 
C:\Users\rana\AppData\Local\Temp\ccI1844i.s:1071   .text.InfoNES_DrawLine:0000000000000308 .L0 
C:\Users\rana\AppData\Local\Temp\ccI1844i.s:1074   .text.InfoNES_DrawLine:000000000000030e .L0 
C:\Users\rana\AppData\Local\Temp\ccI1844i.s:1076   .text.InfoNES_DrawLine:0000000000000312 .L0 
C:\Users\rana\AppData\Local\Temp\ccI1844i.s:1078   .text.InfoNES_DrawLine:0000000000000314 .L0 
C:\Users\rana\AppData\Local\Temp\ccI1844i.s:1080   .text.InfoNES_DrawLine:0000000000000318 .L0 
C:\Users\rana\AppData\Local\Temp\ccI1844i.s:1083   .text.InfoNES_DrawLine:0000000000000320 .L0 
C:\Users\rana\AppData\Local\Temp\ccI1844i.s:1088   .text.InfoNES_DrawLine:0000000000000330 .L0 
C:\Users\rana\AppData\Local\Temp\ccI1844i.s:1090   .text.InfoNES_DrawLine:0000000000000334 .L0 
C:\Users\rana\AppData\Local\Temp\ccI1844i.s:1092   .text.InfoNES_DrawLine:0000000000000338 .L0 
C:\Users\rana\AppData\Local\Temp\ccI1844i.s:1094   .text.InfoNES_DrawLine:000000000000033c .L0 
C:\Users\rana\AppData\Local\Temp\ccI1844i.s:1096   .text.InfoNES_DrawLine:0000000000000340 .L0 
C:\Users\rana\AppData\Local\Temp\ccI1844i.s:1099   .text.InfoNES_DrawLine:0000000000000348 .L0 
C:\Users\rana\AppData\Local\Temp\ccI1844i.s:1101   .text.InfoNES_DrawLine:000000000000034c .L0 
C:\Users\rana\AppData\Local\Temp\ccI1844i.s:1103   .text.InfoNES_DrawLine:0000000000000350 .L0 
C:\Users\rana\AppData\Local\Temp\ccI1844i.s:1105   .text.InfoNES_DrawLine:0000000000000354 .L0 
C:\Users\rana\AppData\Local\Temp\ccI1844i.s:1107   .text.InfoNES_DrawLine:0000000000000358 .L0 
C:\Users\rana\AppData\Local\Temp\ccI1844i.s:1113   .text.InfoNES_DrawLine:0000000000000368 .L0 
C:\Users\rana\AppData\Local\Temp\ccI1844i.s:1115   .text.InfoNES_DrawLine:000000000000036a .L0 
C:\Users\rana\AppData\Local\Temp\ccI1844i.s:1120   .text.InfoNES_DrawLine:0000000000000370 .L0 
C:\Users\rana\AppData\Local\Temp\ccI1844i.s:1124   .text.InfoNES_DrawLine:0000000000000376 .L0 
C:\Users\rana\AppData\Local\Temp\ccI1844i.s:1126   .text.InfoNES_DrawLine:000000000000037a .L0 
C:\Users\rana\AppData\Local\Temp\ccI1844i.s:1129   .text.InfoNES_DrawLine:0000000000000382 .L0 
C:\Users\rana\AppData\Local\Temp\ccI1844i.s:1131   .text.InfoNES_DrawLine:0000000000000386 .L0 
C:\Users\rana\AppData\Local\Temp\ccI1844i.s:1134   .text.InfoNES_DrawLine:0000000000000388 .L0 
C:\Users\rana\AppData\Local\Temp\ccI1844i.s:1137   .text.InfoNES_DrawLine:000000000000038c .L0 
C:\Users\rana\AppData\Local\Temp\ccI1844i.s:1139   .text.InfoNES_DrawLine:0000000000000390 .L0 
C:\Users\rana\AppData\Local\Temp\ccI1844i.s:1141   .text.InfoNES_DrawLine:0000000000000392 .L0 
C:\Users\rana\AppData\Local\Temp\ccI1844i.s:1143   .text.InfoNES_DrawLine:0000000000000394 .L0 
C:\Users\rana\AppData\Local\Temp\ccI1844i.s:1145   .text.InfoNES_DrawLine:0000000000000396 .L0 
C:\Users\rana\AppData\Local\Temp\ccI1844i.s:1148   .text.InfoNES_DrawLine:000000000000039a .L0 
C:\Users\rana\AppData\Local\Temp\ccI1844i.s:1151   .text.InfoNES_DrawLine:000000000000039c .L0 
C:\Users\rana\AppData\Local\Temp\ccI1844i.s:1153   .text.InfoNES_DrawLine:00000000000003a0 .L0 
C:\Users\rana\AppData\Local\Temp\ccI1844i.s:1162   .text.InfoNES_DrawLine:00000000000003b0 .L0 
C:\Users\rana\AppData\Local\Temp\ccI1844i.s:1171   .text.InfoNES_DrawLine:00000000000003c6 .L0 
C:\Users\rana\AppData\Local\Temp\ccI1844i.s:1173   .text.InfoNES_DrawLine:00000000000003ca .L0 
C:\Users\rana\AppData\Local\Temp\ccI1844i.s:1175   .text.InfoNES_DrawLine:00000000000003ce .L0 
C:\Users\rana\AppData\Local\Temp\ccI1844i.s:1177   .text.InfoNES_DrawLine:00000000000003d2 .L0 
C:\Users\rana\AppData\Local\Temp\ccI1844i.s:1181   .text.InfoNES_DrawLine:00000000000003d6 .L0 
C:\Users\rana\AppData\Local\Temp\ccI1844i.s:1187   .text.InfoNES_DrawLine:00000000000003e6 .L0 
C:\Users\rana\AppData\Local\Temp\ccI1844i.s:1191   .text.InfoNES_DrawLine:00000000000003ee .L0 
C:\Users\rana\AppData\Local\Temp\ccI1844i.s:1194   .text.InfoNES_DrawLine:00000000000003f6 .L0 
C:\Users\rana\AppData\Local\Temp\ccI1844i.s:1196   .text.InfoNES_DrawLine:00000000000003fa .L0 
C:\Users\rana\AppData\Local\Temp\ccI1844i.s:1198   .text.InfoNES_DrawLine:00000000000003fe .L0 
C:\Users\rana\AppData\Local\Temp\ccI1844i.s:1200   .text.InfoNES_DrawLine:0000000000000402 .L0 
C:\Users\rana\AppData\Local\Temp\ccI1844i.s:1202   .text.InfoNES_DrawLine:0000000000000406 .L0 
C:\Users\rana\AppData\Local\Temp\ccI1844i.s:1204   .text.InfoNES_DrawLine:0000000000000408 .L0 
C:\Users\rana\AppData\Local\Temp\ccI1844i.s:1206   .text.InfoNES_DrawLine:000000000000040c .L0 
C:\Users\rana\AppData\Local\Temp\ccI1844i.s:1208   .text.InfoNES_DrawLine:000000000000040e .L0 
C:\Users\rana\AppData\Local\Temp\ccI1844i.s:1210   .text.InfoNES_DrawLine:0000000000000412 .L0 
C:\Users\rana\AppData\Local\Temp\ccI1844i.s:1212   .text.InfoNES_DrawLine:0000000000000416 .L0 
C:\Users\rana\AppData\Local\Temp\ccI1844i.s:1214   .text.InfoNES_DrawLine:000000000000041a .L0 
C:\Users\rana\AppData\Local\Temp\ccI1844i.s:1217   .text.InfoNES_DrawLine:000000000000041e .L0 
C:\Users\rana\AppData\Local\Temp\ccI1844i.s:1220   .text.InfoNES_DrawLine:0000000000000422 .L0 
C:\Users\rana\AppData\Local\Temp\ccI1844i.s:1225   .text.InfoNES_DrawLine:000000000000042e .L0 
C:\Users\rana\AppData\Local\Temp\ccI1844i.s:1227   .text.InfoNES_DrawLine:0000000000000432 .L0 
C:\Users\rana\AppData\Local\Temp\ccI1844i.s:1229   .text.InfoNES_DrawLine:0000000000000436 .L0 
C:\Users\rana\AppData\Local\Temp\ccI1844i.s:1236   .text.InfoNES_DrawLine:0000000000000446 .L0 
C:\Users\rana\AppData\Local\Temp\ccI1844i.s:1239   .text.InfoNES_DrawLine:000000000000044c .L0 
C:\Users\rana\AppData\Local\Temp\ccI1844i.s:1246   .text.InfoNES_DrawLine:000000000000045c .L0 
C:\Users\rana\AppData\Local\Temp\ccI1844i.s:1250   .text.InfoNES_DrawLine:0000000000000464 .L0 
C:\Users\rana\AppData\Local\Temp\ccI1844i.s:1256   .text.InfoNES_DrawLine:0000000000000472 .L0 
C:\Users\rana\AppData\Local\Temp\ccI1844i.s:1260   .text.InfoNES_DrawLine:000000000000047a .L0 
C:\Users\rana\AppData\Local\Temp\ccI1844i.s:1266   .text.InfoNES_DrawLine:0000000000000488 .L0 
C:\Users\rana\AppData\Local\Temp\ccI1844i.s:1270   .text.InfoNES_DrawLine:0000000000000490 .L0 
C:\Users\rana\AppData\Local\Temp\ccI1844i.s:1276   .text.InfoNES_DrawLine:000000000000049e .L0 
C:\Users\rana\AppData\Local\Temp\ccI1844i.s:1281   .text.InfoNES_DrawLine:00000000000004aa .L0 
C:\Users\rana\AppData\Local\Temp\ccI1844i.s:1287   .text.InfoNES_DrawLine:00000000000004b6 .L0 
C:\Users\rana\AppData\Local\Temp\ccI1844i.s:1291   .text.InfoNES_DrawLine:00000000000004ba .L0 
C:\Users\rana\AppData\Local\Temp\ccI1844i.s:1297   .text.InfoNES_DrawLine:00000000000004c6 .L0 
C:\Users\rana\AppData\Local\Temp\ccI1844i.s:1299   .text.InfoNES_DrawLine:00000000000004ca .L0 
C:\Users\rana\AppData\Local\Temp\ccI1844i.s:1306   .text.InfoNES_DrawLine:00000000000004d8 .L0 
C:\Users\rana\AppData\Local\Temp\ccI1844i.s:1310   .text.InfoNES_DrawLine:00000000000004de .L0 
C:\Users\rana\AppData\Local\Temp\ccI1844i.s:1318   .text.InfoNES_DrawLine:00000000000004ee .L0 
C:\Users\rana\AppData\Local\Temp\ccI1844i.s:1325   .text.InfoNES_DrawLine:00000000000004fc .L0 
C:\Users\rana\AppData\Local\Temp\ccI1844i.s:1330   .text.InfoNES_DrawLine:0000000000000502 .L0 
C:\Users\rana\AppData\Local\Temp\ccI1844i.s:1334   .text.InfoNES_DrawLine:000000000000050a .L0 
C:\Users\rana\AppData\Local\Temp\ccI1844i.s:1340   .text.InfoNES_DrawLine:0000000000000514 .L0 
C:\Users\rana\AppData\Local\Temp\ccI1844i.s:1342   .text.InfoNES_DrawLine:0000000000000518 .L0 
C:\Users\rana\AppData\Local\Temp\ccI1844i.s:1347   .text.InfoNES_DrawLine:0000000000000522 .L0 
C:\Users\rana\AppData\Local\Temp\ccI1844i.s:1352   .text.InfoNES_DrawLine:000000000000052c .L0 
C:\Users\rana\AppData\Local\Temp\ccI1844i.s:1354   .text.InfoNES_DrawLine:0000000000000530 .L0 
C:\Users\rana\AppData\Local\Temp\ccI1844i.s:1357   .text.InfoNES_DrawLine:0000000000000536 .L0 
C:\Users\rana\AppData\Local\Temp\ccI1844i.s:1362   .text.InfoNES_DrawLine:0000000000000542 .L0 
C:\Users\rana\AppData\Local\Temp\ccI1844i.s:1367   .text.InfoNES_DrawLine:0000000000000544 .L0 
C:\Users\rana\AppData\Local\Temp\ccI1844i.s:1369   .text.InfoNES_DrawLine:0000000000000548 .L0 
C:\Users\rana\AppData\Local\Temp\ccI1844i.s:1375   .text.InfoNES_DrawLine:0000000000000556 .L0 
C:\Users\rana\AppData\Local\Temp\ccI1844i.s:1378   .text.InfoNES_DrawLine:000000000000055e .L0 
C:\Users\rana\AppData\Local\Temp\ccI1844i.s:1384   .text.InfoNES_DrawLine:000000000000056c .L0 
C:\Users\rana\AppData\Local\Temp\ccI1844i.s:1388   .text.InfoNES_DrawLine:0000000000000578 .L0 
C:\Users\rana\AppData\Local\Temp\ccI1844i.s:1394   .text.InfoNES_DrawLine:0000000000000586 .L0 
C:\Users\rana\AppData\Local\Temp\ccI1844i.s:1398   .text.InfoNES_DrawLine:0000000000000592 .L0 
C:\Users\rana\AppData\Local\Temp\ccI1844i.s:1404   .text.InfoNES_DrawLine:00000000000005a0 .L0 
C:\Users\rana\AppData\Local\Temp\ccI1844i.s:1408   .text.InfoNES_DrawLine:00000000000005ac .L0 
C:\Users\rana\AppData\Local\Temp\ccI1844i.s:1414   .text.InfoNES_DrawLine:00000000000005ba .L0 
C:\Users\rana\AppData\Local\Temp\ccI1844i.s:1419   .text.InfoNES_DrawLine:00000000000005c0 .L0 
C:\Users\rana\AppData\Local\Temp\ccI1844i.s:1425   .text.InfoNES_DrawLine:00000000000005ce .L0 
C:\Users\rana\AppData\Local\Temp\ccI1844i.s:1429   .text.InfoNES_DrawLine:00000000000005d6 .L0 
C:\Users\rana\AppData\Local\Temp\ccI1844i.s:1437   .text.InfoNES_DrawLine:00000000000005e6 .L0 
C:\Users\rana\AppData\Local\Temp\ccI1844i.s:1439   .text.InfoNES_DrawLine:00000000000005ea .L0 
C:\Users\rana\AppData\Local\Temp\ccI1844i.s:1449   .text.InfoNES_DrawLine:00000000000005fa .L0 
C:\Users\rana\AppData\Local\Temp\ccI1844i.s:1458   .text.InfoNES_DrawLine:0000000000000600 .L0 
C:\Users\rana\AppData\Local\Temp\ccI1844i.s:1469   .text.InfoNES_DrawLine:0000000000000618 .L0 
C:\Users\rana\AppData\Local\Temp\ccI1844i.s:1476   .text.InfoNES_DrawLine:0000000000000628 .L0 
C:\Users\rana\AppData\Local\Temp\ccI1844i.s:1483   .text.InfoNES_GetSprHitY:0000000000000000 InfoNES_GetSprHitY
C:\Users\rana\AppData\Local\Temp\ccI1844i.s:1486   .text.InfoNES_GetSprHitY:0000000000000000 .L0 
C:\Users\rana\AppData\Local\Temp\ccI1844i.s:1487   .text.InfoNES_GetSprHitY:0000000000000000 .L0 
C:\Users\rana\AppData\Local\Temp\ccI1844i.s:1488   .text.InfoNES_GetSprHitY:0000000000000000 .L0 
C:\Users\rana\AppData\Local\Temp\ccI1844i.s:1494   .text.InfoNES_GetSprHitY:0000000000000012 .L0 
C:\Users\rana\AppData\Local\Temp\ccI1844i.s:1496   .text.InfoNES_GetSprHitY:0000000000000014 .L0 
C:\Users\rana\AppData\Local\Temp\ccI1844i.s:1500   .text.InfoNES_GetSprHitY:0000000000000016 .L0 
C:\Users\rana\AppData\Local\Temp\ccI1844i.s:1515   .text.InfoNES_GetSprHitY:0000000000000040 .L0 
C:\Users\rana\AppData\Local\Temp\ccI1844i.s:1519   .text.InfoNES_GetSprHitY:0000000000000046 .L0 
C:\Users\rana\AppData\Local\Temp\ccI1844i.s:1522   .text.InfoNES_GetSprHitY:000000000000004e .L0 
C:\Users\rana\AppData\Local\Temp\ccI1844i.s:1525   .text.InfoNES_GetSprHitY:0000000000000056 .L0 
C:\Users\rana\AppData\Local\Temp\ccI1844i.s:1528   .text.InfoNES_GetSprHitY:0000000000000058 .L0 
C:\Users\rana\AppData\Local\Temp\ccI1844i.s:1533   .text.InfoNES_GetSprHitY:0000000000000064 .L0 
C:\Users\rana\AppData\Local\Temp\ccI1844i.s:1539   .text.InfoNES_GetSprHitY:0000000000000070 .L0 
C:\Users\rana\AppData\Local\Temp\ccI1844i.s:1543   .text.InfoNES_GetSprHitY:0000000000000072 .L0 
C:\Users\rana\AppData\Local\Temp\ccI1844i.s:1550   .text.InfoNES_GetSprHitY:000000000000007e .L0 
C:\Users\rana\AppData\Local\Temp\ccI1844i.s:1558   .text.InfoNES_GetSprHitY:0000000000000092 .L0 
C:\Users\rana\AppData\Local\Temp\ccI1844i.s:1562   .text.InfoNES_GetSprHitY:000000000000009e .L0 
C:\Users\rana\AppData\Local\Temp\ccI1844i.s:1565   .text.InfoNES_GetSprHitY:00000000000000a4 .L0 
C:\Users\rana\AppData\Local\Temp\ccI1844i.s:1567   .text.InfoNES_GetSprHitY:00000000000000a6 .L0 
C:\Users\rana\AppData\Local\Temp\ccI1844i.s:1569   .text.InfoNES_GetSprHitY:00000000000000a8 .L0 
C:\Users\rana\AppData\Local\Temp\ccI1844i.s:1574   .text.InfoNES_GetSprHitY:00000000000000ae .L0 
C:\Users\rana\AppData\Local\Temp\ccI1844i.s:1577   .text.InfoNES_GetSprHitY:00000000000000b6 .L0 
C:\Users\rana\AppData\Local\Temp\ccI1844i.s:1579   .text.InfoNES_GetSprHitY:00000000000000ba .L0 
C:\Users\rana\AppData\Local\Temp\ccI1844i.s:1582   .text.InfoNES_GetSprHitY:00000000000000be .L0 
C:\Users\rana\AppData\Local\Temp\ccI1844i.s:1586   .text.InfoNES_GetSprHitY:00000000000000c6 .L0 
C:\Users\rana\AppData\Local\Temp\ccI1844i.s:1590   .text.InfoNES_GetSprHitY:00000000000000c8 .L0 
C:\Users\rana\AppData\Local\Temp\ccI1844i.s:1596   .text.InfoNES_GetSprHitY:00000000000000ce .L0 
C:\Users\rana\AppData\Local\Temp\ccI1844i.s:1604   .text.InfoNES_GetSprHitY:00000000000000da .L0 
C:\Users\rana\AppData\Local\Temp\ccI1844i.s:1608   .text.InfoNES_GetSprHitY:00000000000000e0 .L0 
C:\Users\rana\AppData\Local\Temp\ccI1844i.s:1616   .text.InfoNES_GetSprHitY:00000000000000e6 .L0 
C:\Users\rana\AppData\Local\Temp\ccI1844i.s:1619   .text.InfoNES_GetSprHitY:00000000000000e8 .L0 
C:\Users\rana\AppData\Local\Temp\ccI1844i.s:1624   .text.InfoNES_GetSprHitY:00000000000000ee .L0 
C:\Users\rana\AppData\Local\Temp\ccI1844i.s:1627   .text.InfoNES_GetSprHitY:00000000000000f6 .L0 
C:\Users\rana\AppData\Local\Temp\ccI1844i.s:1629   .text.InfoNES_GetSprHitY:00000000000000f8 .L0 
C:\Users\rana\AppData\Local\Temp\ccI1844i.s:1633   .text.InfoNES_GetSprHitY:00000000000000fe .L0 
C:\Users\rana\AppData\Local\Temp\ccI1844i.s:1640   .text.InfoNES_HSync:0000000000000000 InfoNES_HSync
C:\Users\rana\AppData\Local\Temp\ccI1844i.s:1643   .text.InfoNES_HSync:0000000000000000 .L0 
C:\Users\rana\AppData\Local\Temp\ccI1844i.s:1644   .text.InfoNES_HSync:0000000000000000 .L0 
C:\Users\rana\AppData\Local\Temp\ccI1844i.s:1645   .text.InfoNES_HSync:0000000000000002 .L0 
C:\Users\rana\AppData\Local\Temp\ccI1844i.s:1647   .text.InfoNES_HSync:0000000000000004 .L0 
C:\Users\rana\AppData\Local\Temp\ccI1844i.s:1649   .text.InfoNES_HSync:0000000000000004 .L0 
C:\Users\rana\AppData\Local\Temp\ccI1844i.s:1653   .text.InfoNES_HSync:0000000000000010 .L0 
C:\Users\rana\AppData\Local\Temp\ccI1844i.s:1654   .text.InfoNES_HSync:0000000000000012 .L0 
C:\Users\rana\AppData\Local\Temp\ccI1844i.s:1658   .text.InfoNES_HSync:000000000000001c .L0 
C:\Users\rana\AppData\Local\Temp\ccI1844i.s:1661   .text.InfoNES_HSync:0000000000000020 .L0 
C:\Users\rana\AppData\Local\Temp\ccI1844i.s:1663   .text.InfoNES_HSync:0000000000000022 .L0 
C:\Users\rana\AppData\Local\Temp\ccI1844i.s:1671   .text.InfoNES_HSync:0000000000000036 .L0 
C:\Users\rana\AppData\Local\Temp\ccI1844i.s:1674   .text.InfoNES_HSync:000000000000003e .L0 
C:\Users\rana\AppData\Local\Temp\ccI1844i.s:1677   .text.InfoNES_HSync:0000000000000046 .L0 
C:\Users\rana\AppData\Local\Temp\ccI1844i.s:1682   .text.InfoNES_HSync:0000000000000052 .L0 
C:\Users\rana\AppData\Local\Temp\ccI1844i.s:1685   .text.InfoNES_HSync:0000000000000058 .L0 
C:\Users\rana\AppData\Local\Temp\ccI1844i.s:1690   .text.InfoNES_HSync:0000000000000064 .L0 
C:\Users\rana\AppData\Local\Temp\ccI1844i.s:1697   .text.InfoNES_HSync:0000000000000076 .L0 
C:\Users\rana\AppData\Local\Temp\ccI1844i.s:1700   .text.InfoNES_HSync:000000000000007e .L0 
C:\Users\rana\AppData\Local\Temp\ccI1844i.s:1702   .text.InfoNES_HSync:0000000000000082 .L0 
C:\Users\rana\AppData\Local\Temp\ccI1844i.s:1704   .text.InfoNES_HSync:0000000000000086 .L0 
C:\Users\rana\AppData\Local\Temp\ccI1844i.s:1707   .text.InfoNES_HSync:000000000000008e .L0 
C:\Users\rana\AppData\Local\Temp\ccI1844i.s:1710   .text.InfoNES_HSync:0000000000000096 .L0 
C:\Users\rana\AppData\Local\Temp\ccI1844i.s:1713   .text.InfoNES_HSync:0000000000000098 .L0 
C:\Users\rana\AppData\Local\Temp\ccI1844i.s:1722   .text.InfoNES_HSync:00000000000000b8 .L0 
C:\Users\rana\AppData\Local\Temp\ccI1844i.s:1726   .text.InfoNES_HSync:00000000000000c4 .L0 
C:\Users\rana\AppData\Local\Temp\ccI1844i.s:1730   .text.InfoNES_HSync:00000000000000cc .L0 
C:\Users\rana\AppData\Local\Temp\ccI1844i.s:1732   .text.InfoNES_HSync:00000000000000d0 .L0 
C:\Users\rana\AppData\Local\Temp\ccI1844i.s:1733   .text.InfoNES_HSync:00000000000000d2 .L0 
C:\Users\rana\AppData\Local\Temp\ccI1844i.s:1734   .text.InfoNES_HSync:00000000000000d2 .L0 
C:\Users\rana\AppData\Local\Temp\ccI1844i.s:1736   .text.InfoNES_HSync:00000000000000d4 .L0 
C:\Users\rana\AppData\Local\Temp\ccI1844i.s:1738   .text.InfoNES_HSync:00000000000000d4 .L0 
C:\Users\rana\AppData\Local\Temp\ccI1844i.s:1740   .text.InfoNES_HSync:00000000000000d6 .L0 
C:\Users\rana\AppData\Local\Temp\ccI1844i.s:1741   .text.InfoNES_HSync:00000000000000d8 .L0 
C:\Users\rana\AppData\Local\Temp\ccI1844i.s:1743   .text.InfoNES_HSync:00000000000000d8 .L0 
C:\Users\rana\AppData\Local\Temp\ccI1844i.s:1745   .text.InfoNES_HSync:00000000000000dc .L0 
C:\Users\rana\AppData\Local\Temp\ccI1844i.s:1746   .text.InfoNES_HSync:00000000000000de .L0 
C:\Users\rana\AppData\Local\Temp\ccI1844i.s:1749   .text.InfoNES_HSync:00000000000000e0 .L0 
C:\Users\rana\AppData\Local\Temp\ccI1844i.s:1751   .text.InfoNES_HSync:00000000000000e0 .L0 
C:\Users\rana\AppData\Local\Temp\ccI1844i.s:1754   .text.InfoNES_HSync:00000000000000e8 .L0 
C:\Users\rana\AppData\Local\Temp\ccI1844i.s:1757   .text.InfoNES_HSync:00000000000000ee .L0 
C:\Users\rana\AppData\Local\Temp\ccI1844i.s:1761   .text.InfoNES_HSync:00000000000000f2 .L0 
C:\Users\rana\AppData\Local\Temp\ccI1844i.s:1769   .text.InfoNES_HSync:0000000000000108 .L0 
C:\Users\rana\AppData\Local\Temp\ccI1844i.s:1775   .text.InfoNES_HSync:0000000000000110 .L0 
C:\Users\rana\AppData\Local\Temp\ccI1844i.s:1781   .text.InfoNES_HSync:0000000000000122 .L0 
C:\Users\rana\AppData\Local\Temp\ccI1844i.s:1784   .text.InfoNES_HSync:000000000000012a .L0 
C:\Users\rana\AppData\Local\Temp\ccI1844i.s:1789   .text.InfoNES_HSync:0000000000000138 .L0 
C:\Users\rana\AppData\Local\Temp\ccI1844i.s:1791   .text.InfoNES_HSync:000000000000013c .L0 
C:\Users\rana\AppData\Local\Temp\ccI1844i.s:1794   .text.InfoNES_HSync:0000000000000144 .L0 
C:\Users\rana\AppData\Local\Temp\ccI1844i.s:1796   .text.InfoNES_HSync:0000000000000148 .L0 
C:\Users\rana\AppData\Local\Temp\ccI1844i.s:1798   .text.InfoNES_HSync:000000000000014a .L0 
C:\Users\rana\AppData\Local\Temp\ccI1844i.s:1801   .text.InfoNES_HSync:0000000000000150 .L0 
C:\Users\rana\AppData\Local\Temp\ccI1844i.s:1804   .text.InfoNES_HSync:0000000000000158 .L0 
C:\Users\rana\AppData\Local\Temp\ccI1844i.s:1806   .text.InfoNES_HSync:000000000000015c .L0 
C:\Users\rana\AppData\Local\Temp\ccI1844i.s:1809   .text.InfoNES_HSync:0000000000000160 .L0 
C:\Users\rana\AppData\Local\Temp\ccI1844i.s:1812   .text.InfoNES_HSync:0000000000000168 .L0 
C:\Users\rana\AppData\Local\Temp\ccI1844i.s:1816   .text.InfoNES_HSync:0000000000000170 .L0 
C:\Users\rana\AppData\Local\Temp\ccI1844i.s:1817   .text.InfoNES_HSync:0000000000000172 .L0 
C:\Users\rana\AppData\Local\Temp\ccI1844i.s:1818   .text.InfoNES_HSync:0000000000000172 .L0 
C:\Users\rana\AppData\Local\Temp\ccI1844i.s:1820   .text.InfoNES_HSync:0000000000000174 .L0 
C:\Users\rana\AppData\Local\Temp\ccI1844i.s:1822   .text.InfoNES_HSync:0000000000000176 .L0 
C:\Users\rana\AppData\Local\Temp\ccI1844i.s:1824   .text.InfoNES_HSync:0000000000000176 .L0 
C:\Users\rana\AppData\Local\Temp\ccI1844i.s:1826   .text.InfoNES_HSync:0000000000000178 .L0 
C:\Users\rana\AppData\Local\Temp\ccI1844i.s:1827   .text.InfoNES_HSync:000000000000017a .L0 
C:\Users\rana\AppData\Local\Temp\ccI1844i.s:1830   .text.InfoNES_HSync:000000000000017c .L0 
C:\Users\rana\AppData\Local\Temp\ccI1844i.s:1832   .text.InfoNES_HSync:000000000000017c .L0 
C:\Users\rana\AppData\Local\Temp\ccI1844i.s:1836   .text.InfoNES_HSync:0000000000000186 .L0 
C:\Users\rana\AppData\Local\Temp\ccI1844i.s:1838   .text.InfoNES_HSync:000000000000018a .L0 
C:\Users\rana\AppData\Local\Temp\ccI1844i.s:1840   .text.InfoNES_HSync:000000000000018c .L0 
C:\Users\rana\AppData\Local\Temp\ccI1844i.s:1842   .text.InfoNES_HSync:0000000000000190 .L0 
C:\Users\rana\AppData\Local\Temp\ccI1844i.s:1844   .text.InfoNES_HSync:0000000000000194 .L0 
C:\Users\rana\AppData\Local\Temp\ccI1844i.s:1846   .text.InfoNES_HSync:0000000000000198 .L0 
C:\Users\rana\AppData\Local\Temp\ccI1844i.s:1848   .text.InfoNES_HSync:000000000000019a .L0 
C:\Users\rana\AppData\Local\Temp\ccI1844i.s:1850   .text.InfoNES_HSync:000000000000019e .L0 
C:\Users\rana\AppData\Local\Temp\ccI1844i.s:1856   .text.InfoNES_HSync:00000000000001a8 .L0 
C:\Users\rana\AppData\Local\Temp\ccI1844i.s:1862   .text.InfoNES_HSync:00000000000001b2 .L0 
C:\Users\rana\AppData\Local\Temp\ccI1844i.s:1867   .text.InfoNES_HSync:00000000000001bc .L0 
C:\Users\rana\AppData\Local\Temp\ccI1844i.s:1870   .text.InfoNES_HSync:00000000000001c4 .L0 
C:\Users\rana\AppData\Local\Temp\ccI1844i.s:1873   .text.InfoNES_HSync:00000000000001cc .L0 
C:\Users\rana\AppData\Local\Temp\ccI1844i.s:1882   .text.InfoNES_HSync:00000000000001e4 .L0 
C:\Users\rana\AppData\Local\Temp\ccI1844i.s:1886   .text.InfoNES_HSync:00000000000001ec .L0 
C:\Users\rana\AppData\Local\Temp\ccI1844i.s:1890   .text.InfoNES_HSync:00000000000001f6 .L0 
C:\Users\rana\AppData\Local\Temp\ccI1844i.s:1897   .text.InfoNES_Cycle:0000000000000000 InfoNES_Cycle
C:\Users\rana\AppData\Local\Temp\ccI1844i.s:1900   .text.InfoNES_Cycle:0000000000000000 .L0 
C:\Users\rana\AppData\Local\Temp\ccI1844i.s:1901   .text.InfoNES_Cycle:0000000000000000 .L0 
C:\Users\rana\AppData\Local\Temp\ccI1844i.s:1902   .text.InfoNES_Cycle:0000000000000002 .L0 
C:\Users\rana\AppData\Local\Temp\ccI1844i.s:1909   .text.InfoNES_Cycle:000000000000000e .L0 
C:\Users\rana\AppData\Local\Temp\ccI1844i.s:1910   .text.InfoNES_Cycle:000000000000000e .L0 
C:\Users\rana\AppData\Local\Temp\ccI1844i.s:1911   .text.InfoNES_Cycle:000000000000000e .L0 
C:\Users\rana\AppData\Local\Temp\ccI1844i.s:1912   .text.InfoNES_Cycle:000000000000000e .L0 
C:\Users\rana\AppData\Local\Temp\ccI1844i.s:1913   .text.InfoNES_Cycle:000000000000000e .L0 
C:\Users\rana\AppData\Local\Temp\ccI1844i.s:1914   .text.InfoNES_Cycle:000000000000000e .L0 
C:\Users\rana\AppData\Local\Temp\ccI1844i.s:1920   .text.InfoNES_Cycle:000000000000001a .L0 
C:\Users\rana\AppData\Local\Temp\ccI1844i.s:1922   .text.InfoNES_Cycle:000000000000001e .L0 
C:\Users\rana\AppData\Local\Temp\ccI1844i.s:1926   .text.InfoNES_Cycle:0000000000000026 .L0 
C:\Users\rana\AppData\Local\Temp\ccI1844i.s:1931   .text.InfoNES_Cycle:0000000000000030 .L0 
C:\Users\rana\AppData\Local\Temp\ccI1844i.s:1932   .text.InfoNES_Cycle:0000000000000030 .L0 
C:\Users\rana\AppData\Local\Temp\ccI1844i.s:1933   .text.InfoNES_Cycle:0000000000000030 .L0 
C:\Users\rana\AppData\Local\Temp\ccI1844i.s:1934   .text.InfoNES_Cycle:0000000000000030 .L0 
C:\Users\rana\AppData\Local\Temp\ccI1844i.s:1935   .text.InfoNES_Cycle:0000000000000030 .L0 
C:\Users\rana\AppData\Local\Temp\ccI1844i.s:1942   .text.InfoNES_Cycle:0000000000000040 .L0 
C:\Users\rana\AppData\Local\Temp\ccI1844i.s:1944   .text.InfoNES_Cycle:0000000000000044 .L0 
C:\Users\rana\AppData\Local\Temp\ccI1844i.s:1947   .text.InfoNES_Cycle:000000000000004c .L0 
C:\Users\rana\AppData\Local\Temp\ccI1844i.s:1949   .text.InfoNES_Cycle:0000000000000050 .L0 
C:\Users\rana\AppData\Local\Temp\ccI1844i.s:1953   .text.InfoNES_Cycle:0000000000000056 .L0 
C:\Users\rana\AppData\Local\Temp\ccI1844i.s:1957   .text.InfoNES_Cycle:000000000000005e .L0 
C:\Users\rana\AppData\Local\Temp\ccI1844i.s:1961   .text.InfoNES_Cycle:0000000000000068 .L0 
C:\Users\rana\AppData\Local\Temp\ccI1844i.s:1967   .text.InfoNES_Cycle:0000000000000074 .L0 
C:\Users\rana\AppData\Local\Temp\ccI1844i.s:1972   .text.InfoNES_Cycle:0000000000000080 .L0 
C:\Users\rana\AppData\Local\Temp\ccI1844i.s:1974   .text.InfoNES_Cycle:0000000000000084 .L0 
C:\Users\rana\AppData\Local\Temp\ccI1844i.s:1977   .text.InfoNES_Cycle:000000000000008a .L0 
C:\Users\rana\AppData\Local\Temp\ccI1844i.s:1982   .text.InfoNES_Cycle:0000000000000096 .L0 
C:\Users\rana\AppData\Local\Temp\ccI1844i.s:1984   .text.InfoNES_Cycle:000000000000009a .L0 
C:\Users\rana\AppData\Local\Temp\ccI1844i.s:1988   .text.InfoNES_Cycle:00000000000000a4 .L0 
C:\Users\rana\AppData\Local\Temp\ccI1844i.s:1992   .text.InfoNES_Cycle:00000000000000ac .L0 
C:\Users\rana\AppData\Local\Temp\ccI1844i.s:1996   .text.InfoNES_Cycle:00000000000000b2 .L0 
C:\Users\rana\AppData\Local\Temp\ccI1844i.s:2002   .text.InfoNES_Cycle:00000000000000c0 .L0 
C:\Users\rana\AppData\Local\Temp\ccI1844i.s:2003   .text.InfoNES_Cycle:00000000000000c2 .L0 
C:\Users\rana\AppData\Local\Temp\ccI1844i.s:2004   .text.InfoNES_Cycle:00000000000000c2 .L0 
C:\Users\rana\AppData\Local\Temp\ccI1844i.s:2006   .text.InfoNES_Cycle:00000000000000c4 .L0 
C:\Users\rana\AppData\Local\Temp\ccI1844i.s:2008   .text.InfoNES_Cycle:00000000000000c6 .L0 
C:\Users\rana\AppData\Local\Temp\ccI1844i.s:2010   .text.InfoNES_Cycle:00000000000000c8 .L0 
C:\Users\rana\AppData\Local\Temp\ccI1844i.s:2012   .text.InfoNES_Cycle:00000000000000ca .L0 
C:\Users\rana\AppData\Local\Temp\ccI1844i.s:2014   .text.InfoNES_Cycle:00000000000000cc .L0 
C:\Users\rana\AppData\Local\Temp\ccI1844i.s:2016   .text.InfoNES_Cycle:00000000000000ce .L0 
C:\Users\rana\AppData\Local\Temp\ccI1844i.s:2018   .text.InfoNES_Cycle:00000000000000d0 .L0 
C:\Users\rana\AppData\Local\Temp\ccI1844i.s:2020   .text.InfoNES_Cycle:00000000000000d2 .L0 
C:\Users\rana\AppData\Local\Temp\ccI1844i.s:2022   .text.InfoNES_Cycle:00000000000000d4 .L0 
C:\Users\rana\AppData\Local\Temp\ccI1844i.s:2024   .text.InfoNES_Cycle:00000000000000d6 .L0 
C:\Users\rana\AppData\Local\Temp\ccI1844i.s:2026   .text.InfoNES_Cycle:00000000000000d8 .L0 
C:\Users\rana\AppData\Local\Temp\ccI1844i.s:2029   .text.InfoNES_Cycle:00000000000000da .L0 
C:\Users\rana\AppData\Local\Temp\ccI1844i.s:2032   .text.InfoNES_Cycle:00000000000000da .L0 
C:\Users\rana\AppData\Local\Temp\ccI1844i.s:2038   .text.InfoNES_Cycle:00000000000000e6 .L0 
C:\Users\rana\AppData\Local\Temp\ccI1844i.s:2042   .text.InfoNES_Cycle:00000000000000f0 .L0 
C:\Users\rana\AppData\Local\Temp\ccI1844i.s:2047   .text.InfoNES_Cycle:00000000000000fe .L0 
C:\Users\rana\AppData\Local\Temp\ccI1844i.s:2052   .text.InfoNES_Cycle:0000000000000108 .L0 
C:\Users\rana\AppData\Local\Temp\ccI1844i.s:2055   .text.InfoNES_Cycle:000000000000010c .L0 
C:\Users\rana\AppData\Local\Temp\ccI1844i.s:2059   .text.InfoNES_Cycle:0000000000000114 .L0 
C:\Users\rana\AppData\Local\Temp\ccI1844i.s:2068   .text.InfoNES_Cycle:000000000000012a .L0 
C:\Users\rana\AppData\Local\Temp\ccI1844i.s:2074   .text.InfoNES_Cycle:000000000000013e .L0 
C:\Users\rana\AppData\Local\Temp\ccI1844i.s:2079   .text.InfoNES_Cycle:000000000000014a .L0 
C:\Users\rana\AppData\Local\Temp\ccI1844i.s:2086   .text.InfoNES_Main:0000000000000000 InfoNES_Main
C:\Users\rana\AppData\Local\Temp\ccI1844i.s:2089   .text.InfoNES_Main:0000000000000000 .L0 
C:\Users\rana\AppData\Local\Temp\ccI1844i.s:2090   .text.InfoNES_Main:0000000000000000 .L0 
C:\Users\rana\AppData\Local\Temp\ccI1844i.s:2091   .text.InfoNES_Main:0000000000000002 .L0 
C:\Users\rana\AppData\Local\Temp\ccI1844i.s:2094   .text.InfoNES_Main:0000000000000006 .L0 
C:\Users\rana\AppData\Local\Temp\ccI1844i.s:2095   .text.InfoNES_Main:0000000000000006 .L0 
C:\Users\rana\AppData\Local\Temp\ccI1844i.s:2097   .text.InfoNES_Main:0000000000000006 .L0 
C:\Users\rana\AppData\Local\Temp\ccI1844i.s:2099   .text.InfoNES_Main:0000000000000008 .L0 
C:\Users\rana\AppData\Local\Temp\ccI1844i.s:2104   .text.InfoNES_Main:0000000000000012 .L0 
C:\Users\rana\AppData\Local\Temp\ccI1844i.s:2108   .text.InfoNES_Main:000000000000001a .L0 
C:\Users\rana\AppData\Local\Temp\ccI1844i.s:2112   .text.InfoNES_Main:0000000000000026 .L0 
C:\Users\rana\AppData\Local\Temp\ccI1844i.s:2113   .text.InfoNES_Main:0000000000000028 .L0 
C:\Users\rana\AppData\Local\Temp\ccI1844i.s:2115   .text.InfoNES_Main:000000000000002a .L0 
C:\Users\rana\AppData\Local\Temp\ccI1844i.s:2117   .text.InfoNES_Main:000000000000002c .L0 
C:\Users\rana\AppData\Local\Temp\ccI1844i.s:2121   .text.InfoNES_Main:000000000000002c .L0 
C:\Users\rana\AppData\Local\Temp\ccI1844i.s:2125   .text.InfoNES_Main:0000000000000034 .L0 
C:\Users\rana\AppData\Local\Temp\ccI1844i.s:2729   .sbss.ROM_FourScr:0000000000000000 ROM_FourScr
C:\Users\rana\AppData\Local\Temp\ccI1844i.s:2747   .sbss.ROM_Trainer:0000000000000000 ROM_Trainer
C:\Users\rana\AppData\Local\Temp\ccI1844i.s:2741   .sbss.ROM_SRAM:0000000000000000 ROM_SRAM
C:\Users\rana\AppData\Local\Temp\ccI1844i.s:2735   .sbss.ROM_Mirroring:0000000000000000 ROM_Mirroring
C:\Users\rana\AppData\Local\Temp\ccI1844i.s:2575   .sbss.MapperNo:0000000000000000 MapperNo
C:\Users\rana\AppData\Local\Temp\ccI1844i.s:2186   .bss.NesHeader:0000000000000000 NesHeader
C:\Users\rana\AppData\Local\Temp\ccI1844i.s:2596   .sbss.PAD2_Bit:0000000000000000 PAD2_Bit
C:\Users\rana\AppData\Local\Temp\ccI1844i.s:2582   .sbss.PAD1_Bit:0000000000000000 PAD1_Bit
C:\Users\rana\AppData\Local\Temp\ccI1844i.s:2610   .sbss.PAD_System:0000000000000000 PAD_System
C:\Users\rana\AppData\Local\Temp\ccI1844i.s:2603   .sbss.PAD2_Latch:0000000000000000 PAD2_Latch
C:\Users\rana\AppData\Local\Temp\ccI1844i.s:2589   .sbss.PAD1_Latch:0000000000000000 PAD1_Latch
C:\Users\rana\AppData\Local\Temp\ccI1844i.s:2280   .rodata.JustHitStep:0000000000000000 JustHitStep
C:\Users\rana\AppData\Local\Temp\ccI1844i.s:2246   .data.PPU_MirrorTable:0000000000000000 PPU_MirrorTable
C:\Users\rana\AppData\Local\Temp\ccI1844i.s:2207   .bss.PalTable:0000000000000000 PalTable
C:\Users\rana\AppData\Local\Temp\ccI1844i.s:2239   .bss.WorkLine:0000000000000000 WorkLine
C:\Users\rana\AppData\Local\Temp\ccI1844i.s:2555   .sbss.FrameScanLine:0000000000000000 FrameScanLine
C:\Users\rana\AppData\Local\Temp\ccI1844i.s:2542   .sbss.FrameCnt:0000000000000000 FrameCnt
C:\Users\rana\AppData\Local\Temp\ccI1844i.s:2562   .sbss.FrameSkip:0000000000000000 FrameSkip
C:\Users\rana\AppData\Local\Temp\ccI1844i.s:2569   .sbss.FrameStep:0000000000000000 FrameStep
C:\Users\rana\AppData\Local\Temp\ccI1844i.s:2548   .sbss.FrameIRQ_Enable:0000000000000000 FrameIRQ_Enable
C:\Users\rana\AppData\Local\Temp\ccI1844i.s:2693   .sbss.PPU_UpDown_Clip:0000000000000000 PPU_UpDown_Clip
C:\Users\rana\AppData\Local\Temp\ccI1844i.s:2630   .sbss.PPU_Latch_Flag:0000000000000000 PPU_Latch_Flag
C:\Users\rana\AppData\Local\Temp\ccI1844i.s:2772   .sbss.byVramWriteEnable:0000000000000000 byVramWriteEnable
C:\Users\rana\AppData\Local\Temp\ccI1844i.s:2760   .sbss.SpriteJustHit:0000000000000000 SpriteJustHit
C:\Users\rana\AppData\Local\Temp\ccI1844i.s:2680   .sbss.PPU_SP_Height:0000000000000000 PPU_SP_Height
C:\Users\rana\AppData\Local\Temp\ccI1844i.s:2673   .sbss.PPU_SP_Base:0000000000000000 PPU_SP_Base
C:\Users\rana\AppData\Local\Temp\ccI1844i.s:2617   .sbss.PPU_BG_Base:0000000000000000 PPU_BG_Base
C:\Users\rana\AppData\Local\Temp\ccI1844i.s:2636   .sbss.PPU_NameTableBank:0000000000000000 PPU_NameTableBank
C:\Users\rana\AppData\Local\Temp\ccI1844i.s:2200   .bss.PPU_ScanTable:0000000000000000 PPU_ScanTable
C:\Users\rana\AppData\Local\Temp\ccI1844i.s:2687   .sbss.PPU_Scanline:0000000000000000 PPU_Scanline
C:\Users\rana\AppData\Local\Temp\ccI1844i.s:2624   .sbss.PPU_Increment:0000000000000000 PPU_Increment
C:\Users\rana\AppData\Local\Temp\ccI1844i.s:2779   .sbss.loopy_shift:0000000000000000 loopy_shift
C:\Users\rana\AppData\Local\Temp\ccI1844i.s:2807   .sbss.loopy_y:0000000000000000 loopy_y
C:\Users\rana\AppData\Local\Temp\ccI1844i.s:2800   .sbss.loopy_x:0000000000000000 loopy_x
C:\Users\rana\AppData\Local\Temp\ccI1844i.s:2786   .sbss.loopy_t:0000000000000000 loopy_t
C:\Users\rana\AppData\Local\Temp\ccI1844i.s:2793   .sbss.loopy_v:0000000000000000 loopy_v
C:\Users\rana\AppData\Local\Temp\ccI1844i.s:2666   .sbss.PPU_R7:0000000000000000 PPU_R7
C:\Users\rana\AppData\Local\Temp\ccI1844i.s:2660   .sbss.PPU_R3:0000000000000000 PPU_R3
C:\Users\rana\AppData\Local\Temp\ccI1844i.s:2654   .sbss.PPU_R2:0000000000000000 PPU_R2
C:\Users\rana\AppData\Local\Temp\ccI1844i.s:2648   .sbss.PPU_R1:0000000000000000 PPU_R1
C:\Users\rana\AppData\Local\Temp\ccI1844i.s:2642   .sbss.PPU_R0:0000000000000000 PPU_R0
C:\Users\rana\AppData\Local\Temp\ccI1844i.s:2220   .bss.SPRRAM:0000000000000000 SPRRAM
C:\Users\rana\AppData\Local\Temp\ccI1844i.s:2193   .bss.PPUBANK:0000000000000000 PPUBANK
C:\Users\rana\AppData\Local\Temp\ccI1844i.s:2766   .sbss.VROM:0000000000000000 VROM
C:\Users\rana\AppData\Local\Temp\ccI1844i.s:2723   .sbss.ROMBANK3:0000000000000000 ROMBANK3
C:\Users\rana\AppData\Local\Temp\ccI1844i.s:2717   .sbss.ROMBANK2:0000000000000000 ROMBANK2
C:\Users\rana\AppData\Local\Temp\ccI1844i.s:2711   .sbss.ROMBANK1:0000000000000000 ROMBANK1
C:\Users\rana\AppData\Local\Temp\ccI1844i.s:2705   .sbss.ROMBANK0:0000000000000000 ROMBANK0
C:\Users\rana\AppData\Local\Temp\ccI1844i.s:2753   .sbss.SRAMBANK:0000000000000000 SRAMBANK
C:\Users\rana\AppData\Local\Temp\ccI1844i.s:2699   .sbss.ROM:0000000000000000 ROM
C:\Users\rana\AppData\Local\Temp\ccI1844i.s:2226   .bss.SRAM:0000000000000000 SRAM
C:\Users\rana\AppData\Local\Temp\ccI1844i.s:2183   .bss.NesHeader:0000000000000000 .LANCHOR28
C:\Users\rana\AppData\Local\Temp\ccI1844i.s:2190   .bss.PPUBANK:0000000000000000 .LANCHOR22
C:\Users\rana\AppData\Local\Temp\ccI1844i.s:2197   .bss.PPU_ScanTable:0000000000000000 .LANCHOR0
C:\Users\rana\AppData\Local\Temp\ccI1844i.s:2204   .bss.PalTable:0000000000000000 .LANCHOR35
C:\Users\rana\AppData\Local\Temp\ccI1844i.s:2217   .bss.SPRRAM:0000000000000000 .LANCHOR1
C:\Users\rana\AppData\Local\Temp\ccI1844i.s:2236   .bss.WorkLine:0000000000000000 .LANCHOR41
C:\Users\rana\AppData\Local\Temp\ccI1844i.s:2243   .data.PPU_MirrorTable:0000000000000000 .LANCHOR26
C:\Users\rana\AppData\Local\Temp\ccI1844i.s:2277   .rodata.JustHitStep:0000000000000000 .LANCHOR42
C:\Users\rana\AppData\Local\Temp\ccI1844i.s:2539   .sbss.FrameCnt:0000000000000000 .LANCHOR34
C:\Users\rana\AppData\Local\Temp\ccI1844i.s:2545   .sbss.FrameIRQ_Enable:0000000000000000 .LANCHOR10
C:\Users\rana\AppData\Local\Temp\ccI1844i.s:2552   .sbss.FrameScanLine:0000000000000000 .LANCHOR17
C:\Users\rana\AppData\Local\Temp\ccI1844i.s:2559   .sbss.FrameSkip:0000000000000000 .LANCHOR33
C:\Users\rana\AppData\Local\Temp\ccI1844i.s:2566   .sbss.FrameStep:0000000000000000 .LANCHOR9
C:\Users\rana\AppData\Local\Temp\ccI1844i.s:2572   .sbss.MapperNo:0000000000000000 .LANCHOR29
C:\Users\rana\AppData\Local\Temp\ccI1844i.s:2579   .sbss.PAD1_Bit:0000000000000000 .LANCHOR40
C:\Users\rana\AppData\Local\Temp\ccI1844i.s:2586   .sbss.PAD1_Latch:0000000000000000 .LANCHOR38
C:\Users\rana\AppData\Local\Temp\ccI1844i.s:2593   .sbss.PAD2_Bit:0000000000000000 .LANCHOR39
C:\Users\rana\AppData\Local\Temp\ccI1844i.s:2600   .sbss.PAD2_Latch:0000000000000000 .LANCHOR37
C:\Users\rana\AppData\Local\Temp\ccI1844i.s:2607   .sbss.PAD_System:0000000000000000 .LANCHOR36
C:\Users\rana\AppData\Local\Temp\ccI1844i.s:2614   .sbss.PPU_BG_Base:0000000000000000 .LANCHOR21
C:\Users\rana\AppData\Local\Temp\ccI1844i.s:2621   .sbss.PPU_Increment:0000000000000000 .LANCHOR19
C:\Users\rana\AppData\Local\Temp\ccI1844i.s:2627   .sbss.PPU_Latch_Flag:0000000000000000 .LANCHOR7
C:\Users\rana\AppData\Local\Temp\ccI1844i.s:2633   .sbss.PPU_NameTableBank:0000000000000000 .LANCHOR20
C:\Users\rana\AppData\Local\Temp\ccI1844i.s:2639   .sbss.PPU_R0:0000000000000000 .LANCHOR6
C:\Users\rana\AppData\Local\Temp\ccI1844i.s:2645   .sbss.PPU_R1:0000000000000000 .LANCHOR5
C:\Users\rana\AppData\Local\Temp\ccI1844i.s:2651   .sbss.PPU_R2:0000000000000000 .LANCHOR4
C:\Users\rana\AppData\Local\Temp\ccI1844i.s:2657   .sbss.PPU_R3:0000000000000000 .LANCHOR3
C:\Users\rana\AppData\Local\Temp\ccI1844i.s:2663   .sbss.PPU_R7:0000000000000000 .LANCHOR2
C:\Users\rana\AppData\Local\Temp\ccI1844i.s:2670   .sbss.PPU_SP_Base:0000000000000000 .LANCHOR23
C:\Users\rana\AppData\Local\Temp\ccI1844i.s:2677   .sbss.PPU_SP_Height:0000000000000000 .LANCHOR24
C:\Users\rana\AppData\Local\Temp\ccI1844i.s:2684   .sbss.PPU_Scanline:0000000000000000 .LANCHOR16
C:\Users\rana\AppData\Local\Temp\ccI1844i.s:2690   .sbss.PPU_UpDown_Clip:0000000000000000 .LANCHOR8
C:\Users\rana\AppData\Local\Temp\ccI1844i.s:2726   .sbss.ROM_FourScr:0000000000000000 .LANCHOR32
C:\Users\rana\AppData\Local\Temp\ccI1844i.s:2732   .sbss.ROM_Mirroring:0000000000000000 .LANCHOR25
C:\Users\rana\AppData\Local\Temp\ccI1844i.s:2738   .sbss.ROM_SRAM:0000000000000000 .LANCHOR30
C:\Users\rana\AppData\Local\Temp\ccI1844i.s:2744   .sbss.ROM_Trainer:0000000000000000 .LANCHOR31
C:\Users\rana\AppData\Local\Temp\ccI1844i.s:2757   .sbss.SpriteJustHit:0000000000000000 .LANCHOR18
C:\Users\rana\AppData\Local\Temp\ccI1844i.s:2769   .sbss.byVramWriteEnable:0000000000000000 .LANCHOR27
C:\Users\rana\AppData\Local\Temp\ccI1844i.s:2776   .sbss.loopy_shift:0000000000000000 .LANCHOR15
C:\Users\rana\AppData\Local\Temp\ccI1844i.s:2783   .sbss.loopy_t:0000000000000000 .LANCHOR11
C:\Users\rana\AppData\Local\Temp\ccI1844i.s:2790   .sbss.loopy_v:0000000000000000 .LANCHOR12
C:\Users\rana\AppData\Local\Temp\ccI1844i.s:2797   .sbss.loopy_x:0000000000000000 .LANCHOR14
C:\Users\rana\AppData\Local\Temp\ccI1844i.s:2804   .sbss.loopy_y:0000000000000000 .LANCHOR13
C:\Users\rana\AppData\Local\Temp\ccI1844i.s:80     .text.InfoNES_Init:000000000000005c .L0 
C:\Users\rana\AppData\Local\Temp\ccI1844i.s:94     .text.InfoNES_Fin:0000000000000008 .L0 
C:\Users\rana\AppData\Local\Temp\ccI1844i.s:313    .text.InfoNES_SetupPPU:00000000000001b8 .L0 
C:\Users\rana\AppData\Local\Temp\ccI1844i.s:501    .text.InfoNES_Reset:000000000000014e .L0 
C:\Users\rana\AppData\Local\Temp\ccI1844i.s:550    .text.InfoNES_Load:0000000000000034 .L0 
C:\Users\rana\AppData\Local\Temp\ccI1844i.s:605    .text.InfoNES_Mirroring:000000000000004a .L0 
C:\Users\rana\AppData\Local\Temp\ccI1844i.s:1479   .text.InfoNES_DrawLine:0000000000000628 .L0 
C:\Users\rana\AppData\Local\Temp\ccI1844i.s:1636   .text.InfoNES_GetSprHitY:00000000000000fe .L0 
C:\Users\rana\AppData\Local\Temp\ccI1844i.s:1893   .text.InfoNES_HSync:00000000000001f6 .L0 
C:\Users\rana\AppData\Local\Temp\ccI1844i.s:2082   .text.InfoNES_Cycle:000000000000014a .L0 
C:\Users\rana\AppData\Local\Temp\ccI1844i.s:2181   .text.InfoNES_Main:0000000000000034 .L0 
                     .debug_frame:0000000000000000 .L0 
C:\Users\rana\AppData\Local\Temp\ccI1844i.s:69     .text.InfoNES_Init:0000000000000050 .L11
C:\Users\rana\AppData\Local\Temp\ccI1844i.s:63     .text.InfoNES_Init:0000000000000048 .L4
C:\Users\rana\AppData\Local\Temp\ccI1844i.s:43     .text.InfoNES_Init:000000000000002e .L7
C:\Users\rana\AppData\Local\Temp\ccI1844i.s:73     .text.InfoNES_Init:0000000000000056 .L6
C:\Users\rana\AppData\Local\Temp\ccI1844i.s:50     .text.InfoNES_Init:000000000000003a .L3
C:\Users\rana\AppData\Local\Temp\ccI1844i.s:2273   .rodata.InfoNES_Reset.str1.4:0000000000000000 .LC0
C:\Users\rana\AppData\Local\Temp\ccI1844i.s:356    .text.InfoNES_Reset:0000000000000046 .L25
C:\Users\rana\AppData\Local\Temp\ccI1844i.s:342    .text.InfoNES_Reset:000000000000002e .L17
C:\Users\rana\AppData\Local\Temp\ccI1844i.s:452    .text.InfoNES_Reset:0000000000000114 .L24
C:\Users\rana\AppData\Local\Temp\ccI1844i.s:471    .text.InfoNES_Reset:000000000000012e .L27
C:\Users\rana\AppData\Local\Temp\ccI1844i.s:444    .text.InfoNES_Reset:000000000000010a .L22
C:\Users\rana\AppData\Local\Temp\ccI1844i.s:476    .text.InfoNES_Reset:0000000000000130 .L21
C:\Users\rana\AppData\Local\Temp\ccI1844i.s:440    .text.InfoNES_Reset:0000000000000106 .L23
C:\Users\rana\AppData\Local\Temp\ccI1844i.s:542    .text.InfoNES_Load:0000000000000030 .L31
C:\Users\rana\AppData\Local\Temp\ccI1844i.s:530    .text.InfoNES_Load:0000000000000028 .L29
C:\Users\rana\AppData\Local\Temp\ccI1844i.s:1455   .text.InfoNES_DrawLine:0000000000000600 .L136
C:\Users\rana\AppData\Local\Temp\ccI1844i.s:989    .text.InfoNES_DrawLine:000000000000028e .L137
C:\Users\rana\AppData\Local\Temp\ccI1844i.s:726    .text.InfoNES_DrawLine:00000000000000e0 .L39
C:\Users\rana\AppData\Local\Temp\ccI1844i.s:1024   .text.InfoNES_DrawLine:00000000000002b6 .L40
C:\Users\rana\AppData\Local\Temp\ccI1844i.s:934    .text.InfoNES_DrawLine:0000000000000234 .L41
C:\Users\rana\AppData\Local\Temp\ccI1844i.s:1062   .text.InfoNES_DrawLine:00000000000002fc .L138
C:\Users\rana\AppData\Local\Temp\ccI1844i.s:910    .text.InfoNES_DrawLine:0000000000000204 .L139
C:\Users\rana\AppData\Local\Temp\ccI1844i.s:942    .text.InfoNES_DrawLine:000000000000023e .L36
C:\Users\rana\AppData\Local\Temp\ccI1844i.s:1304   .text.InfoNES_DrawLine:00000000000004d8 .L44
C:\Users\rana\AppData\Local\Temp\ccI1844i.s:1157   .text.InfoNES_DrawLine:00000000000003a8 .L45
C:\Users\rana\AppData\Local\Temp\ccI1844i.s:1447   .text.InfoNES_DrawLine:00000000000005fa .L46
C:\Users\rana\AppData\Local\Temp\ccI1844i.s:1179   .text.InfoNES_DrawLine:00000000000003d6 .L48
C:\Users\rana\AppData\Local\Temp\ccI1844i.s:1364   .text.InfoNES_DrawLine:0000000000000544 .L49
C:\Users\rana\AppData\Local\Temp\ccI1844i.s:1234   .text.InfoNES_DrawLine:0000000000000446 .L50
C:\Users\rana\AppData\Local\Temp\ccI1844i.s:1244   .text.InfoNES_DrawLine:000000000000045c .L51
C:\Users\rana\AppData\Local\Temp\ccI1844i.s:1254   .text.InfoNES_DrawLine:0000000000000472 .L52
C:\Users\rana\AppData\Local\Temp\ccI1844i.s:1264   .text.InfoNES_DrawLine:0000000000000488 .L53
C:\Users\rana\AppData\Local\Temp\ccI1844i.s:1274   .text.InfoNES_DrawLine:000000000000049e .L54
C:\Users\rana\AppData\Local\Temp\ccI1844i.s:1285   .text.InfoNES_DrawLine:00000000000004b6 .L55
C:\Users\rana\AppData\Local\Temp\ccI1844i.s:1295   .text.InfoNES_DrawLine:00000000000004c6 .L56
C:\Users\rana\AppData\Local\Temp\ccI1844i.s:1118   .text.InfoNES_DrawLine:0000000000000370 .L64
C:\Users\rana\AppData\Local\Temp\ccI1844i.s:1466   .text.InfoNES_DrawLine:0000000000000618 .L140
C:\Users\rana\AppData\Local\Temp\ccI1844i.s:1349   .text.InfoNES_DrawLine:000000000000052a .L66
C:\Users\rana\AppData\Local\Temp\ccI1844i.s:1345   .text.InfoNES_DrawLine:0000000000000522 .L67
C:\Users\rana\AppData\Local\Temp\ccI1844i.s:1322   .text.InfoNES_DrawLine:00000000000004fc .L68
C:\Users\rana\AppData\Local\Temp\ccI1844i.s:956    .text.InfoNES_DrawLine:0000000000000254 .L34
C:\Users\rana\AppData\Local\Temp\ccI1844i.s:1373   .text.InfoNES_DrawLine:0000000000000556 .L57
C:\Users\rana\AppData\Local\Temp\ccI1844i.s:1382   .text.InfoNES_DrawLine:000000000000056c .L58
C:\Users\rana\AppData\Local\Temp\ccI1844i.s:1392   .text.InfoNES_DrawLine:0000000000000586 .L59
C:\Users\rana\AppData\Local\Temp\ccI1844i.s:1402   .text.InfoNES_DrawLine:00000000000005a0 .L60
C:\Users\rana\AppData\Local\Temp\ccI1844i.s:1412   .text.InfoNES_DrawLine:00000000000005ba .L61
C:\Users\rana\AppData\Local\Temp\ccI1844i.s:1423   .text.InfoNES_DrawLine:00000000000005ce .L62
C:\Users\rana\AppData\Local\Temp\ccI1844i.s:1435   .text.InfoNES_DrawLine:00000000000005e6 .L63
C:\Users\rana\AppData\Local\Temp\ccI1844i.s:1315   .text.InfoNES_DrawLine:00000000000004ea .L65
C:\Users\rana\AppData\Local\Temp\ccI1844i.s:1622   .text.InfoNES_GetSprHitY:00000000000000ee .L157
C:\Users\rana\AppData\Local\Temp\ccI1844i.s:1541   .text.InfoNES_GetSprHitY:0000000000000072 .L143
C:\Users\rana\AppData\Local\Temp\ccI1844i.s:1594   .text.InfoNES_GetSprHitY:00000000000000ce .L144
C:\Users\rana\AppData\Local\Temp\ccI1844i.s:1555   .text.InfoNES_GetSprHitY:0000000000000092 .L158
C:\Users\rana\AppData\Local\Temp\ccI1844i.s:1531   .text.InfoNES_GetSprHitY:0000000000000064 .L146
C:\Users\rana\AppData\Local\Temp\ccI1844i.s:1537   .text.InfoNES_GetSprHitY:0000000000000070 .L141
C:\Users\rana\AppData\Local\Temp\ccI1844i.s:1602   .text.InfoNES_GetSprHitY:00000000000000da .L149
C:\Users\rana\AppData\Local\Temp\ccI1844i.s:1572   .text.InfoNES_GetSprHitY:00000000000000ae .L153
C:\Users\rana\AppData\Local\Temp\ccI1844i.s:1548   .text.InfoNES_GetSprHitY:000000000000007e .L145
C:\Users\rana\AppData\Local\Temp\ccI1844i.s:1612   .text.InfoNES_GetSprHitY:00000000000000e4 .L159
C:\Users\rana\AppData\Local\Temp\ccI1844i.s:1588   .text.InfoNES_GetSprHitY:00000000000000c8 .L152
C:\Users\rana\AppData\Local\Temp\ccI1844i.s:1591   .text.InfoNES_GetSprHitY:00000000000000cc .L160
C:\Users\rana\AppData\Local\Temp\ccI1844i.s:1497   .text.InfoNES_GetSprHitY:0000000000000016 .L142
C:\Users\rana\AppData\Local\Temp\ccI1844i.s:1669   .text.InfoNES_HSync:0000000000000036 .L162
C:\Users\rana\AppData\Local\Temp\ccI1844i.s:1865   .text.InfoNES_HSync:00000000000001bc .L187
C:\Users\rana\AppData\Local\Temp\ccI1844i.s:1748   .text.InfoNES_HSync:00000000000000e0 .L163
C:\Users\rana\AppData\Local\Temp\ccI1844i.s:1759   .text.InfoNES_HSync:00000000000000f2 .L177
C:\Users\rana\AppData\Local\Temp\ccI1844i.s:1860   .text.InfoNES_HSync:00000000000001b2 .L175
C:\Users\rana\AppData\Local\Temp\ccI1844i.s:1814   .text.InfoNES_HSync:0000000000000170 .L186
C:\Users\rana\AppData\Local\Temp\ccI1844i.s:1854   .text.InfoNES_HSync:00000000000001a8 .L188
C:\Users\rana\AppData\Local\Temp\ccI1844i.s:1728   .text.InfoNES_HSync:00000000000000cc .L174
C:\Users\rana\AppData\Local\Temp\ccI1844i.s:1829   .text.InfoNES_HSync:000000000000017c .L189
C:\Users\rana\AppData\Local\Temp\ccI1844i.s:1686   .text.InfoNES_HSync:000000000000005c .L185
C:\Users\rana\AppData\Local\Temp\ccI1844i.s:1880   .text.InfoNES_HSync:00000000000001e4 .L190
C:\Users\rana\AppData\Local\Temp\ccI1844i.s:1773   .text.InfoNES_HSync:0000000000000110 .L167
C:\Users\rana\AppData\Local\Temp\ccI1844i.s:1695   .text.InfoNES_HSync:0000000000000076 .L173
C:\Users\rana\AppData\Local\Temp\ccI1844i.s:1807   .text.InfoNES_HSync:0000000000000160 .L176
C:\Users\rana\AppData\Local\Temp\ccI1844i.s:1955   .text.InfoNES_Cycle:000000000000005e .L198
C:\Users\rana\AppData\Local\Temp\ccI1844i.s:1965   .text.InfoNES_Cycle:0000000000000074 .L192
C:\Users\rana\AppData\Local\Temp\ccI1844i.s:2028   .text.InfoNES_Cycle:00000000000000da .L209
C:\Users\rana\AppData\Local\Temp\ccI1844i.s:1990   .text.InfoNES_Cycle:00000000000000ac .L196
C:\Users\rana\AppData\Local\Temp\ccI1844i.s:1951   .text.InfoNES_Cycle:0000000000000056 .L210
C:\Users\rana\AppData\Local\Temp\ccI1844i.s:2066   .text.InfoNES_Cycle:000000000000012a .L211
C:\Users\rana\AppData\Local\Temp\ccI1844i.s:2057   .text.InfoNES_Cycle:0000000000000114 .L194
C:\Users\rana\AppData\Local\Temp\ccI1844i.s:1970   .text.InfoNES_Cycle:0000000000000080 .L195
C:\Users\rana\AppData\Local\Temp\ccI1844i.s:2050   .text.InfoNES_Cycle:0000000000000108 .L212
C:\Users\rana\AppData\Local\Temp\ccI1844i.s:2106   .text.InfoNES_Main:000000000000001a .L215
C:\Users\rana\AppData\Local\Temp\ccI1844i.s:2102   .text.InfoNES_Main:0000000000000012 .L217
C:\Users\rana\AppData\Local\Temp\ccI1844i.s:5594   .debug_abbrev:0000000000000000 .Ldebug_abbrev0
C:\Users\rana\AppData\Local\Temp\ccI1844i.s:7747   .debug_str:0000000000000653 .LASF251
C:\Users\rana\AppData\Local\Temp\ccI1844i.s:7751   .debug_str:00000000000006fe .LASF252
C:\Users\rana\AppData\Local\Temp\ccI1844i.s:7443   .debug_str:000000000000001f .LASF253
C:\Users\rana\AppData\Local\Temp\ccI1844i.s:7349   .debug_ranges:0000000000000000 .Ldebug_ranges0
C:\Users\rana\AppData\Local\Temp\ccI1844i.s:7435   .debug_line:0000000000000000 .Ldebug_line0
C:\Users\rana\AppData\Local\Temp\ccI1844i.s:7569   .debug_str:00000000000002d1 .LASF0
C:\Users\rana\AppData\Local\Temp\ccI1844i.s:7849   .debug_str:00000000000008d7 .LASF2
C:\Users\rana\AppData\Local\Temp\ccI1844i.s:7723   .debug_str:00000000000005d5 .LASF1
C:\Users\rana\AppData\Local\Temp\ccI1844i.s:7911   .debug_str:0000000000000a1e .LASF3
C:\Users\rana\AppData\Local\Temp\ccI1844i.s:7721   .debug_str:00000000000005d0 .LASF4
C:\Users\rana\AppData\Local\Temp\ccI1844i.s:7865   .debug_str:000000000000092e .LASF5
C:\Users\rana\AppData\Local\Temp\ccI1844i.s:7799   .debug_str:00000000000007f2 .LASF6
C:\Users\rana\AppData\Local\Temp\ccI1844i.s:7907   .debug_str:0000000000000a0b .LASF7
C:\Users\rana\AppData\Local\Temp\ccI1844i.s:7789   .debug_str:00000000000007bc .LASF8
C:\Users\rana\AppData\Local\Temp\ccI1844i.s:7791   .debug_str:00000000000007c6 .LASF9
C:\Users\rana\AppData\Local\Temp\ccI1844i.s:7705   .debug_str:0000000000000589 .LASF10
C:\Users\rana\AppData\Local\Temp\ccI1844i.s:7579   .debug_str:0000000000000309 .LASF11
C:\Users\rana\AppData\Local\Temp\ccI1844i.s:7473   .debug_str:00000000000000f1 .LASF12
C:\Users\rana\AppData\Local\Temp\ccI1844i.s:7761   .debug_str:0000000000000745 .LASF13
C:\Users\rana\AppData\Local\Temp\ccI1844i.s:7509   .debug_str:00000000000001ac .LASF14
C:\Users\rana\AppData\Local\Temp\ccI1844i.s:7917   .debug_str:0000000000000a40 .LASF15
C:\Users\rana\AppData\Local\Temp\ccI1844i.s:7527   .debug_str:000000000000021a .LASF16
C:\Users\rana\AppData\Local\Temp\ccI1844i.s:7903   .debug_str:00000000000009f2 .LASF17
C:\Users\rana\AppData\Local\Temp\ccI1844i.s:7853   .debug_str:00000000000008f0 .LASF18
C:\Users\rana\AppData\Local\Temp\ccI1844i.s:7683   .debug_str:0000000000000521 .LASF19
C:\Users\rana\AppData\Local\Temp\ccI1844i.s:7813   .debug_str:0000000000000823 .LASF20
C:\Users\rana\AppData\Local\Temp\ccI1844i.s:7559   .debug_str:00000000000002a6 .LASF21
C:\Users\rana\AppData\Local\Temp\ccI1844i.s:7647   .debug_str:000000000000045f .LASF22
C:\Users\rana\AppData\Local\Temp\ccI1844i.s:7729   .debug_str:00000000000005ed .LASF23
C:\Users\rana\AppData\Local\Temp\ccI1844i.s:7679   .debug_str:0000000000000505 .LASF24
C:\Users\rana\AppData\Local\Temp\ccI1844i.s:7713   .debug_str:00000000000005ad .LASF25
C:\Users\rana\AppData\Local\Temp\ccI1844i.s:7537   .debug_str:0000000000000246 .LASF30
C:\Users\rana\AppData\Local\Temp\ccI1844i.s:7627   .debug_str:00000000000003f9 .LASF26
C:\Users\rana\AppData\Local\Temp\ccI1844i.s:7831   .debug_str:0000000000000882 .LASF27
C:\Users\rana\AppData\Local\Temp\ccI1844i.s:7805   .debug_str:0000000000000806 .LASF28
C:\Users\rana\AppData\Local\Temp\ccI1844i.s:7585   .debug_str:0000000000000335 .LASF29
C:\Users\rana\AppData\Local\Temp\ccI1844i.s:7843   .debug_str:00000000000008c1 .LASF31
C:\Users\rana\AppData\Local\Temp\ccI1844i.s:7609   .debug_str:00000000000003a9 .LASF32
C:\Users\rana\AppData\Local\Temp\ccI1844i.s:7563   .debug_str:00000000000002b5 .LASF33
C:\Users\rana\AppData\Local\Temp\ccI1844i.s:7545   .debug_str:0000000000000270 .LASF34
C:\Users\rana\AppData\Local\Temp\ccI1844i.s:7659   .debug_str:0000000000000498 .LASF35
C:\Users\rana\AppData\Local\Temp\ccI1844i.s:7759   .debug_str:000000000000073c .LASF36
C:\Users\rana\AppData\Local\Temp\ccI1844i.s:7819   .debug_str:000000000000084b .LASF37
C:\Users\rana\AppData\Local\Temp\ccI1844i.s:7541   .debug_str:000000000000025e .LASF38
C:\Users\rana\AppData\Local\Temp\ccI1844i.s:7613   .debug_str:00000000000003b9 .LASF39
C:\Users\rana\AppData\Local\Temp\ccI1844i.s:7739   .debug_str:0000000000000624 .LASF40
C:\Users\rana\AppData\Local\Temp\ccI1844i.s:7453   .debug_str:0000000000000087 .LASF41
C:\Users\rana\AppData\Local\Temp\ccI1844i.s:7735   .debug_str:0000000000000610 .LASF42
C:\Users\rana\AppData\Local\Temp\ccI1844i.s:7855   .debug_str:00000000000008f7 .LASF43
C:\Users\rana\AppData\Local\Temp\ccI1844i.s:7913   .debug_str:0000000000000a31 .LASF44
C:\Users\rana\AppData\Local\Temp\ccI1844i.s:7933   .debug_str:0000000000000a8d .LASF45
C:\Users\rana\AppData\Local\Temp\ccI1844i.s:7779   .debug_str:0000000000000794 .LASF46
C:\Users\rana\AppData\Local\Temp\ccI1844i.s:7617   .debug_str:00000000000003c8 .LASF47
C:\Users\rana\AppData\Local\Temp\ccI1844i.s:7529   .debug_str:0000000000000222 .LASF48
C:\Users\rana\AppData\Local\Temp\ccI1844i.s:7883   .debug_str:0000000000000992 .LASF49
C:\Users\rana\AppData\Local\Temp\ccI1844i.s:7707   .debug_str:0000000000000597 .LASF50
C:\Users\rana\AppData\Local\Temp\ccI1844i.s:7915   .debug_str:0000000000000a3a .LASF51
C:\Users\rana\AppData\Local\Temp\ccI1844i.s:7583   .debug_str:000000000000032d .LASF52
C:\Users\rana\AppData\Local\Temp\ccI1844i.s:7485   .debug_str:0000000000000130 .LASF53
C:\Users\rana\AppData\Local\Temp\ccI1844i.s:7719   .debug_str:00000000000005ca .LASF54
C:\Users\rana\AppData\Local\Temp\ccI1844i.s:7483   .debug_str:0000000000000127 .LASF55
C:\Users\rana\AppData\Local\Temp\ccI1844i.s:7533   .debug_str:0000000000000238 .LASF56
C:\Users\rana\AppData\Local\Temp\ccI1844i.s:7515   .debug_str:00000000000001e1 .LASF57
C:\Users\rana\AppData\Local\Temp\ccI1844i.s:7773   .debug_str:000000000000077d .LASF58
C:\Users\rana\AppData\Local\Temp\ccI1844i.s:7941   .debug_str:0000000000000ab1 .LASF59
C:\Users\rana\AppData\Local\Temp\ccI1844i.s:7689   .debug_str:0000000000000534 .LASF60
C:\Users\rana\AppData\Local\Temp\ccI1844i.s:7947   .debug_str:0000000000000ac8 .LASF61
C:\Users\rana\AppData\Local\Temp\ccI1844i.s:7919   .debug_str:0000000000000a47 .LASF62
C:\Users\rana\AppData\Local\Temp\ccI1844i.s:7841   .debug_str:00000000000008b8 .LASF63
C:\Users\rana\AppData\Local\Temp\ccI1844i.s:7593   .debug_str:0000000000000350 .LASF64
C:\Users\rana\AppData\Local\Temp\ccI1844i.s:7809   .debug_str:0000000000000811 .LASF65
C:\Users\rana\AppData\Local\Temp\ccI1844i.s:7847   .debug_str:00000000000008d1 .LASF66
C:\Users\rana\AppData\Local\Temp\ccI1844i.s:7781   .debug_str:000000000000079c .LASF67
C:\Users\rana\AppData\Local\Temp\ccI1844i.s:7929   .debug_str:0000000000000a80 .LASF68
C:\Users\rana\AppData\Local\Temp\ccI1844i.s:7909   .debug_str:0000000000000a17 .LASF69
C:\Users\rana\AppData\Local\Temp\ccI1844i.s:7487   .debug_str:0000000000000137 .LASF70
C:\Users\rana\AppData\Local\Temp\ccI1844i.s:7701   .debug_str:0000000000000573 .LASF71
C:\Users\rana\AppData\Local\Temp\ccI1844i.s:7523   .debug_str:0000000000000208 .LASF72
C:\Users\rana\AppData\Local\Temp\ccI1844i.s:7943   .debug_str:0000000000000ab7 .LASF73
C:\Users\rana\AppData\Local\Temp\ccI1844i.s:7615   .debug_str:00000000000003c3 .LASF74
C:\Users\rana\AppData\Local\Temp\ccI1844i.s:7597   .debug_str:0000000000000364 .LASF75
C:\Users\rana\AppData\Local\Temp\ccI1844i.s:7927   .debug_str:0000000000000a67 .LASF76
C:\Users\rana\AppData\Local\Temp\ccI1844i.s:7901   .debug_str:00000000000009ea .LASF77
C:\Users\rana\AppData\Local\Temp\ccI1844i.s:7693   .debug_str:0000000000000547 .LASF78
C:\Users\rana\AppData\Local\Temp\ccI1844i.s:7725   .debug_str:00000000000005da .LASF79
C:\Users\rana\AppData\Local\Temp\ccI1844i.s:7543   .debug_str:0000000000000268 .LASF80
C:\Users\rana\AppData\Local\Temp\ccI1844i.s:7577   .debug_str:00000000000002ff .LASF81
C:\Users\rana\AppData\Local\Temp\ccI1844i.s:7649   .debug_str:0000000000000467 .LASF82
C:\Users\rana\AppData\Local\Temp\ccI1844i.s:7709   .debug_str:000000000000059d .LASF83
C:\Users\rana\AppData\Local\Temp\ccI1844i.s:7829   .debug_str:000000000000087a .LASF84
C:\Users\rana\AppData\Local\Temp\ccI1844i.s:7863   .debug_str:0000000000000926 .LASF85
C:\Users\rana\AppData\Local\Temp\ccI1844i.s:7827   .debug_str:0000000000000875 .LASF86
C:\Users\rana\AppData\Local\Temp\ccI1844i.s:7665   .debug_str:00000000000004bb .LASF87
C:\Users\rana\AppData\Local\Temp\ccI1844i.s:7661   .debug_str:00000000000004a2 .LASF88
C:\Users\rana\AppData\Local\Temp\ccI1844i.s:7891   .debug_str:00000000000009b4 .LASF89
C:\Users\rana\AppData\Local\Temp\ccI1844i.s:7803   .debug_str:0000000000000801 .LASF90
C:\Users\rana\AppData\Local\Temp\ccI1844i.s:7655   .debug_str:000000000000048a .LASF91
C:\Users\rana\AppData\Local\Temp\ccI1844i.s:7591   .debug_str:0000000000000349 .LASF92
C:\Users\rana\AppData\Local\Temp\ccI1844i.s:7885   .debug_str:0000000000000999 .LASF93
C:\Users\rana\AppData\Local\Temp\ccI1844i.s:7851   .debug_str:00000000000008e9 .LASF94
C:\Users\rana\AppData\Local\Temp\ccI1844i.s:7685   .debug_str:0000000000000527 .LASF95
C:\Users\rana\AppData\Local\Temp\ccI1844i.s:7571   .debug_str:00000000000002d7 .LASF96
C:\Users\rana\AppData\Local\Temp\ccI1844i.s:7935   .debug_str:0000000000000a95 .LASF97
C:\Users\rana\AppData\Local\Temp\ccI1844i.s:7711   .debug_str:00000000000005a7 .LASF98
C:\Users\rana\AppData\Local\Temp\ccI1844i.s:7879   .debug_str:0000000000000985 .LASF99
C:\Users\rana\AppData\Local\Temp\ccI1844i.s:7921   .debug_str:0000000000000a4d .LASF100
C:\Users\rana\AppData\Local\Temp\ccI1844i.s:7893   .debug_str:00000000000009bc .LASF101
C:\Users\rana\AppData\Local\Temp\ccI1844i.s:7581   .debug_str:0000000000000320 .LASF102
C:\Users\rana\AppData\Local\Temp\ccI1844i.s:7823   .debug_str:000000000000085e .LASF103
C:\Users\rana\AppData\Local\Temp\ccI1844i.s:7703   .debug_str:000000000000057a .LASF104
C:\Users\rana\AppData\Local\Temp\ccI1844i.s:7937   .debug_str:0000000000000a9b .LASF105
C:\Users\rana\AppData\Local\Temp\ccI1844i.s:7467   .debug_str:00000000000000d2 .LASF106
C:\Users\rana\AppData\Local\Temp\ccI1844i.s:7653   .debug_str:000000000000047d .LASF107
C:\Users\rana\AppData\Local\Temp\ccI1844i.s:7895   .debug_str:00000000000009c9 .LASF108
C:\Users\rana\AppData\Local\Temp\ccI1844i.s:7461   .debug_str:00000000000000ac .LASF109
C:\Users\rana\AppData\Local\Temp\ccI1844i.s:7833   .debug_str:000000000000088a .LASF110
C:\Users\rana\AppData\Local\Temp\ccI1844i.s:7471   .debug_str:00000000000000e5 .LASF111
C:\Users\rana\AppData\Local\Temp\ccI1844i.s:7873   .debug_str:0000000000000966 .LASF112
C:\Users\rana\AppData\Local\Temp\ccI1844i.s:7521   .debug_str:00000000000001fa .LASF113
C:\Users\rana\AppData\Local\Temp\ccI1844i.s:7663   .debug_str:00000000000004ac .LASF114
C:\Users\rana\AppData\Local\Temp\ccI1844i.s:7631   .debug_str:000000000000040d .LASF115
C:\Users\rana\AppData\Local\Temp\ccI1844i.s:7715   .debug_str:00000000000005b5 .LASF116
C:\Users\rana\AppData\Local\Temp\ccI1844i.s:7651   .debug_str:000000000000046c .LASF117
C:\Users\rana\AppData\Local\Temp\ccI1844i.s:7745   .debug_str:000000000000064a .LASF118
C:\Users\rana\AppData\Local\Temp\ccI1844i.s:7567   .debug_str:00000000000002ca .LASF119
C:\Users\rana\AppData\Local\Temp\ccI1844i.s:7945   .debug_str:0000000000000abf .LASF120
C:\Users\rana\AppData\Local\Temp\ccI1844i.s:7825   .debug_str:000000000000086d .LASF121
C:\Users\rana\AppData\Local\Temp\ccI1844i.s:7939   .debug_str:0000000000000aa6 .LASF254
C:\Users\rana\AppData\Local\Temp\ccI1844i.s:7565   .debug_str:00000000000002be .LASF122
C:\Users\rana\AppData\Local\Temp\ccI1844i.s:7815   .debug_str:000000000000082a .LASF123
C:\Users\rana\AppData\Local\Temp\ccI1844i.s:7605   .debug_str:000000000000039c .LASF124
C:\Users\rana\AppData\Local\Temp\ccI1844i.s:7889   .debug_str:00000000000009ab .LASF125
C:\Users\rana\AppData\Local\Temp\ccI1844i.s:7635   .debug_str:0000000000000429 .LASF126
C:\Users\rana\AppData\Local\Temp\ccI1844i.s:7637   .debug_str:0000000000000432 .LASF127
C:\Users\rana\AppData\Local\Temp\ccI1844i.s:7639   .debug_str:000000000000043b .LASF128
C:\Users\rana\AppData\Local\Temp\ccI1844i.s:7641   .debug_str:0000000000000444 .LASF129
C:\Users\rana\AppData\Local\Temp\ccI1844i.s:7459   .debug_str:00000000000000a7 .LASF130
C:\Users\rana\AppData\Local\Temp\ccI1844i.s:7931   .debug_str:0000000000000a88 .LASF131
C:\Users\rana\AppData\Local\Temp\ccI1844i.s:7925   .debug_str:0000000000000a5f .LASF132
C:\Users\rana\AppData\Local\Temp\ccI1844i.s:7455   .debug_str:0000000000000095 .LASF133
C:\Users\rana\AppData\Local\Temp\ccI1844i.s:7551   .debug_str:000000000000028a .LASF134
C:\Users\rana\AppData\Local\Temp\ccI1844i.s:7553   .debug_str:0000000000000291 .LASF135
C:\Users\rana\AppData\Local\Temp\ccI1844i.s:7555   .debug_str:0000000000000298 .LASF136
C:\Users\rana\AppData\Local\Temp\ccI1844i.s:7557   .debug_str:000000000000029f .LASF137
C:\Users\rana\AppData\Local\Temp\ccI1844i.s:7561   .debug_str:00000000000002ae .LASF138
C:\Users\rana\AppData\Local\Temp\ccI1844i.s:7755   .debug_str:000000000000071b .LASF139
C:\Users\rana\AppData\Local\Temp\ccI1844i.s:7465   .debug_str:00000000000000c4 .LASF140
C:\Users\rana\AppData\Local\Temp\ccI1844i.s:7503   .debug_str:0000000000000194 .LASF141
C:\Users\rana\AppData\Local\Temp\ccI1844i.s:7501   .debug_str:000000000000018c .LASF142
C:\Users\rana\AppData\Local\Temp\ccI1844i.s:7505   .debug_str:000000000000019c .LASF143
C:\Users\rana\AppData\Local\Temp\ccI1844i.s:7507   .debug_str:00000000000001a4 .LASF144
C:\Users\rana\AppData\Local\Temp\ccI1844i.s:7595   .debug_str:0000000000000358 .LASF145
C:\Users\rana\AppData\Local\Temp\ccI1844i.s:7475   .debug_str:00000000000000fe .LASF146
C:\Users\rana\AppData\Local\Temp\ccI1844i.s:7867   .debug_str:000000000000093c .LASF147
C:\Users\rana\AppData\Local\Temp\ccI1844i.s:7951   .debug_str:0000000000000ada .LASF148
C:\Users\rana\AppData\Local\Temp\ccI1844i.s:7795   .debug_str:00000000000007d8 .LASF149
C:\Users\rana\AppData\Local\Temp\ccI1844i.s:7811   .debug_str:0000000000000817 .LASF150
C:\Users\rana\AppData\Local\Temp\ccI1844i.s:7769   .debug_str:0000000000000767 .LASF151
C:\Users\rana\AppData\Local\Temp\ccI1844i.s:7699   .debug_str:0000000000000565 .LASF152
C:\Users\rana\AppData\Local\Temp\ccI1844i.s:7573   .debug_str:00000000000002df .LASF153
C:\Users\rana\AppData\Local\Temp\ccI1844i.s:7513   .debug_str:00000000000001d1 .LASF154
C:\Users\rana\AppData\Local\Temp\ccI1844i.s:7463   .debug_str:00000000000000ba .LASF155
C:\Users\rana\AppData\Local\Temp\ccI1844i.s:7645   .debug_str:0000000000000455 .LASF156
C:\Users\rana\AppData\Local\Temp\ccI1844i.s:7657   .debug_str:000000000000048f .LASF157
C:\Users\rana\AppData\Local\Temp\ccI1844i.s:7481   .debug_str:000000000000011d .LASF158
C:\Users\rana\AppData\Local\Temp\ccI1844i.s:7741   .debug_str:000000000000062f .LASF159
C:\Users\rana\AppData\Local\Temp\ccI1844i.s:7677   .debug_str:00000000000004fc .LASF160
C:\Users\rana\AppData\Local\Temp\ccI1844i.s:7821   .debug_str:0000000000000855 .LASF161
C:\Users\rana\AppData\Local\Temp\ccI1844i.s:7733   .debug_str:0000000000000605 .LASF162
C:\Users\rana\AppData\Local\Temp\ccI1844i.s:7499   .debug_str:0000000000000181 .LASF163
C:\Users\rana\AppData\Local\Temp\ccI1844i.s:7845   .debug_str:00000000000008c6 .LASF164
C:\Users\rana\AppData\Local\Temp\ccI1844i.s:7897   .debug_str:00000000000009d7 .LASF165
C:\Users\rana\AppData\Local\Temp\ccI1844i.s:7727   .debug_str:00000000000005e4 .LASF166
C:\Users\rana\AppData\Local\Temp\ccI1844i.s:7575   .debug_str:00000000000002f1 .LASF167
C:\Users\rana\AppData\Local\Temp\ccI1844i.s:7923   .debug_str:0000000000000a5a .LASF168
C:\Users\rana\AppData\Local\Temp\ccI1844i.s:7771   .debug_str:0000000000000773 .LASF169
C:\Users\rana\AppData\Local\Temp\ccI1844i.s:7447   .debug_str:000000000000005e .LASF170
C:\Users\rana\AppData\Local\Temp\ccI1844i.s:7547   .debug_str:000000000000027a .LASF171
C:\Users\rana\AppData\Local\Temp\ccI1844i.s:7549   .debug_str:0000000000000282 .LASF172
C:\Users\rana\AppData\Local\Temp\ccI1844i.s:7899   .debug_str:00000000000009e0 .LASF173
C:\Users\rana\AppData\Local\Temp\ccI1844i.s:7953   .debug_str:0000000000000ae8 .LASF174
C:\Users\rana\AppData\Local\Temp\ccI1844i.s:7763   .debug_str:0000000000000751 .LASF175
C:\Users\rana\AppData\Local\Temp\ccI1844i.s:7817   .debug_str:000000000000083d .LASF176
C:\Users\rana\AppData\Local\Temp\ccI1844i.s:7749   .debug_str:00000000000006f5 .LASF177
C:\Users\rana\AppData\Local\Temp\ccI1844i.s:7949   .debug_str:0000000000000ace .LASF178
C:\Users\rana\AppData\Local\Temp\ccI1844i.s:7837   .debug_str:00000000000008a0 .LASF179
C:\Users\rana\AppData\Local\Temp\ccI1844i.s:7519   .debug_str:00000000000001ef .LASF180
C:\Users\rana\AppData\Local\Temp\ccI1844i.s:7785   .debug_str:00000000000007b2 .LASF181
C:\Users\rana\AppData\Local\Temp\ccI1844i.s:7479   .debug_str:0000000000000118 .LASF182
C:\Users\rana\AppData\Local\Temp\ccI1844i.s:7495   .debug_str:0000000000000164 .LASF183
C:\Users\rana\AppData\Local\Temp\ccI1844i.s:7691   .debug_str:000000000000053b .LASF184
C:\Users\rana\AppData\Local\Temp\ccI1844i.s:7667   .debug_str:00000000000004c4 .LASF185
C:\Users\rana\AppData\Local\Temp\ccI1844i.s:7525   .debug_str:0000000000000210 .LASF186
C:\Users\rana\AppData\Local\Temp\ccI1844i.s:7451   .debug_str:0000000000000079 .LASF187
C:\Users\rana\AppData\Local\Temp\ccI1844i.s:7887   .debug_str:000000000000099f .LASF188
C:\Users\rana\AppData\Local\Temp\ccI1844i.s:7835   .debug_str:0000000000000894 .LASF189
C:\Users\rana\AppData\Local\Temp\ccI1844i.s:7587   .debug_str:000000000000033a .LASF190
C:\Users\rana\AppData\Local\Temp\ccI1844i.s:7601   .debug_str:0000000000000379 .LASF191
C:\Users\rana\AppData\Local\Temp\ccI1844i.s:7539   .debug_str:000000000000024e .LASF192
C:\Users\rana\AppData\Local\Temp\ccI1844i.s:7599   .debug_str:000000000000036f .LASF193
C:\Users\rana\AppData\Local\Temp\ccI1844i.s:7869   .debug_str:0000000000000949 .LASF194
C:\Users\rana\AppData\Local\Temp\ccI1844i.s:7857   .debug_str:0000000000000903 .LASF195
C:\Users\rana\AppData\Local\Temp\ccI1844i.s:7777   .debug_str:000000000000078a .LASF196
C:\Users\rana\AppData\Local\Temp\ccI1844i.s:7477   .debug_str:000000000000010e .LASF197
C:\Users\rana\AppData\Local\Temp\ccI1844i.s:7603   .debug_str:000000000000038c .LASF198
C:\Users\rana\AppData\Local\Temp\ccI1844i.s:7625   .debug_str:00000000000003eb .LASF199
C:\Users\rana\AppData\Local\Temp\ccI1844i.s:7449   .debug_str:0000000000000069 .LASF200
C:\Users\rana\AppData\Local\Temp\ccI1844i.s:7859   .debug_str:000000000000090f .LASF201
C:\Users\rana\AppData\Local\Temp\ccI1844i.s:7681   .debug_str:000000000000050e .LASF206
C:\Users\rana\AppData\Local\Temp\ccI1844i.s:1484   .text.InfoNES_GetSprHitY:0000000000000000 .LFB11
C:\Users\rana\AppData\Local\Temp\ccI1844i.s:1634   .text.InfoNES_GetSprHitY:00000000000000fe .LFE11
C:\Users\rana\AppData\Local\Temp\ccI1844i.s:7535   .debug_str:0000000000000240 .LASF202
C:\Users\rana\AppData\Local\Temp\ccI1844i.s:6470   .debug_loc:0000000000000000 .LLST31
C:\Users\rana\AppData\Local\Temp\ccI1844i.s:7671   .debug_str:00000000000004e0 .LASF203
C:\Users\rana\AppData\Local\Temp\ccI1844i.s:6485   .debug_loc:0000000000000029 .LLST32
C:\Users\rana\AppData\Local\Temp\ccI1844i.s:7861   .debug_str:000000000000091b .LASF204
C:\Users\rana\AppData\Local\Temp\ccI1844i.s:6517   .debug_loc:0000000000000079 .LLST33
C:\Users\rana\AppData\Local\Temp\ccI1844i.s:7787   .debug_str:00000000000007b7 .LASF205
C:\Users\rana\AppData\Local\Temp\ccI1844i.s:6532   .debug_loc:00000000000000a2 .LLST34
C:\Users\rana\AppData\Local\Temp\ccI1844i.s:7621   .debug_str:00000000000003d3 .LASF207
C:\Users\rana\AppData\Local\Temp\ccI1844i.s:610    .text.InfoNES_DrawLine:0000000000000000 .LFB10
C:\Users\rana\AppData\Local\Temp\ccI1844i.s:1477   .text.InfoNES_DrawLine:0000000000000628 .LFE10
C:\Users\rana\AppData\Local\Temp\ccI1844i.s:7687   .debug_str:000000000000052d .LASF208
C:\Users\rana\AppData\Local\Temp\ccI1844i.s:7457   .debug_str:000000000000009c .LASF209
C:\Users\rana\AppData\Local\Temp\ccI1844i.s:7807   .debug_str:000000000000080c .LASF210
C:\Users\rana\AppData\Local\Temp\ccI1844i.s:6545   .debug_loc:00000000000000c2 .LLST6
C:\Users\rana\AppData\Local\Temp\ccI1844i.s:7643   .debug_str:000000000000044d .LASF211
C:\Users\rana\AppData\Local\Temp\ccI1844i.s:6556   .debug_loc:00000000000000e0 .LLST7
C:\Users\rana\AppData\Local\Temp\ccI1844i.s:7607   .debug_str:00000000000003a1 .LASF212
C:\Users\rana\AppData\Local\Temp\ccI1844i.s:6571   .debug_loc:0000000000000109 .LLST8
C:\Users\rana\AppData\Local\Temp\ccI1844i.s:7611   .debug_str:00000000000003b2 .LASF213
C:\Users\rana\AppData\Local\Temp\ccI1844i.s:6586   .debug_loc:0000000000000132 .LLST9
C:\Users\rana\AppData\Local\Temp\ccI1844i.s:7753   .debug_str:0000000000000713 .LASF214
C:\Users\rana\AppData\Local\Temp\ccI1844i.s:6606   .debug_loc:0000000000000167 .LLST10
C:\Users\rana\AppData\Local\Temp\ccI1844i.s:7775   .debug_str:0000000000000784 .LASF215
C:\Users\rana\AppData\Local\Temp\ccI1844i.s:6619   .debug_loc:0000000000000180 .LLST11
C:\Users\rana\AppData\Local\Temp\ccI1844i.s:7767   .debug_str:000000000000075f .LASF216
C:\Users\rana\AppData\Local\Temp\ccI1844i.s:6630   .debug_loc:000000000000019e .LLST12
C:\Users\rana\AppData\Local\Temp\ccI1844i.s:7517   .debug_str:00000000000001e7 .LASF217
C:\Users\rana\AppData\Local\Temp\ccI1844i.s:6641   .debug_loc:00000000000001bc .LLST13
C:\Users\rana\AppData\Local\Temp\ccI1844i.s:7437   .debug_str:0000000000000000 .LASF218
C:\Users\rana\AppData\Local\Temp\ccI1844i.s:6648   .debug_loc:00000000000001cf .LLST14
C:\Users\rana\AppData\Local\Temp\ccI1844i.s:7441   .debug_str:0000000000000019 .LASF221
C:\Users\rana\AppData\Local\Temp\ccI1844i.s:7589   .debug_str:0000000000000344 .LASF219
C:\Users\rana\AppData\Local\Temp\ccI1844i.s:6672   .debug_loc:00000000000001f4 .LLST15
C:\Users\rana\AppData\Local\Temp\ccI1844i.s:6715   .debug_loc:000000000000022e .LLST16
C:\Users\rana\AppData\Local\Temp\ccI1844i.s:7623   .debug_str:00000000000003e4 .LASF220
C:\Users\rana\AppData\Local\Temp\ccI1844i.s:6723   .debug_loc:0000000000000242 .LLST17
C:\Users\rana\AppData\Local\Temp\ccI1844i.s:6764   .debug_loc:000000000000027e .LLST18
C:\Users\rana\AppData\Local\Temp\ccI1844i.s:6828   .debug_loc:00000000000002cc .LLST19
C:\Users\rana\AppData\Local\Temp\ccI1844i.s:929    .text.InfoNES_DrawLine:0000000000000228 .LBB24
C:\Users\rana\AppData\Local\Temp\ccI1844i.s:943    .text.InfoNES_DrawLine:000000000000023e .LBE24
C:\Users\rana\AppData\Local\Temp\ccI1844i.s:1040   .text.InfoNES_DrawLine:00000000000002d6 .LBB26
C:\Users\rana\AppData\Local\Temp\ccI1844i.s:1063   .text.InfoNES_DrawLine:00000000000002fc .LBE26
C:\Users\rana\AppData\Local\Temp\ccI1844i.s:6888   .debug_loc:0000000000000316 .LLST20
C:\Users\rana\AppData\Local\Temp\ccI1844i.s:1031   .text.InfoNES_DrawLine:00000000000002c8 .LVL62
C:\Users\rana\AppData\Local\Temp\ccI1844i.s:6936   .debug_loc:000000000000038a .LLST21
C:\Users\rana\AppData\Local\Temp\ccI1844i.s:6968   .debug_loc:00000000000003c5 .LLST22
C:\Users\rana\AppData\Local\Temp\ccI1844i.s:6975   .debug_loc:00000000000003d8 .LLST23
C:\Users\rana\AppData\Local\Temp\ccI1844i.s:6990   .debug_loc:0000000000000401 .LLST24
C:\Users\rana\AppData\Local\Temp\ccI1844i.s:7793   .debug_str:00000000000007cf .LASF222
C:\Users\rana\AppData\Local\Temp\ccI1844i.s:7001   .debug_loc:000000000000041f .LLST25
C:\Users\rana\AppData\Local\Temp\ccI1844i.s:7697   .debug_str:000000000000055d .LASF223
C:\Users\rana\AppData\Local\Temp\ccI1844i.s:7067   .debug_loc:0000000000000497 .LLST26
C:\Users\rana\AppData\Local\Temp\ccI1844i.s:7875   .debug_str:0000000000000973 .LASF224
C:\Users\rana\AppData\Local\Temp\ccI1844i.s:7088   .debug_loc:00000000000004d0 .LLST27
C:\Users\rana\AppData\Local\Temp\ccI1844i.s:7797   .debug_str:00000000000007ea .LASF225
C:\Users\rana\AppData\Local\Temp\ccI1844i.s:7143   .debug_loc:0000000000000528 .LLST28
C:\Users\rana\AppData\Local\Temp\ccI1844i.s:7801   .debug_str:00000000000007f8 .LASF226
C:\Users\rana\AppData\Local\Temp\ccI1844i.s:7163   .debug_loc:000000000000055d .LLST29
C:\Users\rana\AppData\Local\Temp\ccI1844i.s:7673   .debug_str:00000000000004e6 .LASF227
C:\Users\rana\AppData\Local\Temp\ccI1844i.s:7186   .debug_loc:0000000000000587 .LLST30
C:\Users\rana\AppData\Local\Temp\ccI1844i.s:7881   .debug_str:000000000000098a .LASF228
C:\Users\rana\AppData\Local\Temp\ccI1844i.s:1081   .text.InfoNES_DrawLine:0000000000000320 .LVL73
C:\Users\rana\AppData\Local\Temp\ccI1844i.s:1473   .text.InfoNES_DrawLine:0000000000000626 .LVL109
C:\Users\rana\AppData\Local\Temp\ccI1844i.s:648    .text.InfoNES_DrawLine:0000000000000044 .LVL36
C:\Users\rana\AppData\Local\Temp\ccI1844i.s:950    .text.InfoNES_DrawLine:000000000000024a .LVL54
C:\Users\rana\AppData\Local\Temp\ccI1844i.s:1463   .text.InfoNES_DrawLine:0000000000000616 .LVL107
C:\Users\rana\AppData\Local\Temp\ccI1844i.s:7469   .debug_str:00000000000000d7 .LASF234
C:\Users\rana\AppData\Local\Temp\ccI1844i.s:1641   .text.InfoNES_HSync:0000000000000000 .LFB9
C:\Users\rana\AppData\Local\Temp\ccI1844i.s:1891   .text.InfoNES_HSync:00000000000001f6 .LFE9
C:\Users\rana\AppData\Local\Temp\ccI1844i.s:1720   .text.InfoNES_HSync:00000000000000b8 .LVL131
C:\Users\rana\AppData\Local\Temp\ccI1844i.s:1810   .text.InfoNES_HSync:0000000000000168 .LVL132
C:\Users\rana\AppData\Local\Temp\ccI1844i.s:1868   .text.InfoNES_HSync:00000000000001c4 .LVL133
C:\Users\rana\AppData\Local\Temp\ccI1844i.s:1871   .text.InfoNES_HSync:00000000000001cc .LVL134
C:\Users\rana\AppData\Local\Temp\ccI1844i.s:7629   .debug_str:00000000000003ff .LASF229
C:\Users\rana\AppData\Local\Temp\ccI1844i.s:1898   .text.InfoNES_Cycle:0000000000000000 .LFB8
C:\Users\rana\AppData\Local\Temp\ccI1844i.s:2080   .text.InfoNES_Cycle:000000000000014a .LFE8
C:\Users\rana\AppData\Local\Temp\ccI1844i.s:7619   .debug_str:00000000000003cd .LASF230
C:\Users\rana\AppData\Local\Temp\ccI1844i.s:1954   .text.InfoNES_Cycle:000000000000005e .LVL135
C:\Users\rana\AppData\Local\Temp\ccI1844i.s:1969   .text.InfoNES_Cycle:0000000000000080 .LVL136
C:\Users\rana\AppData\Local\Temp\ccI1844i.s:1997   .text.InfoNES_Cycle:00000000000000ba .LVL138
C:\Users\rana\AppData\Local\Temp\ccI1844i.s:2040   .text.InfoNES_Cycle:00000000000000f0 .LVL140
C:\Users\rana\AppData\Local\Temp\ccI1844i.s:2064   .text.InfoNES_Cycle:0000000000000128 .LVL141
C:\Users\rana\AppData\Local\Temp\ccI1844i.s:7783   .debug_str:00000000000007a5 .LASF231
C:\Users\rana\AppData\Local\Temp\ccI1844i.s:2087   .text.InfoNES_Main:0000000000000000 .LFB7
C:\Users\rana\AppData\Local\Temp\ccI1844i.s:2126   .text.InfoNES_Main:0000000000000034 .LFE7
C:\Users\rana\AppData\Local\Temp\ccI1844i.s:2118   .text.InfoNES_Main:000000000000002c .LBB34
C:\Users\rana\AppData\Local\Temp\ccI1844i.s:2124   .text.InfoNES_Main:0000000000000034 .LBE34
C:\Users\rana\AppData\Local\Temp\ccI1844i.s:2122   .text.InfoNES_Main:0000000000000034 .LVL145
C:\Users\rana\AppData\Local\Temp\ccI1844i.s:2100   .text.InfoNES_Main:0000000000000010 .LVL142
C:\Users\rana\AppData\Local\Temp\ccI1844i.s:2105   .text.InfoNES_Main:000000000000001a .LVL143
C:\Users\rana\AppData\Local\Temp\ccI1844i.s:2109   .text.InfoNES_Main:0000000000000022 .LVL144
C:\Users\rana\AppData\Local\Temp\ccI1844i.s:7497   .debug_str:000000000000016f .LASF255
C:\Users\rana\AppData\Local\Temp\ccI1844i.s:7717   .debug_str:00000000000005c4 .LASF256
C:\Users\rana\AppData\Local\Temp\ccI1844i.s:7871   .debug_str:0000000000000955 .LASF232
C:\Users\rana\AppData\Local\Temp\ccI1844i.s:99     .text.InfoNES_SetupPPU:0000000000000000 .LFB5
C:\Users\rana\AppData\Local\Temp\ccI1844i.s:311    .text.InfoNES_SetupPPU:00000000000001b8 .LFE5
C:\Users\rana\AppData\Local\Temp\ccI1844i.s:7489   .debug_str:000000000000013e .LASF233
C:\Users\rana\AppData\Local\Temp\ccI1844i.s:7197   .debug_loc:00000000000005a5 .LLST1
C:\Users\rana\AppData\Local\Temp\ccI1844i.s:245    .text.InfoNES_SetupPPU:0000000000000164 .LBB6
C:\Users\rana\AppData\Local\Temp\ccI1844i.s:7210   .debug_loc:00000000000005c5 .LLST2
C:\Users\rana\AppData\Local\Temp\ccI1844i.s:118    .text.InfoNES_SetupPPU:000000000000001c .LVL4
C:\Users\rana\AppData\Local\Temp\ccI1844i.s:126    .text.InfoNES_SetupPPU:0000000000000034 .LVL5
C:\Users\rana\AppData\Local\Temp\ccI1844i.s:133    .text.InfoNES_SetupPPU:000000000000004a .LVL6
C:\Users\rana\AppData\Local\Temp\ccI1844i.s:7445   .debug_str:0000000000000050 .LASF235
C:\Users\rana\AppData\Local\Temp\ccI1844i.s:318    .text.InfoNES_Reset:0000000000000000 .LFB4
C:\Users\rana\AppData\Local\Temp\ccI1844i.s:499    .text.InfoNES_Reset:000000000000014e .LFE4
C:\Users\rana\AppData\Local\Temp\ccI1844i.s:7765   .debug_str:000000000000075a .LASF236
C:\Users\rana\AppData\Local\Temp\ccI1844i.s:7228   .debug_loc:00000000000005ed .LLST3
C:\Users\rana\AppData\Local\Temp\ccI1844i.s:391    .text.InfoNES_Reset:000000000000008c .LVL16
C:\Users\rana\AppData\Local\Temp\ccI1844i.s:407    .text.InfoNES_Reset:00000000000000b2 .LVL17
C:\Users\rana\AppData\Local\Temp\ccI1844i.s:422    .text.InfoNES_Reset:00000000000000e2 .LVL18
C:\Users\rana\AppData\Local\Temp\ccI1844i.s:457    .text.InfoNES_Reset:0000000000000124 .LVL23
C:\Users\rana\AppData\Local\Temp\ccI1844i.s:486    .text.InfoNES_Reset:0000000000000144 .LVL27
C:\Users\rana\AppData\Local\Temp\ccI1844i.s:7491   .debug_str:0000000000000144 .LASF237
C:\Users\rana\AppData\Local\Temp\ccI1844i.s:506    .text.InfoNES_Load:0000000000000000 .LFB3
C:\Users\rana\AppData\Local\Temp\ccI1844i.s:548    .text.InfoNES_Load:0000000000000034 .LFE3
C:\Users\rana\AppData\Local\Temp\ccI1844i.s:7737   .debug_str:0000000000000618 .LASF257
C:\Users\rana\AppData\Local\Temp\ccI1844i.s:7268   .debug_loc:000000000000064a .LLST4
C:\Users\rana\AppData\Local\Temp\ccI1844i.s:520    .text.InfoNES_Load:0000000000000010 .LVL29
C:\Users\rana\AppData\Local\Temp\ccI1844i.s:524    .text.InfoNES_Load:000000000000001a .LVL30
C:\Users\rana\AppData\Local\Temp\ccI1844i.s:528    .text.InfoNES_Load:0000000000000026 .LVL31
C:\Users\rana\AppData\Local\Temp\ccI1844i.s:7839   .debug_str:00000000000008ac .LASF258
C:\Users\rana\AppData\Local\Temp\ccI1844i.s:7731   .debug_str:00000000000005f8 .LASF238
C:\Users\rana\AppData\Local\Temp\ccI1844i.s:11     .text.InfoNES_Init:0000000000000000 .LFB1
C:\Users\rana\AppData\Local\Temp\ccI1844i.s:78     .text.InfoNES_Init:000000000000005c .LFE1
C:\Users\rana\AppData\Local\Temp\ccI1844i.s:7290   .debug_loc:0000000000000681 .LLST0
C:\Users\rana\AppData\Local\Temp\ccI1844i.s:21     .text.InfoNES_Init:000000000000000c .LVL0
C:\Users\rana\AppData\Local\Temp\ccI1844i.s:85     .text.InfoNES_Fin:0000000000000000 .LFB2
C:\Users\rana\AppData\Local\Temp\ccI1844i.s:92     .text.InfoNES_Fin:0000000000000008 .LFE2
C:\Users\rana\AppData\Local\Temp\ccI1844i.s:90     .text.InfoNES_Fin:0000000000000008 .LVL3
C:\Users\rana\AppData\Local\Temp\ccI1844i.s:555    .text.InfoNES_Mirroring:0000000000000000 .LFB6
C:\Users\rana\AppData\Local\Temp\ccI1844i.s:603    .text.InfoNES_Mirroring:000000000000004a .LFE6
C:\Users\rana\AppData\Local\Temp\ccI1844i.s:7302   .debug_loc:00000000000006a0 .LLST5
C:\Users\rana\AppData\Local\Temp\ccI1844i.s:7439   .debug_str:0000000000000006 .LASF239
C:\Users\rana\AppData\Local\Temp\ccI1844i.s:7757   .debug_str:000000000000072a .LASF240
C:\Users\rana\AppData\Local\Temp\ccI1844i.s:7531   .debug_str:0000000000000227 .LASF241
C:\Users\rana\AppData\Local\Temp\ccI1844i.s:7669   .debug_str:00000000000004cf .LASF242
C:\Users\rana\AppData\Local\Temp\ccI1844i.s:7675   .debug_str:00000000000004ef .LASF243
C:\Users\rana\AppData\Local\Temp\ccI1844i.s:7633   .debug_str:000000000000041e .LASF244
C:\Users\rana\AppData\Local\Temp\ccI1844i.s:7493   .debug_str:0000000000000151 .LASF245
C:\Users\rana\AppData\Local\Temp\ccI1844i.s:7743   .debug_str:000000000000063d .LASF246
C:\Users\rana\AppData\Local\Temp\ccI1844i.s:7511   .debug_str:00000000000001be .LASF247
C:\Users\rana\AppData\Local\Temp\ccI1844i.s:7877   .debug_str:0000000000000979 .LASF248
C:\Users\rana\AppData\Local\Temp\ccI1844i.s:7905   .debug_str:00000000000009fb .LASF249
C:\Users\rana\AppData\Local\Temp\ccI1844i.s:7695   .debug_str:0000000000000552 .LASF250
C:\Users\rana\AppData\Local\Temp\ccI1844i.s:1498   .text.InfoNES_GetSprHitY:0000000000000016 .LVL110
C:\Users\rana\AppData\Local\Temp\ccI1844i.s:1508   .text.InfoNES_GetSprHitY:0000000000000032 .LVL111
C:\Users\rana\AppData\Local\Temp\ccI1844i.s:1540   .text.InfoNES_GetSprHitY:0000000000000072 .LVL114
C:\Users\rana\AppData\Local\Temp\ccI1844i.s:1547   .text.InfoNES_GetSprHitY:000000000000007e .LVL115
C:\Users\rana\AppData\Local\Temp\ccI1844i.s:1630   .text.InfoNES_GetSprHitY:00000000000000fa .LVL129
C:\Users\rana\AppData\Local\Temp\ccI1844i.s:1556   .text.InfoNES_GetSprHitY:0000000000000092 .LVL116
C:\Users\rana\AppData\Local\Temp\ccI1844i.s:1571   .text.InfoNES_GetSprHitY:00000000000000ae .LVL117
C:\Users\rana\AppData\Local\Temp\ccI1844i.s:1583   .text.InfoNES_GetSprHitY:00000000000000c2 .LVL118
C:\Users\rana\AppData\Local\Temp\ccI1844i.s:1587   .text.InfoNES_GetSprHitY:00000000000000c8 .LVL119
C:\Users\rana\AppData\Local\Temp\ccI1844i.s:1601   .text.InfoNES_GetSprHitY:00000000000000da .LVL122
C:\Users\rana\AppData\Local\Temp\ccI1844i.s:1606   .text.InfoNES_GetSprHitY:00000000000000e0 .LVL123
C:\Users\rana\AppData\Local\Temp\ccI1844i.s:1611   .text.InfoNES_GetSprHitY:00000000000000e4 .LVL125
C:\Users\rana\AppData\Local\Temp\ccI1844i.s:1614   .text.InfoNES_GetSprHitY:00000000000000e6 .LVL126
C:\Users\rana\AppData\Local\Temp\ccI1844i.s:1526   .text.InfoNES_GetSprHitY:0000000000000058 .LVL112
C:\Users\rana\AppData\Local\Temp\ccI1844i.s:1534   .text.InfoNES_GetSprHitY:0000000000000068 .LVL113
C:\Users\rana\AppData\Local\Temp\ccI1844i.s:1593   .text.InfoNES_GetSprHitY:00000000000000ce .LVL120
C:\Users\rana\AppData\Local\Temp\ccI1844i.s:1599   .text.InfoNES_GetSprHitY:00000000000000d8 .LVL121
C:\Users\rana\AppData\Local\Temp\ccI1844i.s:1621   .text.InfoNES_GetSprHitY:00000000000000ee .LVL128
C:\Users\rana\AppData\Local\Temp\ccI1844i.s:699    .text.InfoNES_DrawLine:00000000000000ac .LVL37
C:\Users\rana\AppData\Local\Temp\ccI1844i.s:941    .text.InfoNES_DrawLine:000000000000023e .LVL53
C:\Users\rana\AppData\Local\Temp\ccI1844i.s:988    .text.InfoNES_DrawLine:000000000000028e .LVL55
C:\Users\rana\AppData\Local\Temp\ccI1844i.s:1061   .text.InfoNES_DrawLine:00000000000002fc .LVL72
C:\Users\rana\AppData\Local\Temp\ccI1844i.s:904    .text.InfoNES_DrawLine:00000000000001fc .LVL49
C:\Users\rana\AppData\Local\Temp\ccI1844i.s:906    .text.InfoNES_DrawLine:0000000000000200 .LVL50
C:\Users\rana\AppData\Local\Temp\ccI1844i.s:719    .text.InfoNES_DrawLine:00000000000000cc .LVL41
C:\Users\rana\AppData\Local\Temp\ccI1844i.s:916    .text.InfoNES_DrawLine:0000000000000210 .LVL51
C:\Users\rana\AppData\Local\Temp\ccI1844i.s:1003   .text.InfoNES_DrawLine:000000000000029e .LVL57
C:\Users\rana\AppData\Local\Temp\ccI1844i.s:1012   .text.InfoNES_DrawLine:00000000000002aa .LVL58
C:\Users\rana\AppData\Local\Temp\ccI1844i.s:1023   .text.InfoNES_DrawLine:00000000000002b6 .LVL61
C:\Users\rana\AppData\Local\Temp\ccI1844i.s:713    .text.InfoNES_DrawLine:00000000000000c4 .LVL39
C:\Users\rana\AppData\Local\Temp\ccI1844i.s:887    .text.InfoNES_DrawLine:00000000000001e2 .LVL46
C:\Users\rana\AppData\Local\Temp\ccI1844i.s:899    .text.InfoNES_DrawLine:00000000000001f4 .LVL48
C:\Users\rana\AppData\Local\Temp\ccI1844i.s:1018   .text.InfoNES_DrawLine:00000000000002b0 .LVL60
C:\Users\rana\AppData\Local\Temp\ccI1844i.s:725    .text.InfoNES_DrawLine:00000000000000e0 .LVL42
C:\Users\rana\AppData\Local\Temp\ccI1844i.s:716    .text.InfoNES_DrawLine:00000000000000c8 .LVL40
C:\Users\rana\AppData\Local\Temp\ccI1844i.s:812    .text.InfoNES_DrawLine:0000000000000172 .LVL43
C:\Users\rana\AppData\Local\Temp\ccI1844i.s:890    .text.InfoNES_DrawLine:00000000000001e4 .LVL47
C:\Users\rana\AppData\Local\Temp\ccI1844i.s:869    .text.InfoNES_DrawLine:00000000000001c4 .LVL45
C:\Users\rana\AppData\Local\Temp\ccI1844i.s:846    .text.InfoNES_DrawLine:000000000000019c .LVL44
C:\Users\rana\AppData\Local\Temp\ccI1844i.s:1043   .text.InfoNES_DrawLine:00000000000002da .LVL63
C:\Users\rana\AppData\Local\Temp\ccI1844i.s:1045   .text.InfoNES_DrawLine:00000000000002de .LVL64
C:\Users\rana\AppData\Local\Temp\ccI1844i.s:1047   .text.InfoNES_DrawLine:00000000000002e2 .LVL65
C:\Users\rana\AppData\Local\Temp\ccI1844i.s:1049   .text.InfoNES_DrawLine:00000000000002e6 .LVL66
C:\Users\rana\AppData\Local\Temp\ccI1844i.s:1051   .text.InfoNES_DrawLine:00000000000002ea .LVL67
C:\Users\rana\AppData\Local\Temp\ccI1844i.s:1053   .text.InfoNES_DrawLine:00000000000002ee .LVL68
C:\Users\rana\AppData\Local\Temp\ccI1844i.s:1055   .text.InfoNES_DrawLine:00000000000002f2 .LVL69
C:\Users\rana\AppData\Local\Temp\ccI1844i.s:1057   .text.InfoNES_DrawLine:00000000000002f6 .LVL70
C:\Users\rana\AppData\Local\Temp\ccI1844i.s:1059   .text.InfoNES_DrawLine:00000000000002fa .LVL71
C:\Users\rana\AppData\Local\Temp\ccI1844i.s:1221   .text.InfoNES_DrawLine:0000000000000426 .LVL88
C:\Users\rana\AppData\Local\Temp\ccI1844i.s:1303   .text.InfoNES_DrawLine:00000000000004d8 .LVL91
C:\Users\rana\AppData\Local\Temp\ccI1844i.s:1323   .text.InfoNES_DrawLine:00000000000004fc .LVL94
C:\Users\rana\AppData\Local\Temp\ccI1844i.s:1328   .text.InfoNES_DrawLine:0000000000000502 .LVL96
C:\Users\rana\AppData\Local\Temp\ccI1844i.s:1363   .text.InfoNES_DrawLine:0000000000000544 .LVL98
C:\Users\rana\AppData\Local\Temp\ccI1844i.s:1446   .text.InfoNES_DrawLine:00000000000005fa .LVL103
C:\Users\rana\AppData\Local\Temp\ccI1844i.s:1122   .text.InfoNES_DrawLine:0000000000000376 .LVL75
C:\Users\rana\AppData\Local\Temp\ccI1844i.s:1135   .text.InfoNES_DrawLine:000000000000038c .LVL77
C:\Users\rana\AppData\Local\Temp\ccI1844i.s:1149   .text.InfoNES_DrawLine:000000000000039c .LVL79
C:\Users\rana\AppData\Local\Temp\ccI1844i.s:1154   .text.InfoNES_DrawLine:00000000000003a4 .LVL80
C:\Users\rana\AppData\Local\Temp\ccI1844i.s:1158   .text.InfoNES_DrawLine:00000000000003a8 .LVL81
C:\Users\rana\AppData\Local\Temp\ccI1844i.s:1167   .text.InfoNES_DrawLine:00000000000003c0 .LVL82
C:\Users\rana\AppData\Local\Temp\ccI1844i.s:1450   .text.InfoNES_DrawLine:00000000000005fc .LVL104
C:\Users\rana\AppData\Local\Temp\ccI1844i.s:1178   .text.InfoNES_DrawLine:00000000000003d6 .LVL83
C:\Users\rana\AppData\Local\Temp\ccI1844i.s:1188   .text.InfoNES_DrawLine:00000000000003ea .LVL85
C:\Users\rana\AppData\Local\Temp\ccI1844i.s:1452   .text.InfoNES_DrawLine:00000000000005fe .LVL105
C:\Users\rana\AppData\Local\Temp\ccI1844i.s:1454   .text.InfoNES_DrawLine:0000000000000600 .LVL106
C:\Users\rana\AppData\Local\Temp\ccI1844i.s:1117   .text.InfoNES_DrawLine:0000000000000370 .LVL74
C:\Users\rana\AppData\Local\Temp\ccI1844i.s:1277   .text.InfoNES_DrawLine:00000000000004a2 .LVL89
C:\Users\rana\AppData\Local\Temp\ccI1844i.s:1288   .text.InfoNES_DrawLine:00000000000004b8 .LVL90
C:\Users\rana\AppData\Local\Temp\ccI1844i.s:1415   .text.InfoNES_DrawLine:00000000000005bc .LVL99
C:\Users\rana\AppData\Local\Temp\ccI1844i.s:1426   .text.InfoNES_DrawLine:00000000000005d2 .LVL100
C:\Users\rana\AppData\Local\Temp\ccI1844i.s:1430   .text.InfoNES_DrawLine:00000000000005da .LVL101
C:\Users\rana\AppData\Local\Temp\ccI1844i.s:1440   .text.InfoNES_DrawLine:00000000000005ec .LVL102
C:\Users\rana\AppData\Local\Temp\ccI1844i.s:1314   .text.InfoNES_DrawLine:00000000000004ea .LVL93
C:\Users\rana\AppData\Local\Temp\ccI1844i.s:1465   .text.InfoNES_DrawLine:0000000000000618 .LVL108
C:\Users\rana\AppData\Local\Temp\ccI1844i.s:1146   .text.InfoNES_DrawLine:000000000000039a .LVL78
C:\Users\rana\AppData\Local\Temp\ccI1844i.s:1215   .text.InfoNES_DrawLine:000000000000041e .LVL86
C:\Users\rana\AppData\Local\Temp\ccI1844i.s:1132   .text.InfoNES_DrawLine:0000000000000388 .LVL76
C:\Users\rana\AppData\Local\Temp\ccI1844i.s:1326   .text.InfoNES_DrawLine:0000000000000500 .LVL95
C:\Users\rana\AppData\Local\Temp\ccI1844i.s:1335   .text.InfoNES_DrawLine:000000000000050c .LVL97
C:\Users\rana\AppData\Local\Temp\ccI1844i.s:1218   .text.InfoNES_DrawLine:0000000000000422 .LVL87
C:\Users\rana\AppData\Local\Temp\ccI1844i.s:208    .text.InfoNES_SetupPPU:000000000000010c .LVL7
C:\Users\rana\AppData\Local\Temp\ccI1844i.s:236    .text.InfoNES_SetupPPU:000000000000015c .LVL8
C:\Users\rana\AppData\Local\Temp\ccI1844i.s:239    .text.InfoNES_SetupPPU:0000000000000160 .LVL9
C:\Users\rana\AppData\Local\Temp\ccI1844i.s:250    .text.InfoNES_SetupPPU:000000000000016c .LVL10
C:\Users\rana\AppData\Local\Temp\ccI1844i.s:299    .text.InfoNES_SetupPPU:00000000000001a8 .LVL11
C:\Users\rana\AppData\Local\Temp\ccI1844i.s:338    .text.InfoNES_Reset:0000000000000026 .LVL12
C:\Users\rana\AppData\Local\Temp\ccI1844i.s:341    .text.InfoNES_Reset:000000000000002e .LVL13
C:\Users\rana\AppData\Local\Temp\ccI1844i.s:346    .text.InfoNES_Reset:0000000000000034 .LVL14
C:\Users\rana\AppData\Local\Temp\ccI1844i.s:352    .text.InfoNES_Reset:000000000000003e .LVL15
C:\Users\rana\AppData\Local\Temp\ccI1844i.s:439    .text.InfoNES_Reset:0000000000000106 .LVL19
C:\Users\rana\AppData\Local\Temp\ccI1844i.s:451    .text.InfoNES_Reset:0000000000000114 .LVL22
C:\Users\rana\AppData\Local\Temp\ccI1844i.s:470    .text.InfoNES_Reset:000000000000012e .LVL24
C:\Users\rana\AppData\Local\Temp\ccI1844i.s:475    .text.InfoNES_Reset:0000000000000130 .LVL25
C:\Users\rana\AppData\Local\Temp\ccI1844i.s:509    .text.InfoNES_Load:0000000000000000 .LVL28
C:\Users\rana\AppData\Local\Temp\ccI1844i.s:537    .text.InfoNES_Load:000000000000002c .LVL32
C:\Users\rana\AppData\Local\Temp\ccI1844i.s:541    .text.InfoNES_Load:0000000000000030 .LVL33
C:\Users\rana\AppData\Local\Temp\ccI1844i.s:42     .text.InfoNES_Init:000000000000002e .LVL1
C:\Users\rana\AppData\Local\Temp\ccI1844i.s:558    .text.InfoNES_Mirroring:0000000000000000 .LVL34
C:\Users\rana\AppData\Local\Temp\ccI1844i.s:562    .text.InfoNES_Mirroring:0000000000000008 .LVL35
C:\Users\rana\AppData\Local\Temp\ccI1844i.s:2821   .debug_info:0000000000000000 .Ldebug_info0
C:\Users\rana\AppData\Local\Temp\ccI1844i.s:261    .text.InfoNES_SetupPPU:0000000000000182 .LBE6
C:\Users\rana\AppData\Local\Temp\ccI1844i.s:265    .text.InfoNES_SetupPPU:000000000000018a .LBB10
C:\Users\rana\AppData\Local\Temp\ccI1844i.s:283    .text.InfoNES_SetupPPU:000000000000019c .LBE10
C:\Users\rana\AppData\Local\Temp\ccI1844i.s:287    .text.InfoNES_SetupPPU:000000000000019e .LBB11
C:\Users\rana\AppData\Local\Temp\ccI1844i.s:301    .text.InfoNES_SetupPPU:00000000000001a8 .LBE11
C:\Users\rana\AppData\Local\Temp\ccI1844i.s:656    .text.InfoNES_DrawLine:0000000000000058 .LBB12
C:\Users\rana\AppData\Local\Temp\ccI1844i.s:944    .text.InfoNES_DrawLine:000000000000023e .LBE12
C:\Users\rana\AppData\Local\Temp\ccI1844i.s:991    .text.InfoNES_DrawLine:000000000000028e .LBB27
C:\Users\rana\AppData\Local\Temp\ccI1844i.s:1064   .text.InfoNES_DrawLine:00000000000002fc .LBE27
C:\Users\rana\AppData\Local\Temp\ccI1844i.s:727    .text.InfoNES_DrawLine:00000000000000e0 .LBB13
C:\Users\rana\AppData\Local\Temp\ccI1844i.s:911    .text.InfoNES_DrawLine:0000000000000204 .LBE13
C:\Users\rana\AppData\Local\Temp\ccI1844i.s:992    .text.InfoNES_DrawLine:000000000000028e .LBB25
C:\Users\rana\AppData\Local\Temp\ccI1844i.s:1025   .text.InfoNES_DrawLine:00000000000002b6 .LBE25
C:\Users\rana\AppData\Local\Temp\ccI1844i.s:728    .text.InfoNES_DrawLine:00000000000000e0 .LBB14
C:\Users\rana\AppData\Local\Temp\ccI1844i.s:907    .text.InfoNES_DrawLine:0000000000000200 .LBE14
C:\Users\rana\AppData\Local\Temp\ccI1844i.s:993    .text.InfoNES_DrawLine:000000000000028e .LBB23
C:\Users\rana\AppData\Local\Temp\ccI1844i.s:1019   .text.InfoNES_DrawLine:00000000000002b0 .LBE23
C:\Users\rana\AppData\Local\Temp\ccI1844i.s:758    .text.InfoNES_DrawLine:000000000000011e .LBB15
C:\Users\rana\AppData\Local\Temp\ccI1844i.s:761    .text.InfoNES_DrawLine:0000000000000122 .LBE15
C:\Users\rana\AppData\Local\Temp\ccI1844i.s:766    .text.InfoNES_DrawLine:000000000000012e .LBB16
C:\Users\rana\AppData\Local\Temp\ccI1844i.s:769    .text.InfoNES_DrawLine:0000000000000132 .LBE16
C:\Users\rana\AppData\Local\Temp\ccI1844i.s:773    .text.InfoNES_DrawLine:0000000000000138 .LBB17
C:\Users\rana\AppData\Local\Temp\ccI1844i.s:778    .text.InfoNES_DrawLine:0000000000000144 .LBE17
C:\Users\rana\AppData\Local\Temp\ccI1844i.s:781    .text.InfoNES_DrawLine:0000000000000148 .LBB18
C:\Users\rana\AppData\Local\Temp\ccI1844i.s:785    .text.InfoNES_DrawLine:0000000000000150 .LBE18
C:\Users\rana\AppData\Local\Temp\ccI1844i.s:788    .text.InfoNES_DrawLine:0000000000000152 .LBB19
C:\Users\rana\AppData\Local\Temp\ccI1844i.s:799    .text.InfoNES_DrawLine:0000000000000166 .LBE19
C:\Users\rana\AppData\Local\Temp\ccI1844i.s:802    .text.InfoNES_DrawLine:0000000000000168 .LBB20
C:\Users\rana\AppData\Local\Temp\ccI1844i.s:809    .text.InfoNES_DrawLine:0000000000000170 .LBE20
C:\Users\rana\AppData\Local\Temp\ccI1844i.s:813    .text.InfoNES_DrawLine:0000000000000172 .LBB21
C:\Users\rana\AppData\Local\Temp\ccI1844i.s:863    .text.InfoNES_DrawLine:00000000000001bc .LBE21
C:\Users\rana\AppData\Local\Temp\ccI1844i.s:866    .text.InfoNES_DrawLine:00000000000001c0 .LBB22
C:\Users\rana\AppData\Local\Temp\ccI1844i.s:884    .text.InfoNES_DrawLine:00000000000001e0 .LBE22
C:\Users\rana\AppData\Local\Temp\ccI1844i.s:1065   .text.InfoNES_DrawLine:00000000000002fc .LBB28
C:\Users\rana\AppData\Local\Temp\ccI1844i.s:1360   .text.InfoNES_DrawLine:0000000000000542 .LBE28
C:\Users\rana\AppData\Local\Temp\ccI1844i.s:1365   .text.InfoNES_DrawLine:0000000000000544 .LBB29
C:\Users\rana\AppData\Local\Temp\ccI1844i.s:1456   .text.InfoNES_DrawLine:0000000000000600 .LBE29
C:\Users\rana\AppData\Local\Temp\ccI1844i.s:1467   .text.InfoNES_DrawLine:0000000000000618 .LBB30
C:\Users\rana\AppData\Local\Temp\ccI1844i.s:1475   .text.InfoNES_DrawLine:0000000000000628 .LBE30
C:\Users\rana\AppData\Local\Temp\ccI1844i.s:1918   .text.InfoNES_Cycle:000000000000001a .LBB31
C:\Users\rana\AppData\Local\Temp\ccI1844i.s:1924   .text.InfoNES_Cycle:0000000000000026 .LBE31
C:\Users\rana\AppData\Local\Temp\ccI1844i.s:1940   .text.InfoNES_Cycle:0000000000000040 .LBB32
C:\Users\rana\AppData\Local\Temp\ccI1844i.s:2000   .text.InfoNES_Cycle:00000000000000c0 .LBE32
C:\Users\rana\AppData\Local\Temp\ccI1844i.s:2030   .text.InfoNES_Cycle:00000000000000da .LBB33
C:\Users\rana\AppData\Local\Temp\ccI1844i.s:2078   .text.InfoNES_Cycle:000000000000014a .LBE33

UNDEFINED SYMBOLS
K6502_Init
InfoNES_ReleaseRom
CRAM
InfoNES_MemorySet
MapperTable
InfoNES_MessageBox
K6502_Reset
InfoNES_ReadRom
MapperRenderScreen
MapperPPU
InfoNES_MemoryCopy
MapperVSync
InfoNES_PadState
NMI_State
InfoNES_LoadLine
MapperHSync
InfoNES_Wait
K6502_Step
InfoNES_Menu
