   1              		.file	"K6502.c"
   2              		.option nopic
   3              		.text
   4              	.Ltext0:
   5              		.cfi_sections	.debug_frame
   6              		.section	.text.K6502_Write,"ax",@progbits
   7              		.align	1
   9              	K6502_Write:
  10              	.LFB10:
  11              		.file 1 "../src/nes/K6502_rw.h"
   1:../src/nes/K6502_rw.h **** /*===================================================================*/
   2:../src/nes/K6502_rw.h **** /*                                                                   */
   3:../src/nes/K6502_rw.h **** /*  K6502_RW.h : 6502 Reading/Writing Operation for NES              */
   4:../src/nes/K6502_rw.h **** /*               This file is included in K6502.cpp                  */
   5:../src/nes/K6502_rw.h **** /*                                                                   */
   6:../src/nes/K6502_rw.h **** /*  2000/5/23   InfoNES Project ( based on pNesX )                   */
   7:../src/nes/K6502_rw.h **** /*                                                                   */
   8:../src/nes/K6502_rw.h **** /*===================================================================*/
   9:../src/nes/K6502_rw.h **** 
  10:../src/nes/K6502_rw.h **** #ifndef K6502_RW_H_INCLUDED
  11:../src/nes/K6502_rw.h **** #define K6502_RW_H_INCLUDED
  12:../src/nes/K6502_rw.h **** 
  13:../src/nes/K6502_rw.h **** /*-------------------------------------------------------------------*/
  14:../src/nes/K6502_rw.h **** /*  Include files                                                    */
  15:../src/nes/K6502_rw.h **** /*-------------------------------------------------------------------*/
  16:../src/nes/K6502_rw.h **** 
  17:../src/nes/K6502_rw.h **** #include "InfoNES.h"
  18:../src/nes/K6502_rw.h **** #include "InfoNES_System.h"
  19:../src/nes/K6502_rw.h **** #include "infones_mapper.h"
  20:../src/nes/K6502_rw.h **** #include "InfoNES_pAPU.h"
  21:../src/nes/K6502_rw.h **** 
  22:../src/nes/K6502_rw.h **** #ifdef __cplusplus 
  23:../src/nes/K6502_rw.h **** extern "C" { 
  24:../src/nes/K6502_rw.h **** #endif /* __cplusplus */ 
  25:../src/nes/K6502_rw.h **** 
  26:../src/nes/K6502_rw.h **** /*===================================================================*/
  27:../src/nes/K6502_rw.h **** /*                                                                   */
  28:../src/nes/K6502_rw.h **** /*            K6502_ReadZp() : Reading from the zero page            */
  29:../src/nes/K6502_rw.h **** /*                                                                   */
  30:../src/nes/K6502_rw.h **** /*===================================================================*/
  31:../src/nes/K6502_rw.h **** static inline BYTE K6502_ReadZp( BYTE byAddr )
  32:../src/nes/K6502_rw.h **** {
  33:../src/nes/K6502_rw.h **** /*
  34:../src/nes/K6502_rw.h ****  *  Reading from the zero page
  35:../src/nes/K6502_rw.h ****  *
  36:../src/nes/K6502_rw.h ****  *  Parameters
  37:../src/nes/K6502_rw.h ****  *    BYTE byAddr              (Read)
  38:../src/nes/K6502_rw.h ****  *      An address inside the zero page
  39:../src/nes/K6502_rw.h ****  *
  40:../src/nes/K6502_rw.h ****  *  Return values
  41:../src/nes/K6502_rw.h ****  *    Read Data
  42:../src/nes/K6502_rw.h ****  */
  43:../src/nes/K6502_rw.h **** 
  44:../src/nes/K6502_rw.h ****   return RAM[ byAddr ];
  45:../src/nes/K6502_rw.h **** }
  46:../src/nes/K6502_rw.h **** 
  47:../src/nes/K6502_rw.h **** /*===================================================================*/
  48:../src/nes/K6502_rw.h **** /*                                                                   */
  49:../src/nes/K6502_rw.h **** /*               K6502_Read() : Reading operation                    */
  50:../src/nes/K6502_rw.h **** /*                                                                   */
  51:../src/nes/K6502_rw.h **** /*===================================================================*/
  52:../src/nes/K6502_rw.h **** static inline BYTE K6502_Read( WORD wAddr )
  53:../src/nes/K6502_rw.h **** {
  54:../src/nes/K6502_rw.h **** /*
  55:../src/nes/K6502_rw.h ****  *  Reading operation
  56:../src/nes/K6502_rw.h ****  *
  57:../src/nes/K6502_rw.h ****  *  Parameters
  58:../src/nes/K6502_rw.h ****  *    WORD wAddr              (Read)
  59:../src/nes/K6502_rw.h ****  *      Address to read
  60:../src/nes/K6502_rw.h ****  *
  61:../src/nes/K6502_rw.h ****  *  Return values
  62:../src/nes/K6502_rw.h ****  *    Read data
  63:../src/nes/K6502_rw.h ****  *
  64:../src/nes/K6502_rw.h ****  *  Remarks
  65:../src/nes/K6502_rw.h ****  *    0x0000 - 0x1fff  RAM ( 0x800 - 0x1fff is mirror of 0x0 - 0x7ff )
  66:../src/nes/K6502_rw.h ****  *    0x2000 - 0x3fff  PPU
  67:../src/nes/K6502_rw.h ****  *    0x4000 - 0x5fff  Sound
  68:../src/nes/K6502_rw.h ****  *    0x6000 - 0x7fff  SRAM ( Battery Backed )
  69:../src/nes/K6502_rw.h ****  *    0x8000 - 0xffff  ROM
  70:../src/nes/K6502_rw.h ****  *
  71:../src/nes/K6502_rw.h ****  */
  72:../src/nes/K6502_rw.h ****   BYTE byRet;
  73:../src/nes/K6502_rw.h **** 
  74:../src/nes/K6502_rw.h ****   switch ( wAddr & 0xe000 )
  75:../src/nes/K6502_rw.h ****   {
  76:../src/nes/K6502_rw.h ****     case 0x0000:  /* RAM */
  77:../src/nes/K6502_rw.h ****       return RAM[ wAddr & 0x7ff ];
  78:../src/nes/K6502_rw.h **** 
  79:../src/nes/K6502_rw.h ****     case 0x2000:  /* PPU */
  80:../src/nes/K6502_rw.h ****       if ( ( wAddr & 0x7 ) == 0x7 )   /* PPU Memory */
  81:../src/nes/K6502_rw.h ****       {
  82:../src/nes/K6502_rw.h ****         WORD addr = loopy_v & 0x3fff;
  83:../src/nes/K6502_rw.h **** 
  84:../src/nes/K6502_rw.h ****         // Set return value;
  85:../src/nes/K6502_rw.h **** 		byRet = PPU_R7;
  86:../src/nes/K6502_rw.h **** 
  87:../src/nes/K6502_rw.h ****         // Increment PPU Address
  88:../src/nes/K6502_rw.h ****         loopy_v += PPU_Increment;
  89:../src/nes/K6502_rw.h **** 
  90:../src/nes/K6502_rw.h ****         // Read PPU Memory
  91:../src/nes/K6502_rw.h ****         PPU_R7 = PPUBANK[ addr >> 10 ][ addr & 0x3ff ];
  92:../src/nes/K6502_rw.h **** 
  93:../src/nes/K6502_rw.h ****         return byRet;
  94:../src/nes/K6502_rw.h ****       }
  95:../src/nes/K6502_rw.h ****       else
  96:../src/nes/K6502_rw.h ****       if ( ( wAddr & 0x7 ) == 0x4 )   /* SPR_RAM I/O Register */
  97:../src/nes/K6502_rw.h ****       {
  98:../src/nes/K6502_rw.h ****         return SPRRAM[ PPU_R3++ ];
  99:../src/nes/K6502_rw.h ****       }
 100:../src/nes/K6502_rw.h ****       else                            
 101:../src/nes/K6502_rw.h ****       if ( ( wAddr & 0x7 ) == 0x2 )   /* PPU Status */
 102:../src/nes/K6502_rw.h ****       {
 103:../src/nes/K6502_rw.h ****         // Set return value
 104:../src/nes/K6502_rw.h ****         byRet = PPU_R2;
 105:../src/nes/K6502_rw.h **** 
 106:../src/nes/K6502_rw.h ****         // Reset a V-Blank flag
 107:../src/nes/K6502_rw.h ****         PPU_R2 &= ~R2_IN_VBLANK;
 108:../src/nes/K6502_rw.h **** 
 109:../src/nes/K6502_rw.h ****         // Reset address latch
 110:../src/nes/K6502_rw.h ****         PPU_Latch_Flag = 0;
 111:../src/nes/K6502_rw.h **** 
 112:../src/nes/K6502_rw.h **** #if 0
 113:../src/nes/K6502_rw.h ****         // Make a Nametable 0 in V-Blank
 114:../src/nes/K6502_rw.h ****         if ( PPU_Scanline >= SCAN_VBLANK_START && !( PPU_R0 & R0_NMI_VB ) )
 115:../src/nes/K6502_rw.h ****         {
 116:../src/nes/K6502_rw.h ****           PPU_R0 &= ~R0_NAME_ADDR;
 117:../src/nes/K6502_rw.h ****           PPU_NameTableBank = NAME_TABLE0;
 118:../src/nes/K6502_rw.h ****         }
 119:../src/nes/K6502_rw.h **** #endif
 120:../src/nes/K6502_rw.h **** 
 121:../src/nes/K6502_rw.h ****         return byRet;
 122:../src/nes/K6502_rw.h ****       }
 123:../src/nes/K6502_rw.h ****       else /* $2000, $2001, $2003, $2005, $2006 */
 124:../src/nes/K6502_rw.h ****       {
 125:../src/nes/K6502_rw.h ****         return PPU_R7;
 126:../src/nes/K6502_rw.h ****       }
 127:../src/nes/K6502_rw.h ****       break;
 128:../src/nes/K6502_rw.h **** 
 129:../src/nes/K6502_rw.h ****     case 0x4000:  /* Sound */
 130:../src/nes/K6502_rw.h ****       if ( wAddr == 0x4014 ) 
 131:../src/nes/K6502_rw.h ****       {
 132:../src/nes/K6502_rw.h **** 	return wAddr & 0xff;
 133:../src/nes/K6502_rw.h ****       }
 134:../src/nes/K6502_rw.h ****       else
 135:../src/nes/K6502_rw.h ****       if ( wAddr == 0x4015 )
 136:../src/nes/K6502_rw.h ****       {
 137:../src/nes/K6502_rw.h **** #ifndef APU_NONE
 138:../src/nes/K6502_rw.h ****         // APU control
 139:../src/nes/K6502_rw.h ****         byRet = APU_Reg[ 0x4015 ];
 140:../src/nes/K6502_rw.h **** 	if ( ApuC1Atl > 0 ) byRet |= (1<<0);
 141:../src/nes/K6502_rw.h **** 	if ( ApuC2Atl > 0 ) byRet |= (1<<1);
 142:../src/nes/K6502_rw.h **** 	if (  !ApuC3Holdnote ) {
 143:../src/nes/K6502_rw.h **** 	  if ( ApuC3Atl > 0 ) byRet |= (1<<2);
 144:../src/nes/K6502_rw.h **** 	} else {
 145:../src/nes/K6502_rw.h **** 	  if ( ApuC3Llc > 0 ) byRet |= (1<<2);
 146:../src/nes/K6502_rw.h **** 	}
 147:../src/nes/K6502_rw.h **** 	if ( ApuC4Atl > 0 ) byRet |= (1<<3);
 148:../src/nes/K6502_rw.h **** 
 149:../src/nes/K6502_rw.h **** 	// FrameIRQ
 150:../src/nes/K6502_rw.h ****         APU_Reg[ 0x4015 ] &= ~0x40;
 151:../src/nes/K6502_rw.h **** #else
 152:../src/nes/K6502_rw.h **** 		byRet = 0;
 153:../src/nes/K6502_rw.h **** #endif /* APU_NONE */
 154:../src/nes/K6502_rw.h ****         return byRet;
 155:../src/nes/K6502_rw.h ****       }
 156:../src/nes/K6502_rw.h ****       else
 157:../src/nes/K6502_rw.h ****       if ( wAddr == 0x4016 )
 158:../src/nes/K6502_rw.h ****       {
 159:../src/nes/K6502_rw.h ****         // Set Joypad1 data
 160:../src/nes/K6502_rw.h ****         byRet = (BYTE)( ( PAD1_Latch >> PAD1_Bit ) & 1 ) | 0x40;
 161:../src/nes/K6502_rw.h ****         PAD1_Bit = ( PAD1_Bit == 23 ) ? 0 : ( PAD1_Bit + 1 );
 162:../src/nes/K6502_rw.h ****         return byRet;
 163:../src/nes/K6502_rw.h ****       }
 164:../src/nes/K6502_rw.h ****       else
 165:../src/nes/K6502_rw.h ****       if ( wAddr == 0x4017 )
 166:../src/nes/K6502_rw.h ****       {
 167:../src/nes/K6502_rw.h ****         // Set Joypad2 data
 168:../src/nes/K6502_rw.h ****         byRet = (BYTE)( ( PAD2_Latch >> PAD2_Bit ) & 1 ) | 0x40;
 169:../src/nes/K6502_rw.h ****         PAD2_Bit = ( PAD2_Bit == 23 ) ? 0 : ( PAD2_Bit + 1 );
 170:../src/nes/K6502_rw.h ****         return byRet;
 171:../src/nes/K6502_rw.h ****       }
 172:../src/nes/K6502_rw.h ****       else 
 173:../src/nes/K6502_rw.h ****       {
 174:../src/nes/K6502_rw.h ****         /* Return Mapper Register*/
 175:../src/nes/K6502_rw.h ****         return MapperReadApu( wAddr );
 176:../src/nes/K6502_rw.h ****       }
 177:../src/nes/K6502_rw.h ****       break;
 178:../src/nes/K6502_rw.h ****       // The other sound registers are not readable.
 179:../src/nes/K6502_rw.h **** 
 180:../src/nes/K6502_rw.h ****     case 0x6000:  /* SRAM */
 181:../src/nes/K6502_rw.h ****       if ( ROM_SRAM )
 182:../src/nes/K6502_rw.h ****       {
 183:../src/nes/K6502_rw.h ****         return SRAM[ wAddr & 0x1fff ];
 184:../src/nes/K6502_rw.h ****       } else {    /* SRAM BANK */
 185:../src/nes/K6502_rw.h ****         return SRAMBANK[ wAddr & 0x1fff ];
 186:../src/nes/K6502_rw.h ****       }
 187:../src/nes/K6502_rw.h **** 
 188:../src/nes/K6502_rw.h ****     case 0x8000:  /* ROM BANK 0 */
 189:../src/nes/K6502_rw.h ****       return ROMBANK0[ wAddr & 0x1fff ];
 190:../src/nes/K6502_rw.h **** 
 191:../src/nes/K6502_rw.h ****     case 0xa000:  /* ROM BANK 1 */
 192:../src/nes/K6502_rw.h ****       return ROMBANK1[ wAddr & 0x1fff ];
 193:../src/nes/K6502_rw.h **** 
 194:../src/nes/K6502_rw.h ****     case 0xc000:  /* ROM BANK 2 */
 195:../src/nes/K6502_rw.h ****       return ROMBANK2[ wAddr & 0x1fff ];
 196:../src/nes/K6502_rw.h **** 
 197:../src/nes/K6502_rw.h ****     case 0xe000:  /* ROM BANK 3 */
 198:../src/nes/K6502_rw.h ****       return ROMBANK3[ wAddr & 0x1fff ];
 199:../src/nes/K6502_rw.h ****   }
 200:../src/nes/K6502_rw.h **** 
 201:../src/nes/K6502_rw.h ****   return ( wAddr >> 8 ); /* when a register is not readable the upper half
 202:../src/nes/K6502_rw.h ****                             address is returned. */
 203:../src/nes/K6502_rw.h **** }
 204:../src/nes/K6502_rw.h **** 
 205:../src/nes/K6502_rw.h **** /*===================================================================*/
 206:../src/nes/K6502_rw.h **** /*                                                                   */
 207:../src/nes/K6502_rw.h **** /*               K6502_Write() : Writing operation                    */
 208:../src/nes/K6502_rw.h **** /*                                                                   */
 209:../src/nes/K6502_rw.h **** /*===================================================================*/
 210:../src/nes/K6502_rw.h **** static inline void K6502_Write( WORD wAddr, BYTE byData )
 211:../src/nes/K6502_rw.h **** {
  12              		.loc 1 211 0
  13              		.cfi_startproc
  14              	.LVL0:
  15 0000 4111     		addi	sp,sp,-16
  16              		.cfi_def_cfa_offset 16
 212:../src/nes/K6502_rw.h **** /*
 213:../src/nes/K6502_rw.h ****  *  Writing operation
 214:../src/nes/K6502_rw.h ****  *
 215:../src/nes/K6502_rw.h ****  *  Parameters
 216:../src/nes/K6502_rw.h ****  *    WORD wAddr              (Read)
 217:../src/nes/K6502_rw.h ****  *      Address to write
 218:../src/nes/K6502_rw.h ****  *
 219:../src/nes/K6502_rw.h ****  *    BYTE byData             (Read)
 220:../src/nes/K6502_rw.h ****  *      Data to write
 221:../src/nes/K6502_rw.h ****  *
 222:../src/nes/K6502_rw.h ****  *  Remarks
 223:../src/nes/K6502_rw.h ****  *    0x0000 - 0x1fff  RAM ( 0x800 - 0x1fff is mirror of 0x0 - 0x7ff )
 224:../src/nes/K6502_rw.h ****  *    0x2000 - 0x3fff  PPU
 225:../src/nes/K6502_rw.h ****  *    0x4000 - 0x5fff  Sound
 226:../src/nes/K6502_rw.h ****  *    0x6000 - 0x7fff  SRAM ( Battery Backed )
 227:../src/nes/K6502_rw.h ****  *    0x8000 - 0xffff  ROM
 228:../src/nes/K6502_rw.h ****  *
 229:../src/nes/K6502_rw.h ****  */
 230:../src/nes/K6502_rw.h **** 
 231:../src/nes/K6502_rw.h ****   switch ( wAddr & 0xe000 )
  17              		.loc 1 231 0
  18 0002 F977     		li	a5,-8192
 211:../src/nes/K6502_rw.h **** /*
  19              		.loc 1 211 0
  20 0004 22C4     		sw	s0,8(sp)
  21 0006 26C2     		sw	s1,4(sp)
  22 0008 06C6     		sw	ra,12(sp)
  23              		.cfi_offset 8, -8
  24              		.cfi_offset 9, -12
  25              		.cfi_offset 1, -4
  26              		.loc 1 231 0
  27 000a E98F     		and	a5,a0,a5
  28 000c 9966     		li	a3,24576
 211:../src/nes/K6502_rw.h **** /*
  29              		.loc 1 211 0
  30 000e 2A84     		mv	s0,a0
  31 0010 AE84     		mv	s1,a1
  32              		.loc 1 231 0
  33 0012 6382D708 		beq	a5,a3,.L3
  34 0016 63EEF600 		bgtu	a5,a3,.L4
  35 001a 8966     		li	a3,8192
  36 001c 6381D704 		beq	a5,a3,.L5
  37 0020 9166     		li	a3,16384
  38 0022 6383D70A 		beq	a5,a3,.L6
  39 0026 B1C7     		beqz	a5,.L61
  40              	.LVL1:
  41              	.L1:
 232:../src/nes/K6502_rw.h ****   {
 233:../src/nes/K6502_rw.h ****     case 0x0000:  /* RAM */
 234:../src/nes/K6502_rw.h ****       RAM[ wAddr & 0x7ff ] = byData;
 235:../src/nes/K6502_rw.h ****       break;
 236:../src/nes/K6502_rw.h **** 
 237:../src/nes/K6502_rw.h ****     case 0x2000:  /* PPU */
 238:../src/nes/K6502_rw.h ****       switch ( wAddr & 0x7 )
 239:../src/nes/K6502_rw.h ****       {
 240:../src/nes/K6502_rw.h ****         case 0:    /* 0x2000 */
 241:../src/nes/K6502_rw.h ****           PPU_R0 = byData;
 242:../src/nes/K6502_rw.h ****           PPU_Increment = ( PPU_R0 & R0_INC_ADDR ) ? 32 : 1;
 243:../src/nes/K6502_rw.h ****           PPU_NameTableBank = NAME_TABLE0 + ( PPU_R0 & R0_NAME_ADDR );
 244:../src/nes/K6502_rw.h **** #ifdef RAM_LACK
 245:../src/nes/K6502_rw.h ****           PPU_BG_Base = ( PPU_R0 & R0_BG_ADDR ) ? PPUBANK[ 4 ] : PPUBANK[ 0 ];
 246:../src/nes/K6502_rw.h ****           PPU_SP_Base = ( PPU_R0 & R0_SP_ADDR ) ? PPUBANK[ 4 ] : PPUBANK[ 0 ];
 247:../src/nes/K6502_rw.h **** #else
 248:../src/nes/K6502_rw.h ****           PPU_BG_Base = ( PPU_R0 & R0_BG_ADDR ) ? ChrBuf + 256 * 64 : ChrBuf;
 249:../src/nes/K6502_rw.h ****           PPU_SP_Base = ( PPU_R0 & R0_SP_ADDR ) ? ChrBuf + 256 * 64 : ChrBuf;
 250:../src/nes/K6502_rw.h **** #endif /* RAM_LACK */
 251:../src/nes/K6502_rw.h ****           PPU_SP_Height = ( PPU_R0 & R0_SP_SIZE ) ? 16 : 8;
 252:../src/nes/K6502_rw.h **** 
 253:../src/nes/K6502_rw.h **** 		  /* t:0000110000000000=d:00000011 */
 254:../src/nes/K6502_rw.h **** 		  loopy_t = (loopy_t & 0xF3FF)|(((WORD)byData & 0x03)<<10);
 255:../src/nes/K6502_rw.h ****           break;
 256:../src/nes/K6502_rw.h **** 
 257:../src/nes/K6502_rw.h ****         case 1:   /* 0x2001 */
 258:../src/nes/K6502_rw.h ****           PPU_R1 = byData;
 259:../src/nes/K6502_rw.h ****           break;
 260:../src/nes/K6502_rw.h **** 
 261:../src/nes/K6502_rw.h ****         case 2:   /* 0x2002 */
 262:../src/nes/K6502_rw.h **** #if 0	  
 263:../src/nes/K6502_rw.h ****           PPU_R2 = byData;     // 0x2002 is not writable
 264:../src/nes/K6502_rw.h **** #endif
 265:../src/nes/K6502_rw.h ****           break;
 266:../src/nes/K6502_rw.h **** 
 267:../src/nes/K6502_rw.h ****         case 3:   /* 0x2003 */
 268:../src/nes/K6502_rw.h ****           // Sprite RAM Address
 269:../src/nes/K6502_rw.h ****           PPU_R3 = byData;
 270:../src/nes/K6502_rw.h ****           break;
 271:../src/nes/K6502_rw.h **** 
 272:../src/nes/K6502_rw.h ****         case 4:   /* 0x2004 */
 273:../src/nes/K6502_rw.h ****           // Write data to Sprite RAM
 274:../src/nes/K6502_rw.h ****           SPRRAM[ PPU_R3++ ] = byData;
 275:../src/nes/K6502_rw.h ****           break;
 276:../src/nes/K6502_rw.h **** 
 277:../src/nes/K6502_rw.h ****         case 5:   /* 0x2005 */
 278:../src/nes/K6502_rw.h ****           // Set Scroll Register
 279:../src/nes/K6502_rw.h ****           if ( PPU_Latch_Flag )
 280:../src/nes/K6502_rw.h ****           {
 281:../src/nes/K6502_rw.h **** 			  /* Second Write */
 282:../src/nes/K6502_rw.h **** 			  // tile Y t:0000001111100000=d:11111000
 283:../src/nes/K6502_rw.h **** 			  loopy_t = (loopy_t & 0xFC1F)|((((WORD)byData) & 0xF8)<<2);
 284:../src/nes/K6502_rw.h **** 			  // scroll offset Y t:0111000000000000=d:00000111
 285:../src/nes/K6502_rw.h **** 			  loopy_t = (loopy_t & 0x8FFF)|((((WORD)byData) & 0x07)<<12);
 286:../src/nes/K6502_rw.h **** 
 287:../src/nes/K6502_rw.h ****             // V-Scroll Register
 288:../src/nes/K6502_rw.h **** 			if ( byData > 239 ) PPU_NameTableBank ^= NAME_TABLE_V_MASK; 
 289:../src/nes/K6502_rw.h **** 
 290:../src/nes/K6502_rw.h ****           }
 291:../src/nes/K6502_rw.h ****           else
 292:../src/nes/K6502_rw.h ****           {
 293:../src/nes/K6502_rw.h **** 			  /* First Write */
 294:../src/nes/K6502_rw.h **** 			  // tile X t:0000000000011111=d:11111000
 295:../src/nes/K6502_rw.h **** 			  loopy_t = (loopy_t & 0xFFE0)|(((WORD)byData)>>3);
 296:../src/nes/K6502_rw.h **** 			  // scroll offset X x=d:00000111
 297:../src/nes/K6502_rw.h **** 			  loopy_x = byData & 0x07;
 298:../src/nes/K6502_rw.h ****           }
 299:../src/nes/K6502_rw.h ****           PPU_Latch_Flag ^= 1;
 300:../src/nes/K6502_rw.h ****           break;
 301:../src/nes/K6502_rw.h **** 
 302:../src/nes/K6502_rw.h ****         case 6:   /* 0x2006 */
 303:../src/nes/K6502_rw.h ****           // Set PPU Address
 304:../src/nes/K6502_rw.h ****           if ( PPU_Latch_Flag )
 305:../src/nes/K6502_rw.h ****           {
 306:../src/nes/K6502_rw.h **** 			  /* Low - Second Write */
 307:../src/nes/K6502_rw.h **** 			  // t:0000000011111111=d:11111111
 308:../src/nes/K6502_rw.h **** 			  loopy_t = (loopy_t & 0xFF00)|(WORD)byData;
 309:../src/nes/K6502_rw.h **** 			  // v=t
 310:../src/nes/K6502_rw.h **** 			  loopy_v = loopy_t;
 311:../src/nes/K6502_rw.h **** 
 312:../src/nes/K6502_rw.h **** 			  /* Mapper PPU Latch */
 313:../src/nes/K6502_rw.h **** 			  if ( !( PPU_R2 & R2_IN_VBLANK ) ) {
 314:../src/nes/K6502_rw.h **** 				  InfoNES_SetupScr();
 315:../src/nes/K6502_rw.h **** 			  }
 316:../src/nes/K6502_rw.h **** 		  }
 317:../src/nes/K6502_rw.h **** 		  else
 318:../src/nes/K6502_rw.h **** 		  {
 319:../src/nes/K6502_rw.h **** 			  /* High - First Write */
 320:../src/nes/K6502_rw.h **** 			  // t:0011111100000000=d:00111111
 321:../src/nes/K6502_rw.h **** 			  // t:1100000000000000=0
 322:../src/nes/K6502_rw.h **** 			  loopy_t = (loopy_t & 0x00FF)|((((WORD)byData) & 0x3F)<<8);
 323:../src/nes/K6502_rw.h ****           }
 324:../src/nes/K6502_rw.h ****           PPU_Latch_Flag ^= 1;
 325:../src/nes/K6502_rw.h ****           break;
 326:../src/nes/K6502_rw.h **** 
 327:../src/nes/K6502_rw.h ****         case 7:   /* 0x2007 */
 328:../src/nes/K6502_rw.h ****           {
 329:../src/nes/K6502_rw.h ****             WORD addr = loopy_v;
 330:../src/nes/K6502_rw.h ****             
 331:../src/nes/K6502_rw.h ****             // Increment PPU Address
 332:../src/nes/K6502_rw.h ****             loopy_v += PPU_Increment;
 333:../src/nes/K6502_rw.h ****             addr &= 0x3fff;
 334:../src/nes/K6502_rw.h **** 
 335:../src/nes/K6502_rw.h ****             // Write to PPU Memory
 336:../src/nes/K6502_rw.h ****             if ( addr < 0x2000 && byVramWriteEnable )
 337:../src/nes/K6502_rw.h ****             {
 338:../src/nes/K6502_rw.h ****               // Pattern Data
 339:../src/nes/K6502_rw.h **** #ifndef RAM_LACK
 340:../src/nes/K6502_rw.h ****               ChrBufUpdate |= ( 1 << ( addr >> 10 ) );
 341:../src/nes/K6502_rw.h **** #endif /* !RAM_LACK */
 342:../src/nes/K6502_rw.h ****               PPUBANK[ addr >> 10 ][ addr & 0x3ff ] = byData;
 343:../src/nes/K6502_rw.h ****             }
 344:../src/nes/K6502_rw.h ****             else
 345:../src/nes/K6502_rw.h ****             if ( addr < 0x3f00 )  /* 0x2000 - 0x3eff */
 346:../src/nes/K6502_rw.h ****             {
 347:../src/nes/K6502_rw.h ****               // Name Table and mirror
 348:../src/nes/K6502_rw.h ****               PPUBANK[   addr            >> 10 ][ addr & 0x3ff ] = byData;
 349:../src/nes/K6502_rw.h ****               PPUBANK[ ( addr & ~0x1000 ) >> 10 ][ addr & 0x3ff ] = byData;
 350:../src/nes/K6502_rw.h ****             }
 351:../src/nes/K6502_rw.h ****             else
 352:../src/nes/K6502_rw.h ****             if ( !( addr & 0xf ) )  /* 0x3f00 or 0x3f10 */
 353:../src/nes/K6502_rw.h ****             {
 354:../src/nes/K6502_rw.h ****               // Palette mirror
 355:../src/nes/K6502_rw.h **** #ifndef RAM_LACK
 356:../src/nes/K6502_rw.h ****               PPURAM[ 0x3f10 ] = PPURAM[ 0x3f14 ] = PPURAM[ 0x3f18 ] = PPURAM[ 0x3f1c ] = 
 357:../src/nes/K6502_rw.h ****               PPURAM[ 0x3f00 ] = PPURAM[ 0x3f04 ] = PPURAM[ 0x3f08 ] = PPURAM[ 0x3f0c ] = byData;
 358:../src/nes/K6502_rw.h **** #endif
 359:../src/nes/K6502_rw.h ****               PalTable[ 0x00 ] = PalTable[ 0x04 ] = PalTable[ 0x08 ] = PalTable[ 0x0c ] =
 360:../src/nes/K6502_rw.h ****               PalTable[ 0x10 ] = PalTable[ 0x14 ] = PalTable[ 0x18 ] = PalTable[ 0x1c ] = NesPalett
 361:../src/nes/K6502_rw.h ****             }
 362:../src/nes/K6502_rw.h ****             else
 363:../src/nes/K6502_rw.h **** 			if ( addr & 3 )
 364:../src/nes/K6502_rw.h ****             {
 365:../src/nes/K6502_rw.h ****               // Palette
 366:../src/nes/K6502_rw.h **** #ifndef RAM_LACK
 367:../src/nes/K6502_rw.h ****               PPURAM[ addr ] = byData;
 368:../src/nes/K6502_rw.h **** #endif
 369:../src/nes/K6502_rw.h ****               PalTable[ addr & 0x1f ] = NesPalette[ byData ];
 370:../src/nes/K6502_rw.h ****             }
 371:../src/nes/K6502_rw.h ****           }
 372:../src/nes/K6502_rw.h ****           break;
 373:../src/nes/K6502_rw.h ****       }
 374:../src/nes/K6502_rw.h ****       break;
 375:../src/nes/K6502_rw.h **** 
 376:../src/nes/K6502_rw.h ****     case 0x4000:  /* Sound */
 377:../src/nes/K6502_rw.h ****       switch ( wAddr & 0x1f )
 378:../src/nes/K6502_rw.h ****       {
 379:../src/nes/K6502_rw.h ****         case 0x00:
 380:../src/nes/K6502_rw.h ****         case 0x01:
 381:../src/nes/K6502_rw.h ****         case 0x02:
 382:../src/nes/K6502_rw.h ****         case 0x03:          
 383:../src/nes/K6502_rw.h ****         case 0x04:
 384:../src/nes/K6502_rw.h ****         case 0x05:
 385:../src/nes/K6502_rw.h ****         case 0x06:
 386:../src/nes/K6502_rw.h ****         case 0x07:
 387:../src/nes/K6502_rw.h ****         case 0x08:
 388:../src/nes/K6502_rw.h ****         case 0x09:
 389:../src/nes/K6502_rw.h ****         case 0x0a:
 390:../src/nes/K6502_rw.h ****         case 0x0b:
 391:../src/nes/K6502_rw.h ****         case 0x0c:
 392:../src/nes/K6502_rw.h ****         case 0x0d:
 393:../src/nes/K6502_rw.h ****         case 0x0e:
 394:../src/nes/K6502_rw.h ****         case 0x0f:
 395:../src/nes/K6502_rw.h ****         case 0x10:
 396:../src/nes/K6502_rw.h ****         case 0x11:	  
 397:../src/nes/K6502_rw.h ****         case 0x12:
 398:../src/nes/K6502_rw.h ****         case 0x13:
 399:../src/nes/K6502_rw.h **** #ifndef APU_NONE
 400:../src/nes/K6502_rw.h ****           // Call Function corresponding to Sound Registers
 401:../src/nes/K6502_rw.h ****           if ( !APU_Mute )
 402:../src/nes/K6502_rw.h ****             pAPUSoundRegs[ wAddr & 0x1f ]( wAddr, byData );
 403:../src/nes/K6502_rw.h **** #endif /* APU_NONE */
 404:../src/nes/K6502_rw.h ****           break;
 405:../src/nes/K6502_rw.h **** 
 406:../src/nes/K6502_rw.h ****         case 0x14:  /* 0x4014 */
 407:../src/nes/K6502_rw.h ****           // Sprite DMA
 408:../src/nes/K6502_rw.h ****           switch ( byData >> 5 )
 409:../src/nes/K6502_rw.h ****           {
 410:../src/nes/K6502_rw.h ****             case 0x0:  /* RAM */
 411:../src/nes/K6502_rw.h ****               InfoNES_MemoryCopy( SPRRAM, &RAM[ ( (WORD)byData << 8 ) & 0x7ff ], SPRRAM_SIZE );
 412:../src/nes/K6502_rw.h ****               break;
 413:../src/nes/K6502_rw.h **** 
 414:../src/nes/K6502_rw.h ****             case 0x3:  /* SRAM */
 415:../src/nes/K6502_rw.h ****               InfoNES_MemoryCopy( SPRRAM, &SRAM[ ( (WORD)byData << 8 ) & 0x1fff ], SPRRAM_SIZE );
 416:../src/nes/K6502_rw.h ****               break;
 417:../src/nes/K6502_rw.h **** 
 418:../src/nes/K6502_rw.h ****             case 0x4:  /* ROM BANK 0 */
 419:../src/nes/K6502_rw.h ****               InfoNES_MemoryCopy( SPRRAM, &ROMBANK0[ ( (WORD)byData << 8 ) & 0x1fff ], SPRRAM_SIZE 
 420:../src/nes/K6502_rw.h ****               break;
 421:../src/nes/K6502_rw.h **** 
 422:../src/nes/K6502_rw.h ****             case 0x5:  /* ROM BANK 1 */
 423:../src/nes/K6502_rw.h ****               InfoNES_MemoryCopy( SPRRAM, &ROMBANK1[ ( (WORD)byData << 8 ) & 0x1fff ], SPRRAM_SIZE 
 424:../src/nes/K6502_rw.h ****               break;
 425:../src/nes/K6502_rw.h **** 
 426:../src/nes/K6502_rw.h ****             case 0x6:  /* ROM BANK 2 */
 427:../src/nes/K6502_rw.h ****               InfoNES_MemoryCopy( SPRRAM, &ROMBANK2[ ( (WORD)byData << 8 ) & 0x1fff ], SPRRAM_SIZE 
 428:../src/nes/K6502_rw.h ****               break;
 429:../src/nes/K6502_rw.h **** 
 430:../src/nes/K6502_rw.h ****             case 0x7:  /* ROM BANK 3 */
 431:../src/nes/K6502_rw.h ****               InfoNES_MemoryCopy( SPRRAM, &ROMBANK3[ ( (WORD)byData << 8 ) & 0x1fff ], SPRRAM_SIZE 
 432:../src/nes/K6502_rw.h ****               break;
 433:../src/nes/K6502_rw.h ****           }
 434:../src/nes/K6502_rw.h ****           break;
 435:../src/nes/K6502_rw.h **** 
 436:../src/nes/K6502_rw.h ****         case 0x15:  /* 0x4015 */
 437:../src/nes/K6502_rw.h **** #ifndef APU_NONE
 438:../src/nes/K6502_rw.h ****           InfoNES_pAPUWriteControl( wAddr, byData );
 439:../src/nes/K6502_rw.h **** #endif /* APU_NONE */
 440:../src/nes/K6502_rw.h **** #if 0
 441:../src/nes/K6502_rw.h ****           /* Unknown */
 442:../src/nes/K6502_rw.h ****           if ( byData & 0x10 ) 
 443:../src/nes/K6502_rw.h ****           {
 444:../src/nes/K6502_rw.h **** 	    byData &= ~0x80;
 445:../src/nes/K6502_rw.h **** 	  }
 446:../src/nes/K6502_rw.h **** #endif
 447:../src/nes/K6502_rw.h ****           break;
 448:../src/nes/K6502_rw.h **** 
 449:../src/nes/K6502_rw.h ****         case 0x16:  /* 0x4016 */
 450:../src/nes/K6502_rw.h **** #ifndef APU_NONE
 451:../src/nes/K6502_rw.h **** 		  // For VS-Unisystem
 452:../src/nes/K6502_rw.h **** 		  MapperApu( wAddr, byData );
 453:../src/nes/K6502_rw.h ****           // Reset joypad
 454:../src/nes/K6502_rw.h ****           if ( !( APU_Reg[ 0x16 ] & 1 ) && ( byData & 1 ) )
 455:../src/nes/K6502_rw.h **** #else
 456:../src/nes/K6502_rw.h ****           // Reset joypad
 457:../src/nes/K6502_rw.h ****           if ( byData & 1 )
 458:../src/nes/K6502_rw.h **** #endif /* APU_NONE */
 459:../src/nes/K6502_rw.h ****           {
 460:../src/nes/K6502_rw.h ****             PAD1_Bit = 0;
 461:../src/nes/K6502_rw.h ****             PAD2_Bit = 0;
 462:../src/nes/K6502_rw.h ****           }
 463:../src/nes/K6502_rw.h ****           break;
 464:../src/nes/K6502_rw.h **** 
 465:../src/nes/K6502_rw.h ****         case 0x17:  /* 0x4017 */
 466:../src/nes/K6502_rw.h ****           // Frame IRQ
 467:../src/nes/K6502_rw.h ****           FrameStep = 0;
 468:../src/nes/K6502_rw.h ****           if ( !( byData & 0xc0 ) )
 469:../src/nes/K6502_rw.h ****           {
 470:../src/nes/K6502_rw.h ****             FrameIRQ_Enable = 1;
 471:../src/nes/K6502_rw.h ****           } else {
 472:../src/nes/K6502_rw.h ****             FrameIRQ_Enable = 0;
 473:../src/nes/K6502_rw.h ****           }
 474:../src/nes/K6502_rw.h ****           break;
 475:../src/nes/K6502_rw.h ****       }
 476:../src/nes/K6502_rw.h **** 
 477:../src/nes/K6502_rw.h ****       if ( wAddr <= 0x4017 )
 478:../src/nes/K6502_rw.h ****       {
 479:../src/nes/K6502_rw.h **** #ifndef APU_NONE
 480:../src/nes/K6502_rw.h ****         /* Write to APU Register */
 481:../src/nes/K6502_rw.h ****         APU_Reg[ wAddr & 0x1f ] = byData;
 482:../src/nes/K6502_rw.h **** #endif /* APU_NONE */
 483:../src/nes/K6502_rw.h ****       }
 484:../src/nes/K6502_rw.h ****       else
 485:../src/nes/K6502_rw.h ****       {
 486:../src/nes/K6502_rw.h ****         /* Write to APU */
 487:../src/nes/K6502_rw.h ****         MapperApu( wAddr, byData );
 488:../src/nes/K6502_rw.h ****       }
 489:../src/nes/K6502_rw.h ****       break;
 490:../src/nes/K6502_rw.h **** 
 491:../src/nes/K6502_rw.h ****     case 0x6000:  /* SRAM */
 492:../src/nes/K6502_rw.h ****       SRAM[ wAddr & 0x1fff ] = byData;
 493:../src/nes/K6502_rw.h **** 
 494:../src/nes/K6502_rw.h ****       /* Write to SRAM, when no SRAM */
 495:../src/nes/K6502_rw.h ****       if ( !ROM_SRAM )
 496:../src/nes/K6502_rw.h ****       {
 497:../src/nes/K6502_rw.h ****         MapperSram( wAddr, byData );
 498:../src/nes/K6502_rw.h ****       }
 499:../src/nes/K6502_rw.h ****       break;
 500:../src/nes/K6502_rw.h **** 
 501:../src/nes/K6502_rw.h ****     case 0x8000:  /* ROM BANK 0 */
 502:../src/nes/K6502_rw.h ****     case 0xa000:  /* ROM BANK 1 */
 503:../src/nes/K6502_rw.h ****     case 0xc000:  /* ROM BANK 2 */
 504:../src/nes/K6502_rw.h ****     case 0xe000:  /* ROM BANK 3 */
 505:../src/nes/K6502_rw.h ****       // Write to Mapper
 506:../src/nes/K6502_rw.h ****       MapperWrite( wAddr, byData );
 507:../src/nes/K6502_rw.h ****       break;
 508:../src/nes/K6502_rw.h ****   }
 509:../src/nes/K6502_rw.h **** }
  42              		.loc 1 509 0
  43 0028 B240     		lw	ra,12(sp)
  44              		.cfi_remember_state
  45              		.cfi_restore 1
  46 002a 2244     		lw	s0,8(sp)
  47              		.cfi_restore 8
  48 002c 9244     		lw	s1,4(sp)
  49              		.cfi_restore 9
  50 002e 4101     		addi	sp,sp,16
  51              		.cfi_def_cfa_offset 0
  52 0030 8280     		jr	ra
  53              	.LVL2:
  54              	.L4:
  55              		.cfi_restore_state
 231:../src/nes/K6502_rw.h ****   {
  56              		.loc 1 231 0
  57 0032 A966     		li	a3,40960
  58 0034 638AD700 		beq	a5,a3,.L8
  59 0038 63FBF604 		bleu	a5,a3,.L62
  60 003c B166     		li	a3,49152
  61 003e 6385D700 		beq	a5,a3,.L8
  62 0042 B966     		li	a3,57344
  63 0044 E392D7FE 		bne	a5,a3,.L1
  64              	.L8:
 506:../src/nes/K6502_rw.h ****       break;
  65              		.loc 1 506 0
  66 0048 B7070000 		lui	a5,%hi(MapperWrite)
  67 004c 03A30700 		lw	t1,%lo(MapperWrite)(a5)
  68              	.LVL3:
  69              	.L58:
  70 0050 2285     		mv	a0,s0
  71              		.loc 1 509 0
  72 0052 2244     		lw	s0,8(sp)
  73              		.cfi_remember_state
  74              		.cfi_restore 8
  75 0054 B240     		lw	ra,12(sp)
  76              		.cfi_restore 1
 506:../src/nes/K6502_rw.h ****       break;
  77              		.loc 1 506 0
  78 0056 A685     		mv	a1,s1
  79              		.loc 1 509 0
  80 0058 9244     		lw	s1,4(sp)
  81              		.cfi_restore 9
  82 005a 4101     		addi	sp,sp,16
  83              		.cfi_def_cfa_offset 0
 506:../src/nes/K6502_rw.h ****       break;
  84              		.loc 1 506 0
  85 005c 0283     		jr	t1
  86              	.LVL4:
  87              	.L5:
  88              		.cfi_restore_state
 238:../src/nes/K6502_rw.h ****       {
  89              		.loc 1 238 0
  90 005e 13777500 		andi	a4,a0,7
  91 0062 B7070000 		lui	a5,%hi(.L11)
  92 0066 93870700 		addi	a5,a5,%lo(.L11)
  93 006a 0A07     		slli	a4,a4,2
  94 006c 3E97     		add	a4,a4,a5
  95 006e 1C43     		lw	a5,0(a4)
  96 0070 8287     		jr	a5
  97              		.section	.rodata.K6502_Write,"a",@progbits
  98              		.align	2
  99              		.align	2
 100              	.L11:
 101 0000 00000000 		.word	.L10
 102 0004 00000000 		.word	.L12
 103 0008 00000000 		.word	.L1
 104 000c 00000000 		.word	.L13
 105 0010 00000000 		.word	.L14
 106 0014 00000000 		.word	.L15
 107 0018 00000000 		.word	.L16
 108 001c 00000000 		.word	.L17
 109              		.section	.text.K6502_Write
 110              	.L61:
 234:../src/nes/K6502_rw.h ****       break;
 111              		.loc 1 234 0
 112 0072 B7070000 		lui	a5,%hi(RAM)
 113 0076 1377F57F 		andi	a4,a0,2047
 114 007a 93870700 		addi	a5,a5,%lo(RAM)
 115 007e 3E97     		add	a4,a4,a5
 116 0080 2300B700 		sb	a1,0(a4)
 117              		.loc 1 509 0
 118 0084 B240     		lw	ra,12(sp)
 119              		.cfi_remember_state
 120              		.cfi_restore 1
 121 0086 2244     		lw	s0,8(sp)
 122              		.cfi_restore 8
 123 0088 9244     		lw	s1,4(sp)
 124              		.cfi_restore 9
 125 008a 4101     		addi	sp,sp,16
 126              		.cfi_def_cfa_offset 0
 127 008c 8280     		jr	ra
 128              	.L62:
 129              		.cfi_restore_state
 231:../src/nes/K6502_rw.h ****   {
 130              		.loc 1 231 0
 131 008e A166     		li	a3,32768
 132 0090 E38CD7FA 		beq	a5,a3,.L8
 133 0094 51BF     		j	.L1
 134              	.L3:
 492:../src/nes/K6502_rw.h **** 
 135              		.loc 1 492 0
 136 0096 8967     		li	a5,8192
 137 0098 FD17     		addi	a5,a5,-1
 138 009a 3377F500 		and	a4,a0,a5
 495:../src/nes/K6502_rw.h ****       {
 139              		.loc 1 495 0
 140 009e B7060000 		lui	a3,%hi(ROM_SRAM)
 492:../src/nes/K6502_rw.h **** 
 141              		.loc 1 492 0
 142 00a2 B7070000 		lui	a5,%hi(SRAM)
 143 00a6 93870700 		addi	a5,a5,%lo(SRAM)
 495:../src/nes/K6502_rw.h ****       {
 144              		.loc 1 495 0
 145 00aa 83C60600 		lbu	a3,%lo(ROM_SRAM)(a3)
 492:../src/nes/K6502_rw.h **** 
 146              		.loc 1 492 0
 147 00ae 3E97     		add	a4,a4,a5
 148 00b0 2300B700 		sb	a1,0(a4)
 495:../src/nes/K6502_rw.h ****       {
 149              		.loc 1 495 0
 150 00b4 B5FA     		bnez	a3,.L1
 151              		.loc 1 509 0
 152 00b6 2244     		lw	s0,8(sp)
 153              		.cfi_remember_state
 154              		.cfi_restore 8
 497:../src/nes/K6502_rw.h ****       }
 155              		.loc 1 497 0
 156 00b8 B7070000 		lui	a5,%hi(MapperSram)
 157              		.loc 1 509 0
 158 00bc B240     		lw	ra,12(sp)
 159              		.cfi_restore 1
 160 00be 9244     		lw	s1,4(sp)
 161              		.cfi_restore 9
 497:../src/nes/K6502_rw.h ****       }
 162              		.loc 1 497 0
 163 00c0 03A30700 		lw	t1,%lo(MapperSram)(a5)
 164              		.loc 1 509 0
 165 00c4 4101     		addi	sp,sp,16
 166              		.cfi_def_cfa_offset 0
 506:../src/nes/K6502_rw.h ****       break;
 167              		.loc 1 506 0
 168 00c6 0283     		jr	t1
 169              	.LVL5:
 170              	.L6:
 171              		.cfi_restore_state
 377:../src/nes/K6502_rw.h ****       {
 172              		.loc 1 377 0
 173 00c8 9377F501 		andi	a5,a0,31
 174 00cc 5947     		li	a4,22
 175 00ce 638BE72A 		beq	a5,a4,.L34
 176 00d2 5D47     		li	a4,23
 177 00d4 638BE728 		beq	a5,a4,.L35
 178 00d8 5147     		li	a4,20
 179 00da 6381E71E 		beq	a5,a4,.L63
 180              	.LVL6:
 181              	.L33:
 477:../src/nes/K6502_rw.h ****       {
 182              		.loc 1 477 0
 183 00de 9167     		li	a5,16384
 184 00e0 DD07     		addi	a5,a5,23
 185 00e2 E3F387F4 		bleu	s0,a5,.L1
 487:../src/nes/K6502_rw.h ****       }
 186              		.loc 1 487 0
 187 00e6 B7070000 		lui	a5,%hi(MapperApu)
 188 00ea 03A30700 		lw	t1,%lo(MapperApu)(a5)
 189 00ee 8DB7     		j	.L58
 190              	.LVL7:
 191              	.L16:
 304:../src/nes/K6502_rw.h ****           {
 192              		.loc 1 304 0
 193 00f0 B7050000 		lui	a1,%hi(PPU_Latch_Flag)
 194              	.LVL8:
 195 00f4 03C70500 		lbu	a4,%lo(PPU_Latch_Flag)(a1)
 196 00f8 B7060000 		lui	a3,%hi(loopy_t)
 197 00fc 83970600 		lh	a5,%lo(loopy_t)(a3)
 198 0100 63080730 		beqz	a4,.L26
 308:../src/nes/K6502_rw.h **** 			  // v=t
 199              		.loc 1 308 0
 200 0104 93F707F0 		andi	a5,a5,-256
 201 0108 C58F     		or	a5,a5,s1
 313:../src/nes/K6502_rw.h **** 				  InfoNES_SetupScr();
 202              		.loc 1 313 0
 203 010a 37060000 		lui	a2,%hi(PPU_R2)
 308:../src/nes/K6502_rw.h **** 			  // v=t
 204              		.loc 1 308 0
 205 010e C207     		slli	a5,a5,16
 206 0110 C183     		srli	a5,a5,16
 313:../src/nes/K6502_rw.h **** 				  InfoNES_SetupScr();
 207              		.loc 1 313 0
 208 0112 03060600 		lb	a2,%lo(PPU_R2)(a2)
 308:../src/nes/K6502_rw.h **** 			  // v=t
 209              		.loc 1 308 0
 210 0116 2390F600 		sh	a5,%lo(loopy_t)(a3)
 310:../src/nes/K6502_rw.h **** 
 211              		.loc 1 310 0
 212 011a B7060000 		lui	a3,%hi(loopy_v)
 213 011e 2390F600 		sh	a5,%lo(loopy_v)(a3)
 313:../src/nes/K6502_rw.h **** 				  InfoNES_SetupScr();
 214              		.loc 1 313 0
 215 0122 63490600 		bltz	a2,.L27
 314:../src/nes/K6502_rw.h **** 			  }
 216              		.loc 1 314 0
 217 0126 A987     		srai	a5,a5,10
 218 0128 8D8B     		andi	a5,a5,3
 219 012a A107     		addi	a5,a5,8
 220 012c B7060000 		lui	a3,%hi(PPU_NameTableBank)
 221 0130 2380F600 		sb	a5,%lo(PPU_NameTableBank)(a3)
 222              	.LVL9:
 223              	.L27:
 324:../src/nes/K6502_rw.h ****           break;
 224              		.loc 1 324 0
 225 0134 13471700 		xori	a4,a4,1
 226 0138 2380E500 		sb	a4,%lo(PPU_Latch_Flag)(a1)
 325:../src/nes/K6502_rw.h **** 
 227              		.loc 1 325 0
 228 013c F5B5     		j	.L1
 229              	.LVL10:
 230              	.L15:
 279:../src/nes/K6502_rw.h ****           {
 231              		.loc 1 279 0
 232 013e B7050000 		lui	a1,%hi(PPU_Latch_Flag)
 233              	.LVL11:
 234 0142 83C70500 		lbu	a5,%lo(PPU_Latch_Flag)(a1)
 235 0146 37050000 		lui	a0,%hi(loopy_t)
 236              	.LVL12:
 237 014a 03170500 		lh	a4,%lo(loopy_t)(a0)
 238 014e 6384072A 		beqz	a5,.L24
 283:../src/nes/K6502_rw.h **** 			  // scroll offset Y t:0111000000000000=d:00000111
 239              		.loc 1 283 0
 240 0152 93962400 		slli	a3,s1,2
 241 0156 93F6063E 		andi	a3,a3,992
 242 015a 1377F7C1 		andi	a4,a4,-993
 285:../src/nes/K6502_rw.h **** 
 243              		.loc 1 285 0
 244 015e 6578     		li	a6,-28672
 283:../src/nes/K6502_rw.h **** 			  // scroll offset Y t:0111000000000000=d:00000111
 245              		.loc 1 283 0
 246 0160 558F     		or	a4,a3,a4
 285:../src/nes/K6502_rw.h **** 
 247              		.loc 1 285 0
 248 0162 7D18     		addi	a6,a6,-1
 249 0164 33770701 		and	a4,a4,a6
 250 0168 9396C400 		slli	a3,s1,12
 251 016c 1D68     		li	a6,28672
 252 016e B3F60601 		and	a3,a3,a6
 253 0172 558F     		or	a4,a4,a3
 254 0174 2310E500 		sh	a4,%lo(loopy_t)(a0)
 288:../src/nes/K6502_rw.h **** 
 255              		.loc 1 288 0
 256 0178 1307F00E 		li	a4,239
 257 017c 637A9700 		bleu	s1,a4,.L25
 288:../src/nes/K6502_rw.h **** 
 258              		.loc 1 288 0 is_stmt 0 discriminator 1
 259 0180 B7060000 		lui	a3,%hi(PPU_NameTableBank)
 260 0184 03C70600 		lbu	a4,%lo(PPU_NameTableBank)(a3)
 261 0188 13472700 		xori	a4,a4,2
 262 018c 2380E600 		sb	a4,%lo(PPU_NameTableBank)(a3)
 263              	.L25:
 299:../src/nes/K6502_rw.h ****           break;
 264              		.loc 1 299 0 is_stmt 1
 265 0190 93C71700 		xori	a5,a5,1
 266 0194 2380F500 		sb	a5,%lo(PPU_Latch_Flag)(a1)
 300:../src/nes/K6502_rw.h **** 
 267              		.loc 1 300 0
 268 0198 41BD     		j	.L1
 269              	.LVL13:
 270              	.L14:
 274:../src/nes/K6502_rw.h ****           break;
 271              		.loc 1 274 0
 272 019a B7060000 		lui	a3,%hi(PPU_R3)
 273 019e 83C70600 		lbu	a5,%lo(PPU_R3)(a3)
 274 01a2 37070000 		lui	a4,%hi(SPRRAM)
 275 01a6 13070700 		addi	a4,a4,%lo(SPRRAM)
 276 01aa 93851700 		addi	a1,a5,1
 277              	.LVL14:
 278 01ae BA97     		add	a5,a5,a4
 279 01b0 2380B600 		sb	a1,%lo(PPU_R3)(a3)
 280 01b4 23809700 		sb	s1,0(a5)
 275:../src/nes/K6502_rw.h **** 
 281              		.loc 1 275 0
 282 01b8 85BD     		j	.L1
 283              	.LVL15:
 284              	.L13:
 269:../src/nes/K6502_rw.h ****           break;
 285              		.loc 1 269 0
 286 01ba B7070000 		lui	a5,%hi(PPU_R3)
 287 01be 2380B700 		sb	a1,%lo(PPU_R3)(a5)
 270:../src/nes/K6502_rw.h **** 
 288              		.loc 1 270 0
 289 01c2 9DB5     		j	.L1
 290              	.L17:
 291              	.LBB115:
 329:../src/nes/K6502_rw.h ****             
 292              		.loc 1 329 0
 293 01c4 37050000 		lui	a0,%hi(loopy_v)
 294              	.LVL16:
 332:../src/nes/K6502_rw.h ****             addr &= 0x3fff;
 295              		.loc 1 332 0
 296 01c8 B7070000 		lui	a5,%hi(PPU_Increment)
 329:../src/nes/K6502_rw.h ****             
 297              		.loc 1 329 0
 298 01cc 83560500 		lhu	a3,%lo(loopy_v)(a0)
 299              	.LVL17:
 332:../src/nes/K6502_rw.h ****             addr &= 0x3fff;
 300              		.loc 1 332 0
 301 01d0 83D70700 		lhu	a5,%lo(PPU_Increment)(a5)
 333:../src/nes/K6502_rw.h **** 
 302              		.loc 1 333 0
 303 01d4 9165     		li	a1,16384
 304              	.LVL18:
 305 01d6 1387F5FF 		addi	a4,a1,-1
 332:../src/nes/K6502_rw.h ****             addr &= 0x3fff;
 306              		.loc 1 332 0
 307 01da B697     		add	a5,a3,a5
 308 01dc 2310F500 		sh	a5,%lo(loopy_v)(a0)
 333:../src/nes/K6502_rw.h **** 
 309              		.loc 1 333 0
 310 01e0 758F     		and	a4,a3,a4
 311              	.LVL19:
 336:../src/nes/K6502_rw.h ****             {
 312              		.loc 1 336 0
 313 01e2 8967     		li	a5,8192
 314 01e4 637AF71C 		bgeu	a4,a5,.L28
 315 01e8 B7070000 		lui	a5,%hi(PPUBANK)
 316 01ec 9355A700 		srli	a1,a4,10
 317 01f0 8A05     		slli	a1,a1,2
 318 01f2 93870700 		addi	a5,a5,%lo(PPUBANK)
 319 01f6 BE95     		add	a1,a5,a1
 336:../src/nes/K6502_rw.h ****             {
 320              		.loc 1 336 0 is_stmt 0 discriminator 1
 321 01f8 37050000 		lui	a0,%hi(byVramWriteEnable)
 322 01fc 8C41     		lw	a1,0(a1)
 323 01fe 03450500 		lbu	a0,%lo(byVramWriteEnable)(a0)
 324 0202 93F6F63F 		andi	a3,a3,1023
 325 0206 B695     		add	a1,a1,a3
 326 0208 63100522 		bnez	a0,.L64
 327              	.L29:
 349:../src/nes/K6502_rw.h ****             }
 328              		.loc 1 349 0 is_stmt 1
 329 020c 2183     		srli	a4,a4,8
 330              	.LVL20:
 331 020e 1377C70E 		andi	a4,a4,236
 348:../src/nes/K6502_rw.h ****               PPUBANK[ ( addr & ~0x1000 ) >> 10 ][ addr & 0x3ff ] = byData;
 332              		.loc 1 348 0
 333 0212 23809500 		sb	s1,0(a1)
 349:../src/nes/K6502_rw.h ****             }
 334              		.loc 1 349 0
 335 0216 BA97     		add	a5,a5,a4
 336 0218 9C43     		lw	a5,0(a5)
 337 021a BE96     		add	a3,a5,a3
 338 021c 23809600 		sb	s1,0(a3)
 339 0220 21B5     		j	.L1
 340              	.LVL21:
 341              	.L12:
 342              	.LBE115:
 258:../src/nes/K6502_rw.h ****           break;
 343              		.loc 1 258 0
 344 0222 B7070000 		lui	a5,%hi(PPU_R1)
 345 0226 2380B700 		sb	a1,%lo(PPU_R1)(a5)
 259:../src/nes/K6502_rw.h **** 
 346              		.loc 1 259 0
 347 022a FDBB     		j	.L1
 348              	.L10:
 241:../src/nes/K6502_rw.h ****           PPU_Increment = ( PPU_R0 & R0_INC_ADDR ) ? 32 : 1;
 349              		.loc 1 241 0
 350 022c B7070000 		lui	a5,%hi(PPU_R0)
 351 0230 2380B700 		sb	a1,%lo(PPU_R0)(a5)
 242:../src/nes/K6502_rw.h ****           PPU_NameTableBank = NAME_TABLE0 + ( PPU_R0 & R0_NAME_ADDR );
 352              		.loc 1 242 0
 353 0234 93F74500 		andi	a5,a1,4
 354 0238 0547     		li	a4,1
 355 023a 99C3     		beqz	a5,.L18
 356 023c 13070002 		li	a4,32
 357              	.L18:
 243:../src/nes/K6502_rw.h **** #ifdef RAM_LACK
 358              		.loc 1 243 0 discriminator 4
 359 0240 93F73400 		andi	a5,s1,3
 242:../src/nes/K6502_rw.h ****           PPU_NameTableBank = NAME_TABLE0 + ( PPU_R0 & R0_NAME_ADDR );
 360              		.loc 1 242 0 discriminator 4
 361 0244 B7060000 		lui	a3,%hi(PPU_Increment)
 243:../src/nes/K6502_rw.h **** #ifdef RAM_LACK
 362              		.loc 1 243 0 discriminator 4
 363 0248 A107     		addi	a5,a5,8
 242:../src/nes/K6502_rw.h ****           PPU_NameTableBank = NAME_TABLE0 + ( PPU_R0 & R0_NAME_ADDR );
 364              		.loc 1 242 0 discriminator 4
 365 024a 2390E600 		sh	a4,%lo(PPU_Increment)(a3)
 243:../src/nes/K6502_rw.h **** #ifdef RAM_LACK
 366              		.loc 1 243 0 discriminator 4
 367 024e 37070000 		lui	a4,%hi(PPU_NameTableBank)
 368 0252 2300F700 		sb	a5,%lo(PPU_NameTableBank)(a4)
 245:../src/nes/K6502_rw.h ****           PPU_SP_Base = ( PPU_R0 & R0_SP_ADDR ) ? PPUBANK[ 4 ] : PPUBANK[ 0 ];
 369              		.loc 1 245 0 discriminator 4
 370 0256 93F70401 		andi	a5,s1,16
 371 025a 638A0714 		beqz	a5,.L19
 245:../src/nes/K6502_rw.h ****           PPU_SP_Base = ( PPU_R0 & R0_SP_ADDR ) ? PPUBANK[ 4 ] : PPUBANK[ 0 ];
 372              		.loc 1 245 0 is_stmt 0 discriminator 1
 373 025e B7070000 		lui	a5,%hi(PPUBANK)
 374 0262 13870700 		addi	a4,a5,%lo(PPUBANK)
 375 0266 144B     		lw	a3,16(a4)
 376              	.L20:
 245:../src/nes/K6502_rw.h ****           PPU_SP_Base = ( PPU_R0 & R0_SP_ADDR ) ? PPUBANK[ 4 ] : PPUBANK[ 0 ];
 377              		.loc 1 245 0 discriminator 4
 378 0268 37070000 		lui	a4,%hi(PPU_BG_Base)
 379 026c 2320D700 		sw	a3,%lo(PPU_BG_Base)(a4)
 246:../src/nes/K6502_rw.h **** #else
 380              		.loc 1 246 0 is_stmt 1 discriminator 4
 381 0270 13F78400 		andi	a4,s1,8
 382 0274 630A0712 		beqz	a4,.L21
 246:../src/nes/K6502_rw.h **** #else
 383              		.loc 1 246 0 is_stmt 0 discriminator 1
 384 0278 93870700 		addi	a5,a5,%lo(PPUBANK)
 385 027c 984B     		lw	a4,16(a5)
 386              	.L22:
 246:../src/nes/K6502_rw.h **** #else
 387              		.loc 1 246 0 discriminator 4
 388 027e B7070000 		lui	a5,%hi(PPU_SP_Base)
 389 0282 23A0E700 		sw	a4,%lo(PPU_SP_Base)(a5)
 251:../src/nes/K6502_rw.h **** 
 390              		.loc 1 251 0 is_stmt 1 discriminator 4
 391 0286 93F70402 		andi	a5,s1,32
 392 028a A145     		li	a1,8
 393              	.LVL22:
 394 028c 91C3     		beqz	a5,.L23
 251:../src/nes/K6502_rw.h **** 
 395              		.loc 1 251 0 is_stmt 0
 396 028e C145     		li	a1,16
 397              	.L23:
 254:../src/nes/K6502_rw.h ****           break;
 398              		.loc 1 254 0 is_stmt 1 discriminator 4
 399 0290 B7060000 		lui	a3,%hi(loopy_t)
 400 0294 83D70600 		lhu	a5,%lo(loopy_t)(a3)
 401 0298 7D77     		li	a4,-4096
 402 029a 1307F73F 		addi	a4,a4,1023
 403 029e F98F     		and	a5,a5,a4
 404 02a0 0567     		li	a4,4096
 405 02a2 130707C0 		addi	a4,a4,-1024
 406 02a6 1396A400 		slli	a2,s1,10
 407 02aa 798E     		and	a2,a2,a4
 408 02ac D18F     		or	a5,a5,a2
 251:../src/nes/K6502_rw.h **** 
 409              		.loc 1 251 0 discriminator 4
 410 02ae 37070000 		lui	a4,%hi(PPU_SP_Height)
 411 02b2 2310B700 		sh	a1,%lo(PPU_SP_Height)(a4)
 254:../src/nes/K6502_rw.h ****           break;
 412              		.loc 1 254 0 discriminator 4
 413 02b6 2390F600 		sh	a5,%lo(loopy_t)(a3)
 255:../src/nes/K6502_rw.h **** 
 414              		.loc 1 255 0 discriminator 4
 415 02ba BDB3     		j	.L1
 416              	.LVL23:
 417              	.L63:
 408:../src/nes/K6502_rw.h ****           {
 418              		.loc 1 408 0
 419 02bc 93D75500 		srli	a5,a1,5
 420 02c0 37070000 		lui	a4,%hi(.L38)
 421 02c4 8A07     		slli	a5,a5,2
 422 02c6 13070700 		addi	a4,a4,%lo(.L38)
 423 02ca BA97     		add	a5,a5,a4
 424 02cc 9C43     		lw	a5,0(a5)
 425 02ce 8287     		jr	a5
 426              		.section	.rodata.K6502_Write
 427              		.align	2
 428              		.align	2
 429              	.L38:
 430 0020 00000000 		.word	.L37
 431 0024 00000000 		.word	.L33
 432 0028 00000000 		.word	.L33
 433 002c 00000000 		.word	.L39
 434 0030 00000000 		.word	.L40
 435 0034 00000000 		.word	.L41
 436 0038 00000000 		.word	.L42
 437 003c 00000000 		.word	.L43
 438              		.section	.text.K6502_Write
 439              	.L43:
 431:../src/nes/K6502_rw.h ****               break;
 440              		.loc 1 431 0
 441 02d0 B7070000 		lui	a5,%hi(ROMBANK3)
 442 02d4 83A50700 		lw	a1,%lo(ROMBANK3)(a5)
 443              	.LVL24:
 444              	.L57:
 445 02d8 0967     		li	a4,8192
 446 02da 93978400 		slli	a5,s1,8
 447 02de 7D17     		addi	a4,a4,-1
 448 02e0 F98F     		and	a5,a5,a4
 449 02e2 37050000 		lui	a0,%hi(SPRRAM)
 450              	.LVL25:
 451 02e6 13060010 		li	a2,256
 452 02ea BE95     		add	a1,a1,a5
 453 02ec 13050500 		addi	a0,a0,%lo(SPRRAM)
 454 02f0 97000000 		call	InfoNES_MemoryCopy
 454      E7800000 
 455              	.LVL26:
 432:../src/nes/K6502_rw.h ****           }
 456              		.loc 1 432 0
 457 02f8 DDB3     		j	.L33
 458              	.LVL27:
 459              	.L42:
 427:../src/nes/K6502_rw.h ****               break;
 460              		.loc 1 427 0
 461 02fa B7070000 		lui	a5,%hi(ROMBANK2)
 462 02fe 83A50700 		lw	a1,%lo(ROMBANK2)(a5)
 463              	.LVL28:
 464 0302 D9BF     		j	.L57
 465              	.LVL29:
 466              	.L41:
 423:../src/nes/K6502_rw.h ****               break;
 467              		.loc 1 423 0
 468 0304 B7070000 		lui	a5,%hi(ROMBANK1)
 469 0308 83A50700 		lw	a1,%lo(ROMBANK1)(a5)
 470              	.LVL30:
 471 030c F1B7     		j	.L57
 472              	.LVL31:
 473              	.L40:
 419:../src/nes/K6502_rw.h ****               break;
 474              		.loc 1 419 0
 475 030e B7070000 		lui	a5,%hi(ROMBANK0)
 476 0312 83A50700 		lw	a1,%lo(ROMBANK0)(a5)
 477              	.LVL32:
 478 0316 C9B7     		j	.L57
 479              	.LVL33:
 480              	.L39:
 415:../src/nes/K6502_rw.h ****               break;
 481              		.loc 1 415 0
 482 0318 0967     		li	a4,8192
 483 031a 93978500 		slli	a5,a1,8
 484 031e 7D17     		addi	a4,a4,-1
 485 0320 B7050000 		lui	a1,%hi(SRAM)
 486              	.LVL34:
 487 0324 F98F     		and	a5,a5,a4
 488 0326 93850500 		addi	a1,a1,%lo(SRAM)
 489 032a 37050000 		lui	a0,%hi(SPRRAM)
 490              	.LVL35:
 491 032e 13060010 		li	a2,256
 492 0332 BE95     		add	a1,a1,a5
 493 0334 13050500 		addi	a0,a0,%lo(SPRRAM)
 494 0338 97000000 		call	InfoNES_MemoryCopy
 494      E7800000 
 495              	.LVL36:
 416:../src/nes/K6502_rw.h **** 
 496              		.loc 1 416 0
 497 0340 79BB     		j	.L33
 498              	.LVL37:
 499              	.L37:
 411:../src/nes/K6502_rw.h ****               break;
 500              		.loc 1 411 0
 501 0342 93978500 		slli	a5,a1,8
 502 0346 B7050000 		lui	a1,%hi(RAM)
 503              	.LVL38:
 504 034a 93F7F77F 		andi	a5,a5,2047
 505 034e 93850500 		addi	a1,a1,%lo(RAM)
 506 0352 37050000 		lui	a0,%hi(SPRRAM)
 507              	.LVL39:
 508 0356 13060010 		li	a2,256
 509 035a BE95     		add	a1,a1,a5
 510 035c 13050500 		addi	a0,a0,%lo(SPRRAM)
 511 0360 97000000 		call	InfoNES_MemoryCopy
 511      E7800000 
 512              	.LVL40:
 412:../src/nes/K6502_rw.h **** 
 513              		.loc 1 412 0
 514 0368 9DBB     		j	.L33
 515              	.LVL41:
 516              	.L35:
 467:../src/nes/K6502_rw.h ****           if ( !( byData & 0xc0 ) )
 517              		.loc 1 467 0
 518 036a B7070000 		lui	a5,%hi(FrameStep)
 519 036e 23900700 		sh	zero,%lo(FrameStep)(a5)
 468:../src/nes/K6502_rw.h ****           {
 520              		.loc 1 468 0
 521 0372 93F7050C 		andi	a5,a1,192
 522 0376 85E7     		bnez	a5,.L44
 470:../src/nes/K6502_rw.h ****           } else {
 523              		.loc 1 470 0
 524 0378 B7070000 		lui	a5,%hi(FrameIRQ_Enable)
 525 037c 0547     		li	a4,1
 526 037e 2380E700 		sb	a4,%lo(FrameIRQ_Enable)(a5)
 527 0382 B1BB     		j	.L33
 528              	.L34:
 457:../src/nes/K6502_rw.h **** #endif /* APU_NONE */
 529              		.loc 1 457 0
 530 0384 93F71500 		andi	a5,a1,1
 531 0388 E38B07D4 		beqz	a5,.L33
 460:../src/nes/K6502_rw.h ****             PAD2_Bit = 0;
 532              		.loc 1 460 0
 533 038c B7070000 		lui	a5,%hi(PAD1_Bit)
 534 0390 23A00700 		sw	zero,%lo(PAD1_Bit)(a5)
 461:../src/nes/K6502_rw.h ****           }
 535              		.loc 1 461 0
 536 0394 B7070000 		lui	a5,%hi(PAD2_Bit)
 537 0398 23A00700 		sw	zero,%lo(PAD2_Bit)(a5)
 538 039c 89B3     		j	.L33
 539              	.L44:
 472:../src/nes/K6502_rw.h ****           }
 540              		.loc 1 472 0
 541 039e B7070000 		lui	a5,%hi(FrameIRQ_Enable)
 542 03a2 23800700 		sb	zero,%lo(FrameIRQ_Enable)(a5)
 543 03a6 25BB     		j	.L33
 544              	.L21:
 246:../src/nes/K6502_rw.h **** #else
 545              		.loc 1 246 0 discriminator 2
 546 03a8 03A70700 		lw	a4,%lo(PPUBANK)(a5)
 547 03ac C9BD     		j	.L22
 548              	.L19:
 245:../src/nes/K6502_rw.h ****           PPU_SP_Base = ( PPU_R0 & R0_SP_ADDR ) ? PPUBANK[ 4 ] : PPUBANK[ 0 ];
 549              		.loc 1 245 0 discriminator 2
 550 03ae B7070000 		lui	a5,%hi(PPUBANK)
 551 03b2 83A60700 		lw	a3,%lo(PPUBANK)(a5)
 552 03b6 4DBD     		j	.L20
 553              	.LVL42:
 554              	.L28:
 555              	.LBB116:
 345:../src/nes/K6502_rw.h ****             {
 556              		.loc 1 345 0
 557 03b8 9385F5EF 		addi	a1,a1,-257
 558 03bc 63F9E50A 		bleu	a4,a1,.L65
 352:../src/nes/K6502_rw.h ****             {
 559              		.loc 1 352 0
 560 03c0 93F7F600 		andi	a5,a3,15
 561 03c4 ADC7     		beqz	a5,.L66
 363:../src/nes/K6502_rw.h ****             {
 562              		.loc 1 363 0
 563 03c6 93F73600 		andi	a5,a3,3
 564 03ca E38F07C4 		beqz	a5,.L1
 369:../src/nes/K6502_rw.h ****             }
 565              		.loc 1 369 0
 566 03ce B7070000 		lui	a5,%hi(NesPalette)
 567 03d2 93870700 		addi	a5,a5,%lo(NesPalette)
 568 03d6 13971400 		slli	a4,s1,1
 569              	.LVL43:
 570 03da 3E97     		add	a4,a4,a5
 571 03dc 93F7F601 		andi	a5,a3,31
 572 03e0 83560700 		lhu	a3,0(a4)
 573              	.LVL44:
 574 03e4 37070000 		lui	a4,%hi(PalTable)
 575 03e8 8607     		slli	a5,a5,1
 576 03ea 13070700 		addi	a4,a4,%lo(PalTable)
 577 03ee BA97     		add	a5,a5,a4
 578 03f0 2390D700 		sh	a3,0(a5)
 579 03f4 15B9     		j	.L1
 580              	.L24:
 581              	.LBE116:
 295:../src/nes/K6502_rw.h **** 			  // scroll offset X x=d:00000111
 582              		.loc 1 295 0
 583 03f6 019B     		andi	a4,a4,-32
 584 03f8 93D63400 		srli	a3,s1,3
 585 03fc 558F     		or	a4,a4,a3
 297:../src/nes/K6502_rw.h ****           }
 586              		.loc 1 297 0
 587 03fe 13F67400 		andi	a2,s1,7
 295:../src/nes/K6502_rw.h **** 			  // scroll offset X x=d:00000111
 588              		.loc 1 295 0
 589 0402 2310E500 		sh	a4,%lo(loopy_t)(a0)
 297:../src/nes/K6502_rw.h ****           }
 590              		.loc 1 297 0
 591 0406 37070000 		lui	a4,%hi(loopy_x)
 592 040a 2310C700 		sh	a2,%lo(loopy_x)(a4)
 593 040e 49B3     		j	.L25
 594              	.LVL45:
 595              	.L26:
 322:../src/nes/K6502_rw.h ****           }
 596              		.loc 1 322 0
 597 0410 1165     		li	a0,16384
 598              	.LVL46:
 599 0412 13968400 		slli	a2,s1,8
 600 0416 130505F0 		addi	a0,a0,-256
 601 041a 698E     		and	a2,a2,a0
 602 041c 93F7F70F 		andi	a5,a5,255
 603 0420 D18F     		or	a5,a2,a5
 604 0422 2390F600 		sh	a5,%lo(loopy_t)(a3)
 605 0426 39B3     		j	.L27
 606              	.LVL47:
 607              	.L64:
 608              	.LBB117:
 342:../src/nes/K6502_rw.h ****             }
 609              		.loc 1 342 0
 610 0428 23809500 		sb	s1,0(a1)
 611 042c F5BE     		j	.L1
 612              	.L66:
 613              	.LVL48:
 614              	.LBE117:
 615              	.LBB118:
 616              	.LBB119:
 360:../src/nes/K6502_rw.h ****             }
 617              		.loc 1 360 0
 618 042e 37070000 		lui	a4,%hi(NesPalette)
 619              	.LVL49:
 620 0432 13070700 		addi	a4,a4,%lo(NesPalette)
 621 0436 93971400 		slli	a5,s1,1
 622 043a BA97     		add	a5,a5,a4
 623 043c 83D70700 		lhu	a5,0(a5)
 624 0440 B7060000 		lui	a3,%hi(PalTable)
 625              	.LVL50:
 626 0444 13870600 		addi	a4,a3,%lo(PalTable)
 627 0448 93E70702 		ori	a5,a5,32
 628 044c 231CF702 		sh	a5,56(a4)
 629 0450 2318F702 		sh	a5,48(a4)
 630 0454 2314F702 		sh	a5,40(a4)
 631 0458 2310F702 		sh	a5,32(a4)
 359:../src/nes/K6502_rw.h ****               PalTable[ 0x10 ] = PalTable[ 0x14 ] = PalTable[ 0x18 ] = PalTable[ 0x1c ] = NesPalett
 632              		.loc 1 359 0
 633 045c 231CF700 		sh	a5,24(a4)
 634 0460 2318F700 		sh	a5,16(a4)
 635 0464 2314F700 		sh	a5,8(a4)
 636 0468 2390F600 		sh	a5,%lo(PalTable)(a3)
 637 046c 75BE     		j	.L1
 638              	.LVL51:
 639              	.L65:
 640 046e B7070000 		lui	a5,%hi(PPUBANK)
 641 0472 9355A700 		srli	a1,a4,10
 642 0476 8A05     		slli	a1,a1,2
 643 0478 93870700 		addi	a5,a5,%lo(PPUBANK)
 644 047c BE95     		add	a1,a5,a1
 645 047e 8C41     		lw	a1,0(a1)
 646 0480 93F6F63F 		andi	a3,a3,1023
 647 0484 B695     		add	a1,a1,a3
 648 0486 59B3     		j	.L29
 649              	.LBE119:
 650              	.LBE118:
 651              		.cfi_endproc
 652              	.LFE10:
 654              		.section	.text.K6502_ReadAbsX,"ax",@progbits
 655              		.align	1
 657              	K6502_ReadAbsX:
 658              	.LFB4:
 659              		.file 2 "../src/nes/K6502.c"
   1:../src/nes/K6502.c **** /*===================================================================*/
   2:../src/nes/K6502.c **** /*                                                                   */
   3:../src/nes/K6502.c **** /*  K6502.cpp : 6502 Emulator                                        */
   4:../src/nes/K6502.c **** /*                                                                   */
   5:../src/nes/K6502.c **** /*  2000/5/10   InfoNES Project ( based on pNesX )                   */
   6:../src/nes/K6502.c **** /*                                                                   */
   7:../src/nes/K6502.c **** /*===================================================================*/
   8:../src/nes/K6502.c **** 
   9:../src/nes/K6502.c **** /*-------------------------------------------------------------------*/
  10:../src/nes/K6502.c **** /*  Include files                                                    */
  11:../src/nes/K6502.c **** /*-------------------------------------------------------------------*/
  12:../src/nes/K6502.c **** 
  13:../src/nes/K6502.c **** #include "K6502.h"
  14:../src/nes/K6502.c **** #include "InfoNES_System.h"
  15:../src/nes/K6502.c **** 
  16:../src/nes/K6502.c **** #ifdef __cplusplus 
  17:../src/nes/K6502.c **** extern "C" { 
  18:../src/nes/K6502.c **** #endif /* __cplusplus */ 
  19:../src/nes/K6502.c **** 
  20:../src/nes/K6502.c **** /*-------------------------------------------------------------------*/
  21:../src/nes/K6502.c **** /*  Operation Macros                                                 */
  22:../src/nes/K6502.c **** /*-------------------------------------------------------------------*/
  23:../src/nes/K6502.c **** 
  24:../src/nes/K6502.c **** // Clock Op.
  25:../src/nes/K6502.c **** #define CLK(a)   g_wPassedClocks += (a);
  26:../src/nes/K6502.c **** 
  27:../src/nes/K6502.c **** // Addressing Op.
  28:../src/nes/K6502.c **** // Address
  29:../src/nes/K6502.c **** // (Indirect,X)
  30:../src/nes/K6502.c **** #define AA_IX    K6502_ReadZpW( K6502_Read( PC++ ) + X )
  31:../src/nes/K6502.c **** // (Indirect),Y
  32:../src/nes/K6502.c **** #define AA_IY    K6502_ReadZpW( K6502_Read( PC++ ) ) + Y
  33:../src/nes/K6502.c **** // Zero Page
  34:../src/nes/K6502.c **** #define AA_ZP    K6502_Read( PC++ )
  35:../src/nes/K6502.c **** // Zero Page,X
  36:../src/nes/K6502.c **** #define AA_ZPX   (BYTE)( K6502_Read( PC++ ) + X )
  37:../src/nes/K6502.c **** // Zero Page,Y
  38:../src/nes/K6502.c **** #define AA_ZPY   (BYTE)( K6502_Read( PC++ ) + Y )
  39:../src/nes/K6502.c **** // Absolute
  40:../src/nes/K6502.c **** #define AA_ABS   ( K6502_Read( PC++ ) | (WORD)K6502_Read( PC++ ) << 8 )
  41:../src/nes/K6502.c **** // Absolute2 ( PC-- )
  42:../src/nes/K6502.c **** #define AA_ABS2  ( K6502_Read( PC++ ) | (WORD)K6502_Read( PC ) << 8 )
  43:../src/nes/K6502.c **** // Absolute,X
  44:../src/nes/K6502.c **** #define AA_ABSX  AA_ABS + X
  45:../src/nes/K6502.c **** // Absolute,Y
  46:../src/nes/K6502.c **** #define AA_ABSY  AA_ABS + Y
  47:../src/nes/K6502.c **** 
  48:../src/nes/K6502.c **** // Data
  49:../src/nes/K6502.c **** // (Indirect,X)
  50:../src/nes/K6502.c **** #define A_IX    K6502_Read( AA_IX )
  51:../src/nes/K6502.c **** // (Indirect),Y
  52:../src/nes/K6502.c **** #define A_IY    K6502_ReadIY()
  53:../src/nes/K6502.c **** // Zero Page
  54:../src/nes/K6502.c **** #define A_ZP    K6502_ReadZp( AA_ZP )
  55:../src/nes/K6502.c **** // Zero Page,X
  56:../src/nes/K6502.c **** #define A_ZPX   K6502_ReadZp( AA_ZPX )
  57:../src/nes/K6502.c **** // Zero Page,Y
  58:../src/nes/K6502.c **** #define A_ZPY   K6502_ReadZp( AA_ZPY )
  59:../src/nes/K6502.c **** // Absolute
  60:../src/nes/K6502.c **** #define A_ABS   K6502_Read( AA_ABS )
  61:../src/nes/K6502.c **** // Absolute,X
  62:../src/nes/K6502.c **** #define A_ABSX  K6502_ReadAbsX()
  63:../src/nes/K6502.c **** // Absolute,Y
  64:../src/nes/K6502.c **** #define A_ABSY  K6502_ReadAbsY()
  65:../src/nes/K6502.c **** // Immediate
  66:../src/nes/K6502.c **** #define A_IMM   K6502_Read( PC++ )
  67:../src/nes/K6502.c **** 
  68:../src/nes/K6502.c **** // Flag Op.
  69:../src/nes/K6502.c **** #define SETF(a)  F |= (a)
  70:../src/nes/K6502.c **** #define RSTF(a)  F &= ~(a)
  71:../src/nes/K6502.c **** #define TEST(a)  RSTF( FLAG_N | FLAG_Z ); SETF( g_byTestTable[ a ] )
  72:../src/nes/K6502.c **** 
  73:../src/nes/K6502.c **** // Load & Store Op.
  74:../src/nes/K6502.c **** #define STA(a)    K6502_Write( (a), A );
  75:../src/nes/K6502.c **** #define STX(a)    K6502_Write( (a), X );
  76:../src/nes/K6502.c **** #define STY(a)    K6502_Write( (a), Y );
  77:../src/nes/K6502.c **** #define LDA(a)    A = (a); TEST( A );
  78:../src/nes/K6502.c **** #define LDX(a)    X = (a); TEST( X );
  79:../src/nes/K6502.c **** #define LDY(a)    Y = (a); TEST( Y );
  80:../src/nes/K6502.c **** 
  81:../src/nes/K6502.c **** // Stack Op.
  82:../src/nes/K6502.c **** #define PUSH(a)   K6502_Write( BASE_STACK + SP--, (a) )
  83:../src/nes/K6502.c **** #define PUSHW(a)  PUSH( (a) >> 8 ); PUSH( (a) & 0xff )
  84:../src/nes/K6502.c **** #define POP(a)    a = K6502_Read( BASE_STACK + ++SP )
  85:../src/nes/K6502.c **** #define POPW(a)   POP(a); a |= ( K6502_Read( BASE_STACK + ++SP ) << 8 )
  86:../src/nes/K6502.c **** 
  87:../src/nes/K6502.c **** // Logical Op.
  88:../src/nes/K6502.c **** #define ORA(a)  A |= (a); TEST( A )
  89:../src/nes/K6502.c **** #define AND(a)  A &= (a); TEST( A )
  90:../src/nes/K6502.c **** #define EOR(a)  A ^= (a); TEST( A )
  91:../src/nes/K6502.c **** #define BIT(a)  byD0 = (a); RSTF( FLAG_N | FLAG_V | FLAG_Z ); SETF( ( byD0 & ( FLAG_N | FLAG_V ) ) 
  92:../src/nes/K6502.c **** #define CMP(a)  wD0 = (WORD)A - (a); RSTF( FLAG_N | FLAG_Z | FLAG_C ); SETF( g_byTestTable[ wD0 & 0
  93:../src/nes/K6502.c **** #define CPX(a)  wD0 = (WORD)X - (a); RSTF( FLAG_N | FLAG_Z | FLAG_C ); SETF( g_byTestTable[ wD0 & 0
  94:../src/nes/K6502.c **** #define CPY(a)  wD0 = (WORD)Y - (a); RSTF( FLAG_N | FLAG_Z | FLAG_C ); SETF( g_byTestTable[ wD0 & 0
  95:../src/nes/K6502.c ****   
  96:../src/nes/K6502.c **** // Math Op. (A D flag isn't being supported.)
  97:../src/nes/K6502.c **** #define ADC(a)  byD0 = (a); \
  98:../src/nes/K6502.c ****                 wD0 = A + byD0 + ( F & FLAG_C ); \
  99:../src/nes/K6502.c ****                 byD1 = (BYTE)wD0; \
 100:../src/nes/K6502.c ****                 RSTF( FLAG_N | FLAG_V | FLAG_Z | FLAG_C ); \
 101:../src/nes/K6502.c ****                 SETF( g_byTestTable[ byD1 ] | ( ( ~( A ^ byD0 ) & ( A ^ byD1 ) & 0x80 ) ? FLAG_V : 
 102:../src/nes/K6502.c ****                 A = byD1;
 103:../src/nes/K6502.c **** 
 104:../src/nes/K6502.c **** #define SBC(a)  byD0 = (a); \
 105:../src/nes/K6502.c ****                 wD0 = A - byD0 - ( ~F & FLAG_C ); \
 106:../src/nes/K6502.c ****                 byD1 = (BYTE)wD0; \
 107:../src/nes/K6502.c ****                 RSTF( FLAG_N | FLAG_V | FLAG_Z | FLAG_C ); \
 108:../src/nes/K6502.c ****                 SETF( g_byTestTable[ byD1 ] | ( ( ( A ^ byD0 ) & ( A ^ byD1 ) & 0x80 ) ? FLAG_V : 0
 109:../src/nes/K6502.c ****                 A = byD1;
 110:../src/nes/K6502.c **** 
 111:../src/nes/K6502.c **** #define DEC(a)  wA0 = a; byD0 = K6502_Read( wA0 ); --byD0; K6502_Write( wA0, byD0 ); TEST( byD0 )
 112:../src/nes/K6502.c **** #define INC(a)  wA0 = a; byD0 = K6502_Read( wA0 ); ++byD0; K6502_Write( wA0, byD0 ); TEST( byD0 )
 113:../src/nes/K6502.c **** 
 114:../src/nes/K6502.c **** // Shift Op.
 115:../src/nes/K6502.c **** #define ASLA    RSTF( FLAG_N | FLAG_Z | FLAG_C ); SETF( g_ASLTable[ A ].byFlag ); A = g_ASLTable[ A
 116:../src/nes/K6502.c **** #define ASL(a)  RSTF( FLAG_N | FLAG_Z | FLAG_C ); wA0 = a; byD0 = K6502_Read( wA0 ); SETF( g_ASLTab
 117:../src/nes/K6502.c **** #define LSRA    RSTF( FLAG_N | FLAG_Z | FLAG_C ); SETF( g_LSRTable[ A ].byFlag ); A = g_LSRTable[ A
 118:../src/nes/K6502.c **** #define LSR(a)  RSTF( FLAG_N | FLAG_Z | FLAG_C ); wA0 = a; byD0 = K6502_Read( wA0 ); SETF( g_LSRTab
 119:../src/nes/K6502.c **** #define ROLA    byD0 = F & FLAG_C; RSTF( FLAG_N | FLAG_Z | FLAG_C ); SETF( g_ROLTable[ byD0 ][ A ].
 120:../src/nes/K6502.c **** #define ROL(a)  byD1 = F & FLAG_C; RSTF( FLAG_N | FLAG_Z | FLAG_C ); wA0 = a; byD0 = K6502_Read( wA
 121:../src/nes/K6502.c **** #define RORA    byD0 = F & FLAG_C; RSTF( FLAG_N | FLAG_Z | FLAG_C ); SETF( g_RORTable[ byD0 ][ A ].
 122:../src/nes/K6502.c **** #define ROR(a)  byD1 = F & FLAG_C; RSTF( FLAG_N | FLAG_Z | FLAG_C ); wA0 = a; byD0 = K6502_Read( wA
 123:../src/nes/K6502.c **** 
 124:../src/nes/K6502.c **** // Jump Op.
 125:../src/nes/K6502.c **** #define JSR     wA0 = AA_ABS2; PUSHW( PC ); PC = wA0; 
 126:../src/nes/K6502.c **** #if 0
 127:../src/nes/K6502.c **** #define BRA(a)  if ( a ) { wA0 = PC; PC += (char)K6502_Read( PC ); CLK( 3 + ( ( wA0 & 0x0100 ) != (
 128:../src/nes/K6502.c **** #else
 129:../src/nes/K6502.c **** #define BRA(a) { \
 130:../src/nes/K6502.c ****   if ( a ) \
 131:../src/nes/K6502.c ****   { \
 132:../src/nes/K6502.c ****     wA0 = PC; \
 133:../src/nes/K6502.c **** 	byD0 = K6502_Read( PC ); \
 134:../src/nes/K6502.c **** 	PC += ( ( byD0 & 0x80 ) ? ( 0xFF00 | (WORD)byD0 ) : (WORD)byD0 ); \
 135:../src/nes/K6502.c **** 	CLK( 3 + ( ( wA0 & 0x0100 ) != ( PC & 0x0100 ) ) ); \
 136:../src/nes/K6502.c ****     ++PC; \
 137:../src/nes/K6502.c ****   } else { \
 138:../src/nes/K6502.c **** 	++PC; \
 139:../src/nes/K6502.c **** 	CLK( 2 ); \
 140:../src/nes/K6502.c ****   } \
 141:../src/nes/K6502.c **** }
 142:../src/nes/K6502.c **** #endif
 143:../src/nes/K6502.c **** #define JMP(a)  PC = a;
 144:../src/nes/K6502.c **** 
 145:../src/nes/K6502.c **** /*-------------------------------------------------------------------*/
 146:../src/nes/K6502.c **** /*  Global valiables                                                 */
 147:../src/nes/K6502.c **** /*-------------------------------------------------------------------*/
 148:../src/nes/K6502.c **** 
 149:../src/nes/K6502.c **** // 6502 Register
 150:../src/nes/K6502.c **** WORD PC;
 151:../src/nes/K6502.c **** BYTE SP;
 152:../src/nes/K6502.c **** BYTE F;
 153:../src/nes/K6502.c **** BYTE A;
 154:../src/nes/K6502.c **** BYTE X;
 155:../src/nes/K6502.c **** BYTE Y;
 156:../src/nes/K6502.c **** 
 157:../src/nes/K6502.c **** // The state of the IRQ pin
 158:../src/nes/K6502.c **** BYTE IRQ_State;
 159:../src/nes/K6502.c **** 
 160:../src/nes/K6502.c **** // Wiring of the IRQ pin
 161:../src/nes/K6502.c **** BYTE IRQ_Wiring;
 162:../src/nes/K6502.c **** 
 163:../src/nes/K6502.c **** // The state of the NMI pin
 164:../src/nes/K6502.c **** BYTE NMI_State;
 165:../src/nes/K6502.c **** 
 166:../src/nes/K6502.c **** // Wiring of the NMI pin
 167:../src/nes/K6502.c **** BYTE NMI_Wiring;
 168:../src/nes/K6502.c **** 
 169:../src/nes/K6502.c **** // The number of the clocks that it passed
 170:../src/nes/K6502.c **** WORD g_wPassedClocks;
 171:../src/nes/K6502.c **** 
 172:../src/nes/K6502.c **** // A table for the test
 173:../src/nes/K6502.c **** BYTE g_byTestTable[ 256 ];
 174:../src/nes/K6502.c **** 
 175:../src/nes/K6502.c **** // Value and Flag Data
 176:../src/nes/K6502.c **** struct value_table_tag
 177:../src/nes/K6502.c **** {
 178:../src/nes/K6502.c ****   BYTE byValue;
 179:../src/nes/K6502.c ****   BYTE byFlag;
 180:../src/nes/K6502.c **** };
 181:../src/nes/K6502.c **** 
 182:../src/nes/K6502.c **** // A table for ASL
 183:../src/nes/K6502.c **** struct value_table_tag g_ASLTable[ 256 ];
 184:../src/nes/K6502.c **** 
 185:../src/nes/K6502.c **** // A table for LSR
 186:../src/nes/K6502.c **** struct value_table_tag g_LSRTable[ 256 ];
 187:../src/nes/K6502.c **** 
 188:../src/nes/K6502.c **** // A table for ROL
 189:../src/nes/K6502.c **** struct value_table_tag g_ROLTable[ 2 ][ 256 ];
 190:../src/nes/K6502.c **** 
 191:../src/nes/K6502.c **** // A table for ROR
 192:../src/nes/K6502.c **** struct value_table_tag g_RORTable[ 2 ][ 256 ];
 193:../src/nes/K6502.c **** 
 194:../src/nes/K6502.c **** /*===================================================================*/
 195:../src/nes/K6502.c **** /*                                                                   */
 196:../src/nes/K6502.c **** /*                K6502_Init() : Initialize K6502                    */
 197:../src/nes/K6502.c **** /*                                                                   */
 198:../src/nes/K6502.c **** /*===================================================================*/
 199:../src/nes/K6502.c **** void K6502_Init()
 200:../src/nes/K6502.c **** {
 201:../src/nes/K6502.c **** /*
 202:../src/nes/K6502.c ****  *  Initialize K6502
 203:../src/nes/K6502.c ****  *
 204:../src/nes/K6502.c ****  *  You must call this function only once at first.
 205:../src/nes/K6502.c ****  */
 206:../src/nes/K6502.c **** 
 207:../src/nes/K6502.c ****   BYTE idx;
 208:../src/nes/K6502.c ****   BYTE idx2;
 209:../src/nes/K6502.c **** 
 210:../src/nes/K6502.c ****   // The establishment of the IRQ pin
 211:../src/nes/K6502.c ****   NMI_Wiring = NMI_State = 1;
 212:../src/nes/K6502.c ****   IRQ_Wiring = IRQ_State = 1;
 213:../src/nes/K6502.c **** 
 214:../src/nes/K6502.c ****   // Make a table for the test
 215:../src/nes/K6502.c ****   idx = 0;
 216:../src/nes/K6502.c ****   do
 217:../src/nes/K6502.c ****   {
 218:../src/nes/K6502.c ****     if ( idx == 0 )
 219:../src/nes/K6502.c ****       g_byTestTable[ 0 ] = FLAG_Z;
 220:../src/nes/K6502.c ****     else
 221:../src/nes/K6502.c ****     if ( idx > 127 )
 222:../src/nes/K6502.c ****       g_byTestTable[ idx ] = FLAG_N;
 223:../src/nes/K6502.c ****     else
 224:../src/nes/K6502.c ****       g_byTestTable[ idx ] = 0;
 225:../src/nes/K6502.c **** 
 226:../src/nes/K6502.c ****     ++idx;
 227:../src/nes/K6502.c ****   } while ( idx != 0 );
 228:../src/nes/K6502.c **** 
 229:../src/nes/K6502.c ****   // Make a table ASL
 230:../src/nes/K6502.c ****   idx = 0;
 231:../src/nes/K6502.c ****   do
 232:../src/nes/K6502.c ****   {
 233:../src/nes/K6502.c ****     g_ASLTable[ idx ].byValue = idx << 1;
 234:../src/nes/K6502.c ****     g_ASLTable[ idx ].byFlag = 0;
 235:../src/nes/K6502.c **** 
 236:../src/nes/K6502.c ****     if ( idx > 127 )
 237:../src/nes/K6502.c ****       g_ASLTable[ idx ].byFlag = FLAG_C;
 238:../src/nes/K6502.c **** 
 239:../src/nes/K6502.c ****     if ( g_ASLTable[ idx ].byValue == 0 )
 240:../src/nes/K6502.c ****       g_ASLTable[ idx ].byFlag |= FLAG_Z;
 241:../src/nes/K6502.c ****     else
 242:../src/nes/K6502.c ****     if ( g_ASLTable[ idx ].byValue & 0x80 )
 243:../src/nes/K6502.c ****       g_ASLTable[ idx ].byFlag |= FLAG_N;
 244:../src/nes/K6502.c **** 
 245:../src/nes/K6502.c ****     ++idx;
 246:../src/nes/K6502.c ****   } while ( idx != 0 );
 247:../src/nes/K6502.c **** 
 248:../src/nes/K6502.c ****   // Make a table LSR
 249:../src/nes/K6502.c ****   idx = 0;
 250:../src/nes/K6502.c ****   do
 251:../src/nes/K6502.c ****   {
 252:../src/nes/K6502.c ****     g_LSRTable[ idx ].byValue = idx >> 1;
 253:../src/nes/K6502.c ****     g_LSRTable[ idx ].byFlag = 0;
 254:../src/nes/K6502.c **** 
 255:../src/nes/K6502.c ****     if ( idx & 1 )
 256:../src/nes/K6502.c ****       g_LSRTable[ idx ].byFlag = FLAG_C;
 257:../src/nes/K6502.c **** 
 258:../src/nes/K6502.c ****     if ( g_LSRTable[ idx ].byValue == 0 )
 259:../src/nes/K6502.c ****       g_LSRTable[ idx ].byFlag |= FLAG_Z;
 260:../src/nes/K6502.c **** 
 261:../src/nes/K6502.c ****     ++idx;
 262:../src/nes/K6502.c ****   } while ( idx != 0 );
 263:../src/nes/K6502.c **** 
 264:../src/nes/K6502.c ****   // Make a table ROL
 265:../src/nes/K6502.c ****   for ( idx2 = 0; idx2 < 2; ++idx2 )
 266:../src/nes/K6502.c ****   {
 267:../src/nes/K6502.c ****     idx = 0;
 268:../src/nes/K6502.c ****     do
 269:../src/nes/K6502.c ****     {
 270:../src/nes/K6502.c ****       g_ROLTable[ idx2 ][ idx ].byValue = ( idx << 1 ) | idx2;
 271:../src/nes/K6502.c ****       g_ROLTable[ idx2 ][ idx ].byFlag = 0;
 272:../src/nes/K6502.c **** 
 273:../src/nes/K6502.c ****       if ( idx > 127 )
 274:../src/nes/K6502.c ****         g_ROLTable[ idx2 ][ idx ].byFlag = FLAG_C;
 275:../src/nes/K6502.c **** 
 276:../src/nes/K6502.c ****       if ( g_ROLTable[ idx2 ][ idx ].byValue == 0 )
 277:../src/nes/K6502.c ****         g_ROLTable[ idx2 ][ idx ].byFlag |= FLAG_Z;
 278:../src/nes/K6502.c ****       else
 279:../src/nes/K6502.c ****       if ( g_ROLTable[ idx2 ][ idx ].byValue & 0x80 )
 280:../src/nes/K6502.c ****         g_ROLTable[ idx2 ][ idx ].byFlag |= FLAG_N;
 281:../src/nes/K6502.c **** 
 282:../src/nes/K6502.c ****       ++idx;
 283:../src/nes/K6502.c ****     } while ( idx != 0 );
 284:../src/nes/K6502.c ****   }
 285:../src/nes/K6502.c **** 
 286:../src/nes/K6502.c ****   // Make a table ROR
 287:../src/nes/K6502.c ****   for ( idx2 = 0; idx2 < 2; ++idx2 )
 288:../src/nes/K6502.c ****   {
 289:../src/nes/K6502.c ****     idx = 0;
 290:../src/nes/K6502.c ****     do
 291:../src/nes/K6502.c ****     {
 292:../src/nes/K6502.c ****       g_RORTable[ idx2 ][ idx ].byValue = ( idx >> 1 ) | ( idx2 << 7 );
 293:../src/nes/K6502.c ****       g_RORTable[ idx2 ][ idx ].byFlag = 0;
 294:../src/nes/K6502.c **** 
 295:../src/nes/K6502.c ****       if ( idx & 1 )
 296:../src/nes/K6502.c ****         g_RORTable[ idx2 ][ idx ].byFlag = FLAG_C;
 297:../src/nes/K6502.c **** 
 298:../src/nes/K6502.c ****       if ( g_RORTable[ idx2 ][ idx ].byValue == 0 )
 299:../src/nes/K6502.c ****         g_RORTable[ idx2 ][ idx ].byFlag |= FLAG_Z;
 300:../src/nes/K6502.c ****       else
 301:../src/nes/K6502.c ****       if ( g_RORTable[ idx2 ][ idx ].byValue & 0x80 )
 302:../src/nes/K6502.c ****         g_RORTable[ idx2 ][ idx ].byFlag |= FLAG_N;
 303:../src/nes/K6502.c **** 
 304:../src/nes/K6502.c ****       ++idx;
 305:../src/nes/K6502.c ****     } while ( idx != 0 );
 306:../src/nes/K6502.c ****   }
 307:../src/nes/K6502.c **** }
 308:../src/nes/K6502.c **** 
 309:../src/nes/K6502.c **** /*===================================================================*/
 310:../src/nes/K6502.c **** /*                                                                   */
 311:../src/nes/K6502.c **** /*                K6502_Reset() : Reset a CPU                        */
 312:../src/nes/K6502.c **** /*                                                                   */
 313:../src/nes/K6502.c **** /*===================================================================*/
 314:../src/nes/K6502.c **** void K6502_Reset()
 315:../src/nes/K6502.c **** {
 316:../src/nes/K6502.c **** /*
 317:../src/nes/K6502.c ****  *  Reset a CPU
 318:../src/nes/K6502.c ****  *
 319:../src/nes/K6502.c ****  */
 320:../src/nes/K6502.c **** 
 321:../src/nes/K6502.c ****   // Reset Registers
 322:../src/nes/K6502.c ****   PC = K6502_ReadW( VECTOR_RESET );
 323:../src/nes/K6502.c ****   SP = 0xFF;
 324:../src/nes/K6502.c ****   A = X = Y = 0;
 325:../src/nes/K6502.c ****   F = FLAG_Z | FLAG_R | FLAG_I;
 326:../src/nes/K6502.c **** 
 327:../src/nes/K6502.c ****   // Set up the state of the Interrupt pin.
 328:../src/nes/K6502.c ****   NMI_State = NMI_Wiring;
 329:../src/nes/K6502.c ****   IRQ_State = IRQ_Wiring;
 330:../src/nes/K6502.c **** 
 331:../src/nes/K6502.c ****   // Reset Passed Clocks
 332:../src/nes/K6502.c ****   g_wPassedClocks = 0;
 333:../src/nes/K6502.c **** }
 334:../src/nes/K6502.c **** 
 335:../src/nes/K6502.c **** /*===================================================================*/
 336:../src/nes/K6502.c **** /*                                                                   */
 337:../src/nes/K6502.c **** /*    K6502_Set_Int_Wiring() : Set up wiring of the interrupt pin    */
 338:../src/nes/K6502.c **** /*                                                                   */
 339:../src/nes/K6502.c **** /*===================================================================*/
 340:../src/nes/K6502.c **** void K6502_Set_Int_Wiring( BYTE byNMI_Wiring, BYTE byIRQ_Wiring )
 341:../src/nes/K6502.c **** {
 342:../src/nes/K6502.c **** /*
 343:../src/nes/K6502.c ****  * Set up wiring of the interrupt pin
 344:../src/nes/K6502.c ****  *
 345:../src/nes/K6502.c ****  */
 346:../src/nes/K6502.c **** 
 347:../src/nes/K6502.c ****   NMI_Wiring = byNMI_Wiring;
 348:../src/nes/K6502.c ****   IRQ_Wiring = byIRQ_Wiring;
 349:../src/nes/K6502.c **** }
 350:../src/nes/K6502.c **** 
 351:../src/nes/K6502.c **** /*===================================================================*/
 352:../src/nes/K6502.c **** /*                                                                   */
 353:../src/nes/K6502.c **** /*  K6502_Step() :                                                   */
 354:../src/nes/K6502.c **** /*          Only the specified number of the clocks execute Op.      */
 355:../src/nes/K6502.c **** /*                                                                   */
 356:../src/nes/K6502.c **** /*===================================================================*/
 357:../src/nes/K6502.c **** void K6502_Step( WORD wClocks )
 358:../src/nes/K6502.c **** {
 359:../src/nes/K6502.c **** /*
 360:../src/nes/K6502.c ****  *  Only the specified number of the clocks execute Op.
 361:../src/nes/K6502.c ****  *
 362:../src/nes/K6502.c ****  *  Parameters
 363:../src/nes/K6502.c ****  *    WORD wClocks              (Read)
 364:../src/nes/K6502.c ****  *      The number of the clocks
 365:../src/nes/K6502.c ****  */
 366:../src/nes/K6502.c **** 
 367:../src/nes/K6502.c ****   BYTE byCode;
 368:../src/nes/K6502.c **** 
 369:../src/nes/K6502.c ****   WORD wA0;
 370:../src/nes/K6502.c ****   BYTE byD0;
 371:../src/nes/K6502.c ****   BYTE byD1;
 372:../src/nes/K6502.c ****   WORD wD0;
 373:../src/nes/K6502.c **** 
 374:../src/nes/K6502.c ****   // Dispose of it if there is an interrupt requirement
 375:../src/nes/K6502.c ****   if ( NMI_State != NMI_Wiring )
 376:../src/nes/K6502.c ****   {
 377:../src/nes/K6502.c ****     // NMI Interrupt
 378:../src/nes/K6502.c ****     NMI_State = NMI_Wiring;
 379:../src/nes/K6502.c ****     CLK( 7 );
 380:../src/nes/K6502.c **** 
 381:../src/nes/K6502.c ****     PUSHW( PC );
 382:../src/nes/K6502.c ****     PUSH( F & ~FLAG_B );
 383:../src/nes/K6502.c **** 
 384:../src/nes/K6502.c ****     RSTF( FLAG_D );
 385:../src/nes/K6502.c ****     SETF( FLAG_I );
 386:../src/nes/K6502.c **** 
 387:../src/nes/K6502.c ****     PC = K6502_ReadW( VECTOR_NMI );
 388:../src/nes/K6502.c ****   }
 389:../src/nes/K6502.c ****   else
 390:../src/nes/K6502.c ****   if ( IRQ_State != IRQ_Wiring )
 391:../src/nes/K6502.c ****   {
 392:../src/nes/K6502.c ****     // IRQ Interrupt
 393:../src/nes/K6502.c ****     // Execute IRQ if an I flag isn't being set
 394:../src/nes/K6502.c ****     if ( !( F & FLAG_I ) )
 395:../src/nes/K6502.c ****     {
 396:../src/nes/K6502.c ****       IRQ_State = IRQ_Wiring;
 397:../src/nes/K6502.c ****       CLK( 7 );
 398:../src/nes/K6502.c **** 
 399:../src/nes/K6502.c ****       PUSHW( PC );
 400:../src/nes/K6502.c ****       PUSH( F & ~FLAG_B );
 401:../src/nes/K6502.c **** 
 402:../src/nes/K6502.c ****       RSTF( FLAG_D );
 403:../src/nes/K6502.c ****       SETF( FLAG_I );
 404:../src/nes/K6502.c ****     
 405:../src/nes/K6502.c ****       PC = K6502_ReadW( VECTOR_IRQ );
 406:../src/nes/K6502.c ****     }
 407:../src/nes/K6502.c ****   }
 408:../src/nes/K6502.c **** 
 409:../src/nes/K6502.c ****   // It has a loop until a constant clock passes
 410:../src/nes/K6502.c ****   while ( g_wPassedClocks < wClocks )
 411:../src/nes/K6502.c ****   {
 412:../src/nes/K6502.c ****     // Read an instruction
 413:../src/nes/K6502.c ****     byCode = K6502_Read( PC++ );
 414:../src/nes/K6502.c **** 
 415:../src/nes/K6502.c ****     // Execute an instruction.
 416:../src/nes/K6502.c ****     switch ( byCode )
 417:../src/nes/K6502.c ****     {
 418:../src/nes/K6502.c ****       case 0x00:  // BRK
 419:../src/nes/K6502.c ****         ++PC; PUSHW( PC ); SETF( FLAG_B ); PUSH( F ); SETF( FLAG_I ); RSTF( FLAG_D ); PC = K6502_Re
 420:../src/nes/K6502.c ****         break;
 421:../src/nes/K6502.c **** 
 422:../src/nes/K6502.c ****       case 0x01:  // ORA (Zpg,X)
 423:../src/nes/K6502.c ****         ORA( A_IX ); CLK( 6 );
 424:../src/nes/K6502.c ****         break;
 425:../src/nes/K6502.c **** 
 426:../src/nes/K6502.c ****       case 0x05:  // ORA Zpg
 427:../src/nes/K6502.c ****         ORA( A_ZP ); CLK( 3 );
 428:../src/nes/K6502.c ****         break;
 429:../src/nes/K6502.c **** 
 430:../src/nes/K6502.c ****       case 0x06:  // ASL Zpg
 431:../src/nes/K6502.c ****         ASL( AA_ZP ); CLK( 5 );
 432:../src/nes/K6502.c ****         break;
 433:../src/nes/K6502.c **** 
 434:../src/nes/K6502.c ****       case 0x08:  // PHP
 435:../src/nes/K6502.c ****         SETF( FLAG_B ); PUSH( F ); CLK( 3 );
 436:../src/nes/K6502.c ****         break;
 437:../src/nes/K6502.c **** 
 438:../src/nes/K6502.c ****       case 0x09:  // ORA #Oper
 439:../src/nes/K6502.c ****         ORA( A_IMM ); CLK( 2 );
 440:../src/nes/K6502.c ****         break;
 441:../src/nes/K6502.c **** 
 442:../src/nes/K6502.c ****       case 0x0A:  // ASL A
 443:../src/nes/K6502.c ****         ASLA; CLK( 2 );
 444:../src/nes/K6502.c ****         break;
 445:../src/nes/K6502.c **** 
 446:../src/nes/K6502.c ****       case 0x0D:  // ORA Abs
 447:../src/nes/K6502.c ****         ORA( A_ABS ); CLK( 4 );
 448:../src/nes/K6502.c ****         break;
 449:../src/nes/K6502.c **** 
 450:../src/nes/K6502.c ****       case 0x0e:  // ASL Abs 
 451:../src/nes/K6502.c ****         ASL( AA_ABS ); CLK( 6 );
 452:../src/nes/K6502.c ****         break;
 453:../src/nes/K6502.c **** 
 454:../src/nes/K6502.c ****       case 0x10: // BPL Oper
 455:../src/nes/K6502.c ****         BRA( !( F & FLAG_N ) );
 456:../src/nes/K6502.c ****         break;
 457:../src/nes/K6502.c **** 
 458:../src/nes/K6502.c ****       case 0x11: // ORA (Zpg),Y
 459:../src/nes/K6502.c ****         ORA( A_IY ); CLK( 5 );
 460:../src/nes/K6502.c ****         break;
 461:../src/nes/K6502.c **** 
 462:../src/nes/K6502.c ****       case 0x15: // ORA Zpg,X
 463:../src/nes/K6502.c ****         ORA( A_ZPX ); CLK( 4 );
 464:../src/nes/K6502.c ****         break;
 465:../src/nes/K6502.c **** 
 466:../src/nes/K6502.c ****       case 0x16: // ASL Zpg,X
 467:../src/nes/K6502.c ****         ASL( AA_ZPX ); CLK( 6 );
 468:../src/nes/K6502.c ****         break;
 469:../src/nes/K6502.c **** 
 470:../src/nes/K6502.c ****       case 0x18: // CLC
 471:../src/nes/K6502.c ****         RSTF( FLAG_C ); CLK( 2 );
 472:../src/nes/K6502.c ****         break;
 473:../src/nes/K6502.c **** 
 474:../src/nes/K6502.c ****       case 0x19: // ORA Abs,Y
 475:../src/nes/K6502.c ****         ORA( A_ABSY ); CLK( 4 );
 476:../src/nes/K6502.c ****         break;
 477:../src/nes/K6502.c **** 
 478:../src/nes/K6502.c ****       case 0x1D: // ORA Abs,X
 479:../src/nes/K6502.c ****         ORA( A_ABSX ); CLK( 4 );
 480:../src/nes/K6502.c ****         break;
 481:../src/nes/K6502.c **** 
 482:../src/nes/K6502.c ****       case 0x1E: // ASL Abs,X
 483:../src/nes/K6502.c ****         ASL( AA_ABSX ); CLK( 7 );
 484:../src/nes/K6502.c ****         break;
 485:../src/nes/K6502.c **** 
 486:../src/nes/K6502.c ****       case 0x20: // JSR Abs
 487:../src/nes/K6502.c ****         JSR; CLK( 6 );
 488:../src/nes/K6502.c ****         break;
 489:../src/nes/K6502.c **** 
 490:../src/nes/K6502.c ****       case 0x21: // AND (Zpg,X)
 491:../src/nes/K6502.c ****         AND( A_IX ); CLK( 6 );
 492:../src/nes/K6502.c ****         break;
 493:../src/nes/K6502.c **** 
 494:../src/nes/K6502.c ****       case 0x24: // BIT Zpg
 495:../src/nes/K6502.c ****         BIT( A_ZP ); CLK( 3 );
 496:../src/nes/K6502.c ****         break;
 497:../src/nes/K6502.c **** 
 498:../src/nes/K6502.c ****       case 0x25: // AND Zpg
 499:../src/nes/K6502.c ****         AND( A_ZP ); CLK( 3 );
 500:../src/nes/K6502.c ****         break;
 501:../src/nes/K6502.c **** 
 502:../src/nes/K6502.c ****       case 0x26: // ROL Zpg
 503:../src/nes/K6502.c ****         ROL( AA_ZP ); CLK( 5 );
 504:../src/nes/K6502.c ****         break;
 505:../src/nes/K6502.c **** 
 506:../src/nes/K6502.c ****       case 0x28: // PLP
 507:../src/nes/K6502.c ****         POP( F ); SETF( FLAG_R ); CLK( 4 );
 508:../src/nes/K6502.c ****         break;
 509:../src/nes/K6502.c **** 
 510:../src/nes/K6502.c ****       case 0x29: // AND #Oper
 511:../src/nes/K6502.c ****         AND( A_IMM ); CLK( 2 );
 512:../src/nes/K6502.c ****         break;
 513:../src/nes/K6502.c **** 
 514:../src/nes/K6502.c ****       case 0x2A: // ROL A
 515:../src/nes/K6502.c ****         ROLA; CLK( 2 );
 516:../src/nes/K6502.c ****         break;
 517:../src/nes/K6502.c **** 
 518:../src/nes/K6502.c ****       case 0x2C: // BIT Abs
 519:../src/nes/K6502.c ****         BIT( A_ABS ); CLK( 4 );
 520:../src/nes/K6502.c ****         break;
 521:../src/nes/K6502.c **** 
 522:../src/nes/K6502.c ****       case 0x2D: // AND Abs 
 523:../src/nes/K6502.c ****         AND( A_ABS ); CLK( 4 );
 524:../src/nes/K6502.c ****         break;
 525:../src/nes/K6502.c **** 
 526:../src/nes/K6502.c ****       case 0x2E: // ROL Abs
 527:../src/nes/K6502.c ****         ROL( AA_ABS ); CLK( 6 );
 528:../src/nes/K6502.c ****         break;
 529:../src/nes/K6502.c **** 
 530:../src/nes/K6502.c ****       case 0x30: // BMI Oper 
 531:../src/nes/K6502.c ****         BRA( F & FLAG_N );
 532:../src/nes/K6502.c ****         break;
 533:../src/nes/K6502.c **** 
 534:../src/nes/K6502.c ****       case 0x31: // AND (Zpg),Y
 535:../src/nes/K6502.c ****         AND( A_IY ); CLK( 5 );
 536:../src/nes/K6502.c ****         break;
 537:../src/nes/K6502.c **** 
 538:../src/nes/K6502.c ****       case 0x35: // AND Zpg,X
 539:../src/nes/K6502.c ****         AND( A_ZPX ); CLK( 4 );
 540:../src/nes/K6502.c ****         break;
 541:../src/nes/K6502.c **** 
 542:../src/nes/K6502.c ****       case 0x36: // ROL Zpg,X
 543:../src/nes/K6502.c ****         ROL( AA_ZPX ); CLK( 6 );
 544:../src/nes/K6502.c ****         break;
 545:../src/nes/K6502.c **** 
 546:../src/nes/K6502.c ****       case 0x38: // SEC
 547:../src/nes/K6502.c ****         SETF( FLAG_C ); CLK( 2 );
 548:../src/nes/K6502.c ****         break;
 549:../src/nes/K6502.c **** 
 550:../src/nes/K6502.c ****       case 0x39: // AND Abs,Y
 551:../src/nes/K6502.c ****         AND( A_ABSY ); CLK( 4 );
 552:../src/nes/K6502.c ****         break;
 553:../src/nes/K6502.c **** 
 554:../src/nes/K6502.c ****       case 0x3D: // AND Abs,X
 555:../src/nes/K6502.c ****         AND( A_ABSX ); CLK( 4 );
 556:../src/nes/K6502.c ****         break;
 557:../src/nes/K6502.c **** 
 558:../src/nes/K6502.c ****       case 0x3E: // ROL Abs,X
 559:../src/nes/K6502.c ****         ROL( AA_ABSX ); CLK( 7 );
 560:../src/nes/K6502.c ****         break;
 561:../src/nes/K6502.c **** 
 562:../src/nes/K6502.c ****       case 0x40: // RTI
 563:../src/nes/K6502.c ****         POP( F ); SETF( FLAG_R ); POPW( PC ); CLK( 6 );
 564:../src/nes/K6502.c ****         break;
 565:../src/nes/K6502.c **** 
 566:../src/nes/K6502.c ****       case 0x41: // EOR (Zpg,X)
 567:../src/nes/K6502.c ****         EOR( A_IX ); CLK( 6 );
 568:../src/nes/K6502.c ****         break;
 569:../src/nes/K6502.c **** 
 570:../src/nes/K6502.c ****       case 0x45: // EOR Zpg
 571:../src/nes/K6502.c ****         EOR( A_ZP ); CLK( 3 );
 572:../src/nes/K6502.c ****         break;
 573:../src/nes/K6502.c **** 
 574:../src/nes/K6502.c ****       case 0x46: // LSR Zpg
 575:../src/nes/K6502.c ****         LSR( AA_ZP ); CLK( 5 );
 576:../src/nes/K6502.c ****         break;
 577:../src/nes/K6502.c **** 
 578:../src/nes/K6502.c ****       case 0x48: // PHA
 579:../src/nes/K6502.c ****         PUSH( A ); CLK( 3 );
 580:../src/nes/K6502.c ****         break;
 581:../src/nes/K6502.c **** 
 582:../src/nes/K6502.c ****       case 0x49: // EOR #Oper
 583:../src/nes/K6502.c ****         EOR( A_IMM ); CLK( 2 );
 584:../src/nes/K6502.c ****         break;
 585:../src/nes/K6502.c **** 
 586:../src/nes/K6502.c ****       case 0x4A: // LSR A
 587:../src/nes/K6502.c ****         LSRA; CLK( 2 );
 588:../src/nes/K6502.c ****         break;
 589:../src/nes/K6502.c **** 
 590:../src/nes/K6502.c ****       case 0x4C: // JMP Abs
 591:../src/nes/K6502.c ****         JMP( AA_ABS ); CLK( 3 );
 592:../src/nes/K6502.c ****         break;
 593:../src/nes/K6502.c **** 
 594:../src/nes/K6502.c ****       case 0x4D: // EOR Abs
 595:../src/nes/K6502.c ****         EOR( A_ABS ); CLK( 4 );
 596:../src/nes/K6502.c ****         break;
 597:../src/nes/K6502.c **** 
 598:../src/nes/K6502.c ****       case 0x4E: // LSR Abs
 599:../src/nes/K6502.c ****         LSR( AA_ABS ); CLK( 6 );
 600:../src/nes/K6502.c ****         break;
 601:../src/nes/K6502.c **** 
 602:../src/nes/K6502.c ****       case 0x50: // BVC
 603:../src/nes/K6502.c ****         BRA( !( F & FLAG_V ) );
 604:../src/nes/K6502.c ****         break;
 605:../src/nes/K6502.c **** 
 606:../src/nes/K6502.c ****       case 0x51: // EOR (Zpg),Y
 607:../src/nes/K6502.c ****         EOR( A_IY ); CLK( 5 );
 608:../src/nes/K6502.c ****         break;
 609:../src/nes/K6502.c **** 
 610:../src/nes/K6502.c ****       case 0x55: // EOR Zpg,X
 611:../src/nes/K6502.c ****         EOR( A_ZPX ); CLK( 4 );
 612:../src/nes/K6502.c ****         break;
 613:../src/nes/K6502.c **** 
 614:../src/nes/K6502.c ****       case 0x56: // LSR Zpg,X
 615:../src/nes/K6502.c ****         LSR( AA_ZPX ); CLK( 6 );
 616:../src/nes/K6502.c ****         break;
 617:../src/nes/K6502.c **** 
 618:../src/nes/K6502.c ****       case 0x58: // CLI
 619:../src/nes/K6502.c ****         byD0 = F;
 620:../src/nes/K6502.c ****         RSTF( FLAG_I ); CLK( 2 );
 621:../src/nes/K6502.c ****         if ( ( byD0 & FLAG_I ) && IRQ_State != IRQ_Wiring )  
 622:../src/nes/K6502.c ****         {
 623:../src/nes/K6502.c ****           IRQ_State = IRQ_Wiring;          
 624:../src/nes/K6502.c ****           CLK( 7 );
 625:../src/nes/K6502.c **** 
 626:../src/nes/K6502.c ****           PUSHW( PC );
 627:../src/nes/K6502.c ****           PUSH( F & ~FLAG_B );
 628:../src/nes/K6502.c **** 
 629:../src/nes/K6502.c ****           RSTF( FLAG_D );
 630:../src/nes/K6502.c ****           SETF( FLAG_I );
 631:../src/nes/K6502.c ****     
 632:../src/nes/K6502.c ****           PC = K6502_ReadW( VECTOR_IRQ );
 633:../src/nes/K6502.c ****         }
 634:../src/nes/K6502.c ****         break;
 635:../src/nes/K6502.c **** 
 636:../src/nes/K6502.c ****       case 0x59: // EOR Abs,Y
 637:../src/nes/K6502.c ****         EOR( A_ABSY ); CLK( 4 );
 638:../src/nes/K6502.c ****         break;
 639:../src/nes/K6502.c **** 
 640:../src/nes/K6502.c ****       case 0x5D: // EOR Abs,X
 641:../src/nes/K6502.c ****         EOR( A_ABSX ); CLK( 4 );
 642:../src/nes/K6502.c ****         break;
 643:../src/nes/K6502.c **** 
 644:../src/nes/K6502.c ****       case 0x5E: // LSR Abs,X
 645:../src/nes/K6502.c ****         LSR( AA_ABSX ); CLK( 7 );
 646:../src/nes/K6502.c ****         break;
 647:../src/nes/K6502.c **** 
 648:../src/nes/K6502.c ****       case 0x60: // RTS
 649:../src/nes/K6502.c ****         POPW( PC ); ++PC; CLK( 6 );
 650:../src/nes/K6502.c ****         break;
 651:../src/nes/K6502.c **** 
 652:../src/nes/K6502.c ****       case 0x61: // ADC (Zpg,X)
 653:../src/nes/K6502.c ****         ADC( A_IX ); CLK( 6 );
 654:../src/nes/K6502.c ****         break;
 655:../src/nes/K6502.c **** 
 656:../src/nes/K6502.c ****       case 0x65: // ADC Zpg
 657:../src/nes/K6502.c ****         ADC( A_ZP ); CLK( 3 );
 658:../src/nes/K6502.c ****         break;
 659:../src/nes/K6502.c **** 
 660:../src/nes/K6502.c ****       case 0x66: // ROR Zpg
 661:../src/nes/K6502.c ****         ROR( AA_ZP ); CLK( 5 );
 662:../src/nes/K6502.c ****         break;
 663:../src/nes/K6502.c **** 
 664:../src/nes/K6502.c ****       case 0x68: // PLA
 665:../src/nes/K6502.c ****         POP( A ); TEST( A ); CLK( 4 );
 666:../src/nes/K6502.c ****         break;
 667:../src/nes/K6502.c **** 
 668:../src/nes/K6502.c ****       case 0x69: // ADC #Oper
 669:../src/nes/K6502.c ****         ADC( A_IMM ); CLK( 2 );
 670:../src/nes/K6502.c ****         break;
 671:../src/nes/K6502.c **** 
 672:../src/nes/K6502.c ****       case 0x6A: // ROR A
 673:../src/nes/K6502.c ****         RORA; CLK( 2 );
 674:../src/nes/K6502.c ****         break;
 675:../src/nes/K6502.c **** 
 676:../src/nes/K6502.c ****       case 0x6C: // JMP (Abs)
 677:../src/nes/K6502.c ****         JMP( K6502_ReadW2( AA_ABS ) ); CLK( 5 );
 678:../src/nes/K6502.c ****         break;
 679:../src/nes/K6502.c **** 
 680:../src/nes/K6502.c ****       case 0x6D: // ADC Abs
 681:../src/nes/K6502.c ****         ADC( A_ABS ); CLK( 4 );
 682:../src/nes/K6502.c ****         break;
 683:../src/nes/K6502.c **** 
 684:../src/nes/K6502.c ****       case 0x6E: // ROR Abs
 685:../src/nes/K6502.c ****         ROR( AA_ABS ); CLK( 6 );
 686:../src/nes/K6502.c ****         break;
 687:../src/nes/K6502.c **** 
 688:../src/nes/K6502.c ****       case 0x70: // BVS
 689:../src/nes/K6502.c ****         BRA( F & FLAG_V );
 690:../src/nes/K6502.c ****         break;
 691:../src/nes/K6502.c **** 
 692:../src/nes/K6502.c ****       case 0x71: // ADC (Zpg),Y
 693:../src/nes/K6502.c ****         ADC( A_IY ); CLK( 5 );
 694:../src/nes/K6502.c ****         break;
 695:../src/nes/K6502.c **** 
 696:../src/nes/K6502.c ****       case 0x75: // ADC Zpg,X
 697:../src/nes/K6502.c ****         ADC( A_ZPX ); CLK( 4 );
 698:../src/nes/K6502.c ****         break;
 699:../src/nes/K6502.c **** 
 700:../src/nes/K6502.c ****       case 0x76: // ROR Zpg,X
 701:../src/nes/K6502.c ****         ROR( AA_ZPX ); CLK( 6 );
 702:../src/nes/K6502.c ****         break;
 703:../src/nes/K6502.c **** 
 704:../src/nes/K6502.c ****       case 0x78: // SEI
 705:../src/nes/K6502.c ****         SETF( FLAG_I ); CLK( 2 );
 706:../src/nes/K6502.c ****         break;
 707:../src/nes/K6502.c **** 
 708:../src/nes/K6502.c ****       case 0x79: // ADC Abs,Y
 709:../src/nes/K6502.c ****         ADC( A_ABSY ); CLK( 4 );
 710:../src/nes/K6502.c ****         break;
 711:../src/nes/K6502.c **** 
 712:../src/nes/K6502.c ****       case 0x7D: // ADC Abs,X
 713:../src/nes/K6502.c ****         ADC( A_ABSX ); CLK( 4 );
 714:../src/nes/K6502.c ****         break;
 715:../src/nes/K6502.c **** 
 716:../src/nes/K6502.c ****       case 0x7E: // ROR Abs,X
 717:../src/nes/K6502.c ****         ROR( AA_ABSX ); CLK( 7 );
 718:../src/nes/K6502.c ****         break;
 719:../src/nes/K6502.c **** 
 720:../src/nes/K6502.c ****       case 0x81: // STA (Zpg,X)
 721:../src/nes/K6502.c ****         STA( AA_IX ); CLK( 6 );
 722:../src/nes/K6502.c ****         break;
 723:../src/nes/K6502.c ****       
 724:../src/nes/K6502.c ****       case 0x84: // STY Zpg
 725:../src/nes/K6502.c ****         STY( AA_ZP ); CLK( 3 );
 726:../src/nes/K6502.c ****         break;
 727:../src/nes/K6502.c **** 
 728:../src/nes/K6502.c ****       case 0x85: // STA Zpg
 729:../src/nes/K6502.c ****         STA( AA_ZP ); CLK( 3 );
 730:../src/nes/K6502.c ****         break;
 731:../src/nes/K6502.c **** 
 732:../src/nes/K6502.c ****       case 0x86: // STX Zpg
 733:../src/nes/K6502.c ****         STX( AA_ZP ); CLK( 3 );
 734:../src/nes/K6502.c ****         break;
 735:../src/nes/K6502.c **** 
 736:../src/nes/K6502.c ****       case 0x88: // DEY
 737:../src/nes/K6502.c ****         --Y; TEST( Y ); CLK( 2 );
 738:../src/nes/K6502.c ****         break;
 739:../src/nes/K6502.c **** 
 740:../src/nes/K6502.c ****       case 0x8A: // TXA
 741:../src/nes/K6502.c ****         A = X; TEST( A ); CLK( 2 );
 742:../src/nes/K6502.c ****         break;
 743:../src/nes/K6502.c **** 
 744:../src/nes/K6502.c ****       case 0x8C: // STY Abs
 745:../src/nes/K6502.c ****         STY( AA_ABS ); CLK( 4 );
 746:../src/nes/K6502.c ****         break;
 747:../src/nes/K6502.c **** 
 748:../src/nes/K6502.c ****       case 0x8D: // STA Abs
 749:../src/nes/K6502.c ****         STA( AA_ABS ); CLK( 4 );
 750:../src/nes/K6502.c ****         break;
 751:../src/nes/K6502.c **** 
 752:../src/nes/K6502.c ****       case 0x8E: // STX Abs
 753:../src/nes/K6502.c ****         STX( AA_ABS ); CLK( 4 );
 754:../src/nes/K6502.c ****         break;
 755:../src/nes/K6502.c **** 
 756:../src/nes/K6502.c ****       case 0x90: // BCC
 757:../src/nes/K6502.c ****         BRA( !( F & FLAG_C ) );
 758:../src/nes/K6502.c ****         break;
 759:../src/nes/K6502.c **** 
 760:../src/nes/K6502.c ****       case 0x91: // STA (Zpg),Y
 761:../src/nes/K6502.c ****         STA( AA_IY ); CLK( 6 );
 762:../src/nes/K6502.c ****         break;
 763:../src/nes/K6502.c **** 
 764:../src/nes/K6502.c ****       case 0x94: // STY Zpg,X
 765:../src/nes/K6502.c ****         STY( AA_ZPX ); CLK( 4 );
 766:../src/nes/K6502.c ****         break;
 767:../src/nes/K6502.c **** 
 768:../src/nes/K6502.c ****       case 0x95: // STA Zpg,X
 769:../src/nes/K6502.c ****         STA( AA_ZPX ); CLK( 4 );
 770:../src/nes/K6502.c ****         break;
 771:../src/nes/K6502.c **** 
 772:../src/nes/K6502.c ****       case 0x96: // STX Zpg,Y
 773:../src/nes/K6502.c ****         STX( AA_ZPY ); CLK( 4 );
 774:../src/nes/K6502.c ****         break;
 775:../src/nes/K6502.c **** 
 776:../src/nes/K6502.c ****       case 0x98: // TYA
 777:../src/nes/K6502.c ****         A = Y; TEST( A ); CLK( 2 );
 778:../src/nes/K6502.c ****         break;
 779:../src/nes/K6502.c **** 
 780:../src/nes/K6502.c ****       case 0x99: // STA Abs,Y
 781:../src/nes/K6502.c ****         STA( AA_ABSY ); CLK( 5 );
 782:../src/nes/K6502.c ****         break;
 783:../src/nes/K6502.c **** 
 784:../src/nes/K6502.c ****       case 0x9A: // TXS
 785:../src/nes/K6502.c ****         SP = X; CLK( 2 );
 786:../src/nes/K6502.c ****         break;
 787:../src/nes/K6502.c **** 
 788:../src/nes/K6502.c ****       case 0x9D: // STA Abs,X
 789:../src/nes/K6502.c ****         STA( AA_ABSX ); CLK( 5 );
 790:../src/nes/K6502.c ****         break;
 791:../src/nes/K6502.c **** 
 792:../src/nes/K6502.c ****       case 0xA0: // LDY #Oper
 793:../src/nes/K6502.c ****         LDY( A_IMM ); CLK( 2 );
 794:../src/nes/K6502.c ****         break;
 795:../src/nes/K6502.c **** 
 796:../src/nes/K6502.c ****       case 0xA1: // LDA (Zpg,X)
 797:../src/nes/K6502.c ****         LDA( A_IX ); CLK( 6 );
 798:../src/nes/K6502.c ****         break;
 799:../src/nes/K6502.c **** 
 800:../src/nes/K6502.c ****       case 0xA2: // LDX #Oper
 801:../src/nes/K6502.c ****         LDX( A_IMM ); CLK( 2 );
 802:../src/nes/K6502.c ****         break;
 803:../src/nes/K6502.c **** 
 804:../src/nes/K6502.c ****       case 0xA4: // LDY Zpg
 805:../src/nes/K6502.c ****         LDY( A_ZP ); CLK( 3 );
 806:../src/nes/K6502.c ****         break;
 807:../src/nes/K6502.c **** 
 808:../src/nes/K6502.c ****       case 0xA5: // LDA Zpg
 809:../src/nes/K6502.c ****         LDA( A_ZP ); CLK( 3 );
 810:../src/nes/K6502.c ****         break;
 811:../src/nes/K6502.c **** 
 812:../src/nes/K6502.c ****       case 0xA6: // LDX Zpg
 813:../src/nes/K6502.c ****         LDX( A_ZP ); CLK( 3 );
 814:../src/nes/K6502.c ****         break;
 815:../src/nes/K6502.c **** 
 816:../src/nes/K6502.c ****       case 0xA8: // TAY
 817:../src/nes/K6502.c ****         Y = A; TEST( A ); CLK( 2 );
 818:../src/nes/K6502.c ****         break;
 819:../src/nes/K6502.c **** 
 820:../src/nes/K6502.c ****       case 0xA9: // LDA #Oper
 821:../src/nes/K6502.c ****         LDA( A_IMM ); CLK( 2 );
 822:../src/nes/K6502.c ****         break;
 823:../src/nes/K6502.c **** 
 824:../src/nes/K6502.c ****       case 0xAA: // TAX
 825:../src/nes/K6502.c ****         X = A; TEST( A ); CLK( 2 );
 826:../src/nes/K6502.c ****         break;
 827:../src/nes/K6502.c **** 
 828:../src/nes/K6502.c ****       case 0xAC: // LDY Abs
 829:../src/nes/K6502.c ****         LDY( A_ABS ); CLK( 4 );
 830:../src/nes/K6502.c ****         break;
 831:../src/nes/K6502.c **** 
 832:../src/nes/K6502.c ****       case 0xAD: // LDA Abs
 833:../src/nes/K6502.c ****         LDA( A_ABS ); CLK( 4 );
 834:../src/nes/K6502.c ****         break;
 835:../src/nes/K6502.c **** 
 836:../src/nes/K6502.c ****       case 0xAE: // LDX Abs
 837:../src/nes/K6502.c ****         LDX( A_ABS ); CLK( 4 );
 838:../src/nes/K6502.c ****         break;
 839:../src/nes/K6502.c **** 
 840:../src/nes/K6502.c ****       case 0xB0: // BCS
 841:../src/nes/K6502.c ****         BRA( F & FLAG_C );
 842:../src/nes/K6502.c ****         break;
 843:../src/nes/K6502.c **** 
 844:../src/nes/K6502.c ****       case 0xB1: // LDA (Zpg),Y
 845:../src/nes/K6502.c ****         LDA( A_IY ); CLK( 5 );
 846:../src/nes/K6502.c ****         break;
 847:../src/nes/K6502.c **** 
 848:../src/nes/K6502.c ****       case 0xB4: // LDY Zpg,X
 849:../src/nes/K6502.c ****         LDY( A_ZPX ); CLK( 4 );
 850:../src/nes/K6502.c ****         break;
 851:../src/nes/K6502.c **** 
 852:../src/nes/K6502.c ****       case 0xB5: // LDA Zpg,X
 853:../src/nes/K6502.c ****         LDA( A_ZPX ); CLK( 4 );
 854:../src/nes/K6502.c ****         break;
 855:../src/nes/K6502.c **** 
 856:../src/nes/K6502.c ****       case 0xB6: // LDX Zpg,Y
 857:../src/nes/K6502.c ****         LDX( A_ZPY ); CLK( 4 );
 858:../src/nes/K6502.c ****         break;
 859:../src/nes/K6502.c **** 
 860:../src/nes/K6502.c ****       case 0xB8: // CLV
 861:../src/nes/K6502.c ****         RSTF( FLAG_V ); CLK( 2 );
 862:../src/nes/K6502.c ****         break;
 863:../src/nes/K6502.c **** 
 864:../src/nes/K6502.c ****       case 0xB9: // LDA Abs,Y
 865:../src/nes/K6502.c ****         LDA( A_ABSY ); CLK( 4 );
 866:../src/nes/K6502.c ****         break;
 867:../src/nes/K6502.c **** 
 868:../src/nes/K6502.c ****       case 0xBA: // TSX
 869:../src/nes/K6502.c ****         X = SP; TEST( X ); CLK( 2 );
 870:../src/nes/K6502.c ****         break;
 871:../src/nes/K6502.c **** 
 872:../src/nes/K6502.c ****       case 0xBC: // LDY Abs,X
 873:../src/nes/K6502.c ****         LDY( A_ABSX ); CLK( 4 );
 874:../src/nes/K6502.c ****         break;
 875:../src/nes/K6502.c **** 
 876:../src/nes/K6502.c ****       case 0xBD: // LDA Abs,X
 877:../src/nes/K6502.c ****         LDA( A_ABSX ); CLK( 4 );
 878:../src/nes/K6502.c ****         break;
 879:../src/nes/K6502.c **** 
 880:../src/nes/K6502.c ****       case 0xBE: // LDX Abs,Y
 881:../src/nes/K6502.c ****         LDX( A_ABSY ); CLK( 4 );
 882:../src/nes/K6502.c ****         break;
 883:../src/nes/K6502.c **** 
 884:../src/nes/K6502.c ****       case 0xC0: // CPY #Oper
 885:../src/nes/K6502.c ****         CPY( A_IMM ); CLK( 2 );
 886:../src/nes/K6502.c ****         break;
 887:../src/nes/K6502.c **** 
 888:../src/nes/K6502.c ****       case 0xC1: // CMP (Zpg,X)
 889:../src/nes/K6502.c ****         CMP( A_IX ); CLK( 6 );
 890:../src/nes/K6502.c ****         break;
 891:../src/nes/K6502.c **** 
 892:../src/nes/K6502.c ****       case 0xC4: // CPY Zpg
 893:../src/nes/K6502.c ****         CPY( A_ZP ); CLK( 3 );
 894:../src/nes/K6502.c ****         break;
 895:../src/nes/K6502.c **** 
 896:../src/nes/K6502.c ****       case 0xC5: // CMP Zpg
 897:../src/nes/K6502.c ****         CMP( A_ZP ); CLK( 3 );
 898:../src/nes/K6502.c ****         break;
 899:../src/nes/K6502.c **** 
 900:../src/nes/K6502.c ****       case 0xC6: // DEC Zpg
 901:../src/nes/K6502.c ****         DEC( AA_ZP ); CLK( 5 );
 902:../src/nes/K6502.c ****         break;
 903:../src/nes/K6502.c **** 
 904:../src/nes/K6502.c ****       case 0xC8: // INY
 905:../src/nes/K6502.c ****         ++Y; TEST( Y ); CLK( 2 );
 906:../src/nes/K6502.c ****         break;
 907:../src/nes/K6502.c **** 
 908:../src/nes/K6502.c ****       case 0xC9: // CMP #Oper
 909:../src/nes/K6502.c ****         CMP( A_IMM ); CLK( 2 );
 910:../src/nes/K6502.c ****         break;
 911:../src/nes/K6502.c **** 
 912:../src/nes/K6502.c ****       case 0xCA: // DEX
 913:../src/nes/K6502.c ****         --X; TEST( X ); CLK( 2 );
 914:../src/nes/K6502.c ****         break;
 915:../src/nes/K6502.c **** 
 916:../src/nes/K6502.c ****       case 0xCC: // CPY Abs
 917:../src/nes/K6502.c ****         CPY( A_ABS ); CLK( 4 );
 918:../src/nes/K6502.c ****         break;
 919:../src/nes/K6502.c **** 
 920:../src/nes/K6502.c ****       case 0xCD: // CMP Abs
 921:../src/nes/K6502.c ****         CMP( A_ABS ); CLK( 4 );
 922:../src/nes/K6502.c ****         break;
 923:../src/nes/K6502.c **** 
 924:../src/nes/K6502.c ****       case 0xCE: // DEC Abs
 925:../src/nes/K6502.c ****         DEC( AA_ABS ); CLK( 6 );
 926:../src/nes/K6502.c ****         break;
 927:../src/nes/K6502.c **** 
 928:../src/nes/K6502.c ****       case 0xD0: // BNE
 929:../src/nes/K6502.c ****         BRA( !( F & FLAG_Z ) );
 930:../src/nes/K6502.c ****         break;
 931:../src/nes/K6502.c **** 
 932:../src/nes/K6502.c ****       case 0xD1: // CMP (Zpg),Y
 933:../src/nes/K6502.c ****         CMP( A_IY ); CLK( 5 );
 934:../src/nes/K6502.c ****         break;
 935:../src/nes/K6502.c **** 
 936:../src/nes/K6502.c ****       case 0xD5: // CMP Zpg,X
 937:../src/nes/K6502.c ****         CMP( A_ZPX ); CLK( 4 );
 938:../src/nes/K6502.c ****         break;
 939:../src/nes/K6502.c **** 
 940:../src/nes/K6502.c ****       case 0xD6: // DEC Zpg,X
 941:../src/nes/K6502.c ****         DEC( AA_ZPX ); CLK( 6 );
 942:../src/nes/K6502.c ****         break;
 943:../src/nes/K6502.c **** 
 944:../src/nes/K6502.c ****       case 0xD8: // CLD
 945:../src/nes/K6502.c ****         RSTF( FLAG_D ); CLK( 2 );
 946:../src/nes/K6502.c ****         break;
 947:../src/nes/K6502.c **** 
 948:../src/nes/K6502.c ****       case 0xD9: // CMP Abs,Y
 949:../src/nes/K6502.c ****         CMP( A_ABSY ); CLK( 4 );
 950:../src/nes/K6502.c ****         break;
 951:../src/nes/K6502.c **** 
 952:../src/nes/K6502.c ****       case 0xDD: // CMP Abs,X
 953:../src/nes/K6502.c ****         CMP( A_ABSX ); CLK( 4 );
 954:../src/nes/K6502.c ****         break;
 955:../src/nes/K6502.c **** 
 956:../src/nes/K6502.c ****       case 0xDE: // DEC Abs,X
 957:../src/nes/K6502.c ****         DEC( AA_ABSX ); CLK( 7 );
 958:../src/nes/K6502.c ****         break;
 959:../src/nes/K6502.c **** 
 960:../src/nes/K6502.c ****       case 0xE0: // CPX #Oper
 961:../src/nes/K6502.c ****         CPX( A_IMM ); CLK( 2 );
 962:../src/nes/K6502.c ****         break;
 963:../src/nes/K6502.c **** 
 964:../src/nes/K6502.c ****       case 0xE1: // SBC (Zpg,X)
 965:../src/nes/K6502.c ****         SBC( A_IX ); CLK( 6 );
 966:../src/nes/K6502.c ****         break;
 967:../src/nes/K6502.c **** 
 968:../src/nes/K6502.c ****       case 0xE4: // CPX Zpg
 969:../src/nes/K6502.c ****         CPX( A_ZP ); CLK( 3 );
 970:../src/nes/K6502.c ****         break;
 971:../src/nes/K6502.c **** 
 972:../src/nes/K6502.c ****       case 0xE5: // SBC Zpg
 973:../src/nes/K6502.c ****         SBC( A_ZP ); CLK( 3 );
 974:../src/nes/K6502.c ****         break;
 975:../src/nes/K6502.c **** 
 976:../src/nes/K6502.c ****       case 0xE6: // INC Zpg
 977:../src/nes/K6502.c ****         INC( AA_ZP ); CLK( 5 );
 978:../src/nes/K6502.c ****         break;
 979:../src/nes/K6502.c **** 
 980:../src/nes/K6502.c ****       case 0xE8: // INX
 981:../src/nes/K6502.c ****         ++X; TEST( X ); CLK( 2 );
 982:../src/nes/K6502.c ****         break;
 983:../src/nes/K6502.c **** 
 984:../src/nes/K6502.c ****       case 0xE9: // SBC #Oper
 985:../src/nes/K6502.c ****         SBC( A_IMM ); CLK( 2 );
 986:../src/nes/K6502.c ****         break;
 987:../src/nes/K6502.c **** 
 988:../src/nes/K6502.c ****       case 0xEA: // NOP
 989:../src/nes/K6502.c ****         CLK( 2 );
 990:../src/nes/K6502.c ****         break;
 991:../src/nes/K6502.c **** 
 992:../src/nes/K6502.c ****       case 0xEC: // CPX Abs
 993:../src/nes/K6502.c ****         CPX( A_ABS ); CLK( 4 );
 994:../src/nes/K6502.c ****         break;
 995:../src/nes/K6502.c **** 
 996:../src/nes/K6502.c ****       case 0xED: // SBC Abs
 997:../src/nes/K6502.c ****         SBC( A_ABS ); CLK( 4 );
 998:../src/nes/K6502.c ****         break;
 999:../src/nes/K6502.c **** 
1000:../src/nes/K6502.c ****       case 0xEE: // INC Abs
1001:../src/nes/K6502.c ****         INC( AA_ABS ); CLK( 6 );
1002:../src/nes/K6502.c ****         break;
1003:../src/nes/K6502.c **** 
1004:../src/nes/K6502.c ****       case 0xF0: // BEQ
1005:../src/nes/K6502.c ****         BRA( F & FLAG_Z );
1006:../src/nes/K6502.c ****         break;
1007:../src/nes/K6502.c **** 
1008:../src/nes/K6502.c ****       case 0xF1: // SBC (Zpg),Y
1009:../src/nes/K6502.c ****         SBC( A_IY ); CLK( 5 );
1010:../src/nes/K6502.c ****         break;
1011:../src/nes/K6502.c **** 
1012:../src/nes/K6502.c ****       case 0xF5: // SBC Zpg,X
1013:../src/nes/K6502.c ****         SBC( A_ZPX ); CLK( 4 );
1014:../src/nes/K6502.c ****         break;
1015:../src/nes/K6502.c **** 
1016:../src/nes/K6502.c ****       case 0xF6: // INC Zpg,X
1017:../src/nes/K6502.c ****         INC( AA_ZPX ); CLK( 6 );
1018:../src/nes/K6502.c ****         break;
1019:../src/nes/K6502.c **** 
1020:../src/nes/K6502.c ****       case 0xF8: // SED
1021:../src/nes/K6502.c ****         SETF( FLAG_D ); CLK( 2 );
1022:../src/nes/K6502.c ****         break;
1023:../src/nes/K6502.c **** 
1024:../src/nes/K6502.c ****       case 0xF9: // SBC Abs,Y
1025:../src/nes/K6502.c ****         SBC( A_ABSY ); CLK( 4 );
1026:../src/nes/K6502.c ****         break;
1027:../src/nes/K6502.c **** 
1028:../src/nes/K6502.c ****       case 0xFD: // SBC Abs,X
1029:../src/nes/K6502.c ****         SBC( A_ABSX ); CLK( 4 );
1030:../src/nes/K6502.c ****         break;
1031:../src/nes/K6502.c **** 
1032:../src/nes/K6502.c ****       case 0xFE: // INC Abs,X
1033:../src/nes/K6502.c ****         INC( AA_ABSX ); CLK( 7 );
1034:../src/nes/K6502.c ****         break;
1035:../src/nes/K6502.c **** 
1036:../src/nes/K6502.c ****       /*-----------------------------------------------------------*/
1037:../src/nes/K6502.c ****       /*  Unlisted Instructions ( thanks to virtualnes )           */
1038:../src/nes/K6502.c ****       /*-----------------------------------------------------------*/
1039:../src/nes/K6502.c **** 
1040:../src/nes/K6502.c **** 			case	0x1A: // NOP (Unofficial)
1041:../src/nes/K6502.c **** 			case	0x3A: // NOP (Unofficial)
1042:../src/nes/K6502.c **** 			case	0x5A: // NOP (Unofficial)
1043:../src/nes/K6502.c **** 			case	0x7A: // NOP (Unofficial)
1044:../src/nes/K6502.c **** 			case	0xDA: // NOP (Unofficial)
1045:../src/nes/K6502.c **** 			case	0xFA: // NOP (Unofficial)
1046:../src/nes/K6502.c **** 				CLK( 2 );
1047:../src/nes/K6502.c **** 				break;
1048:../src/nes/K6502.c **** 
1049:../src/nes/K6502.c **** 			case	0x80: // DOP (CYCLES 2)
1050:../src/nes/K6502.c **** 			case	0x82: // DOP (CYCLES 2)
1051:../src/nes/K6502.c **** 			case	0x89: // DOP (CYCLES 2)
1052:../src/nes/K6502.c **** 			case	0xC2: // DOP (CYCLES 2)
1053:../src/nes/K6502.c **** 			case	0xE2: // DOP (CYCLES 2)
1054:../src/nes/K6502.c **** 				PC++;
1055:../src/nes/K6502.c **** 				CLK( 2 );
1056:../src/nes/K6502.c **** 				break;
1057:../src/nes/K6502.c **** 
1058:../src/nes/K6502.c **** 			case	0x04: // DOP (CYCLES 3)
1059:../src/nes/K6502.c **** 			case	0x44: // DOP (CYCLES 3)
1060:../src/nes/K6502.c **** 			case	0x64: // DOP (CYCLES 3)
1061:../src/nes/K6502.c **** 				PC++;
1062:../src/nes/K6502.c **** 				CLK( 3 );
1063:../src/nes/K6502.c **** 				break;
1064:../src/nes/K6502.c **** 
1065:../src/nes/K6502.c **** 			case	0x14: // DOP (CYCLES 4)
1066:../src/nes/K6502.c **** 			case	0x34: // DOP (CYCLES 4)
1067:../src/nes/K6502.c **** 			case	0x54: // DOP (CYCLES 4)
1068:../src/nes/K6502.c **** 			case	0x74: // DOP (CYCLES 4)
1069:../src/nes/K6502.c **** 			case	0xD4: // DOP (CYCLES 4)
1070:../src/nes/K6502.c **** 			case	0xF4: // DOP (CYCLES 4)
1071:../src/nes/K6502.c ****         PC++; 
1072:../src/nes/K6502.c ****         CLK( 4 );
1073:../src/nes/K6502.c ****         break;
1074:../src/nes/K6502.c **** 
1075:../src/nes/K6502.c **** 			case	0x0C: // TOP
1076:../src/nes/K6502.c **** 			case	0x1C: // TOP
1077:../src/nes/K6502.c **** 			case	0x3C: // TOP
1078:../src/nes/K6502.c **** 			case	0x5C: // TOP
1079:../src/nes/K6502.c **** 			case	0x7C: // TOP
1080:../src/nes/K6502.c **** 			case	0xDC: // TOP
1081:../src/nes/K6502.c **** 			case	0xFC: // TOP
1082:../src/nes/K6502.c **** 				PC+=2;
1083:../src/nes/K6502.c **** 				CLK( 4 );
1084:../src/nes/K6502.c **** 				break;
1085:../src/nes/K6502.c **** 
1086:../src/nes/K6502.c ****       default:   // Unknown Instruction
1087:../src/nes/K6502.c ****         CLK( 2 );
1088:../src/nes/K6502.c **** #if 0
1089:../src/nes/K6502.c ****         InfoNES_MessageBox( "0x%02x is unknown instruction.\n", byCode ) ;
1090:../src/nes/K6502.c **** #endif
1091:../src/nes/K6502.c ****         break;
1092:../src/nes/K6502.c ****         
1093:../src/nes/K6502.c ****     }  /* end of switch ( byCode ) */
1094:../src/nes/K6502.c **** 
1095:../src/nes/K6502.c ****   }  /* end of while ... */
1096:../src/nes/K6502.c **** 
1097:../src/nes/K6502.c ****   // Correct the number of the clocks
1098:../src/nes/K6502.c ****   g_wPassedClocks -= wClocks;
1099:../src/nes/K6502.c **** }
1100:../src/nes/K6502.c **** 
1101:../src/nes/K6502.c **** // Addressing Op.
1102:../src/nes/K6502.c **** // Data
1103:../src/nes/K6502.c **** // Absolute,X
1104:../src/nes/K6502.c **** static inline BYTE K6502_ReadAbsX(){ WORD wA0, wA1; wA0 = AA_ABS; wA1 = wA0 + X; CLK( ( wA0 & 0x010
 660              		.loc 2 1104 0
 661              		.cfi_startproc
 662 0000 4111     		addi	sp,sp,-16
 663              		.cfi_def_cfa_offset 16
 664 0002 B7070000 		lui	a5,%hi(.LANCHOR0)
 665 0006 26C2     		sw	s1,4(sp)
 666              		.cfi_offset 9, -12
 667 0008 93840700 		addi	s1,a5,%lo(.LANCHOR0)
 668 000c 83D60400 		lhu	a3,0(s1)
 669              	.LBB138:
 670              	.LBB139:
  74:../src/nes/K6502_rw.h ****   {
 671              		.loc 1 74 0
 672 0010 7977     		li	a4,-8192
 673              	.LBE139:
 674              	.LBE138:
 675              		.loc 2 1104 0
 676 0012 06C6     		sw	ra,12(sp)
 677 0014 13851600 		addi	a0,a3,1
 678 0018 13160501 		slli	a2,a0,16
 679 001c 4182     		srli	a2,a2,16
 680 001e 22C4     		sw	s0,8(sp)
 681              		.cfi_offset 1, -4
 682              		.cfi_offset 8, -8
 683              	.LBB158:
 684              	.LBB143:
  74:../src/nes/K6502_rw.h ****   {
 685              		.loc 1 74 0
 686 0020 9965     		li	a1,24576
 687              	.LBE143:
 688              	.LBE158:
 689              		.loc 2 1104 0
 690 0022 2390C400 		sh	a2,0(s1)
 691              	.LVL52:
 692              	.LBB159:
 693              	.LBB144:
  74:../src/nes/K6502_rw.h ****   {
 694              		.loc 1 74 0
 695 0026 758F     		and	a4,a3,a4
 696 0028 6307B724 		beq	a4,a1,.L69
 697 002c 63F2E50E 		bleu	a4,a1,.L146
 698 0030 A967     		li	a5,40960
 699 0032 630DF722 		beq	a4,a5,.L74
 700 0036 63F2E71E 		bleu	a4,a5,.L147
 701 003a B167     		li	a5,49152
 702 003c 630AF714 		beq	a4,a5,.L77
 703 0040 B967     		li	a5,57344
 704 0042 631EF70C 		bne	a4,a5,.L68
 198:../src/nes/K6502_rw.h ****   }
 705              		.loc 1 198 0
 706 0046 B7070000 		lui	a5,%hi(ROMBANK3)
 707 004a 83A70700 		lw	a5,%lo(ROMBANK3)(a5)
 708              	.L143:
 192:../src/nes/K6502_rw.h **** 
 709              		.loc 1 192 0
 710 004e 0965     		li	a0,8192
 711 0050 7D15     		addi	a0,a0,-1
 712 0052 E98E     		and	a3,a3,a0
 713              	.LVL53:
 714 0054 BE96     		add	a3,a5,a3
 715 0056 03C40600 		lbu	s0,0(a3)
 716              	.L79:
 717              	.LBE144:
 718              	.LBE159:
 719              		.loc 2 1104 0
 720 005a 13071600 		addi	a4,a2,1
 721 005e 2390E400 		sh	a4,0(s1)
 722              	.LBB160:
 723              	.LBB161:
  74:../src/nes/K6502_rw.h ****   {
 724              		.loc 1 74 0
 725 0062 7977     		li	a4,-8192
 726              	.LBE161:
 727              	.LBE160:
 728              		.loc 2 1104 0
 729 0064 4204     		slli	s0,s0,16
 730              	.LBB180:
 731              	.LBB165:
  74:../src/nes/K6502_rw.h ****   {
 732              		.loc 1 74 0
 733 0066 718F     		and	a4,a2,a4
 734 0068 9965     		li	a1,24576
 735              	.LBE165:
 736              	.LBE180:
 737              		.loc 2 1104 0
 738 006a 4184     		srai	s0,s0,16
 739              	.LVL54:
 740              	.LBB181:
 741              	.LBB166:
  74:../src/nes/K6502_rw.h ****   {
 742              		.loc 1 74 0
 743 006c 6306B70C 		beq	a4,a1,.L90
 744              	.L153:
 745 0070 63FAE516 		bleu	a4,a1,.L148
 746 0074 A967     		li	a5,40960
 747 0076 6302F71C 		beq	a4,a5,.L95
 748 007a 63F8E718 		bleu	a4,a5,.L149
 749 007e B167     		li	a5,49152
 750 0080 6309F732 		beq	a4,a5,.L98
 751 0084 B967     		li	a5,57344
 752 0086 6319F720 		bne	a4,a5,.L89
 198:../src/nes/K6502_rw.h ****   }
 753              		.loc 1 198 0
 754 008a B7070000 		lui	a5,%hi(ROMBANK3)
 755 008e 83A70700 		lw	a5,%lo(ROMBANK3)(a5)
 756              	.L144:
 757 0092 0965     		li	a0,8192
 758 0094 7D15     		addi	a0,a0,-1
 759 0096 718D     		and	a0,a2,a0
 760 0098 3E95     		add	a0,a5,a0
 761 009a 03050500 		lb	a0,0(a0)
 762 009e 93178500 		slli	a5,a0,8
 763              	.L100:
 764              	.LBE166:
 765              	.LBE181:
 766              		.loc 2 1104 0
 767 00a2 37070000 		lui	a4,%hi(.LANCHOR1)
 768 00a6 03450700 		lbu	a0,%lo(.LANCHOR1)(a4)
 769 00aa C18F     		or	a5,s0,a5
 770 00ac C207     		slli	a5,a5,16
 771 00ae C183     		srli	a5,a5,16
 772              	.LVL55:
 773 00b0 3E95     		add	a0,a5,a0
 774 00b2 4205     		slli	a0,a0,16
 775 00b4 37070000 		lui	a4,%hi(.LANCHOR2)
 776 00b8 13070700 		addi	a4,a4,%lo(.LANCHOR2)
 777 00bc 4181     		srli	a0,a0,16
 778              	.LVL56:
 779 00be 83560700 		lhu	a3,0(a4)
 780 00c2 A98F     		xor	a5,a5,a0
 781              	.LVL57:
 782 00c4 A183     		srli	a5,a5,8
 783 00c6 858B     		andi	a5,a5,1
 784 00c8 B697     		add	a5,a5,a3
 785 00ca 2310F700 		sh	a5,0(a4)
 786              	.LVL58:
 787              	.LBB182:
 788              	.LBB183:
  74:../src/nes/K6502_rw.h ****   {
 789              		.loc 1 74 0
 790 00ce F977     		li	a5,-8192
 791 00d0 E98F     		and	a5,a0,a5
 792 00d2 1967     		li	a4,24576
 793 00d4 638AE72A 		beq	a5,a4,.L110
 794 00d8 637BF70C 		bleu	a5,a4,.L150
 795 00dc 2967     		li	a4,40960
 796 00de 6382E718 		beq	a5,a4,.L115
 797 00e2 6374F714 		bleu	a5,a4,.L151
 798 00e6 3167     		li	a4,49152
 799 00e8 6380E72C 		beq	a5,a4,.L118
 800 00ec 3967     		li	a4,57344
 801 00ee 6397E70C 		bne	a5,a4,.L109
 198:../src/nes/K6502_rw.h ****   }
 802              		.loc 1 198 0
 803 00f2 B7070000 		lui	a5,%hi(ROMBANK3)
 804 00f6 03A70700 		lw	a4,%lo(ROMBANK3)(a5)
 805              	.L145:
 192:../src/nes/K6502_rw.h **** 
 806              		.loc 1 192 0
 807 00fa 8967     		li	a5,8192
 808 00fc FD17     		addi	a5,a5,-1
 809 00fe 7D8D     		and	a0,a0,a5
 810              	.LVL59:
 811 0100 3A95     		add	a0,a4,a0
 812 0102 03450500 		lbu	a0,0(a0)
 813              	.L141:
 814              	.LBE183:
 815              	.LBE182:
 816              		.loc 2 1104 0
 817 0106 B240     		lw	ra,12(sp)
 818              		.cfi_remember_state
 819              		.cfi_restore 1
 820 0108 2244     		lw	s0,8(sp)
 821              		.cfi_restore 8
 822 010a 9244     		lw	s1,4(sp)
 823              		.cfi_restore 9
 824 010c 4101     		addi	sp,sp,16
 825              		.cfi_def_cfa_offset 0
 826 010e 8280     		jr	ra
 827              	.LVL60:
 828              	.L146:
 829              		.cfi_restore_state
 830              	.LBB203:
 831              	.LBB145:
  74:../src/nes/K6502_rw.h ****   {
 832              		.loc 1 74 0
 833 0110 8967     		li	a5,8192
 834 0112 6309F712 		beq	a4,a5,.L71
 835 0116 9167     		li	a5,16384
 836 0118 6303F704 		beq	a4,a5,.L72
 837 011c 3DCF     		beqz	a4,.L152
 838              	.L68:
 839              	.LBE145:
 840              	.LBE203:
 841              		.loc 2 1104 0
 842 011e 13071600 		addi	a4,a2,1
 843              	.LBB204:
 844              	.LBB146:
 201:../src/nes/K6502_rw.h ****                             address is returned. */
 845              		.loc 1 201 0
 846 0122 13D48600 		srli	s0,a3,8
 847              	.LVL61:
 848              	.LBE146:
 849              	.LBE204:
 850              		.loc 2 1104 0
 851 0126 2390E400 		sh	a4,0(s1)
 852              	.LBB205:
 853              	.LBB167:
  74:../src/nes/K6502_rw.h ****   {
 854              		.loc 1 74 0
 855 012a 7977     		li	a4,-8192
 856              	.LBE167:
 857              	.LBE205:
 858              		.loc 2 1104 0
 859 012c 4204     		slli	s0,s0,16
 860              	.LBB206:
 861              	.LBB168:
  74:../src/nes/K6502_rw.h ****   {
 862              		.loc 1 74 0
 863 012e 718F     		and	a4,a2,a4
 864 0130 9965     		li	a1,24576
 865              	.LBE168:
 866              	.LBE206:
 867              		.loc 2 1104 0
 868 0132 4184     		srai	s0,s0,16
 869              	.LBB207:
 870              	.LBB169:
  74:../src/nes/K6502_rw.h ****   {
 871              		.loc 1 74 0
 872 0134 E31EB7F2 		bne	a4,a1,.L153
 873              	.L90:
 181:../src/nes/K6502_rw.h ****       {
 874              		.loc 1 181 0
 875 0138 B7070000 		lui	a5,%hi(ROM_SRAM)
 876 013c 83C70700 		lbu	a5,%lo(ROM_SRAM)(a5)
 877 0140 0965     		li	a0,8192
 878 0142 7D15     		addi	a0,a0,-1
 879 0144 718D     		and	a0,a2,a0
 880 0146 63830728 		beqz	a5,.L108
 183:../src/nes/K6502_rw.h ****       } else {    /* SRAM BANK */
 881              		.loc 1 183 0
 882 014a 37060000 		lui	a2,%hi(SRAM)
 883 014e 13060600 		addi	a2,a2,%lo(SRAM)
 884 0152 3295     		add	a0,a0,a2
 885 0154 03050500 		lb	a0,0(a0)
 886 0158 93178500 		slli	a5,a0,8
 887 015c 99B7     		j	.L100
 888              	.LVL62:
 889              	.L72:
 890              	.LBE169:
 891              	.LBE207:
 892              	.LBB208:
 893              	.LBB147:
 130:../src/nes/K6502_rw.h ****       {
 894              		.loc 1 130 0
 895 015e 93074701 		addi	a5,a4,20
 896 0162 6380F648 		beq	a3,a5,.L129
 135:../src/nes/K6502_rw.h ****       {
 897              		.loc 1 135 0
 898 0166 93075701 		addi	a5,a4,21
 899 016a 6385F640 		beq	a3,a5,.L130
 157:../src/nes/K6502_rw.h ****       {
 900              		.loc 1 157 0
 901 016e 93076701 		addi	a5,a4,22
 902 0172 6380F618 		beq	a3,a5,.L154
 165:../src/nes/K6502_rw.h ****       {
 903              		.loc 1 165 0
 904 0176 5D07     		addi	a4,a4,23
 905 0178 638BE64C 		beq	a3,a4,.L155
 175:../src/nes/K6502_rw.h ****       }
 906              		.loc 1 175 0
 907 017c B7070000 		lui	a5,%hi(MapperReadApu)
 908 0180 83A70700 		lw	a5,%lo(MapperReadApu)(a5)
 909 0184 3685     		mv	a0,a3
 910 0186 8297     		jalr	a5
 911              	.LVL63:
 912 0188 2A84     		mv	s0,a0
 913 018a 03D60400 		lhu	a2,0(s1)
 914 018e F1B5     		j	.L79
 915              	.LVL64:
 916              	.L77:
 195:../src/nes/K6502_rw.h **** 
 917              		.loc 1 195 0
 918 0190 B7070000 		lui	a5,%hi(ROMBANK2)
 919 0194 83A70700 		lw	a5,%lo(ROMBANK2)(a5)
 920 0198 5DBD     		j	.L143
 921              	.L152:
  77:../src/nes/K6502_rw.h **** 
 922              		.loc 1 77 0
 923 019a 37050000 		lui	a0,%hi(RAM)
 924 019e 93F6F67F 		andi	a3,a3,2047
 925              	.LVL65:
 926 01a2 13050500 		addi	a0,a0,%lo(RAM)
 927 01a6 AA96     		add	a3,a3,a0
 928 01a8 03C40600 		lbu	s0,0(a3)
 929 01ac 7DB5     		j	.L79
 930              	.LVL66:
 931              	.L150:
 932              	.LBE147:
 933              	.LBE208:
 934              	.LBB209:
 935              	.LBB187:
  74:../src/nes/K6502_rw.h ****   {
 936              		.loc 1 74 0
 937 01ae 0967     		li	a4,8192
 938 01b0 6382E712 		beq	a5,a4,.L112
 939 01b4 1167     		li	a4,16384
 940 01b6 6387E70E 		beq	a5,a4,.L113
 941 01ba 99C7     		beqz	a5,.L156
 942              	.L109:
 943              	.LBE187:
 944              	.LBE209:
 945              		.loc 2 1104 0
 946 01bc B240     		lw	ra,12(sp)
 947              		.cfi_remember_state
 948              		.cfi_restore 1
 949 01be 2244     		lw	s0,8(sp)
 950              		.cfi_restore 8
 951 01c0 9244     		lw	s1,4(sp)
 952              		.cfi_restore 9
 953              	.LBB210:
 954              	.LBB188:
 201:../src/nes/K6502_rw.h ****                             address is returned. */
 955              		.loc 1 201 0
 956 01c2 2181     		srli	a0,a0,8
 957              	.LVL67:
 958              	.LBE188:
 959              	.LBE210:
 960              		.loc 2 1104 0
 961 01c4 4101     		addi	sp,sp,16
 962              		.cfi_def_cfa_offset 0
 963 01c6 8280     		jr	ra
 964              	.LVL68:
 965              	.L156:
 966              		.cfi_restore_state
 967 01c8 B240     		lw	ra,12(sp)
 968              		.cfi_remember_state
 969              		.cfi_restore 1
 970 01ca 2244     		lw	s0,8(sp)
 971              		.cfi_restore 8
 972              	.LBB211:
 973              	.LBB189:
  77:../src/nes/K6502_rw.h **** 
 974              		.loc 1 77 0
 975 01cc B7070000 		lui	a5,%hi(RAM)
 976 01d0 1375F57F 		andi	a0,a0,2047
 977              	.LVL69:
 978 01d4 93870700 		addi	a5,a5,%lo(RAM)
 979 01d8 3E95     		add	a0,a0,a5
 980 01da 03450500 		lbu	a0,0(a0)
 981              	.LBE189:
 982              	.LBE211:
 983              		.loc 2 1104 0
 984 01de 9244     		lw	s1,4(sp)
 985              		.cfi_restore 9
 986 01e0 4101     		addi	sp,sp,16
 987              		.cfi_def_cfa_offset 0
 988 01e2 8280     		jr	ra
 989              	.L148:
 990              		.cfi_restore_state
 991              	.LBB212:
 992              	.LBB170:
  74:../src/nes/K6502_rw.h ****   {
 993              		.loc 1 74 0
 994 01e4 8967     		li	a5,8192
 995 01e6 630FF716 		beq	a4,a5,.L92
 996 01ea 9167     		li	a5,16384
 997 01ec 6300F714 		beq	a4,a5,.L93
 998 01f0 45E7     		bnez	a4,.L89
  77:../src/nes/K6502_rw.h **** 
 999              		.loc 1 77 0
 1000 01f2 1375F67F 		andi	a0,a2,2047
 1001 01f6 37060000 		lui	a2,%hi(RAM)
 1002 01fa 13060600 		addi	a2,a2,%lo(RAM)
 1003 01fe 3295     		add	a0,a0,a2
 1004 0200 03050500 		lb	a0,0(a0)
 1005 0204 93178500 		slli	a5,a0,8
 1006 0208 69BD     		j	.L100
 1007              	.L149:
  74:../src/nes/K6502_rw.h ****   {
 1008              		.loc 1 74 0
 1009 020a A167     		li	a5,32768
 1010 020c 6316F708 		bne	a4,a5,.L89
 189:../src/nes/K6502_rw.h **** 
 1011              		.loc 1 189 0
 1012 0210 B7070000 		lui	a5,%hi(ROMBANK0)
 1013 0214 83A70700 		lw	a5,%lo(ROMBANK0)(a5)
 1014 0218 ADBD     		j	.L144
 1015              	.LVL70:
 1016              	.L147:
 1017              	.LBE170:
 1018              	.LBE212:
 1019              	.LBB213:
 1020              	.LBB148:
  74:../src/nes/K6502_rw.h ****   {
 1021              		.loc 1 74 0
 1022 021a A167     		li	a5,32768
 1023 021c E311F7F0 		bne	a4,a5,.L68
 189:../src/nes/K6502_rw.h **** 
 1024              		.loc 1 189 0
 1025 0220 B7070000 		lui	a5,%hi(ROMBANK0)
 1026 0224 83A70700 		lw	a5,%lo(ROMBANK0)(a5)
 1027 0228 1DB5     		j	.L143
 1028              	.LVL71:
 1029              	.L151:
 1030              	.LBE148:
 1031              	.LBE213:
 1032              	.LBB214:
 1033              	.LBB190:
  74:../src/nes/K6502_rw.h ****   {
 1034              		.loc 1 74 0
 1035 022a 2167     		li	a4,32768
 1036 022c E398E7F8 		bne	a5,a4,.L109
 189:../src/nes/K6502_rw.h **** 
 1037              		.loc 1 189 0
 1038 0230 B7070000 		lui	a5,%hi(ROMBANK0)
 1039 0234 03A70700 		lw	a4,%lo(ROMBANK0)(a5)
 1040 0238 C9B5     		j	.L145
 1041              	.LVL72:
 1042              	.L95:
 1043              	.LBE190:
 1044              	.LBE214:
 1045              	.LBB215:
 1046              	.LBB171:
 192:../src/nes/K6502_rw.h **** 
 1047              		.loc 1 192 0
 1048 023a B7070000 		lui	a5,%hi(ROMBANK1)
 1049 023e 83A70700 		lw	a5,%lo(ROMBANK1)(a5)
 1050 0242 81BD     		j	.L144
 1051              	.LVL73:
 1052              	.L71:
 1053 0244 9D8A     		andi	a3,a3,7
 1054              	.LVL74:
 1055              	.LBE171:
 1056              	.LBE215:
 1057              	.LBB216:
 1058              	.LBB149:
  80:../src/nes/K6502_rw.h ****       {
 1059              		.loc 1 80 0
 1060 0246 9D47     		li	a5,7
 1061 0248 6385F62E 		beq	a3,a5,.L157
  96:../src/nes/K6502_rw.h ****       {
 1062              		.loc 1 96 0
 1063 024c 9147     		li	a5,4
 1064 024e 6387F632 		beq	a3,a5,.L158
 101:../src/nes/K6502_rw.h ****       {
 1065              		.loc 1 101 0
 1066 0252 8947     		li	a5,2
 1067 0254 638BF620 		beq	a3,a5,.L159
 125:../src/nes/K6502_rw.h ****       }
 1068              		.loc 1 125 0
 1069 0258 B7070000 		lui	a5,%hi(PPU_R7)
 1070 025c 03C40700 		lbu	s0,%lo(PPU_R7)(a5)
 1071 0260 EDBB     		j	.L79
 1072              	.LVL75:
 1073              	.L115:
 1074              	.LBE149:
 1075              	.LBE216:
 1076              	.LBB217:
 1077              	.LBB191:
 192:../src/nes/K6502_rw.h **** 
 1078              		.loc 1 192 0
 1079 0262 B7070000 		lui	a5,%hi(ROMBANK1)
 1080 0266 03A70700 		lw	a4,%lo(ROMBANK1)(a5)
 1081 026a 41BD     		j	.L145
 1082              	.LVL76:
 1083              	.L74:
 1084              	.LBE191:
 1085              	.LBE217:
 1086              	.LBB218:
 1087              	.LBB150:
 1088 026c B7070000 		lui	a5,%hi(ROMBANK1)
 1089 0270 83A70700 		lw	a5,%lo(ROMBANK1)(a5)
 1090 0274 E9BB     		j	.L143
 1091              	.L69:
 181:../src/nes/K6502_rw.h ****       {
 1092              		.loc 1 181 0
 1093 0276 B7070000 		lui	a5,%hi(ROM_SRAM)
 1094 027a 83C70700 		lbu	a5,%lo(ROM_SRAM)(a5)
 1095 027e 0965     		li	a0,8192
 1096 0280 7D15     		addi	a0,a0,-1
 1097 0282 758D     		and	a0,a3,a0
 1098 0284 638C0712 		beqz	a5,.L88
 183:../src/nes/K6502_rw.h ****       } else {    /* SRAM BANK */
 1099              		.loc 1 183 0
 1100 0288 B7060000 		lui	a3,%hi(SRAM)
 1101              	.LVL77:
 1102 028c 93860600 		addi	a3,a3,%lo(SRAM)
 1103 0290 3695     		add	a0,a0,a3
 1104 0292 03440500 		lbu	s0,0(a0)
 1105 0296 D1B3     		j	.L79
 1106              	.L89:
 1107 0298 13150601 		slli	a0,a2,16
 1108 029c 4185     		srai	a0,a0,16
 1109 029e 937705F0 		andi	a5,a0,-256
 1110 02a2 01B5     		j	.L100
 1111              	.LVL78:
 1112              	.L113:
 1113              	.LBE150:
 1114              	.LBE218:
 1115              	.LBB219:
 1116              	.LBB192:
 130:../src/nes/K6502_rw.h ****       {
 1117              		.loc 1 130 0
 1118 02a4 13874701 		addi	a4,a5,20
 1119 02a8 630BE532 		beq	a0,a4,.L137
 135:../src/nes/K6502_rw.h ****       {
 1120              		.loc 1 135 0
 1121 02ac 13875701 		addi	a4,a5,21
 1122 02b0 6304E52C 		beq	a0,a4,.L138
 157:../src/nes/K6502_rw.h ****       {
 1123              		.loc 1 157 0
 1124 02b4 13876701 		addi	a4,a5,22
 1125 02b8 6306E516 		beq	a0,a4,.L160
 165:../src/nes/K6502_rw.h ****       {
 1126              		.loc 1 165 0
 1127 02bc DD07     		addi	a5,a5,23
 1128 02be 6308F532 		beq	a0,a5,.L161
 1129              	.LBE192:
 1130              	.LBE219:
 1131              		.loc 2 1104 0
 1132 02c2 2244     		lw	s0,8(sp)
 1133              		.cfi_remember_state
 1134              		.cfi_restore 8
 1135              	.LBB220:
 1136              	.LBB193:
 175:../src/nes/K6502_rw.h ****       }
 1137              		.loc 1 175 0
 1138 02c4 B7070000 		lui	a5,%hi(MapperReadApu)
 1139              	.LBE193:
 1140              	.LBE220:
 1141              		.loc 2 1104 0
 1142 02c8 B240     		lw	ra,12(sp)
 1143              		.cfi_restore 1
 1144 02ca 9244     		lw	s1,4(sp)
 1145              		.cfi_restore 9
 1146              	.LBB221:
 1147              	.LBB194:
 175:../src/nes/K6502_rw.h ****       }
 1148              		.loc 1 175 0
 1149 02cc 03A30700 		lw	t1,%lo(MapperReadApu)(a5)
 1150              	.LBE194:
 1151              	.LBE221:
 1152              		.loc 2 1104 0
 1153 02d0 4101     		addi	sp,sp,16
 1154              		.cfi_def_cfa_offset 0
 1155              	.LBB222:
 1156              	.LBB195:
 175:../src/nes/K6502_rw.h ****       }
 1157              		.loc 1 175 0
 1158 02d2 0283     		jr	t1
 1159              	.LVL79:
 1160              	.L112:
 1161              		.cfi_restore_state
 1162 02d4 1D89     		andi	a0,a0,7
 1163              	.LVL80:
  80:../src/nes/K6502_rw.h ****       {
 1164              		.loc 1 80 0
 1165 02d6 9D47     		li	a5,7
 1166 02d8 630CF520 		beq	a0,a5,.L162
  96:../src/nes/K6502_rw.h ****       {
 1167              		.loc 1 96 0
 1168 02dc 9147     		li	a5,4
 1169 02de 6300F52E 		beq	a0,a5,.L163
 101:../src/nes/K6502_rw.h ****       {
 1170              		.loc 1 101 0
 1171 02e2 8947     		li	a5,2
 1172 02e4 6306F516 		beq	a0,a5,.L164
 125:../src/nes/K6502_rw.h ****       }
 1173              		.loc 1 125 0
 1174 02e8 B7070000 		lui	a5,%hi(PPU_R7)
 1175 02ec 03C50700 		lbu	a0,%lo(PPU_R7)(a5)
 1176 02f0 19BD     		j	.L141
 1177              	.LVL81:
 1178              	.L154:
 1179              	.LBE195:
 1180              	.LBE222:
 1181              	.LBB223:
 1182              	.LBB151:
 160:../src/nes/K6502_rw.h ****         PAD1_Bit = ( PAD1_Bit == 23 ) ? 0 : ( PAD1_Bit + 1 );
 1183              		.loc 1 160 0
 1184 02f2 B7050000 		lui	a1,%hi(PAD1_Bit)
 1185 02f6 B7070000 		lui	a5,%hi(PAD1_Latch)
 1186 02fa 03A70500 		lw	a4,%lo(PAD1_Bit)(a1)
 1187 02fe 83A70700 		lw	a5,%lo(PAD1_Latch)(a5)
 161:../src/nes/K6502_rw.h ****         return byRet;
 1188              		.loc 1 161 0
 1189 0302 5D48     		li	a6,23
 1190 0304 0145     		li	a0,0
 160:../src/nes/K6502_rw.h ****         PAD1_Bit = ( PAD1_Bit == 23 ) ? 0 : ( PAD1_Bit + 1 );
 1191              		.loc 1 160 0
 1192 0306 B3D7E700 		srl	a5,a5,a4
 1193 030a 858B     		andi	a5,a5,1
 1194 030c 93E70704 		ori	a5,a5,64
 1195 0310 E207     		slli	a5,a5,24
 1196 0312 E187     		srai	a5,a5,24
 1197              	.LVL82:
 161:../src/nes/K6502_rw.h ****         return byRet;
 1198              		.loc 1 161 0
 1199 0314 63040701 		beq	a4,a6,.L85
 1200 0318 13051700 		addi	a0,a4,1
 1201              	.L85:
 1202 031c 13940701 		slli	s0,a5,16
 1203 0320 23A0A500 		sw	a0,%lo(PAD1_Bit)(a1)
 1204 0324 4184     		srai	s0,s0,16
 1205              	.LVL83:
 1206              	.L83:
 1207              	.LBE151:
 1208              	.LBE223:
 1209              		.loc 2 1104 0
 1210 0326 8906     		addi	a3,a3,2
 1211 0328 2390D400 		sh	a3,0(s1)
 1212              	.LVL84:
 1213              	.L93:
 1214              	.LBB224:
 1215              	.LBB172:
 130:../src/nes/K6502_rw.h ****       {
 1216              		.loc 1 130 0
 1217 032c 1167     		li	a4,16384
 1218 032e 93074701 		addi	a5,a4,20
 1219 0332 630AF62A 		beq	a2,a5,.L133
 135:../src/nes/K6502_rw.h ****       {
 1220              		.loc 1 135 0
 1221 0336 93065701 		addi	a3,a4,21
 1222 033a 8147     		li	a5,0
 1223 033c E303D6D6 		beq	a2,a3,.L100
 157:../src/nes/K6502_rw.h ****       {
 1224              		.loc 1 157 0
 1225 0340 93076701 		addi	a5,a4,22
 1226 0344 6306F60A 		beq	a2,a5,.L165
 165:../src/nes/K6502_rw.h ****       {
 1227              		.loc 1 165 0
 1228 0348 5D07     		addi	a4,a4,23
 1229 034a 6308E62C 		beq	a2,a4,.L166
 175:../src/nes/K6502_rw.h ****       }
 1230              		.loc 1 175 0
 1231 034e B7070000 		lui	a5,%hi(MapperReadApu)
 1232 0352 83A70700 		lw	a5,%lo(MapperReadApu)(a5)
 1233 0356 3285     		mv	a0,a2
 1234 0358 8297     		jalr	a5
 1235              	.LVL85:
 1236 035a 2205     		slli	a0,a0,8
 1237 035c 93170501 		slli	a5,a0,16
 1238 0360 C187     		srai	a5,a5,16
 1239 0362 81B3     		j	.L100
 1240              	.L92:
 1241 0364 13757600 		andi	a0,a2,7
  80:../src/nes/K6502_rw.h ****       {
 1242              		.loc 1 80 0
 1243 0368 9D47     		li	a5,7
 1244 036a 630EF512 		beq	a0,a5,.L167
  96:../src/nes/K6502_rw.h ****       {
 1245              		.loc 1 96 0
 1246 036e 9147     		li	a5,4
 1247 0370 6306F522 		beq	a0,a5,.L168
 101:../src/nes/K6502_rw.h ****       {
 1248              		.loc 1 101 0
 1249 0374 8947     		li	a5,2
 1250 0376 6307F510 		beq	a0,a5,.L169
 125:../src/nes/K6502_rw.h ****       }
 1251              		.loc 1 125 0
 1252 037a B7070000 		lui	a5,%hi(PPU_R7)
 1253 037e 03870700 		lb	a4,%lo(PPU_R7)(a5)
 1254 0382 93178700 		slli	a5,a4,8
 1255 0386 31BB     		j	.L100
 1256              	.LVL86:
 1257              	.L110:
 1258              	.LBE172:
 1259              	.LBE224:
 1260              	.LBB225:
 1261              	.LBB196:
 181:../src/nes/K6502_rw.h ****       {
 1262              		.loc 1 181 0
 1263 0388 B7070000 		lui	a5,%hi(ROM_SRAM)
 1264 038c 03C70700 		lbu	a4,%lo(ROM_SRAM)(a5)
 1265 0390 8967     		li	a5,8192
 1266 0392 FD17     		addi	a5,a5,-1
 1267 0394 7D8D     		and	a0,a0,a5
 1268              	.LVL87:
 1269 0396 29C7     		beqz	a4,.L128
 183:../src/nes/K6502_rw.h ****       } else {    /* SRAM BANK */
 1270              		.loc 1 183 0
 1271 0398 B7070000 		lui	a5,%hi(SRAM)
 1272 039c 93870700 		addi	a5,a5,%lo(SRAM)
 1273 03a0 3E95     		add	a0,a0,a5
 1274 03a2 03450500 		lbu	a0,0(a0)
 1275 03a6 85B3     		j	.L141
 1276              	.LVL88:
 1277              	.L118:
 195:../src/nes/K6502_rw.h **** 
 1278              		.loc 1 195 0
 1279 03a8 B7070000 		lui	a5,%hi(ROMBANK2)
 1280 03ac 03A70700 		lw	a4,%lo(ROMBANK2)(a5)
 1281 03b0 A9B3     		j	.L145
 1282              	.LVL89:
 1283              	.L98:
 1284              	.LBE196:
 1285              	.LBE225:
 1286              	.LBB226:
 1287              	.LBB173:
 1288 03b2 B7070000 		lui	a5,%hi(ROMBANK2)
 1289 03b6 83A70700 		lw	a5,%lo(ROMBANK2)(a5)
 1290 03ba E1B9     		j	.L144
 1291              	.LVL90:
 1292              	.L88:
 1293              	.LBE173:
 1294              	.LBE226:
 1295              	.LBB227:
 1296              	.LBB152:
 185:../src/nes/K6502_rw.h ****       }
 1297              		.loc 1 185 0
 1298 03bc B7070000 		lui	a5,%hi(SRAMBANK)
 1299 03c0 83A60700 		lw	a3,%lo(SRAMBANK)(a5)
 1300              	.LVL91:
 1301 03c4 3695     		add	a0,a3,a0
 1302 03c6 03440500 		lbu	s0,0(a0)
 1303 03ca 41B9     		j	.L79
 1304              	.L108:
 1305              	.LBE152:
 1306              	.LBE227:
 1307              	.LBB228:
 1308              	.LBB174:
 1309 03cc B7070000 		lui	a5,%hi(SRAMBANK)
 1310 03d0 03A60700 		lw	a2,%lo(SRAMBANK)(a5)
 1311 03d4 3295     		add	a0,a2,a0
 1312 03d6 03050500 		lb	a0,0(a0)
 1313 03da 93178500 		slli	a5,a0,8
 1314 03de D1B1     		j	.L100
 1315              	.L128:
 1316              	.LBE174:
 1317              	.LBE228:
 1318              	.LBB229:
 1319              	.LBB197:
 1320 03e0 B7070000 		lui	a5,%hi(SRAMBANK)
 1321 03e4 83A70700 		lw	a5,%lo(SRAMBANK)(a5)
 1322 03e8 3E95     		add	a0,a5,a0
 1323 03ea 03450500 		lbu	a0,0(a0)
 1324 03ee 21BB     		j	.L141
 1325              	.LVL92:
 1326              	.L165:
 1327              	.LBE197:
 1328              	.LBE229:
 1329              	.LBB230:
 1330              	.LBB175:
 160:../src/nes/K6502_rw.h ****         PAD1_Bit = ( PAD1_Bit == 23 ) ? 0 : ( PAD1_Bit + 1 );
 1331              		.loc 1 160 0
 1332 03f0 B7050000 		lui	a1,%hi(PAD1_Bit)
 1333 03f4 37070000 		lui	a4,%hi(PAD1_Latch)
 1334 03f8 83A70500 		lw	a5,%lo(PAD1_Bit)(a1)
 1335 03fc 03270700 		lw	a4,%lo(PAD1_Latch)(a4)
 161:../src/nes/K6502_rw.h ****         return byRet;
 1336              		.loc 1 161 0
 1337 0400 5D46     		li	a2,23
 1338              	.LVL93:
 1339 0402 8146     		li	a3,0
 160:../src/nes/K6502_rw.h ****         PAD1_Bit = ( PAD1_Bit == 23 ) ? 0 : ( PAD1_Bit + 1 );
 1340              		.loc 1 160 0
 1341 0404 3357F700 		srl	a4,a4,a5
 1342 0408 058B     		andi	a4,a4,1
 1343 040a 13670704 		ori	a4,a4,64
 1344 040e 6207     		slli	a4,a4,24
 1345 0410 6187     		srai	a4,a4,24
 1346              	.LVL94:
 161:../src/nes/K6502_rw.h ****         return byRet;
 1347              		.loc 1 161 0
 1348 0412 6384C700 		beq	a5,a2,.L105
 1349 0416 93861700 		addi	a3,a5,1
 1350              	.L105:
 1351 041a 23A0D500 		sw	a3,%lo(PAD1_Bit)(a1)
 1352 041e 93178700 		slli	a5,a4,8
 1353 0422 41B1     		j	.L100
 1354              	.LVL95:
 1355              	.L160:
 1356              	.LBE175:
 1357              	.LBE230:
 1358              	.LBB231:
 1359              	.LBB198:
 160:../src/nes/K6502_rw.h ****         PAD1_Bit = ( PAD1_Bit == 23 ) ? 0 : ( PAD1_Bit + 1 );
 1360              		.loc 1 160 0
 1361 0424 37070000 		lui	a4,%hi(PAD1_Latch)
 1362 0428 B7050000 		lui	a1,%hi(PAD1_Bit)
 1363 042c 03250700 		lw	a0,%lo(PAD1_Latch)(a4)
 1364              	.LVL96:
 1365 0430 83A70500 		lw	a5,%lo(PAD1_Bit)(a1)
 161:../src/nes/K6502_rw.h ****         return byRet;
 1366              		.loc 1 161 0
 1367 0434 DD46     		li	a3,23
 1368 0436 0147     		li	a4,0
 160:../src/nes/K6502_rw.h ****         PAD1_Bit = ( PAD1_Bit == 23 ) ? 0 : ( PAD1_Bit + 1 );
 1369              		.loc 1 160 0
 1370 0438 3355F500 		srl	a0,a0,a5
 1371 043c 0589     		andi	a0,a0,1
 1372 043e 13650504 		ori	a0,a0,64
 1373              	.LVL97:
 161:../src/nes/K6502_rw.h ****         return byRet;
 1374              		.loc 1 161 0
 1375 0442 6384D700 		beq	a5,a3,.L125
 1376 0446 13871700 		addi	a4,a5,1
 1377              	.L125:
 1378 044a 23A0E500 		sw	a4,%lo(PAD1_Bit)(a1)
 1379 044e 65B9     		j	.L141
 1380              	.LVL98:
 1381              	.L164:
 104:../src/nes/K6502_rw.h **** 
 1382              		.loc 1 104 0
 1383 0450 B7070000 		lui	a5,%hi(PPU_R2)
 1384 0454 03C50700 		lbu	a0,%lo(PPU_R2)(a5)
 1385              	.LVL99:
 110:../src/nes/K6502_rw.h **** 
 1386              		.loc 1 110 0
 1387 0458 37070000 		lui	a4,%hi(PPU_Latch_Flag)
 1388 045c 23000700 		sb	zero,%lo(PPU_Latch_Flag)(a4)
 107:../src/nes/K6502_rw.h **** 
 1389              		.loc 1 107 0
 1390 0460 1377F507 		andi	a4,a0,127
 1391 0464 2380E700 		sb	a4,%lo(PPU_R2)(a5)
 1392 0468 79B9     		j	.L141
 1393              	.LVL100:
 1394              	.L159:
 1395              	.LBE198:
 1396              	.LBE231:
 1397              	.LBB232:
 1398              	.LBB153:
 104:../src/nes/K6502_rw.h **** 
 1399              		.loc 1 104 0
 1400 046a 37070000 		lui	a4,%hi(PPU_R2)
 1401 046e 03440700 		lbu	s0,%lo(PPU_R2)(a4)
 1402              	.LVL101:
 110:../src/nes/K6502_rw.h **** 
 1403              		.loc 1 110 0
 1404 0472 B7060000 		lui	a3,%hi(PPU_Latch_Flag)
 1405 0476 23800600 		sb	zero,%lo(PPU_Latch_Flag)(a3)
 107:../src/nes/K6502_rw.h **** 
 1406              		.loc 1 107 0
 1407 047a 9376F407 		andi	a3,s0,127
 1408 047e 2300D700 		sb	a3,%lo(PPU_R2)(a4)
 1409 0482 E1BE     		j	.L79
 1410              	.LVL102:
 1411              	.L169:
 1412              	.LBE153:
 1413              	.LBE232:
 1414              	.LBB233:
 1415              	.LBB176:
 104:../src/nes/K6502_rw.h **** 
 1416              		.loc 1 104 0
 1417 0484 B7070000 		lui	a5,%hi(PPU_R2)
 1418 0488 03C70700 		lbu	a4,%lo(PPU_R2)(a5)
 1419              	.LVL103:
 110:../src/nes/K6502_rw.h **** 
 1420              		.loc 1 110 0
 1421 048c B7060000 		lui	a3,%hi(PPU_Latch_Flag)
 1422 0490 23800600 		sb	zero,%lo(PPU_Latch_Flag)(a3)
 107:../src/nes/K6502_rw.h **** 
 1423              		.loc 1 107 0
 1424 0494 9376F707 		andi	a3,a4,127
 1425 0498 2207     		slli	a4,a4,8
 1426              	.LVL104:
 1427 049a 2380D700 		sb	a3,%lo(PPU_R2)(a5)
 1428              	.LVL105:
 1429 049e 93170701 		slli	a5,a4,16
 1430 04a2 C187     		srai	a5,a5,16
 1431 04a4 FDBE     		j	.L100
 1432              	.L167:
 1433              	.LBB162:
  82:../src/nes/K6502_rw.h **** 
 1434              		.loc 1 82 0
 1435 04a6 37050000 		lui	a0,%hi(loopy_v)
 1436 04aa 83570500 		lhu	a5,%lo(loopy_v)(a0)
 1437              	.LVL106:
  91:../src/nes/K6502_rw.h **** 
 1438              		.loc 1 91 0
 1439 04ae B7060000 		lui	a3,%hi(PPUBANK)
 1440 04b2 93860600 		addi	a3,a3,%lo(PPUBANK)
 1441 04b6 13D78700 		srli	a4,a5,8
 1442 04ba 1377C703 		andi	a4,a4,60
  88:../src/nes/K6502_rw.h **** 
 1443              		.loc 1 88 0
 1444 04be 37060000 		lui	a2,%hi(PPU_Increment)
  91:../src/nes/K6502_rw.h **** 
 1445              		.loc 1 91 0
 1446 04c2 3697     		add	a4,a4,a3
  88:../src/nes/K6502_rw.h **** 
 1447              		.loc 1 88 0
 1448 04c4 03560600 		lhu	a2,%lo(PPU_Increment)(a2)
  91:../src/nes/K6502_rw.h **** 
 1449              		.loc 1 91 0
 1450 04c8 1443     		lw	a3,0(a4)
  85:../src/nes/K6502_rw.h **** 
 1451              		.loc 1 85 0
 1452 04ca B7050000 		lui	a1,%hi(PPU_R7)
  88:../src/nes/K6502_rw.h **** 
 1453              		.loc 1 88 0
 1454 04ce 3E96     		add	a2,a5,a2
  85:../src/nes/K6502_rw.h **** 
 1455              		.loc 1 85 0
 1456 04d0 03C70500 		lbu	a4,%lo(PPU_R7)(a1)
 1457              	.LVL107:
  91:../src/nes/K6502_rw.h **** 
 1458              		.loc 1 91 0
 1459 04d4 93F7F73F 		andi	a5,a5,1023
 1460              	.LVL108:
 1461 04d8 B697     		add	a5,a3,a5
  88:../src/nes/K6502_rw.h **** 
 1462              		.loc 1 88 0
 1463 04da 2310C500 		sh	a2,%lo(loopy_v)(a0)
 1464              	.LVL109:
  91:../src/nes/K6502_rw.h **** 
 1465              		.loc 1 91 0
 1466 04de 83C60700 		lbu	a3,0(a5)
 1467 04e2 2207     		slli	a4,a4,8
 1468              	.LVL110:
 1469 04e4 93170701 		slli	a5,a4,16
 1470 04e8 C187     		srai	a5,a5,16
 1471 04ea 2380D500 		sb	a3,%lo(PPU_R7)(a1)
 1472              	.LVL111:
 1473 04ee 55BE     		j	.L100
 1474              	.L162:
 1475              	.LBE162:
 1476              	.LBE176:
 1477              	.LBE233:
 1478              	.LBB234:
 1479              	.LBB199:
 1480              	.LBB184:
  82:../src/nes/K6502_rw.h **** 
 1481              		.loc 1 82 0
 1482 04f0 B7050000 		lui	a1,%hi(loopy_v)
 1483 04f4 83D70500 		lhu	a5,%lo(loopy_v)(a1)
 1484              	.LVL112:
  91:../src/nes/K6502_rw.h **** 
 1485              		.loc 1 91 0
 1486 04f8 37060000 		lui	a2,%hi(PPUBANK)
  88:../src/nes/K6502_rw.h **** 
 1487              		.loc 1 88 0
 1488 04fc B7060000 		lui	a3,%hi(PPU_Increment)
  91:../src/nes/K6502_rw.h **** 
 1489              		.loc 1 91 0
 1490 0500 13D78700 		srli	a4,a5,8
 1491 0504 1377C703 		andi	a4,a4,60
 1492 0508 13060600 		addi	a2,a2,%lo(PPUBANK)
  88:../src/nes/K6502_rw.h **** 
 1493              		.loc 1 88 0
 1494 050c 83D60600 		lhu	a3,%lo(PPU_Increment)(a3)
  91:../src/nes/K6502_rw.h **** 
 1495              		.loc 1 91 0
 1496 0510 3297     		add	a4,a4,a2
 1497 0512 1843     		lw	a4,0(a4)
  88:../src/nes/K6502_rw.h **** 
 1498              		.loc 1 88 0
 1499 0514 BE96     		add	a3,a5,a3
  91:../src/nes/K6502_rw.h **** 
 1500              		.loc 1 91 0
 1501 0516 93F7F73F 		andi	a5,a5,1023
 1502              	.LVL113:
 1503 051a BA97     		add	a5,a4,a5
  88:../src/nes/K6502_rw.h **** 
 1504              		.loc 1 88 0
 1505 051c 2390D500 		sh	a3,%lo(loopy_v)(a1)
 1506              	.LVL114:
  91:../src/nes/K6502_rw.h **** 
 1507              		.loc 1 91 0
 1508 0520 03C70700 		lbu	a4,0(a5)
  85:../src/nes/K6502_rw.h **** 
 1509              		.loc 1 85 0
 1510 0524 B7070000 		lui	a5,%hi(PPU_R7)
 1511 0528 03C50700 		lbu	a0,%lo(PPU_R7)(a5)
 1512              	.LVL115:
  91:../src/nes/K6502_rw.h **** 
 1513              		.loc 1 91 0
 1514 052c 2380E700 		sb	a4,%lo(PPU_R7)(a5)
 1515 0530 D9BE     		j	.L141
 1516              	.LVL116:
 1517              	.L157:
 1518              	.LBE184:
 1519              	.LBE199:
 1520              	.LBE234:
 1521              	.LBB235:
 1522              	.LBB154:
 1523              	.LBB140:
  82:../src/nes/K6502_rw.h **** 
 1524              		.loc 1 82 0
 1525 0532 37050000 		lui	a0,%hi(loopy_v)
 1526              	.LVL117:
 1527 0536 83570500 		lhu	a5,%lo(loopy_v)(a0)
 1528              	.LVL118:
  91:../src/nes/K6502_rw.h **** 
 1529              		.loc 1 91 0
 1530 053a B7050000 		lui	a1,%hi(PPUBANK)
  88:../src/nes/K6502_rw.h **** 
 1531              		.loc 1 88 0
 1532 053e B7060000 		lui	a3,%hi(PPU_Increment)
  91:../src/nes/K6502_rw.h **** 
 1533              		.loc 1 91 0
 1534 0542 13D78700 		srli	a4,a5,8
 1535 0546 1377C703 		andi	a4,a4,60
 1536 054a 93850500 		addi	a1,a1,%lo(PPUBANK)
  88:../src/nes/K6502_rw.h **** 
 1537              		.loc 1 88 0
 1538 054e 83D60600 		lhu	a3,%lo(PPU_Increment)(a3)
  91:../src/nes/K6502_rw.h **** 
 1539              		.loc 1 91 0
 1540 0552 2E97     		add	a4,a4,a1
 1541 0554 1843     		lw	a4,0(a4)
  88:../src/nes/K6502_rw.h **** 
 1542              		.loc 1 88 0
 1543 0556 BE96     		add	a3,a5,a3
  91:../src/nes/K6502_rw.h **** 
 1544              		.loc 1 91 0
 1545 0558 93F7F73F 		andi	a5,a5,1023
 1546              	.LVL119:
 1547 055c BA97     		add	a5,a4,a5
  88:../src/nes/K6502_rw.h **** 
 1548              		.loc 1 88 0
 1549 055e 2310D500 		sh	a3,%lo(loopy_v)(a0)
 1550              	.LVL120:
  91:../src/nes/K6502_rw.h **** 
 1551              		.loc 1 91 0
 1552 0562 83C60700 		lbu	a3,0(a5)
  85:../src/nes/K6502_rw.h **** 
 1553              		.loc 1 85 0
 1554 0566 37070000 		lui	a4,%hi(PPU_R7)
 1555 056a 03440700 		lbu	s0,%lo(PPU_R7)(a4)
 1556              	.LVL121:
  91:../src/nes/K6502_rw.h **** 
 1557              		.loc 1 91 0
 1558 056e 2300D700 		sb	a3,%lo(PPU_R7)(a4)
 1559 0572 E5B4     		j	.L79
 1560              	.LVL122:
 1561              	.L130:
 1562              	.LBE140:
 135:../src/nes/K6502_rw.h ****       {
 1563              		.loc 1 135 0
 1564 0574 0144     		li	s0,0
 1565 0576 45BB     		j	.L83
 1566              	.LVL123:
 1567              	.L138:
 1568              	.LBE154:
 1569              	.LBE235:
 1570              	.LBB236:
 1571              	.LBB200:
 154:../src/nes/K6502_rw.h ****       }
 1572              		.loc 1 154 0
 1573 0578 0145     		li	a0,0
 1574              	.LVL124:
 1575              	.LBE200:
 1576              	.LBE236:
 1577              		.loc 2 1104 0
 1578 057a 71B6     		j	.L141
 1579              	.LVL125:
 1580              	.L158:
 1581              	.LBB237:
 1582              	.LBB155:
  98:../src/nes/K6502_rw.h ****       }
 1583              		.loc 1 98 0
 1584 057c B7060000 		lui	a3,%hi(PPU_R3)
 1585 0580 83C70600 		lbu	a5,%lo(PPU_R3)(a3)
 1586 0584 37070000 		lui	a4,%hi(SPRRAM)
 1587 0588 13070700 		addi	a4,a4,%lo(SPRRAM)
 1588 058c 93851700 		addi	a1,a5,1
 1589 0590 BA97     		add	a5,a5,a4
 1590 0592 2380B600 		sb	a1,%lo(PPU_R3)(a3)
 1591 0596 03C40700 		lbu	s0,0(a5)
 1592 059a C1B4     		j	.L79
 1593              	.LVL126:
 1594              	.L168:
 1595              	.LBE155:
 1596              	.LBE237:
 1597              	.LBB238:
 1598              	.LBB177:
 1599 059c 37060000 		lui	a2,%hi(PPU_R3)
 1600 05a0 83460600 		lbu	a3,%lo(PPU_R3)(a2)
 1601 05a4 B7070000 		lui	a5,%hi(SPRRAM)
 1602 05a8 93870700 		addi	a5,a5,%lo(SPRRAM)
 1603 05ac B697     		add	a5,a3,a5
 1604 05ae 03870700 		lb	a4,0(a5)
 1605 05b2 8506     		addi	a3,a3,1
 1606 05b4 2300D600 		sb	a3,%lo(PPU_R3)(a2)
 1607 05b8 93178700 		slli	a5,a4,8
 1608 05bc DDB4     		j	.L100
 1609              	.L163:
 1610              	.LBE177:
 1611              	.LBE238:
 1612              	.LBB239:
 1613              	.LBB201:
 1614 05be B7060000 		lui	a3,%hi(PPU_R3)
 1615 05c2 83C70600 		lbu	a5,%lo(PPU_R3)(a3)
 1616 05c6 37070000 		lui	a4,%hi(SPRRAM)
 1617 05ca 13070700 		addi	a4,a4,%lo(SPRRAM)
 1618 05ce 13861700 		addi	a2,a5,1
 1619 05d2 BA97     		add	a5,a5,a4
 1620 05d4 2380C600 		sb	a2,%lo(PPU_R3)(a3)
 1621 05d8 03C50700 		lbu	a0,0(a5)
 1622 05dc 2DB6     		j	.L141
 1623              	.LVL127:
 1624              	.L137:
 132:../src/nes/K6502_rw.h ****       }
 1625              		.loc 1 132 0
 1626 05de 5145     		li	a0,20
 1627              	.LVL128:
 1628 05e0 1DB6     		j	.L141
 1629              	.LVL129:
 1630              	.L129:
 1631              	.LBE201:
 1632              	.LBE239:
 1633              	.LBB240:
 1634              	.LBB156:
 130:../src/nes/K6502_rw.h ****       {
 1635              		.loc 1 130 0
 1636 05e2 5144     		li	s0,20
 1637 05e4 89B3     		j	.L83
 1638              	.LVL130:
 1639              	.L133:
 1640              	.LBE156:
 1641              	.LBE240:
 1642              	.LBB241:
 1643              	.LBB178:
 1644 05e6 0567     		li	a4,4096
 1645 05e8 93070740 		addi	a5,a4,1024
 1646 05ec 5DBC     		j	.L100
 1647              	.LVL131:
 1648              	.L161:
 1649              	.LBE178:
 1650              	.LBE241:
 1651              	.LBB242:
 1652              	.LBB202:
 1653              	.LBB185:
 1654              	.LBB186:
 168:../src/nes/K6502_rw.h ****         PAD2_Bit = ( PAD2_Bit == 23 ) ? 0 : ( PAD2_Bit + 1 );
 1655              		.loc 1 168 0
 1656 05ee 37070000 		lui	a4,%hi(PAD2_Latch)
 1657 05f2 B7050000 		lui	a1,%hi(PAD2_Bit)
 1658 05f6 03250700 		lw	a0,%lo(PAD2_Latch)(a4)
 1659              	.LVL132:
 1660 05fa 83A70500 		lw	a5,%lo(PAD2_Bit)(a1)
 169:../src/nes/K6502_rw.h ****         return byRet;
 1661              		.loc 1 169 0
 1662 05fe DD46     		li	a3,23
 1663 0600 0147     		li	a4,0
 168:../src/nes/K6502_rw.h ****         PAD2_Bit = ( PAD2_Bit == 23 ) ? 0 : ( PAD2_Bit + 1 );
 1664              		.loc 1 168 0
 1665 0602 3355F500 		srl	a0,a0,a5
 1666 0606 0589     		andi	a0,a0,1
 1667 0608 13650504 		ori	a0,a0,64
 1668              	.LVL133:
 169:../src/nes/K6502_rw.h ****         return byRet;
 1669              		.loc 1 169 0
 1670 060c 6384D700 		beq	a5,a3,.L127
 1671 0610 13871700 		addi	a4,a5,1
 1672              	.L127:
 1673 0614 23A0E500 		sw	a4,%lo(PAD2_Bit)(a1)
 1674              	.LVL134:
 1675 0618 FDB4     		j	.L141
 1676              	.LVL135:
 1677              	.L166:
 1678              	.LBE186:
 1679              	.LBE185:
 1680              	.LBE202:
 1681              	.LBE242:
 1682              	.LBB243:
 1683              	.LBB179:
 1684              	.LBB163:
 1685              	.LBB164:
 168:../src/nes/K6502_rw.h ****         PAD2_Bit = ( PAD2_Bit == 23 ) ? 0 : ( PAD2_Bit + 1 );
 1686              		.loc 1 168 0
 1687 061a B7050000 		lui	a1,%hi(PAD2_Bit)
 1688 061e 37070000 		lui	a4,%hi(PAD2_Latch)
 1689 0622 83A70500 		lw	a5,%lo(PAD2_Bit)(a1)
 1690 0626 03270700 		lw	a4,%lo(PAD2_Latch)(a4)
 169:../src/nes/K6502_rw.h ****         return byRet;
 1691              		.loc 1 169 0
 1692 062a 5D46     		li	a2,23
 1693              	.LVL136:
 1694 062c 8146     		li	a3,0
 168:../src/nes/K6502_rw.h ****         PAD2_Bit = ( PAD2_Bit == 23 ) ? 0 : ( PAD2_Bit + 1 );
 1695              		.loc 1 168 0
 1696 062e 3357F700 		srl	a4,a4,a5
 1697 0632 058B     		andi	a4,a4,1
 1698 0634 13670704 		ori	a4,a4,64
 1699 0638 6207     		slli	a4,a4,24
 1700 063a 6187     		srai	a4,a4,24
 1701              	.LVL137:
 169:../src/nes/K6502_rw.h ****         return byRet;
 1702              		.loc 1 169 0
 1703 063c 6384C700 		beq	a5,a2,.L107
 1704 0640 93861700 		addi	a3,a5,1
 1705              	.L107:
 1706 0644 23A0D500 		sw	a3,%lo(PAD2_Bit)(a1)
 1707              	.LVL138:
 1708 0648 93178700 		slli	a5,a4,8
 1709 064c 99BC     		j	.L100
 1710              	.LVL139:
 1711              	.L155:
 1712              	.LBE164:
 1713              	.LBE163:
 1714              	.LBE179:
 1715              	.LBE243:
 1716              	.LBB244:
 1717              	.LBB157:
 1718              	.LBB141:
 1719              	.LBB142:
 168:../src/nes/K6502_rw.h ****         PAD2_Bit = ( PAD2_Bit == 23 ) ? 0 : ( PAD2_Bit + 1 );
 1720              		.loc 1 168 0
 1721 064e B7050000 		lui	a1,%hi(PAD2_Bit)
 1722 0652 B7070000 		lui	a5,%hi(PAD2_Latch)
 1723 0656 03A70500 		lw	a4,%lo(PAD2_Bit)(a1)
 1724 065a 83A70700 		lw	a5,%lo(PAD2_Latch)(a5)
 169:../src/nes/K6502_rw.h ****         return byRet;
 1725              		.loc 1 169 0
 1726 065e 5D48     		li	a6,23
 1727 0660 0145     		li	a0,0
 168:../src/nes/K6502_rw.h ****         PAD2_Bit = ( PAD2_Bit == 23 ) ? 0 : ( PAD2_Bit + 1 );
 1728              		.loc 1 168 0
 1729 0662 B3D7E700 		srl	a5,a5,a4
 1730 0666 858B     		andi	a5,a5,1
 1731 0668 93E70704 		ori	a5,a5,64
 1732 066c E207     		slli	a5,a5,24
 1733 066e E187     		srai	a5,a5,24
 1734              	.LVL140:
 169:../src/nes/K6502_rw.h ****         return byRet;
 1735              		.loc 1 169 0
 1736 0670 63040701 		beq	a4,a6,.L87
 1737 0674 13051700 		addi	a0,a4,1
 1738              	.L87:
 1739 0678 13940701 		slli	s0,a5,16
 1740 067c 23A0A500 		sw	a0,%lo(PAD2_Bit)(a1)
 1741              	.LVL141:
 1742 0680 4184     		srai	s0,s0,16
 1743 0682 55B1     		j	.L83
 1744              	.LBE142:
 1745              	.LBE141:
 1746              	.LBE157:
 1747              	.LBE244:
 1748              		.cfi_endproc
 1749              	.LFE4:
 1751              		.section	.text.K6502_ReadAbsY,"ax",@progbits
 1752              		.align	1
 1754              	K6502_ReadAbsY:
 1755              	.LFB5:
1105:../src/nes/K6502.c **** // Absolute,Y
1106:../src/nes/K6502.c **** static inline BYTE K6502_ReadAbsY(){ WORD wA0, wA1; wA0 = AA_ABS; wA1 = wA0 + Y; CLK( ( wA0 & 0x010
 1756              		.loc 2 1106 0
 1757              		.cfi_startproc
 1758 0000 4111     		addi	sp,sp,-16
 1759              		.cfi_def_cfa_offset 16
 1760 0002 B7070000 		lui	a5,%hi(.LANCHOR0)
 1761 0006 26C2     		sw	s1,4(sp)
 1762              		.cfi_offset 9, -12
 1763 0008 93840700 		addi	s1,a5,%lo(.LANCHOR0)
 1764 000c 83D60400 		lhu	a3,0(s1)
 1765              	.LBB263:
 1766              	.LBB264:
  74:../src/nes/K6502_rw.h ****   {
 1767              		.loc 1 74 0
 1768 0010 7977     		li	a4,-8192
 1769              	.LBE264:
 1770              	.LBE263:
 1771              		.loc 2 1106 0
 1772 0012 06C6     		sw	ra,12(sp)
 1773 0014 13851600 		addi	a0,a3,1
 1774 0018 13160501 		slli	a2,a0,16
 1775 001c 4182     		srli	a2,a2,16
 1776 001e 22C4     		sw	s0,8(sp)
 1777              		.cfi_offset 1, -4
 1778              		.cfi_offset 8, -8
 1779              	.LBB283:
 1780              	.LBB268:
  74:../src/nes/K6502_rw.h ****   {
 1781              		.loc 1 74 0
 1782 0020 9965     		li	a1,24576
 1783              	.LBE268:
 1784              	.LBE283:
 1785              		.loc 2 1106 0
 1786 0022 2390C400 		sh	a2,0(s1)
 1787              	.LVL142:
 1788              	.LBB284:
 1789              	.LBB269:
  74:../src/nes/K6502_rw.h ****   {
 1790              		.loc 1 74 0
 1791 0026 758F     		and	a4,a3,a4
 1792 0028 6307B724 		beq	a4,a1,.L172
 1793 002c 63F2E50E 		bleu	a4,a1,.L249
 1794 0030 A967     		li	a5,40960
 1795 0032 630DF722 		beq	a4,a5,.L177
 1796 0036 63F2E71E 		bleu	a4,a5,.L250
 1797 003a B167     		li	a5,49152
 1798 003c 630AF714 		beq	a4,a5,.L180
 1799 0040 B967     		li	a5,57344
 1800 0042 631EF70C 		bne	a4,a5,.L171
 198:../src/nes/K6502_rw.h ****   }
 1801              		.loc 1 198 0
 1802 0046 B7070000 		lui	a5,%hi(ROMBANK3)
 1803 004a 83A70700 		lw	a5,%lo(ROMBANK3)(a5)
 1804              	.L246:
 192:../src/nes/K6502_rw.h **** 
 1805              		.loc 1 192 0
 1806 004e 0965     		li	a0,8192
 1807 0050 7D15     		addi	a0,a0,-1
 1808 0052 E98E     		and	a3,a3,a0
 1809              	.LVL143:
 1810 0054 BE96     		add	a3,a5,a3
 1811 0056 03C40600 		lbu	s0,0(a3)
 1812              	.L182:
 1813              	.LBE269:
 1814              	.LBE284:
 1815              		.loc 2 1106 0
 1816 005a 13071600 		addi	a4,a2,1
 1817 005e 2390E400 		sh	a4,0(s1)
 1818              	.LBB285:
 1819              	.LBB286:
  74:../src/nes/K6502_rw.h ****   {
 1820              		.loc 1 74 0
 1821 0062 7977     		li	a4,-8192
 1822              	.LBE286:
 1823              	.LBE285:
 1824              		.loc 2 1106 0
 1825 0064 4204     		slli	s0,s0,16
 1826              	.LBB305:
 1827              	.LBB290:
  74:../src/nes/K6502_rw.h ****   {
 1828              		.loc 1 74 0
 1829 0066 718F     		and	a4,a2,a4
 1830 0068 9965     		li	a1,24576
 1831              	.LBE290:
 1832              	.LBE305:
 1833              		.loc 2 1106 0
 1834 006a 4184     		srai	s0,s0,16
 1835              	.LVL144:
 1836              	.LBB306:
 1837              	.LBB291:
  74:../src/nes/K6502_rw.h ****   {
 1838              		.loc 1 74 0
 1839 006c 6306B70C 		beq	a4,a1,.L193
 1840              	.L256:
 1841 0070 63FAE516 		bleu	a4,a1,.L251
 1842 0074 A967     		li	a5,40960
 1843 0076 6302F71C 		beq	a4,a5,.L198
 1844 007a 63F8E718 		bleu	a4,a5,.L252
 1845 007e B167     		li	a5,49152
 1846 0080 6309F732 		beq	a4,a5,.L201
 1847 0084 B967     		li	a5,57344
 1848 0086 6319F720 		bne	a4,a5,.L192
 198:../src/nes/K6502_rw.h ****   }
 1849              		.loc 1 198 0
 1850 008a B7070000 		lui	a5,%hi(ROMBANK3)
 1851 008e 83A70700 		lw	a5,%lo(ROMBANK3)(a5)
 1852              	.L247:
 1853 0092 0965     		li	a0,8192
 1854 0094 7D15     		addi	a0,a0,-1
 1855 0096 718D     		and	a0,a2,a0
 1856 0098 3E95     		add	a0,a5,a0
 1857 009a 03050500 		lb	a0,0(a0)
 1858 009e 93178500 		slli	a5,a0,8
 1859              	.L203:
 1860              	.LBE291:
 1861              	.LBE306:
 1862              		.loc 2 1106 0
 1863 00a2 37070000 		lui	a4,%hi(.LANCHOR3)
 1864 00a6 03450700 		lbu	a0,%lo(.LANCHOR3)(a4)
 1865 00aa C18F     		or	a5,s0,a5
 1866 00ac C207     		slli	a5,a5,16
 1867 00ae C183     		srli	a5,a5,16
 1868              	.LVL145:
 1869 00b0 3E95     		add	a0,a5,a0
 1870 00b2 4205     		slli	a0,a0,16
 1871 00b4 37070000 		lui	a4,%hi(.LANCHOR2)
 1872 00b8 13070700 		addi	a4,a4,%lo(.LANCHOR2)
 1873 00bc 4181     		srli	a0,a0,16
 1874              	.LVL146:
 1875 00be 83560700 		lhu	a3,0(a4)
 1876 00c2 A98F     		xor	a5,a5,a0
 1877              	.LVL147:
 1878 00c4 A183     		srli	a5,a5,8
 1879 00c6 858B     		andi	a5,a5,1
 1880 00c8 B697     		add	a5,a5,a3
 1881 00ca 2310F700 		sh	a5,0(a4)
 1882              	.LVL148:
 1883              	.LBB307:
 1884              	.LBB308:
  74:../src/nes/K6502_rw.h ****   {
 1885              		.loc 1 74 0
 1886 00ce F977     		li	a5,-8192
 1887 00d0 E98F     		and	a5,a0,a5
 1888 00d2 1967     		li	a4,24576
 1889 00d4 638AE72A 		beq	a5,a4,.L213
 1890 00d8 637BF70C 		bleu	a5,a4,.L253
 1891 00dc 2967     		li	a4,40960
 1892 00de 6382E718 		beq	a5,a4,.L218
 1893 00e2 6374F714 		bleu	a5,a4,.L254
 1894 00e6 3167     		li	a4,49152
 1895 00e8 6380E72C 		beq	a5,a4,.L221
 1896 00ec 3967     		li	a4,57344
 1897 00ee 6397E70C 		bne	a5,a4,.L212
 198:../src/nes/K6502_rw.h ****   }
 1898              		.loc 1 198 0
 1899 00f2 B7070000 		lui	a5,%hi(ROMBANK3)
 1900 00f6 03A70700 		lw	a4,%lo(ROMBANK3)(a5)
 1901              	.L248:
 192:../src/nes/K6502_rw.h **** 
 1902              		.loc 1 192 0
 1903 00fa 8967     		li	a5,8192
 1904 00fc FD17     		addi	a5,a5,-1
 1905 00fe 7D8D     		and	a0,a0,a5
 1906              	.LVL149:
 1907 0100 3A95     		add	a0,a4,a0
 1908 0102 03450500 		lbu	a0,0(a0)
 1909              	.L244:
 1910              	.LBE308:
 1911              	.LBE307:
 1912              		.loc 2 1106 0
 1913 0106 B240     		lw	ra,12(sp)
 1914              		.cfi_remember_state
 1915              		.cfi_restore 1
 1916 0108 2244     		lw	s0,8(sp)
 1917              		.cfi_restore 8
 1918 010a 9244     		lw	s1,4(sp)
 1919              		.cfi_restore 9
 1920 010c 4101     		addi	sp,sp,16
 1921              		.cfi_def_cfa_offset 0
 1922 010e 8280     		jr	ra
 1923              	.LVL150:
 1924              	.L249:
 1925              		.cfi_restore_state
 1926              	.LBB328:
 1927              	.LBB270:
  74:../src/nes/K6502_rw.h ****   {
 1928              		.loc 1 74 0
 1929 0110 8967     		li	a5,8192
 1930 0112 6309F712 		beq	a4,a5,.L174
 1931 0116 9167     		li	a5,16384
 1932 0118 6303F704 		beq	a4,a5,.L175
 1933 011c 3DCF     		beqz	a4,.L255
 1934              	.L171:
 1935              	.LBE270:
 1936              	.LBE328:
 1937              		.loc 2 1106 0
 1938 011e 13071600 		addi	a4,a2,1
 1939              	.LBB329:
 1940              	.LBB271:
 201:../src/nes/K6502_rw.h ****                             address is returned. */
 1941              		.loc 1 201 0
 1942 0122 13D48600 		srli	s0,a3,8
 1943              	.LVL151:
 1944              	.LBE271:
 1945              	.LBE329:
 1946              		.loc 2 1106 0
 1947 0126 2390E400 		sh	a4,0(s1)
 1948              	.LBB330:
 1949              	.LBB292:
  74:../src/nes/K6502_rw.h ****   {
 1950              		.loc 1 74 0
 1951 012a 7977     		li	a4,-8192
 1952              	.LBE292:
 1953              	.LBE330:
 1954              		.loc 2 1106 0
 1955 012c 4204     		slli	s0,s0,16
 1956              	.LBB331:
 1957              	.LBB293:
  74:../src/nes/K6502_rw.h ****   {
 1958              		.loc 1 74 0
 1959 012e 718F     		and	a4,a2,a4
 1960 0130 9965     		li	a1,24576
 1961              	.LBE293:
 1962              	.LBE331:
 1963              		.loc 2 1106 0
 1964 0132 4184     		srai	s0,s0,16
 1965              	.LBB332:
 1966              	.LBB294:
  74:../src/nes/K6502_rw.h ****   {
 1967              		.loc 1 74 0
 1968 0134 E31EB7F2 		bne	a4,a1,.L256
 1969              	.L193:
 181:../src/nes/K6502_rw.h ****       {
 1970              		.loc 1 181 0
 1971 0138 B7070000 		lui	a5,%hi(ROM_SRAM)
 1972 013c 83C70700 		lbu	a5,%lo(ROM_SRAM)(a5)
 1973 0140 0965     		li	a0,8192
 1974 0142 7D15     		addi	a0,a0,-1
 1975 0144 718D     		and	a0,a2,a0
 1976 0146 63830728 		beqz	a5,.L211
 183:../src/nes/K6502_rw.h ****       } else {    /* SRAM BANK */
 1977              		.loc 1 183 0
 1978 014a 37060000 		lui	a2,%hi(SRAM)
 1979 014e 13060600 		addi	a2,a2,%lo(SRAM)
 1980 0152 3295     		add	a0,a0,a2
 1981 0154 03050500 		lb	a0,0(a0)
 1982 0158 93178500 		slli	a5,a0,8
 1983 015c 99B7     		j	.L203
 1984              	.LVL152:
 1985              	.L175:
 1986              	.LBE294:
 1987              	.LBE332:
 1988              	.LBB333:
 1989              	.LBB272:
 130:../src/nes/K6502_rw.h ****       {
 1990              		.loc 1 130 0
 1991 015e 93074701 		addi	a5,a4,20
 1992 0162 6380F648 		beq	a3,a5,.L232
 135:../src/nes/K6502_rw.h ****       {
 1993              		.loc 1 135 0
 1994 0166 93075701 		addi	a5,a4,21
 1995 016a 6385F640 		beq	a3,a5,.L233
 157:../src/nes/K6502_rw.h ****       {
 1996              		.loc 1 157 0
 1997 016e 93076701 		addi	a5,a4,22
 1998 0172 6380F618 		beq	a3,a5,.L257
 165:../src/nes/K6502_rw.h ****       {
 1999              		.loc 1 165 0
 2000 0176 5D07     		addi	a4,a4,23
 2001 0178 638BE64C 		beq	a3,a4,.L258
 175:../src/nes/K6502_rw.h ****       }
 2002              		.loc 1 175 0
 2003 017c B7070000 		lui	a5,%hi(MapperReadApu)
 2004 0180 83A70700 		lw	a5,%lo(MapperReadApu)(a5)
 2005 0184 3685     		mv	a0,a3
 2006 0186 8297     		jalr	a5
 2007              	.LVL153:
 2008 0188 2A84     		mv	s0,a0
 2009 018a 03D60400 		lhu	a2,0(s1)
 2010 018e F1B5     		j	.L182
 2011              	.LVL154:
 2012              	.L180:
 195:../src/nes/K6502_rw.h **** 
 2013              		.loc 1 195 0
 2014 0190 B7070000 		lui	a5,%hi(ROMBANK2)
 2015 0194 83A70700 		lw	a5,%lo(ROMBANK2)(a5)
 2016 0198 5DBD     		j	.L246
 2017              	.L255:
  77:../src/nes/K6502_rw.h **** 
 2018              		.loc 1 77 0
 2019 019a 37050000 		lui	a0,%hi(RAM)
 2020 019e 93F6F67F 		andi	a3,a3,2047
 2021              	.LVL155:
 2022 01a2 13050500 		addi	a0,a0,%lo(RAM)
 2023 01a6 AA96     		add	a3,a3,a0
 2024 01a8 03C40600 		lbu	s0,0(a3)
 2025 01ac 7DB5     		j	.L182
 2026              	.LVL156:
 2027              	.L253:
 2028              	.LBE272:
 2029              	.LBE333:
 2030              	.LBB334:
 2031              	.LBB312:
  74:../src/nes/K6502_rw.h ****   {
 2032              		.loc 1 74 0
 2033 01ae 0967     		li	a4,8192
 2034 01b0 6382E712 		beq	a5,a4,.L215
 2035 01b4 1167     		li	a4,16384
 2036 01b6 6387E70E 		beq	a5,a4,.L216
 2037 01ba 99C7     		beqz	a5,.L259
 2038              	.L212:
 2039              	.LBE312:
 2040              	.LBE334:
 2041              		.loc 2 1106 0
 2042 01bc B240     		lw	ra,12(sp)
 2043              		.cfi_remember_state
 2044              		.cfi_restore 1
 2045 01be 2244     		lw	s0,8(sp)
 2046              		.cfi_restore 8
 2047 01c0 9244     		lw	s1,4(sp)
 2048              		.cfi_restore 9
 2049              	.LBB335:
 2050              	.LBB313:
 201:../src/nes/K6502_rw.h ****                             address is returned. */
 2051              		.loc 1 201 0
 2052 01c2 2181     		srli	a0,a0,8
 2053              	.LVL157:
 2054              	.LBE313:
 2055              	.LBE335:
 2056              		.loc 2 1106 0
 2057 01c4 4101     		addi	sp,sp,16
 2058              		.cfi_def_cfa_offset 0
 2059 01c6 8280     		jr	ra
 2060              	.LVL158:
 2061              	.L259:
 2062              		.cfi_restore_state
 2063 01c8 B240     		lw	ra,12(sp)
 2064              		.cfi_remember_state
 2065              		.cfi_restore 1
 2066 01ca 2244     		lw	s0,8(sp)
 2067              		.cfi_restore 8
 2068              	.LBB336:
 2069              	.LBB314:
  77:../src/nes/K6502_rw.h **** 
 2070              		.loc 1 77 0
 2071 01cc B7070000 		lui	a5,%hi(RAM)
 2072 01d0 1375F57F 		andi	a0,a0,2047
 2073              	.LVL159:
 2074 01d4 93870700 		addi	a5,a5,%lo(RAM)
 2075 01d8 3E95     		add	a0,a0,a5
 2076 01da 03450500 		lbu	a0,0(a0)
 2077              	.LBE314:
 2078              	.LBE336:
 2079              		.loc 2 1106 0
 2080 01de 9244     		lw	s1,4(sp)
 2081              		.cfi_restore 9
 2082 01e0 4101     		addi	sp,sp,16
 2083              		.cfi_def_cfa_offset 0
 2084 01e2 8280     		jr	ra
 2085              	.L251:
 2086              		.cfi_restore_state
 2087              	.LBB337:
 2088              	.LBB295:
  74:../src/nes/K6502_rw.h ****   {
 2089              		.loc 1 74 0
 2090 01e4 8967     		li	a5,8192
 2091 01e6 630FF716 		beq	a4,a5,.L195
 2092 01ea 9167     		li	a5,16384
 2093 01ec 6300F714 		beq	a4,a5,.L196
 2094 01f0 45E7     		bnez	a4,.L192
  77:../src/nes/K6502_rw.h **** 
 2095              		.loc 1 77 0
 2096 01f2 1375F67F 		andi	a0,a2,2047
 2097 01f6 37060000 		lui	a2,%hi(RAM)
 2098 01fa 13060600 		addi	a2,a2,%lo(RAM)
 2099 01fe 3295     		add	a0,a0,a2
 2100 0200 03050500 		lb	a0,0(a0)
 2101 0204 93178500 		slli	a5,a0,8
 2102 0208 69BD     		j	.L203
 2103              	.L252:
  74:../src/nes/K6502_rw.h ****   {
 2104              		.loc 1 74 0
 2105 020a A167     		li	a5,32768
 2106 020c 6316F708 		bne	a4,a5,.L192
 189:../src/nes/K6502_rw.h **** 
 2107              		.loc 1 189 0
 2108 0210 B7070000 		lui	a5,%hi(ROMBANK0)
 2109 0214 83A70700 		lw	a5,%lo(ROMBANK0)(a5)
 2110 0218 ADBD     		j	.L247
 2111              	.LVL160:
 2112              	.L250:
 2113              	.LBE295:
 2114              	.LBE337:
 2115              	.LBB338:
 2116              	.LBB273:
  74:../src/nes/K6502_rw.h ****   {
 2117              		.loc 1 74 0
 2118 021a A167     		li	a5,32768
 2119 021c E311F7F0 		bne	a4,a5,.L171
 189:../src/nes/K6502_rw.h **** 
 2120              		.loc 1 189 0
 2121 0220 B7070000 		lui	a5,%hi(ROMBANK0)
 2122 0224 83A70700 		lw	a5,%lo(ROMBANK0)(a5)
 2123 0228 1DB5     		j	.L246
 2124              	.LVL161:
 2125              	.L254:
 2126              	.LBE273:
 2127              	.LBE338:
 2128              	.LBB339:
 2129              	.LBB315:
  74:../src/nes/K6502_rw.h ****   {
 2130              		.loc 1 74 0
 2131 022a 2167     		li	a4,32768
 2132 022c E398E7F8 		bne	a5,a4,.L212
 189:../src/nes/K6502_rw.h **** 
 2133              		.loc 1 189 0
 2134 0230 B7070000 		lui	a5,%hi(ROMBANK0)
 2135 0234 03A70700 		lw	a4,%lo(ROMBANK0)(a5)
 2136 0238 C9B5     		j	.L248
 2137              	.LVL162:
 2138              	.L198:
 2139              	.LBE315:
 2140              	.LBE339:
 2141              	.LBB340:
 2142              	.LBB296:
 192:../src/nes/K6502_rw.h **** 
 2143              		.loc 1 192 0
 2144 023a B7070000 		lui	a5,%hi(ROMBANK1)
 2145 023e 83A70700 		lw	a5,%lo(ROMBANK1)(a5)
 2146 0242 81BD     		j	.L247
 2147              	.LVL163:
 2148              	.L174:
 2149 0244 9D8A     		andi	a3,a3,7
 2150              	.LVL164:
 2151              	.LBE296:
 2152              	.LBE340:
 2153              	.LBB341:
 2154              	.LBB274:
  80:../src/nes/K6502_rw.h ****       {
 2155              		.loc 1 80 0
 2156 0246 9D47     		li	a5,7
 2157 0248 6385F62E 		beq	a3,a5,.L260
  96:../src/nes/K6502_rw.h ****       {
 2158              		.loc 1 96 0
 2159 024c 9147     		li	a5,4
 2160 024e 6387F632 		beq	a3,a5,.L261
 101:../src/nes/K6502_rw.h ****       {
 2161              		.loc 1 101 0
 2162 0252 8947     		li	a5,2
 2163 0254 638BF620 		beq	a3,a5,.L262
 125:../src/nes/K6502_rw.h ****       }
 2164              		.loc 1 125 0
 2165 0258 B7070000 		lui	a5,%hi(PPU_R7)
 2166 025c 03C40700 		lbu	s0,%lo(PPU_R7)(a5)
 2167 0260 EDBB     		j	.L182
 2168              	.LVL165:
 2169              	.L218:
 2170              	.LBE274:
 2171              	.LBE341:
 2172              	.LBB342:
 2173              	.LBB316:
 192:../src/nes/K6502_rw.h **** 
 2174              		.loc 1 192 0
 2175 0262 B7070000 		lui	a5,%hi(ROMBANK1)
 2176 0266 03A70700 		lw	a4,%lo(ROMBANK1)(a5)
 2177 026a 41BD     		j	.L248
 2178              	.LVL166:
 2179              	.L177:
 2180              	.LBE316:
 2181              	.LBE342:
 2182              	.LBB343:
 2183              	.LBB275:
 2184 026c B7070000 		lui	a5,%hi(ROMBANK1)
 2185 0270 83A70700 		lw	a5,%lo(ROMBANK1)(a5)
 2186 0274 E9BB     		j	.L246
 2187              	.L172:
 181:../src/nes/K6502_rw.h ****       {
 2188              		.loc 1 181 0
 2189 0276 B7070000 		lui	a5,%hi(ROM_SRAM)
 2190 027a 83C70700 		lbu	a5,%lo(ROM_SRAM)(a5)
 2191 027e 0965     		li	a0,8192
 2192 0280 7D15     		addi	a0,a0,-1
 2193 0282 758D     		and	a0,a3,a0
 2194 0284 638C0712 		beqz	a5,.L191
 183:../src/nes/K6502_rw.h ****       } else {    /* SRAM BANK */
 2195              		.loc 1 183 0
 2196 0288 B7060000 		lui	a3,%hi(SRAM)
 2197              	.LVL167:
 2198 028c 93860600 		addi	a3,a3,%lo(SRAM)
 2199 0290 3695     		add	a0,a0,a3
 2200 0292 03440500 		lbu	s0,0(a0)
 2201 0296 D1B3     		j	.L182
 2202              	.L192:
 2203 0298 13150601 		slli	a0,a2,16
 2204 029c 4185     		srai	a0,a0,16
 2205 029e 937705F0 		andi	a5,a0,-256
 2206 02a2 01B5     		j	.L203
 2207              	.LVL168:
 2208              	.L216:
 2209              	.LBE275:
 2210              	.LBE343:
 2211              	.LBB344:
 2212              	.LBB317:
 130:../src/nes/K6502_rw.h ****       {
 2213              		.loc 1 130 0
 2214 02a4 13874701 		addi	a4,a5,20
 2215 02a8 630BE532 		beq	a0,a4,.L240
 135:../src/nes/K6502_rw.h ****       {
 2216              		.loc 1 135 0
 2217 02ac 13875701 		addi	a4,a5,21
 2218 02b0 6304E52C 		beq	a0,a4,.L241
 157:../src/nes/K6502_rw.h ****       {
 2219              		.loc 1 157 0
 2220 02b4 13876701 		addi	a4,a5,22
 2221 02b8 6306E516 		beq	a0,a4,.L263
 165:../src/nes/K6502_rw.h ****       {
 2222              		.loc 1 165 0
 2223 02bc DD07     		addi	a5,a5,23
 2224 02be 6308F532 		beq	a0,a5,.L264
 2225              	.LBE317:
 2226              	.LBE344:
 2227              		.loc 2 1106 0
 2228 02c2 2244     		lw	s0,8(sp)
 2229              		.cfi_remember_state
 2230              		.cfi_restore 8
 2231              	.LBB345:
 2232              	.LBB318:
 175:../src/nes/K6502_rw.h ****       }
 2233              		.loc 1 175 0
 2234 02c4 B7070000 		lui	a5,%hi(MapperReadApu)
 2235              	.LBE318:
 2236              	.LBE345:
 2237              		.loc 2 1106 0
 2238 02c8 B240     		lw	ra,12(sp)
 2239              		.cfi_restore 1
 2240 02ca 9244     		lw	s1,4(sp)
 2241              		.cfi_restore 9
 2242              	.LBB346:
 2243              	.LBB319:
 175:../src/nes/K6502_rw.h ****       }
 2244              		.loc 1 175 0
 2245 02cc 03A30700 		lw	t1,%lo(MapperReadApu)(a5)
 2246              	.LBE319:
 2247              	.LBE346:
 2248              		.loc 2 1106 0
 2249 02d0 4101     		addi	sp,sp,16
 2250              		.cfi_def_cfa_offset 0
 2251              	.LBB347:
 2252              	.LBB320:
 175:../src/nes/K6502_rw.h ****       }
 2253              		.loc 1 175 0
 2254 02d2 0283     		jr	t1
 2255              	.LVL169:
 2256              	.L215:
 2257              		.cfi_restore_state
 2258 02d4 1D89     		andi	a0,a0,7
 2259              	.LVL170:
  80:../src/nes/K6502_rw.h ****       {
 2260              		.loc 1 80 0
 2261 02d6 9D47     		li	a5,7
 2262 02d8 630CF520 		beq	a0,a5,.L265
  96:../src/nes/K6502_rw.h ****       {
 2263              		.loc 1 96 0
 2264 02dc 9147     		li	a5,4
 2265 02de 6300F52E 		beq	a0,a5,.L266
 101:../src/nes/K6502_rw.h ****       {
 2266              		.loc 1 101 0
 2267 02e2 8947     		li	a5,2
 2268 02e4 6306F516 		beq	a0,a5,.L267
 125:../src/nes/K6502_rw.h ****       }
 2269              		.loc 1 125 0
 2270 02e8 B7070000 		lui	a5,%hi(PPU_R7)
 2271 02ec 03C50700 		lbu	a0,%lo(PPU_R7)(a5)
 2272 02f0 19BD     		j	.L244
 2273              	.LVL171:
 2274              	.L257:
 2275              	.LBE320:
 2276              	.LBE347:
 2277              	.LBB348:
 2278              	.LBB276:
 160:../src/nes/K6502_rw.h ****         PAD1_Bit = ( PAD1_Bit == 23 ) ? 0 : ( PAD1_Bit + 1 );
 2279              		.loc 1 160 0
 2280 02f2 B7050000 		lui	a1,%hi(PAD1_Bit)
 2281 02f6 B7070000 		lui	a5,%hi(PAD1_Latch)
 2282 02fa 03A70500 		lw	a4,%lo(PAD1_Bit)(a1)
 2283 02fe 83A70700 		lw	a5,%lo(PAD1_Latch)(a5)
 161:../src/nes/K6502_rw.h ****         return byRet;
 2284              		.loc 1 161 0
 2285 0302 5D48     		li	a6,23
 2286 0304 0145     		li	a0,0
 160:../src/nes/K6502_rw.h ****         PAD1_Bit = ( PAD1_Bit == 23 ) ? 0 : ( PAD1_Bit + 1 );
 2287              		.loc 1 160 0
 2288 0306 B3D7E700 		srl	a5,a5,a4
 2289 030a 858B     		andi	a5,a5,1
 2290 030c 93E70704 		ori	a5,a5,64
 2291 0310 E207     		slli	a5,a5,24
 2292 0312 E187     		srai	a5,a5,24
 2293              	.LVL172:
 161:../src/nes/K6502_rw.h ****         return byRet;
 2294              		.loc 1 161 0
 2295 0314 63040701 		beq	a4,a6,.L188
 2296 0318 13051700 		addi	a0,a4,1
 2297              	.L188:
 2298 031c 13940701 		slli	s0,a5,16
 2299 0320 23A0A500 		sw	a0,%lo(PAD1_Bit)(a1)
 2300 0324 4184     		srai	s0,s0,16
 2301              	.LVL173:
 2302              	.L186:
 2303              	.LBE276:
 2304              	.LBE348:
 2305              		.loc 2 1106 0
 2306 0326 8906     		addi	a3,a3,2
 2307 0328 2390D400 		sh	a3,0(s1)
 2308              	.LVL174:
 2309              	.L196:
 2310              	.LBB349:
 2311              	.LBB297:
 130:../src/nes/K6502_rw.h ****       {
 2312              		.loc 1 130 0
 2313 032c 1167     		li	a4,16384
 2314 032e 93074701 		addi	a5,a4,20
 2315 0332 630AF62A 		beq	a2,a5,.L236
 135:../src/nes/K6502_rw.h ****       {
 2316              		.loc 1 135 0
 2317 0336 93065701 		addi	a3,a4,21
 2318 033a 8147     		li	a5,0
 2319 033c E303D6D6 		beq	a2,a3,.L203
 157:../src/nes/K6502_rw.h ****       {
 2320              		.loc 1 157 0
 2321 0340 93076701 		addi	a5,a4,22
 2322 0344 6306F60A 		beq	a2,a5,.L268
 165:../src/nes/K6502_rw.h ****       {
 2323              		.loc 1 165 0
 2324 0348 5D07     		addi	a4,a4,23
 2325 034a 6308E62C 		beq	a2,a4,.L269
 175:../src/nes/K6502_rw.h ****       }
 2326              		.loc 1 175 0
 2327 034e B7070000 		lui	a5,%hi(MapperReadApu)
 2328 0352 83A70700 		lw	a5,%lo(MapperReadApu)(a5)
 2329 0356 3285     		mv	a0,a2
 2330 0358 8297     		jalr	a5
 2331              	.LVL175:
 2332 035a 2205     		slli	a0,a0,8
 2333 035c 93170501 		slli	a5,a0,16
 2334 0360 C187     		srai	a5,a5,16
 2335 0362 81B3     		j	.L203
 2336              	.L195:
 2337 0364 13757600 		andi	a0,a2,7
  80:../src/nes/K6502_rw.h ****       {
 2338              		.loc 1 80 0
 2339 0368 9D47     		li	a5,7
 2340 036a 630EF512 		beq	a0,a5,.L270
  96:../src/nes/K6502_rw.h ****       {
 2341              		.loc 1 96 0
 2342 036e 9147     		li	a5,4
 2343 0370 6306F522 		beq	a0,a5,.L271
 101:../src/nes/K6502_rw.h ****       {
 2344              		.loc 1 101 0
 2345 0374 8947     		li	a5,2
 2346 0376 6307F510 		beq	a0,a5,.L272
 125:../src/nes/K6502_rw.h ****       }
 2347              		.loc 1 125 0
 2348 037a B7070000 		lui	a5,%hi(PPU_R7)
 2349 037e 03870700 		lb	a4,%lo(PPU_R7)(a5)
 2350 0382 93178700 		slli	a5,a4,8
 2351 0386 31BB     		j	.L203
 2352              	.LVL176:
 2353              	.L213:
 2354              	.LBE297:
 2355              	.LBE349:
 2356              	.LBB350:
 2357              	.LBB321:
 181:../src/nes/K6502_rw.h ****       {
 2358              		.loc 1 181 0
 2359 0388 B7070000 		lui	a5,%hi(ROM_SRAM)
 2360 038c 03C70700 		lbu	a4,%lo(ROM_SRAM)(a5)
 2361 0390 8967     		li	a5,8192
 2362 0392 FD17     		addi	a5,a5,-1
 2363 0394 7D8D     		and	a0,a0,a5
 2364              	.LVL177:
 2365 0396 29C7     		beqz	a4,.L231
 183:../src/nes/K6502_rw.h ****       } else {    /* SRAM BANK */
 2366              		.loc 1 183 0
 2367 0398 B7070000 		lui	a5,%hi(SRAM)
 2368 039c 93870700 		addi	a5,a5,%lo(SRAM)
 2369 03a0 3E95     		add	a0,a0,a5
 2370 03a2 03450500 		lbu	a0,0(a0)
 2371 03a6 85B3     		j	.L244
 2372              	.LVL178:
 2373              	.L221:
 195:../src/nes/K6502_rw.h **** 
 2374              		.loc 1 195 0
 2375 03a8 B7070000 		lui	a5,%hi(ROMBANK2)
 2376 03ac 03A70700 		lw	a4,%lo(ROMBANK2)(a5)
 2377 03b0 A9B3     		j	.L248
 2378              	.LVL179:
 2379              	.L201:
 2380              	.LBE321:
 2381              	.LBE350:
 2382              	.LBB351:
 2383              	.LBB298:
 2384 03b2 B7070000 		lui	a5,%hi(ROMBANK2)
 2385 03b6 83A70700 		lw	a5,%lo(ROMBANK2)(a5)
 2386 03ba E1B9     		j	.L247
 2387              	.LVL180:
 2388              	.L191:
 2389              	.LBE298:
 2390              	.LBE351:
 2391              	.LBB352:
 2392              	.LBB277:
 185:../src/nes/K6502_rw.h ****       }
 2393              		.loc 1 185 0
 2394 03bc B7070000 		lui	a5,%hi(SRAMBANK)
 2395 03c0 83A60700 		lw	a3,%lo(SRAMBANK)(a5)
 2396              	.LVL181:
 2397 03c4 3695     		add	a0,a3,a0
 2398 03c6 03440500 		lbu	s0,0(a0)
 2399 03ca 41B9     		j	.L182
 2400              	.L211:
 2401              	.LBE277:
 2402              	.LBE352:
 2403              	.LBB353:
 2404              	.LBB299:
 2405 03cc B7070000 		lui	a5,%hi(SRAMBANK)
 2406 03d0 03A60700 		lw	a2,%lo(SRAMBANK)(a5)
 2407 03d4 3295     		add	a0,a2,a0
 2408 03d6 03050500 		lb	a0,0(a0)
 2409 03da 93178500 		slli	a5,a0,8
 2410 03de D1B1     		j	.L203
 2411              	.L231:
 2412              	.LBE299:
 2413              	.LBE353:
 2414              	.LBB354:
 2415              	.LBB322:
 2416 03e0 B7070000 		lui	a5,%hi(SRAMBANK)
 2417 03e4 83A70700 		lw	a5,%lo(SRAMBANK)(a5)
 2418 03e8 3E95     		add	a0,a5,a0
 2419 03ea 03450500 		lbu	a0,0(a0)
 2420 03ee 21BB     		j	.L244
 2421              	.LVL182:
 2422              	.L268:
 2423              	.LBE322:
 2424              	.LBE354:
 2425              	.LBB355:
 2426              	.LBB300:
 160:../src/nes/K6502_rw.h ****         PAD1_Bit = ( PAD1_Bit == 23 ) ? 0 : ( PAD1_Bit + 1 );
 2427              		.loc 1 160 0
 2428 03f0 B7050000 		lui	a1,%hi(PAD1_Bit)
 2429 03f4 37070000 		lui	a4,%hi(PAD1_Latch)
 2430 03f8 83A70500 		lw	a5,%lo(PAD1_Bit)(a1)
 2431 03fc 03270700 		lw	a4,%lo(PAD1_Latch)(a4)
 161:../src/nes/K6502_rw.h ****         return byRet;
 2432              		.loc 1 161 0
 2433 0400 5D46     		li	a2,23
 2434              	.LVL183:
 2435 0402 8146     		li	a3,0
 160:../src/nes/K6502_rw.h ****         PAD1_Bit = ( PAD1_Bit == 23 ) ? 0 : ( PAD1_Bit + 1 );
 2436              		.loc 1 160 0
 2437 0404 3357F700 		srl	a4,a4,a5
 2438 0408 058B     		andi	a4,a4,1
 2439 040a 13670704 		ori	a4,a4,64
 2440 040e 6207     		slli	a4,a4,24
 2441 0410 6187     		srai	a4,a4,24
 2442              	.LVL184:
 161:../src/nes/K6502_rw.h ****         return byRet;
 2443              		.loc 1 161 0
 2444 0412 6384C700 		beq	a5,a2,.L208
 2445 0416 93861700 		addi	a3,a5,1
 2446              	.L208:
 2447 041a 23A0D500 		sw	a3,%lo(PAD1_Bit)(a1)
 2448 041e 93178700 		slli	a5,a4,8
 2449 0422 41B1     		j	.L203
 2450              	.LVL185:
 2451              	.L263:
 2452              	.LBE300:
 2453              	.LBE355:
 2454              	.LBB356:
 2455              	.LBB323:
 160:../src/nes/K6502_rw.h ****         PAD1_Bit = ( PAD1_Bit == 23 ) ? 0 : ( PAD1_Bit + 1 );
 2456              		.loc 1 160 0
 2457 0424 37070000 		lui	a4,%hi(PAD1_Latch)
 2458 0428 B7050000 		lui	a1,%hi(PAD1_Bit)
 2459 042c 03250700 		lw	a0,%lo(PAD1_Latch)(a4)
 2460              	.LVL186:
 2461 0430 83A70500 		lw	a5,%lo(PAD1_Bit)(a1)
 161:../src/nes/K6502_rw.h ****         return byRet;
 2462              		.loc 1 161 0
 2463 0434 DD46     		li	a3,23
 2464 0436 0147     		li	a4,0
 160:../src/nes/K6502_rw.h ****         PAD1_Bit = ( PAD1_Bit == 23 ) ? 0 : ( PAD1_Bit + 1 );
 2465              		.loc 1 160 0
 2466 0438 3355F500 		srl	a0,a0,a5
 2467 043c 0589     		andi	a0,a0,1
 2468 043e 13650504 		ori	a0,a0,64
 2469              	.LVL187:
 161:../src/nes/K6502_rw.h ****         return byRet;
 2470              		.loc 1 161 0
 2471 0442 6384D700 		beq	a5,a3,.L228
 2472 0446 13871700 		addi	a4,a5,1
 2473              	.L228:
 2474 044a 23A0E500 		sw	a4,%lo(PAD1_Bit)(a1)
 2475 044e 65B9     		j	.L244
 2476              	.LVL188:
 2477              	.L267:
 104:../src/nes/K6502_rw.h **** 
 2478              		.loc 1 104 0
 2479 0450 B7070000 		lui	a5,%hi(PPU_R2)
 2480 0454 03C50700 		lbu	a0,%lo(PPU_R2)(a5)
 2481              	.LVL189:
 110:../src/nes/K6502_rw.h **** 
 2482              		.loc 1 110 0
 2483 0458 37070000 		lui	a4,%hi(PPU_Latch_Flag)
 2484 045c 23000700 		sb	zero,%lo(PPU_Latch_Flag)(a4)
 107:../src/nes/K6502_rw.h **** 
 2485              		.loc 1 107 0
 2486 0460 1377F507 		andi	a4,a0,127
 2487 0464 2380E700 		sb	a4,%lo(PPU_R2)(a5)
 2488 0468 79B9     		j	.L244
 2489              	.LVL190:
 2490              	.L262:
 2491              	.LBE323:
 2492              	.LBE356:
 2493              	.LBB357:
 2494              	.LBB278:
 104:../src/nes/K6502_rw.h **** 
 2495              		.loc 1 104 0
 2496 046a 37070000 		lui	a4,%hi(PPU_R2)
 2497 046e 03440700 		lbu	s0,%lo(PPU_R2)(a4)
 2498              	.LVL191:
 110:../src/nes/K6502_rw.h **** 
 2499              		.loc 1 110 0
 2500 0472 B7060000 		lui	a3,%hi(PPU_Latch_Flag)
 2501 0476 23800600 		sb	zero,%lo(PPU_Latch_Flag)(a3)
 107:../src/nes/K6502_rw.h **** 
 2502              		.loc 1 107 0
 2503 047a 9376F407 		andi	a3,s0,127
 2504 047e 2300D700 		sb	a3,%lo(PPU_R2)(a4)
 2505 0482 E1BE     		j	.L182
 2506              	.LVL192:
 2507              	.L272:
 2508              	.LBE278:
 2509              	.LBE357:
 2510              	.LBB358:
 2511              	.LBB301:
 104:../src/nes/K6502_rw.h **** 
 2512              		.loc 1 104 0
 2513 0484 B7070000 		lui	a5,%hi(PPU_R2)
 2514 0488 03C70700 		lbu	a4,%lo(PPU_R2)(a5)
 2515              	.LVL193:
 110:../src/nes/K6502_rw.h **** 
 2516              		.loc 1 110 0
 2517 048c B7060000 		lui	a3,%hi(PPU_Latch_Flag)
 2518 0490 23800600 		sb	zero,%lo(PPU_Latch_Flag)(a3)
 107:../src/nes/K6502_rw.h **** 
 2519              		.loc 1 107 0
 2520 0494 9376F707 		andi	a3,a4,127
 2521 0498 2207     		slli	a4,a4,8
 2522              	.LVL194:
 2523 049a 2380D700 		sb	a3,%lo(PPU_R2)(a5)
 2524              	.LVL195:
 2525 049e 93170701 		slli	a5,a4,16
 2526 04a2 C187     		srai	a5,a5,16
 2527 04a4 FDBE     		j	.L203
 2528              	.L270:
 2529              	.LBB287:
  82:../src/nes/K6502_rw.h **** 
 2530              		.loc 1 82 0
 2531 04a6 37050000 		lui	a0,%hi(loopy_v)
 2532 04aa 83570500 		lhu	a5,%lo(loopy_v)(a0)
 2533              	.LVL196:
  91:../src/nes/K6502_rw.h **** 
 2534              		.loc 1 91 0
 2535 04ae B7060000 		lui	a3,%hi(PPUBANK)
 2536 04b2 93860600 		addi	a3,a3,%lo(PPUBANK)
 2537 04b6 13D78700 		srli	a4,a5,8
 2538 04ba 1377C703 		andi	a4,a4,60
  88:../src/nes/K6502_rw.h **** 
 2539              		.loc 1 88 0
 2540 04be 37060000 		lui	a2,%hi(PPU_Increment)
  91:../src/nes/K6502_rw.h **** 
 2541              		.loc 1 91 0
 2542 04c2 3697     		add	a4,a4,a3
  88:../src/nes/K6502_rw.h **** 
 2543              		.loc 1 88 0
 2544 04c4 03560600 		lhu	a2,%lo(PPU_Increment)(a2)
  91:../src/nes/K6502_rw.h **** 
 2545              		.loc 1 91 0
 2546 04c8 1443     		lw	a3,0(a4)
  85:../src/nes/K6502_rw.h **** 
 2547              		.loc 1 85 0
 2548 04ca B7050000 		lui	a1,%hi(PPU_R7)
  88:../src/nes/K6502_rw.h **** 
 2549              		.loc 1 88 0
 2550 04ce 3E96     		add	a2,a5,a2
  85:../src/nes/K6502_rw.h **** 
 2551              		.loc 1 85 0
 2552 04d0 03C70500 		lbu	a4,%lo(PPU_R7)(a1)
 2553              	.LVL197:
  91:../src/nes/K6502_rw.h **** 
 2554              		.loc 1 91 0
 2555 04d4 93F7F73F 		andi	a5,a5,1023
 2556              	.LVL198:
 2557 04d8 B697     		add	a5,a3,a5
  88:../src/nes/K6502_rw.h **** 
 2558              		.loc 1 88 0
 2559 04da 2310C500 		sh	a2,%lo(loopy_v)(a0)
 2560              	.LVL199:
  91:../src/nes/K6502_rw.h **** 
 2561              		.loc 1 91 0
 2562 04de 83C60700 		lbu	a3,0(a5)
 2563 04e2 2207     		slli	a4,a4,8
 2564              	.LVL200:
 2565 04e4 93170701 		slli	a5,a4,16
 2566 04e8 C187     		srai	a5,a5,16
 2567 04ea 2380D500 		sb	a3,%lo(PPU_R7)(a1)
 2568              	.LVL201:
 2569 04ee 55BE     		j	.L203
 2570              	.L265:
 2571              	.LBE287:
 2572              	.LBE301:
 2573              	.LBE358:
 2574              	.LBB359:
 2575              	.LBB324:
 2576              	.LBB309:
  82:../src/nes/K6502_rw.h **** 
 2577              		.loc 1 82 0
 2578 04f0 B7050000 		lui	a1,%hi(loopy_v)
 2579 04f4 83D70500 		lhu	a5,%lo(loopy_v)(a1)
 2580              	.LVL202:
  91:../src/nes/K6502_rw.h **** 
 2581              		.loc 1 91 0
 2582 04f8 37060000 		lui	a2,%hi(PPUBANK)
  88:../src/nes/K6502_rw.h **** 
 2583              		.loc 1 88 0
 2584 04fc B7060000 		lui	a3,%hi(PPU_Increment)
  91:../src/nes/K6502_rw.h **** 
 2585              		.loc 1 91 0
 2586 0500 13D78700 		srli	a4,a5,8
 2587 0504 1377C703 		andi	a4,a4,60
 2588 0508 13060600 		addi	a2,a2,%lo(PPUBANK)
  88:../src/nes/K6502_rw.h **** 
 2589              		.loc 1 88 0
 2590 050c 83D60600 		lhu	a3,%lo(PPU_Increment)(a3)
  91:../src/nes/K6502_rw.h **** 
 2591              		.loc 1 91 0
 2592 0510 3297     		add	a4,a4,a2
 2593 0512 1843     		lw	a4,0(a4)
  88:../src/nes/K6502_rw.h **** 
 2594              		.loc 1 88 0
 2595 0514 BE96     		add	a3,a5,a3
  91:../src/nes/K6502_rw.h **** 
 2596              		.loc 1 91 0
 2597 0516 93F7F73F 		andi	a5,a5,1023
 2598              	.LVL203:
 2599 051a BA97     		add	a5,a4,a5
  88:../src/nes/K6502_rw.h **** 
 2600              		.loc 1 88 0
 2601 051c 2390D500 		sh	a3,%lo(loopy_v)(a1)
 2602              	.LVL204:
  91:../src/nes/K6502_rw.h **** 
 2603              		.loc 1 91 0
 2604 0520 03C70700 		lbu	a4,0(a5)
  85:../src/nes/K6502_rw.h **** 
 2605              		.loc 1 85 0
 2606 0524 B7070000 		lui	a5,%hi(PPU_R7)
 2607 0528 03C50700 		lbu	a0,%lo(PPU_R7)(a5)
 2608              	.LVL205:
  91:../src/nes/K6502_rw.h **** 
 2609              		.loc 1 91 0
 2610 052c 2380E700 		sb	a4,%lo(PPU_R7)(a5)
 2611 0530 D9BE     		j	.L244
 2612              	.LVL206:
 2613              	.L260:
 2614              	.LBE309:
 2615              	.LBE324:
 2616              	.LBE359:
 2617              	.LBB360:
 2618              	.LBB279:
 2619              	.LBB265:
  82:../src/nes/K6502_rw.h **** 
 2620              		.loc 1 82 0
 2621 0532 37050000 		lui	a0,%hi(loopy_v)
 2622              	.LVL207:
 2623 0536 83570500 		lhu	a5,%lo(loopy_v)(a0)
 2624              	.LVL208:
  91:../src/nes/K6502_rw.h **** 
 2625              		.loc 1 91 0
 2626 053a B7050000 		lui	a1,%hi(PPUBANK)
  88:../src/nes/K6502_rw.h **** 
 2627              		.loc 1 88 0
 2628 053e B7060000 		lui	a3,%hi(PPU_Increment)
  91:../src/nes/K6502_rw.h **** 
 2629              		.loc 1 91 0
 2630 0542 13D78700 		srli	a4,a5,8
 2631 0546 1377C703 		andi	a4,a4,60
 2632 054a 93850500 		addi	a1,a1,%lo(PPUBANK)
  88:../src/nes/K6502_rw.h **** 
 2633              		.loc 1 88 0
 2634 054e 83D60600 		lhu	a3,%lo(PPU_Increment)(a3)
  91:../src/nes/K6502_rw.h **** 
 2635              		.loc 1 91 0
 2636 0552 2E97     		add	a4,a4,a1
 2637 0554 1843     		lw	a4,0(a4)
  88:../src/nes/K6502_rw.h **** 
 2638              		.loc 1 88 0
 2639 0556 BE96     		add	a3,a5,a3
  91:../src/nes/K6502_rw.h **** 
 2640              		.loc 1 91 0
 2641 0558 93F7F73F 		andi	a5,a5,1023
 2642              	.LVL209:
 2643 055c BA97     		add	a5,a4,a5
  88:../src/nes/K6502_rw.h **** 
 2644              		.loc 1 88 0
 2645 055e 2310D500 		sh	a3,%lo(loopy_v)(a0)
 2646              	.LVL210:
  91:../src/nes/K6502_rw.h **** 
 2647              		.loc 1 91 0
 2648 0562 83C60700 		lbu	a3,0(a5)
  85:../src/nes/K6502_rw.h **** 
 2649              		.loc 1 85 0
 2650 0566 37070000 		lui	a4,%hi(PPU_R7)
 2651 056a 03440700 		lbu	s0,%lo(PPU_R7)(a4)
 2652              	.LVL211:
  91:../src/nes/K6502_rw.h **** 
 2653              		.loc 1 91 0
 2654 056e 2300D700 		sb	a3,%lo(PPU_R7)(a4)
 2655 0572 E5B4     		j	.L182
 2656              	.LVL212:
 2657              	.L233:
 2658              	.LBE265:
 135:../src/nes/K6502_rw.h ****       {
 2659              		.loc 1 135 0
 2660 0574 0144     		li	s0,0
 2661 0576 45BB     		j	.L186
 2662              	.LVL213:
 2663              	.L241:
 2664              	.LBE279:
 2665              	.LBE360:
 2666              	.LBB361:
 2667              	.LBB325:
 154:../src/nes/K6502_rw.h ****       }
 2668              		.loc 1 154 0
 2669 0578 0145     		li	a0,0
 2670              	.LVL214:
 2671              	.LBE325:
 2672              	.LBE361:
 2673              		.loc 2 1106 0
 2674 057a 71B6     		j	.L244
 2675              	.LVL215:
 2676              	.L261:
 2677              	.LBB362:
 2678              	.LBB280:
  98:../src/nes/K6502_rw.h ****       }
 2679              		.loc 1 98 0
 2680 057c B7060000 		lui	a3,%hi(PPU_R3)
 2681 0580 83C70600 		lbu	a5,%lo(PPU_R3)(a3)
 2682 0584 37070000 		lui	a4,%hi(SPRRAM)
 2683 0588 13070700 		addi	a4,a4,%lo(SPRRAM)
 2684 058c 93851700 		addi	a1,a5,1
 2685 0590 BA97     		add	a5,a5,a4
 2686 0592 2380B600 		sb	a1,%lo(PPU_R3)(a3)
 2687 0596 03C40700 		lbu	s0,0(a5)
 2688 059a C1B4     		j	.L182
 2689              	.LVL216:
 2690              	.L271:
 2691              	.LBE280:
 2692              	.LBE362:
 2693              	.LBB363:
 2694              	.LBB302:
 2695 059c 37060000 		lui	a2,%hi(PPU_R3)
 2696 05a0 83460600 		lbu	a3,%lo(PPU_R3)(a2)
 2697 05a4 B7070000 		lui	a5,%hi(SPRRAM)
 2698 05a8 93870700 		addi	a5,a5,%lo(SPRRAM)
 2699 05ac B697     		add	a5,a3,a5
 2700 05ae 03870700 		lb	a4,0(a5)
 2701 05b2 8506     		addi	a3,a3,1
 2702 05b4 2300D600 		sb	a3,%lo(PPU_R3)(a2)
 2703 05b8 93178700 		slli	a5,a4,8
 2704 05bc DDB4     		j	.L203
 2705              	.L266:
 2706              	.LBE302:
 2707              	.LBE363:
 2708              	.LBB364:
 2709              	.LBB326:
 2710 05be B7060000 		lui	a3,%hi(PPU_R3)
 2711 05c2 83C70600 		lbu	a5,%lo(PPU_R3)(a3)
 2712 05c6 37070000 		lui	a4,%hi(SPRRAM)
 2713 05ca 13070700 		addi	a4,a4,%lo(SPRRAM)
 2714 05ce 13861700 		addi	a2,a5,1
 2715 05d2 BA97     		add	a5,a5,a4
 2716 05d4 2380C600 		sb	a2,%lo(PPU_R3)(a3)
 2717 05d8 03C50700 		lbu	a0,0(a5)
 2718 05dc 2DB6     		j	.L244
 2719              	.LVL217:
 2720              	.L240:
 132:../src/nes/K6502_rw.h ****       }
 2721              		.loc 1 132 0
 2722 05de 5145     		li	a0,20
 2723              	.LVL218:
 2724 05e0 1DB6     		j	.L244
 2725              	.LVL219:
 2726              	.L232:
 2727              	.LBE326:
 2728              	.LBE364:
 2729              	.LBB365:
 2730              	.LBB281:
 130:../src/nes/K6502_rw.h ****       {
 2731              		.loc 1 130 0
 2732 05e2 5144     		li	s0,20
 2733 05e4 89B3     		j	.L186
 2734              	.LVL220:
 2735              	.L236:
 2736              	.LBE281:
 2737              	.LBE365:
 2738              	.LBB366:
 2739              	.LBB303:
 2740 05e6 0567     		li	a4,4096
 2741 05e8 93070740 		addi	a5,a4,1024
 2742 05ec 5DBC     		j	.L203
 2743              	.LVL221:
 2744              	.L264:
 2745              	.LBE303:
 2746              	.LBE366:
 2747              	.LBB367:
 2748              	.LBB327:
 2749              	.LBB310:
 2750              	.LBB311:
 168:../src/nes/K6502_rw.h ****         PAD2_Bit = ( PAD2_Bit == 23 ) ? 0 : ( PAD2_Bit + 1 );
 2751              		.loc 1 168 0
 2752 05ee 37070000 		lui	a4,%hi(PAD2_Latch)
 2753 05f2 B7050000 		lui	a1,%hi(PAD2_Bit)
 2754 05f6 03250700 		lw	a0,%lo(PAD2_Latch)(a4)
 2755              	.LVL222:
 2756 05fa 83A70500 		lw	a5,%lo(PAD2_Bit)(a1)
 169:../src/nes/K6502_rw.h ****         return byRet;
 2757              		.loc 1 169 0
 2758 05fe DD46     		li	a3,23
 2759 0600 0147     		li	a4,0
 168:../src/nes/K6502_rw.h ****         PAD2_Bit = ( PAD2_Bit == 23 ) ? 0 : ( PAD2_Bit + 1 );
 2760              		.loc 1 168 0
 2761 0602 3355F500 		srl	a0,a0,a5
 2762 0606 0589     		andi	a0,a0,1
 2763 0608 13650504 		ori	a0,a0,64
 2764              	.LVL223:
 169:../src/nes/K6502_rw.h ****         return byRet;
 2765              		.loc 1 169 0
 2766 060c 6384D700 		beq	a5,a3,.L230
 2767 0610 13871700 		addi	a4,a5,1
 2768              	.L230:
 2769 0614 23A0E500 		sw	a4,%lo(PAD2_Bit)(a1)
 2770              	.LVL224:
 2771 0618 FDB4     		j	.L244
 2772              	.LVL225:
 2773              	.L269:
 2774              	.LBE311:
 2775              	.LBE310:
 2776              	.LBE327:
 2777              	.LBE367:
 2778              	.LBB368:
 2779              	.LBB304:
 2780              	.LBB288:
 2781              	.LBB289:
 168:../src/nes/K6502_rw.h ****         PAD2_Bit = ( PAD2_Bit == 23 ) ? 0 : ( PAD2_Bit + 1 );
 2782              		.loc 1 168 0
 2783 061a B7050000 		lui	a1,%hi(PAD2_Bit)
 2784 061e 37070000 		lui	a4,%hi(PAD2_Latch)
 2785 0622 83A70500 		lw	a5,%lo(PAD2_Bit)(a1)
 2786 0626 03270700 		lw	a4,%lo(PAD2_Latch)(a4)
 169:../src/nes/K6502_rw.h ****         return byRet;
 2787              		.loc 1 169 0
 2788 062a 5D46     		li	a2,23
 2789              	.LVL226:
 2790 062c 8146     		li	a3,0
 168:../src/nes/K6502_rw.h ****         PAD2_Bit = ( PAD2_Bit == 23 ) ? 0 : ( PAD2_Bit + 1 );
 2791              		.loc 1 168 0
 2792 062e 3357F700 		srl	a4,a4,a5
 2793 0632 058B     		andi	a4,a4,1
 2794 0634 13670704 		ori	a4,a4,64
 2795 0638 6207     		slli	a4,a4,24
 2796 063a 6187     		srai	a4,a4,24
 2797              	.LVL227:
 169:../src/nes/K6502_rw.h ****         return byRet;
 2798              		.loc 1 169 0
 2799 063c 6384C700 		beq	a5,a2,.L210
 2800 0640 93861700 		addi	a3,a5,1
 2801              	.L210:
 2802 0644 23A0D500 		sw	a3,%lo(PAD2_Bit)(a1)
 2803              	.LVL228:
 2804 0648 93178700 		slli	a5,a4,8
 2805 064c 99BC     		j	.L203
 2806              	.LVL229:
 2807              	.L258:
 2808              	.LBE289:
 2809              	.LBE288:
 2810              	.LBE304:
 2811              	.LBE368:
 2812              	.LBB369:
 2813              	.LBB282:
 2814              	.LBB266:
 2815              	.LBB267:
 168:../src/nes/K6502_rw.h ****         PAD2_Bit = ( PAD2_Bit == 23 ) ? 0 : ( PAD2_Bit + 1 );
 2816              		.loc 1 168 0
 2817 064e B7050000 		lui	a1,%hi(PAD2_Bit)
 2818 0652 B7070000 		lui	a5,%hi(PAD2_Latch)
 2819 0656 03A70500 		lw	a4,%lo(PAD2_Bit)(a1)
 2820 065a 83A70700 		lw	a5,%lo(PAD2_Latch)(a5)
 169:../src/nes/K6502_rw.h ****         return byRet;
 2821              		.loc 1 169 0
 2822 065e 5D48     		li	a6,23
 2823 0660 0145     		li	a0,0
 168:../src/nes/K6502_rw.h ****         PAD2_Bit = ( PAD2_Bit == 23 ) ? 0 : ( PAD2_Bit + 1 );
 2824              		.loc 1 168 0
 2825 0662 B3D7E700 		srl	a5,a5,a4
 2826 0666 858B     		andi	a5,a5,1
 2827 0668 93E70704 		ori	a5,a5,64
 2828 066c E207     		slli	a5,a5,24
 2829 066e E187     		srai	a5,a5,24
 2830              	.LVL230:
 169:../src/nes/K6502_rw.h ****         return byRet;
 2831              		.loc 1 169 0
 2832 0670 63040701 		beq	a4,a6,.L190
 2833 0674 13051700 		addi	a0,a4,1
 2834              	.L190:
 2835 0678 13940701 		slli	s0,a5,16
 2836 067c 23A0A500 		sw	a0,%lo(PAD2_Bit)(a1)
 2837              	.LVL231:
 2838 0680 4184     		srai	s0,s0,16
 2839 0682 55B1     		j	.L186
 2840              	.LBE267:
 2841              	.LBE266:
 2842              	.LBE282:
 2843              	.LBE369:
 2844              		.cfi_endproc
 2845              	.LFE5:
 2847              		.section	.text.K6502_Read,"ax",@progbits
 2848              		.align	1
 2850              	K6502_Read:
 2851              	.LFB9:
  53:../src/nes/K6502_rw.h **** /*
 2852              		.loc 1 53 0
 2853              		.cfi_startproc
 2854              	.LVL232:
  74:../src/nes/K6502_rw.h ****   {
 2855              		.loc 1 74 0
 2856 0000 F977     		li	a5,-8192
 2857 0002 E98F     		and	a5,a0,a5
 2858 0004 9966     		li	a3,24576
  53:../src/nes/K6502_rw.h **** /*
 2859              		.loc 1 53 0
 2860 0006 2A87     		mv	a4,a0
  74:../src/nes/K6502_rw.h ****   {
 2861              		.loc 1 74 0
 2862 0008 6386D70E 		beq	a5,a3,.L275
 2863 000c 63F8F602 		bleu	a5,a3,.L299
 2864 0010 A966     		li	a3,40960
 2865 0012 6386D70C 		beq	a5,a3,.L280
 2866 0016 63FCF606 		bleu	a5,a3,.L300
 2867 001a B166     		li	a3,49152
 2868 001c 638ED704 		beq	a5,a3,.L283
 2869 0020 B966     		li	a3,57344
 2870 0022 6394D702 		bne	a5,a3,.L274
 198:../src/nes/K6502_rw.h ****   }
 2871              		.loc 1 198 0
 2872 0026 B7070000 		lui	a5,%hi(ROMBANK3)
 2873 002a 83A70700 		lw	a5,%lo(ROMBANK3)(a5)
 192:../src/nes/K6502_rw.h **** 
 2874              		.loc 1 192 0
 2875 002e 0965     		li	a0,8192
 2876              	.LVL233:
 2877 0030 7D15     		addi	a0,a0,-1
 2878 0032 698F     		and	a4,a4,a0
 2879 0034 3E97     		add	a4,a5,a4
 2880 0036 03450700 		lbu	a0,0(a4)
 2881 003a 8280     		ret
 2882              	.LVL234:
 2883              	.L299:
  74:../src/nes/K6502_rw.h ****   {
 2884              		.loc 1 74 0
 2885 003c 8966     		li	a3,8192
 2886 003e 6386D706 		beq	a5,a3,.L277
 2887 0042 9166     		li	a3,16384
 2888 0044 6386D700 		beq	a5,a3,.L278
 2889 0048 C9C3     		beqz	a5,.L301
 2890              	.L274:
 201:../src/nes/K6502_rw.h ****                             address is returned. */
 2891              		.loc 1 201 0
 2892 004a 13558700 		srli	a0,a4,8
 2893              	.LVL235:
 2894 004e 8280     		ret
 2895              	.LVL236:
 2896              	.L278:
 130:../src/nes/K6502_rw.h ****       {
 2897              		.loc 1 130 0
 2898 0050 93864701 		addi	a3,a5,20
 2899 0054 630ED516 		beq	a0,a3,.L294
 135:../src/nes/K6502_rw.h ****       {
 2900              		.loc 1 135 0
 2901 0058 93865701 		addi	a3,a5,21
 2902 005c 6308D514 		beq	a0,a3,.L295
 157:../src/nes/K6502_rw.h ****       {
 2903              		.loc 1 157 0
 2904 0060 93866701 		addi	a3,a5,22
 2905 0064 6300D50C 		beq	a0,a3,.L302
 165:../src/nes/K6502_rw.h ****       {
 2906              		.loc 1 165 0
 2907 0068 DD07     		addi	a5,a5,23
 2908 006a 6305F516 		beq	a0,a5,.L303
 175:../src/nes/K6502_rw.h ****       }
 2909              		.loc 1 175 0
 2910 006e B7070000 		lui	a5,%hi(MapperReadApu)
 2911 0072 03A30700 		lw	t1,%lo(MapperReadApu)(a5)
 2912 0076 0283     		jr	t1
 2913              	.LVL237:
 2914              	.L283:
 195:../src/nes/K6502_rw.h **** 
 2915              		.loc 1 195 0
 2916 0078 B7070000 		lui	a5,%hi(ROMBANK2)
 2917 007c 83A70700 		lw	a5,%lo(ROMBANK2)(a5)
 192:../src/nes/K6502_rw.h **** 
 2918              		.loc 1 192 0
 2919 0080 0965     		li	a0,8192
 2920              	.LVL238:
 2921 0082 7D15     		addi	a0,a0,-1
 2922 0084 698F     		and	a4,a4,a0
 2923 0086 3E97     		add	a4,a5,a4
 2924 0088 03450700 		lbu	a0,0(a4)
 2925 008c 8280     		ret
 2926              	.LVL239:
 2927              	.L300:
  74:../src/nes/K6502_rw.h ****   {
 2928              		.loc 1 74 0
 2929 008e A166     		li	a3,32768
 2930 0090 E39DD7FA 		bne	a5,a3,.L274
 189:../src/nes/K6502_rw.h **** 
 2931              		.loc 1 189 0
 2932 0094 B7070000 		lui	a5,%hi(ROMBANK0)
 2933 0098 83A70700 		lw	a5,%lo(ROMBANK0)(a5)
 192:../src/nes/K6502_rw.h **** 
 2934              		.loc 1 192 0
 2935 009c 0965     		li	a0,8192
 2936              	.LVL240:
 2937 009e 7D15     		addi	a0,a0,-1
 2938 00a0 698F     		and	a4,a4,a0
 2939 00a2 3E97     		add	a4,a5,a4
 2940 00a4 03450700 		lbu	a0,0(a4)
 2941 00a8 8280     		ret
 2942              	.LVL241:
 2943              	.L277:
 2944 00aa 13777500 		andi	a4,a0,7
  80:../src/nes/K6502_rw.h ****       {
 2945              		.loc 1 80 0
 2946 00ae 9D47     		li	a5,7
 2947 00b0 630DF70A 		beq	a4,a5,.L304
  96:../src/nes/K6502_rw.h ****       {
 2948              		.loc 1 96 0
 2949 00b4 9147     		li	a5,4
 2950 00b6 630DF70E 		beq	a4,a5,.L305
 101:../src/nes/K6502_rw.h ****       {
 2951              		.loc 1 101 0
 2952 00ba 8947     		li	a5,2
 2953 00bc 630AF708 		beq	a4,a5,.L306
 125:../src/nes/K6502_rw.h ****       }
 2954              		.loc 1 125 0
 2955 00c0 B7070000 		lui	a5,%hi(PPU_R7)
 2956 00c4 03C50700 		lbu	a0,%lo(PPU_R7)(a5)
 2957              	.LVL242:
 2958 00c8 8280     		ret
 2959              	.LVL243:
 2960              	.L301:
  77:../src/nes/K6502_rw.h **** 
 2961              		.loc 1 77 0
 2962 00ca B7070000 		lui	a5,%hi(RAM)
 2963 00ce 1377F57F 		andi	a4,a0,2047
 2964 00d2 93870700 		addi	a5,a5,%lo(RAM)
 2965 00d6 3E97     		add	a4,a4,a5
 2966 00d8 03450700 		lbu	a0,0(a4)
 2967              	.LVL244:
 2968 00dc 8280     		ret
 2969              	.LVL245:
 2970              	.L280:
 192:../src/nes/K6502_rw.h **** 
 2971              		.loc 1 192 0
 2972 00de B7070000 		lui	a5,%hi(ROMBANK1)
 2973 00e2 83A70700 		lw	a5,%lo(ROMBANK1)(a5)
 2974 00e6 0965     		li	a0,8192
 2975              	.LVL246:
 2976 00e8 7D15     		addi	a0,a0,-1
 2977 00ea 698F     		and	a4,a4,a0
 2978 00ec 3E97     		add	a4,a5,a4
 2979 00ee 03450700 		lbu	a0,0(a4)
 2980 00f2 8280     		ret
 2981              	.LVL247:
 2982              	.L275:
 181:../src/nes/K6502_rw.h ****       {
 2983              		.loc 1 181 0
 2984 00f4 B7070000 		lui	a5,%hi(ROM_SRAM)
 2985 00f8 83C70700 		lbu	a5,%lo(ROM_SRAM)(a5)
 2986 00fc 0965     		li	a0,8192
 2987              	.LVL248:
 2988 00fe 7D15     		addi	a0,a0,-1
 2989 0100 798D     		and	a0,a4,a0
 2990 0102 89CB     		beqz	a5,.L293
 183:../src/nes/K6502_rw.h ****       } else {    /* SRAM BANK */
 2991              		.loc 1 183 0
 2992 0104 37070000 		lui	a4,%hi(SRAM)
 2993 0108 13070700 		addi	a4,a4,%lo(SRAM)
 2994 010c 3A95     		add	a0,a0,a4
 2995 010e 03450500 		lbu	a0,0(a0)
 2996 0112 8280     		ret
 2997              	.L293:
 185:../src/nes/K6502_rw.h ****       }
 2998              		.loc 1 185 0
 2999 0114 B7070000 		lui	a5,%hi(SRAMBANK)
 3000 0118 03A70700 		lw	a4,%lo(SRAMBANK)(a5)
 3001 011c 3A95     		add	a0,a4,a0
 3002 011e 03450500 		lbu	a0,0(a0)
 3003 0122 8280     		ret
 3004              	.LVL249:
 3005              	.L302:
 160:../src/nes/K6502_rw.h ****         PAD1_Bit = ( PAD1_Bit == 23 ) ? 0 : ( PAD1_Bit + 1 );
 3006              		.loc 1 160 0
 3007 0124 B7060000 		lui	a3,%hi(PAD1_Bit)
 3008 0128 37070000 		lui	a4,%hi(PAD1_Latch)
 3009 012c 83A70600 		lw	a5,%lo(PAD1_Bit)(a3)
 3010 0130 03270700 		lw	a4,%lo(PAD1_Latch)(a4)
 161:../src/nes/K6502_rw.h ****         return byRet;
 3011              		.loc 1 161 0
 3012 0134 DD45     		li	a1,23
 3013 0136 0146     		li	a2,0
 160:../src/nes/K6502_rw.h ****         PAD1_Bit = ( PAD1_Bit == 23 ) ? 0 : ( PAD1_Bit + 1 );
 3014              		.loc 1 160 0
 3015 0138 3357F700 		srl	a4,a4,a5
 3016 013c 058B     		andi	a4,a4,1
 3017 013e 13650704 		ori	a0,a4,64
 3018              	.LVL250:
 161:../src/nes/K6502_rw.h ****         return byRet;
 3019              		.loc 1 161 0
 3020 0142 6384B700 		beq	a5,a1,.L290
 161:../src/nes/K6502_rw.h ****         return byRet;
 3021              		.loc 1 161 0 is_stmt 0 discriminator 1
 3022 0146 13861700 		addi	a2,a5,1
 3023              	.L290:
 161:../src/nes/K6502_rw.h ****         return byRet;
 3024              		.loc 1 161 0 discriminator 4
 3025 014a 23A0C600 		sw	a2,%lo(PAD1_Bit)(a3)
 162:../src/nes/K6502_rw.h ****       }
 3026              		.loc 1 162 0 is_stmt 1 discriminator 4
 3027 014e 8280     		ret
 3028              	.LVL251:
 3029              	.L306:
 104:../src/nes/K6502_rw.h **** 
 3030              		.loc 1 104 0
 3031 0150 B7070000 		lui	a5,%hi(PPU_R2)
 3032 0154 03C50700 		lbu	a0,%lo(PPU_R2)(a5)
 3033              	.LVL252:
 110:../src/nes/K6502_rw.h **** 
 3034              		.loc 1 110 0
 3035 0158 37070000 		lui	a4,%hi(PPU_Latch_Flag)
 3036 015c 23000700 		sb	zero,%lo(PPU_Latch_Flag)(a4)
 107:../src/nes/K6502_rw.h **** 
 3037              		.loc 1 107 0
 3038 0160 1377F507 		andi	a4,a0,127
 3039 0164 2380E700 		sb	a4,%lo(PPU_R2)(a5)
 121:../src/nes/K6502_rw.h ****       }
 3040              		.loc 1 121 0
 3041 0168 8280     		ret
 3042              	.LVL253:
 3043              	.L304:
 3044              	.LBB375:
  82:../src/nes/K6502_rw.h **** 
 3045              		.loc 1 82 0
 3046 016a B7050000 		lui	a1,%hi(loopy_v)
 3047 016e 83D70500 		lhu	a5,%lo(loopy_v)(a1)
 3048              	.LVL254:
  91:../src/nes/K6502_rw.h **** 
 3049              		.loc 1 91 0
 3050 0172 37060000 		lui	a2,%hi(PPUBANK)
 3051 0176 13060600 		addi	a2,a2,%lo(PPUBANK)
 3052 017a 13D78700 		srli	a4,a5,8
 3053 017e 1377C703 		andi	a4,a4,60
  88:../src/nes/K6502_rw.h **** 
 3054              		.loc 1 88 0
 3055 0182 B7060000 		lui	a3,%hi(PPU_Increment)
 3056 0186 83D60600 		lhu	a3,%lo(PPU_Increment)(a3)
  91:../src/nes/K6502_rw.h **** 
 3057              		.loc 1 91 0
 3058 018a 3297     		add	a4,a4,a2
 3059 018c 1843     		lw	a4,0(a4)
  88:../src/nes/K6502_rw.h **** 
 3060              		.loc 1 88 0
 3061 018e BE96     		add	a3,a5,a3
  91:../src/nes/K6502_rw.h **** 
 3062              		.loc 1 91 0
 3063 0190 93F7F73F 		andi	a5,a5,1023
 3064              	.LVL255:
  88:../src/nes/K6502_rw.h **** 
 3065              		.loc 1 88 0
 3066 0194 2390D500 		sh	a3,%lo(loopy_v)(a1)
 3067              	.LVL256:
  91:../src/nes/K6502_rw.h **** 
 3068              		.loc 1 91 0
 3069 0198 BA97     		add	a5,a4,a5
 3070 019a 03C70700 		lbu	a4,0(a5)
  85:../src/nes/K6502_rw.h **** 
 3071              		.loc 1 85 0
 3072 019e B7070000 		lui	a5,%hi(PPU_R7)
 3073 01a2 03C50700 		lbu	a0,%lo(PPU_R7)(a5)
 3074              	.LVL257:
  91:../src/nes/K6502_rw.h **** 
 3075              		.loc 1 91 0
 3076 01a6 2380E700 		sb	a4,%lo(PPU_R7)(a5)
  93:../src/nes/K6502_rw.h ****       }
 3077              		.loc 1 93 0
 3078 01aa 8280     		ret
 3079              	.LVL258:
 3080              	.L295:
 3081              	.LBE375:
 154:../src/nes/K6502_rw.h ****       }
 3082              		.loc 1 154 0
 3083 01ac 0145     		li	a0,0
 3084              	.LVL259:
 203:../src/nes/K6502_rw.h **** 
 3085              		.loc 1 203 0
 3086 01ae 8280     		ret
 3087              	.LVL260:
 3088              	.L305:
  98:../src/nes/K6502_rw.h ****       }
 3089              		.loc 1 98 0
 3090 01b0 B7060000 		lui	a3,%hi(PPU_R3)
 3091 01b4 83C70600 		lbu	a5,%lo(PPU_R3)(a3)
 3092 01b8 37070000 		lui	a4,%hi(SPRRAM)
 3093 01bc 13070700 		addi	a4,a4,%lo(SPRRAM)
 3094 01c0 13861700 		addi	a2,a5,1
 3095 01c4 BA97     		add	a5,a5,a4
 3096 01c6 2380C600 		sb	a2,%lo(PPU_R3)(a3)
 3097 01ca 03C50700 		lbu	a0,0(a5)
 3098              	.LVL261:
 3099 01ce 8280     		ret
 3100              	.LVL262:
 3101              	.L294:
 132:../src/nes/K6502_rw.h ****       }
 3102              		.loc 1 132 0
 3103 01d0 5145     		li	a0,20
 3104              	.LVL263:
 3105 01d2 8280     		ret
 3106              	.LVL264:
 3107              	.L303:
 3108              	.LBB376:
 3109              	.LBB377:
 168:../src/nes/K6502_rw.h ****         PAD2_Bit = ( PAD2_Bit == 23 ) ? 0 : ( PAD2_Bit + 1 );
 3110              		.loc 1 168 0
 3111 01d4 B7060000 		lui	a3,%hi(PAD2_Bit)
 3112 01d8 37070000 		lui	a4,%hi(PAD2_Latch)
 3113 01dc 83A70600 		lw	a5,%lo(PAD2_Bit)(a3)
 3114 01e0 03270700 		lw	a4,%lo(PAD2_Latch)(a4)
 169:../src/nes/K6502_rw.h ****         return byRet;
 3115              		.loc 1 169 0
 3116 01e4 DD45     		li	a1,23
 3117 01e6 0146     		li	a2,0
 168:../src/nes/K6502_rw.h ****         PAD2_Bit = ( PAD2_Bit == 23 ) ? 0 : ( PAD2_Bit + 1 );
 3118              		.loc 1 168 0
 3119 01e8 3357F700 		srl	a4,a4,a5
 3120 01ec 058B     		andi	a4,a4,1
 3121 01ee 13650704 		ori	a0,a4,64
 3122              	.LVL265:
 169:../src/nes/K6502_rw.h ****         return byRet;
 3123              		.loc 1 169 0
 3124 01f2 6384B700 		beq	a5,a1,.L292
 3125 01f6 13861700 		addi	a2,a5,1
 3126              	.L292:
 3127 01fa 23A0C600 		sw	a2,%lo(PAD2_Bit)(a3)
 3128              	.LVL266:
 3129 01fe 8280     		ret
 3130              	.LBE377:
 3131              	.LBE376:
 3132              		.cfi_endproc
 3133              	.LFE9:
 3135              		.section	.text.K6502_Init,"ax",@progbits
 3136              		.align	1
 3137              		.globl	K6502_Init
 3139              	K6502_Init:
 3140              	.LFB0:
 200:../src/nes/K6502.c **** /*
 3141              		.loc 2 200 0
 3142              		.cfi_startproc
 211:../src/nes/K6502.c ****   IRQ_Wiring = IRQ_State = 1;
 3143              		.loc 2 211 0
 3144 0000 8547     		li	a5,1
 3145 0002 37070000 		lui	a4,%hi(.LANCHOR4)
 3146 0006 2300F700 		sb	a5,%lo(.LANCHOR4)(a4)
 3147 000a 37070000 		lui	a4,%hi(.LANCHOR5)
 3148 000e 2300F700 		sb	a5,%lo(.LANCHOR5)(a4)
 212:../src/nes/K6502.c **** 
 3149              		.loc 2 212 0
 3150 0012 37070000 		lui	a4,%hi(.LANCHOR6)
 3151 0016 2300F700 		sb	a5,%lo(.LANCHOR6)(a4)
 3152 001a 37070000 		lui	a4,%hi(.LANCHOR7)
 3153 001e 2300F700 		sb	a5,%lo(.LANCHOR7)(a4)
 3154              	.LVL267:
 3155 0022 37060000 		lui	a2,%hi(.LANCHOR8)
 3156 0026 8147     		li	a5,0
 3157 0028 13060600 		addi	a2,a2,%lo(.LANCHOR8)
 221:../src/nes/K6502.c ****       g_byTestTable[ idx ] = FLAG_N;
 3158              		.loc 2 221 0
 3159 002c 93968701 		slli	a3,a5,24
 227:../src/nes/K6502.c **** 
 3160              		.loc 2 227 0
 3161 0030 9305F00F 		li	a1,255
 222:../src/nes/K6502.c ****     else
 3162              		.loc 2 222 0
 3163 0034 130800F8 		li	a6,-128
 219:../src/nes/K6502.c ****     else
 3164              		.loc 2 219 0
 3165 0038 0945     		li	a0,2
 3166              	.LVL268:
 221:../src/nes/K6502.c ****       g_byTestTable[ idx ] = FLAG_N;
 3167              		.loc 2 221 0
 3168 003a E186     		srai	a3,a3,24
 224:../src/nes/K6502.c **** 
 3169              		.loc 2 224 0
 3170 003c 3307F600 		add	a4,a2,a5
 218:../src/nes/K6502.c ****       g_byTestTable[ 0 ] = FLAG_Z;
 3171              		.loc 2 218 0
 3172 0040 85C3     		beqz	a5,.L343
 3173              	.L309:
 221:../src/nes/K6502.c ****       g_byTestTable[ idx ] = FLAG_N;
 3174              		.loc 2 221 0
 3175 0042 63C90626 		bltz	a3,.L344
 224:../src/nes/K6502.c **** 
 3176              		.loc 2 224 0
 3177 0046 23000700 		sb	zero,0(a4)
 3178              	.L312:
 3179              	.LVL269:
 227:../src/nes/K6502.c **** 
 3180              		.loc 2 227 0
 3181 004a 638EB700 		beq	a5,a1,.L345
 3182              	.LVL270:
 3183              	.L310:
 3184 004e 8507     		addi	a5,a5,1
 3185 0050 93F7F70F 		andi	a5,a5,0xff
 3186              	.LVL271:
 221:../src/nes/K6502.c ****       g_byTestTable[ idx ] = FLAG_N;
 3187              		.loc 2 221 0
 3188 0054 93968701 		slli	a3,a5,24
 3189 0058 E186     		srai	a3,a3,24
 224:../src/nes/K6502.c **** 
 3190              		.loc 2 224 0
 3191 005a 3307F600 		add	a4,a2,a5
 218:../src/nes/K6502.c ****       g_byTestTable[ 0 ] = FLAG_Z;
 3192              		.loc 2 218 0
 3193 005e F5F3     		bnez	a5,.L309
 3194              	.L343:
 3195              	.LVL272:
 219:../src/nes/K6502.c ****     else
 3196              		.loc 2 219 0
 3197 0060 2300A600 		sb	a0,0(a2)
 3198              	.LVL273:
 3199 0064 EDB7     		j	.L310
 3200              	.LVL274:
 3201              	.L345:
 233:../src/nes/K6502.c ****     g_ASLTable[ idx ].byFlag = 0;
 3202              		.loc 2 233 0
 3203 0066 B7050000 		lui	a1,%hi(.LANCHOR9)
 3204 006a 93850500 		addi	a1,a1,%lo(.LANCHOR9)
 3205 006e 0147     		li	a4,0
 3206 0070 0146     		li	a2,0
 240:../src/nes/K6502.c ****     else
 3207              		.loc 2 240 0
 3208 0072 93161600 		slli	a3,a2,1
 242:../src/nes/K6502.c ****       g_ASLTable[ idx ].byFlag |= FLAG_N;
 3209              		.loc 2 242 0
 3210 0076 13158701 		slli	a0,a4,24
 233:../src/nes/K6502.c ****     g_ASLTable[ idx ].byFlag = 0;
 3211              		.loc 2 233 0
 3212 007a 23900500 		sh	zero,0(a1)
 3213 007e 8547     		li	a5,1
 237:../src/nes/K6502.c **** 
 3214              		.loc 2 237 0
 3215 0080 8548     		li	a7,1
 240:../src/nes/K6502.c ****     else
 3216              		.loc 2 240 0
 3217 0082 AE96     		add	a3,a1,a3
 242:../src/nes/K6502.c ****       g_ASLTable[ idx ].byFlag |= FLAG_N;
 3218              		.loc 2 242 0
 3219 0084 6185     		srai	a0,a0,24
 239:../src/nes/K6502.c ****       g_ASLTable[ idx ].byFlag |= FLAG_Z;
 3220              		.loc 2 239 0
 3221 0086 21E7     		bnez	a4,.L315
 3222              	.LVL275:
 3223              	.L348:
 240:../src/nes/K6502.c ****     else
 3224              		.loc 2 240 0
 3225 0088 03C61600 		lbu	a2,1(a3)
 3226 008c 13662600 		ori	a2,a2,2
 3227 0090 A380C600 		sb	a2,1(a3)
 3228              	.L316:
 3229              	.LVL276:
 233:../src/nes/K6502.c ****     g_ASLTable[ idx ].byFlag = 0;
 3230              		.loc 2 233 0
 3231 0094 93961700 		slli	a3,a5,1
 3232 0098 0907     		addi	a4,a4,2
 236:../src/nes/K6502.c ****       g_ASLTable[ idx ].byFlag = FLAG_C;
 3233              		.loc 2 236 0
 3234 009a 13988701 		slli	a6,a5,24
 233:../src/nes/K6502.c ****     g_ASLTable[ idx ].byFlag = 0;
 3235              		.loc 2 233 0
 3236 009e AE96     		add	a3,a1,a3
 3237 00a0 1377F70F 		andi	a4,a4,0xff
 236:../src/nes/K6502.c ****       g_ASLTable[ idx ].byFlag = FLAG_C;
 3238              		.loc 2 236 0
 3239 00a4 13588841 		srai	a6,a6,24
 3240 00a8 13851700 		addi	a0,a5,1
 246:../src/nes/K6502.c **** 
 3241              		.loc 2 246 0
 3242 00ac A1CB     		beqz	a5,.L346
 3243              	.L317:
 234:../src/nes/K6502.c **** 
 3244              		.loc 2 234 0
 3245 00ae A3800600 		sb	zero,1(a3)
 233:../src/nes/K6502.c ****     g_ASLTable[ idx ].byFlag = 0;
 3246              		.loc 2 233 0
 3247 00b2 2380E600 		sb	a4,0(a3)
 3248 00b6 3E86     		mv	a2,a5
 236:../src/nes/K6502.c ****       g_ASLTable[ idx ].byFlag = FLAG_C;
 3249              		.loc 2 236 0
 3250 00b8 63480820 		bltz	a6,.L347
 3251 00bc 9377F50F 		andi	a5,a0,0xff
 3252              	.LVL277:
 3253              	.L357:
 240:../src/nes/K6502.c ****     else
 3254              		.loc 2 240 0
 3255 00c0 93161600 		slli	a3,a2,1
 242:../src/nes/K6502.c ****       g_ASLTable[ idx ].byFlag |= FLAG_N;
 3256              		.loc 2 242 0
 3257 00c4 13158701 		slli	a0,a4,24
 240:../src/nes/K6502.c ****     else
 3258              		.loc 2 240 0
 3259 00c8 AE96     		add	a3,a1,a3
 242:../src/nes/K6502.c ****       g_ASLTable[ idx ].byFlag |= FLAG_N;
 3260              		.loc 2 242 0
 3261 00ca 6185     		srai	a0,a0,24
 239:../src/nes/K6502.c ****       g_ASLTable[ idx ].byFlag |= FLAG_Z;
 3262              		.loc 2 239 0
 3263 00cc 55DF     		beqz	a4,.L348
 3264              	.L315:
 242:../src/nes/K6502.c ****       g_ASLTable[ idx ].byFlag |= FLAG_N;
 3265              		.loc 2 242 0
 3266 00ce E35305FC 		bgez	a0,.L316
 243:../src/nes/K6502.c **** 
 3267              		.loc 2 243 0
 3268 00d2 0606     		slli	a2,a2,1
 3269 00d4 2E96     		add	a2,a1,a2
 3270 00d6 83461600 		lbu	a3,1(a2)
 233:../src/nes/K6502.c ****     g_ASLTable[ idx ].byFlag = 0;
 3271              		.loc 2 233 0
 3272 00da 0907     		addi	a4,a4,2
 236:../src/nes/K6502.c ****       g_ASLTable[ idx ].byFlag = FLAG_C;
 3273              		.loc 2 236 0
 3274 00dc 13988701 		slli	a6,a5,24
 243:../src/nes/K6502.c **** 
 3275              		.loc 2 243 0
 3276 00e0 93E606F8 		ori	a3,a3,-128
 3277 00e4 A300D600 		sb	a3,1(a2)
 3278              	.LVL278:
 233:../src/nes/K6502.c ****     g_ASLTable[ idx ].byFlag = 0;
 3279              		.loc 2 233 0
 3280 00e8 93961700 		slli	a3,a5,1
 3281 00ec AE96     		add	a3,a1,a3
 3282 00ee 1377F70F 		andi	a4,a4,0xff
 236:../src/nes/K6502.c ****       g_ASLTable[ idx ].byFlag = FLAG_C;
 3283              		.loc 2 236 0
 3284 00f2 13588841 		srai	a6,a6,24
 3285 00f6 13851700 		addi	a0,a5,1
 246:../src/nes/K6502.c **** 
 3286              		.loc 2 246 0
 3287 00fa D5FB     		bnez	a5,.L317
 3288              	.L346:
 3289              	.LVL279:
 252:../src/nes/K6502.c ****     g_LSRTable[ idx ].byFlag = 0;
 3290              		.loc 2 252 0
 3291 00fc B7050000 		lui	a1,%hi(.LANCHOR10)
 3292 0100 93850500 		addi	a1,a1,%lo(.LANCHOR10)
 3293 0104 23900500 		sh	zero,0(a1)
 3294 0108 0547     		li	a4,1
 3295 010a 8146     		li	a3,0
 256:../src/nes/K6502.c **** 
 3296              		.loc 2 256 0
 3297 010c 0548     		li	a6,1
 3298 010e 31A0     		j	.L336
 3299              	.LVL280:
 3300              	.L350:
 253:../src/nes/K6502.c **** 
 3301              		.loc 2 253 0
 3302 0110 A3000600 		sb	zero,1(a2)
 3303              	.L320:
 3304 0114 0507     		addi	a4,a4,1
 3305              	.LVL281:
 3306 0116 1377F70F 		andi	a4,a4,0xff
 3307              	.L336:
 3308              	.LVL282:
 259:../src/nes/K6502.c **** 
 3309              		.loc 2 259 0
 3310 011a 8606     		slli	a3,a3,1
 252:../src/nes/K6502.c ****     g_LSRTable[ idx ].byFlag = 0;
 3311              		.loc 2 252 0
 3312 011c 13161700 		slli	a2,a4,1
 259:../src/nes/K6502.c **** 
 3313              		.loc 2 259 0
 3314 0120 AE96     		add	a3,a1,a3
 252:../src/nes/K6502.c ****     g_LSRTable[ idx ].byFlag = 0;
 3315              		.loc 2 252 0
 3316 0122 2E96     		add	a2,a1,a2
 255:../src/nes/K6502.c ****       g_LSRTable[ idx ].byFlag = FLAG_C;
 3317              		.loc 2 255 0
 3318 0124 13751700 		andi	a0,a4,1
 258:../src/nes/K6502.c ****       g_LSRTable[ idx ].byFlag |= FLAG_Z;
 3319              		.loc 2 258 0
 3320 0128 99E7     		bnez	a5,.L321
 259:../src/nes/K6502.c **** 
 3321              		.loc 2 259 0
 3322 012a 83C71600 		lbu	a5,1(a3)
 3323 012e 93E72700 		ori	a5,a5,2
 3324 0132 A380F600 		sb	a5,1(a3)
 3325              	.L321:
 252:../src/nes/K6502.c ****     g_LSRTable[ idx ].byFlag = 0;
 3326              		.loc 2 252 0
 3327 0136 93571700 		srli	a5,a4,1
 262:../src/nes/K6502.c **** 
 3328              		.loc 2 262 0
 3329 013a 01CB     		beqz	a4,.L349
 252:../src/nes/K6502.c ****     g_LSRTable[ idx ].byFlag = 0;
 3330              		.loc 2 252 0
 3331 013c 2300F600 		sb	a5,0(a2)
 3332 0140 BA86     		mv	a3,a4
 255:../src/nes/K6502.c ****       g_LSRTable[ idx ].byFlag = FLAG_C;
 3333              		.loc 2 255 0
 3334 0142 79D5     		beqz	a0,.L350
 256:../src/nes/K6502.c **** 
 3335              		.loc 2 256 0
 3336 0144 A3000601 		sb	a6,1(a2)
 3337 0148 F1B7     		j	.L320
 3338              	.L349:
 3339 014a B70E0000 		lui	t4,%hi(.LANCHOR11)
 3340 014e 93880E00 		addi	a7,t4,%lo(.LANCHOR11)
 262:../src/nes/K6502.c **** 
 3341              		.loc 2 262 0
 3342 0152 8145     		li	a1,0
 3343 0154 938E0E00 		addi	t4,t4,%lo(.LANCHOR11)
 271:../src/nes/K6502.c **** 
 3344              		.loc 2 271 0
 3345 0158 054F     		li	t5,1
 274:../src/nes/K6502.c **** 
 3346              		.loc 2 274 0
 3347 015a 854F     		li	t6,1
 3348              	.LVL283:
 3349              	.L328:
 270:../src/nes/K6502.c ****       g_ROLTable[ idx2 ][ idx ].byFlag = 0;
 3350              		.loc 2 270 0
 3351 015c 0146     		li	a2,0
 280:../src/nes/K6502.c **** 
 3352              		.loc 2 280 0
 3353 015e 13988500 		slli	a6,a1,8
 3354 0162 13F5F50F 		andi	a0,a1,0xff
 3355              	.LVL284:
 270:../src/nes/K6502.c ****       g_ROLTable[ idx2 ][ idx ].byFlag = 0;
 3356              		.loc 2 270 0
 3357 0166 139E8501 		slli	t3,a1,24
 277:../src/nes/K6502.c ****       else
 3358              		.loc 2 277 0
 3359 016a B307C800 		add	a5,a6,a2
 270:../src/nes/K6502.c ****       g_ROLTable[ idx2 ][ idx ].byFlag = 0;
 3360              		.loc 2 270 0
 3361 016e 135E8E41 		srai	t3,t3,24
 277:../src/nes/K6502.c ****       else
 3362              		.loc 2 277 0
 3363 0172 8607     		slli	a5,a5,1
 270:../src/nes/K6502.c ****       g_ROLTable[ idx2 ][ idx ].byFlag = 0;
 3364              		.loc 2 270 0
 3365 0174 2380AE00 		sb	a0,0(t4)
 271:../src/nes/K6502.c **** 
 3366              		.loc 2 271 0
 3367 0178 A3800E00 		sb	zero,1(t4)
 270:../src/nes/K6502.c ****       g_ROLTable[ idx2 ][ idx ].byFlag = 0;
 3368              		.loc 2 270 0
 3369 017c 7287     		mv	a4,t3
 271:../src/nes/K6502.c **** 
 3370              		.loc 2 271 0
 3371 017e 8546     		li	a3,1
 277:../src/nes/K6502.c ****       else
 3372              		.loc 2 277 0
 3373 0180 C697     		add	a5,a7,a5
 276:../src/nes/K6502.c ****         g_ROLTable[ idx2 ][ idx ].byFlag |= FLAG_Z;
 3374              		.loc 2 276 0
 3375 0182 21E9     		bnez	a0,.L325
 3376              	.LVL285:
 3377              	.L353:
 277:../src/nes/K6502.c ****       else
 3378              		.loc 2 277 0
 3379 0184 03C71700 		lbu	a4,1(a5)
 3380 0188 13672700 		ori	a4,a4,2
 3381 018c A380E700 		sb	a4,1(a5)
 3382              	.L326:
 3383              	.LVL286:
 270:../src/nes/K6502.c ****       g_ROLTable[ idx2 ][ idx ].byFlag = 0;
 3384              		.loc 2 270 0
 3385 0190 13971600 		slli	a4,a3,1
 3386 0194 3367EE00 		or	a4,t3,a4
 3387 0198 B307D800 		add	a5,a6,a3
 3388 019c 6207     		slli	a4,a4,24
 3389 019e 6187     		srai	a4,a4,24
 3390 01a0 8607     		slli	a5,a5,1
 273:../src/nes/K6502.c ****         g_ROLTable[ idx2 ][ idx ].byFlag = FLAG_C;
 3391              		.loc 2 273 0
 3392 01a2 93928601 		slli	t0,a3,24
 270:../src/nes/K6502.c ****       g_ROLTable[ idx2 ][ idx ].byFlag = 0;
 3393              		.loc 2 270 0
 3394 01a6 C697     		add	a5,a7,a5
 3395 01a8 1375F70F 		andi	a0,a4,0xff
 273:../src/nes/K6502.c ****         g_ROLTable[ idx2 ][ idx ].byFlag = FLAG_C;
 3396              		.loc 2 273 0
 3397 01ac 93D28241 		srai	t0,t0,24
 3398 01b0 13831600 		addi	t1,a3,1
 283:../src/nes/K6502.c ****   }
 3399              		.loc 2 283 0
 3400 01b4 9DCA     		beqz	a3,.L351
 271:../src/nes/K6502.c **** 
 3401              		.loc 2 271 0
 3402 01b6 A3800700 		sb	zero,1(a5)
 270:../src/nes/K6502.c ****       g_ROLTable[ idx2 ][ idx ].byFlag = 0;
 3403              		.loc 2 270 0
 3404 01ba 2380A700 		sb	a0,0(a5)
 3405 01be 3686     		mv	a2,a3
 273:../src/nes/K6502.c ****         g_ROLTable[ idx2 ][ idx ].byFlag = FLAG_C;
 3406              		.loc 2 273 0
 3407 01c0 63CF020E 		bltz	t0,.L352
 3408 01c4 9376F30F 		andi	a3,t1,0xff
 3409              	.LVL287:
 3410              	.L356:
 277:../src/nes/K6502.c ****       else
 3411              		.loc 2 277 0
 3412 01c8 B307C800 		add	a5,a6,a2
 3413 01cc 8607     		slli	a5,a5,1
 3414 01ce C697     		add	a5,a7,a5
 276:../src/nes/K6502.c ****         g_ROLTable[ idx2 ][ idx ].byFlag |= FLAG_Z;
 3415              		.loc 2 276 0
 3416 01d0 55D9     		beqz	a0,.L353
 3417              	.L325:
 279:../src/nes/K6502.c ****         g_ROLTable[ idx2 ][ idx ].byFlag |= FLAG_N;
 3418              		.loc 2 279 0
 3419 01d2 E35F07FA 		bgez	a4,.L326
 280:../src/nes/K6502.c **** 
 3420              		.loc 2 280 0
 3421 01d6 4296     		add	a2,a6,a2
 3422 01d8 0606     		slli	a2,a2,1
 3423 01da 4696     		add	a2,a7,a2
 3424 01dc 83471600 		lbu	a5,1(a2)
 3425 01e0 93E707F8 		ori	a5,a5,-128
 3426 01e4 A300F600 		sb	a5,1(a2)
 3427 01e8 65B7     		j	.L326
 3428              	.LVL288:
 3429              	.L351:
 3430 01ea 938E0E20 		addi	t4,t4,512
 265:../src/nes/K6502.c ****   {
 3431              		.loc 2 265 0 discriminator 2
 3432 01ee 639FE50B 		bne	a1,t5,.L338
 3433 01f2 B70E0000 		lui	t4,%hi(.LANCHOR12)
 3434 01f6 93880E00 		addi	a7,t4,%lo(.LANCHOR12)
 265:../src/nes/K6502.c ****   {
 3435              		.loc 2 265 0 is_stmt 0
 3436 01fa 014F     		li	t5,0
 3437 01fc 938E0E00 		addi	t4,t4,%lo(.LANCHOR12)
 3438 0200 814F     		li	t6,0
 293:../src/nes/K6502.c **** 
 3439              		.loc 2 293 0 is_stmt 1
 3440 0202 8542     		li	t0,1
 296:../src/nes/K6502.c **** 
 3441              		.loc 2 296 0
 3442 0204 054E     		li	t3,1
 3443              	.LVL289:
 3444              	.L335:
 292:../src/nes/K6502.c ****       g_RORTable[ idx2 ][ idx ].byFlag = 0;
 3445              		.loc 2 292 0
 3446 0206 13138F01 		slli	t1,t5,24
 3447 020a 13538341 		srai	t1,t1,24
 3448 020e 2380EE01 		sb	t5,0(t4)
 293:../src/nes/K6502.c **** 
 3449              		.loc 2 293 0
 3450 0212 A3800E00 		sb	zero,1(t4)
 292:../src/nes/K6502.c ****       g_RORTable[ idx2 ][ idx ].byFlag = 0;
 3451              		.loc 2 292 0
 3452 0216 7A85     		mv	a0,t5
 3453 0218 9A86     		mv	a3,t1
 293:../src/nes/K6502.c **** 
 3454              		.loc 2 293 0
 3455 021a 0547     		li	a4,1
 292:../src/nes/K6502.c ****       g_RORTable[ idx2 ][ idx ].byFlag = 0;
 3456              		.loc 2 292 0
 3457 021c 0146     		li	a2,0
 302:../src/nes/K6502.c **** 
 3458              		.loc 2 302 0
 3459 021e 13988F00 		slli	a6,t6,8
 3460 0222 35A8     		j	.L329
 3461              	.LVL290:
 3462              	.L355:
 299:../src/nes/K6502.c ****       else
 3463              		.loc 2 299 0
 3464 0224 83C61700 		lbu	a3,1(a5)
 3465 0228 93E62600 		ori	a3,a3,2
 3466 022c A380D700 		sb	a3,1(a5)
 3467              	.L333:
 3468              	.LVL291:
 292:../src/nes/K6502.c ****       g_RORTable[ idx2 ][ idx ].byFlag = 0;
 3469              		.loc 2 292 0
 3470 0230 93561700 		srli	a3,a4,1
 3471 0234 B307E800 		add	a5,a6,a4
 3472 0238 B366D300 		or	a3,t1,a3
 3473 023c 8607     		slli	a5,a5,1
 3474 023e C697     		add	a5,a7,a5
 3475 0240 13F5F60F 		andi	a0,a3,0xff
 295:../src/nes/K6502.c ****         g_RORTable[ idx2 ][ idx ].byFlag = FLAG_C;
 3476              		.loc 2 295 0
 3477 0244 93731700 		andi	t2,a4,1
 305:../src/nes/K6502.c ****   }
 3478              		.loc 2 305 0
 3479 0248 21CB     		beqz	a4,.L354
 3480              	.L334:
 292:../src/nes/K6502.c ****       g_RORTable[ idx2 ][ idx ].byFlag = 0;
 3481              		.loc 2 292 0
 3482 024a 2380A700 		sb	a0,0(a5)
 3483 024e 3A86     		mv	a2,a4
 295:../src/nes/K6502.c ****         g_RORTable[ idx2 ][ idx ].byFlag = FLAG_C;
 3484              		.loc 2 295 0
 3485 0250 639B0304 		bnez	t2,.L330
 293:../src/nes/K6502.c **** 
 3486              		.loc 2 293 0
 3487 0254 A3800700 		sb	zero,1(a5)
 3488              	.L331:
 3489 0258 0507     		addi	a4,a4,1
 3490              	.LVL292:
 3491 025a 1377F70F 		andi	a4,a4,0xff
 3492              	.L329:
 299:../src/nes/K6502.c ****       else
 3493              		.loc 2 299 0
 3494 025e B307C800 		add	a5,a6,a2
 3495 0262 8607     		slli	a5,a5,1
 3496 0264 C697     		add	a5,a7,a5
 298:../src/nes/K6502.c ****         g_RORTable[ idx2 ][ idx ].byFlag |= FLAG_Z;
 3497              		.loc 2 298 0
 3498 0266 5DDD     		beqz	a0,.L355
 301:../src/nes/K6502.c ****         g_RORTable[ idx2 ][ idx ].byFlag |= FLAG_N;
 3499              		.loc 2 301 0
 3500 0268 E3D406FC 		bgez	a3,.L333
 302:../src/nes/K6502.c **** 
 3501              		.loc 2 302 0
 3502 026c 4296     		add	a2,a6,a2
 3503 026e 0606     		slli	a2,a2,1
 3504 0270 4696     		add	a2,a7,a2
 3505 0272 83471600 		lbu	a5,1(a2)
 292:../src/nes/K6502.c ****       g_RORTable[ idx2 ][ idx ].byFlag = 0;
 3506              		.loc 2 292 0
 3507 0276 93561700 		srli	a3,a4,1
 3508 027a B366D300 		or	a3,t1,a3
 302:../src/nes/K6502.c **** 
 3509              		.loc 2 302 0
 3510 027e 93E707F8 		ori	a5,a5,-128
 3511 0282 A300F600 		sb	a5,1(a2)
 3512              	.LVL293:
 292:../src/nes/K6502.c ****       g_RORTable[ idx2 ][ idx ].byFlag = 0;
 3513              		.loc 2 292 0
 3514 0286 B307E800 		add	a5,a6,a4
 3515 028a 8607     		slli	a5,a5,1
 3516 028c C697     		add	a5,a7,a5
 3517 028e 13F5F60F 		andi	a0,a3,0xff
 295:../src/nes/K6502.c ****         g_RORTable[ idx2 ][ idx ].byFlag = FLAG_C;
 3518              		.loc 2 295 0
 3519 0292 93731700 		andi	t2,a4,1
 305:../src/nes/K6502.c ****   }
 3520              		.loc 2 305 0
 3521 0296 55FB     		bnez	a4,.L334
 3522              	.L354:
 3523              	.LVL294:
 3524 0298 134F0F08 		xori	t5,t5,128
 3525 029c 938E0E20 		addi	t4,t4,512
 287:../src/nes/K6502.c ****   {
 3526              		.loc 2 287 0 discriminator 2
 3527 02a0 63985F00 		bne	t6,t0,.L339
 3528 02a4 8280     		ret
 3529              	.LVL295:
 3530              	.L330:
 296:../src/nes/K6502.c **** 
 3531              		.loc 2 296 0
 3532 02a6 A380C701 		sb	t3,1(a5)
 3533 02aa 7DB7     		j	.L331
 3534              	.LVL296:
 3535              	.L338:
 3536 02ac 8545     		li	a1,1
 3537              	.LVL297:
 3538 02ae 7DB5     		j	.L328
 3539              	.LVL298:
 3540              	.L339:
 3541 02b0 AE8F     		mv	t6,a1
 3542              	.LVL299:
 3543 02b2 91BF     		j	.L335
 3544              	.LVL300:
 3545              	.L344:
 222:../src/nes/K6502.c ****     else
 3546              		.loc 2 222 0
 3547 02b4 3307F600 		add	a4,a2,a5
 3548 02b8 23000701 		sb	a6,0(a4)
 3549 02bc 79B3     		j	.L312
 3550              	.LVL301:
 3551              	.L352:
 274:../src/nes/K6502.c **** 
 3552              		.loc 2 274 0
 3553 02be A380F701 		sb	t6,1(a5)
 3554 02c2 9376F30F 		andi	a3,t1,0xff
 3555              	.LVL302:
 3556 02c6 09B7     		j	.L356
 3557              	.LVL303:
 3558              	.L347:
 237:../src/nes/K6502.c **** 
 3559              		.loc 2 237 0
 3560 02c8 A3801601 		sb	a7,1(a3)
 3561 02cc 9377F50F 		andi	a5,a0,0xff
 3562              	.LVL304:
 3563 02d0 C5BB     		j	.L357
 3564              		.cfi_endproc
 3565              	.LFE0:
 3567              		.section	.text.K6502_Reset,"ax",@progbits
 3568              		.align	1
 3569              		.globl	K6502_Reset
 3571              	K6502_Reset:
 3572              	.LFB1:
 315:../src/nes/K6502.c **** /*
 3573              		.loc 2 315 0
 3574              		.cfi_startproc
 3575              	.LVL305:
 3576              	.LBB389:
 3577              	.LBB390:
 3578              	.LBB391:
 3579              	.LBB392:
 198:../src/nes/K6502_rw.h ****   }
 3580              		.loc 1 198 0
 3581 0000 B7070000 		lui	a5,%hi(ROMBANK3)
 3582 0004 03A70700 		lw	a4,%lo(ROMBANK3)(a5)
 3583              	.LVL306:
 3584              	.LBE392:
 3585              	.LBE391:
 3586              	.LBB393:
 3587              	.LBB394:
 3588 0008 8967     		li	a5,8192
 3589 000a 3E97     		add	a4,a4,a5
 3590              	.LBE394:
 3591              	.LBE393:
 510:../src/nes/K6502_rw.h **** 
 511:../src/nes/K6502_rw.h **** // Reading/Writing operation (WORD version)
 512:../src/nes/K6502_rw.h **** static inline WORD K6502_ReadW( WORD wAddr ){ return K6502_Read( wAddr ) | (WORD)K6502_Read( wAddr 
 3592              		.loc 1 512 0
 3593 000c 8347D7FF 		lbu	a5,-3(a4)
 3594 0010 0346C7FF 		lbu	a2,-4(a4)
 3595              	.LBE390:
 3596              	.LBE389:
 328:../src/nes/K6502.c ****   IRQ_State = IRQ_Wiring;
 3597              		.loc 2 328 0
 3598 0014 37070000 		lui	a4,%hi(.LANCHOR5)
 3599              	.LBB396:
 3600              	.LBB395:
 3601              		.loc 1 512 0
 3602 0018 A207     		slli	a5,a5,8
 3603 001a D18F     		or	a5,a5,a2
 3604              	.LBE395:
 3605              	.LBE396:
 322:../src/nes/K6502.c ****   SP = 0xFF;
 3606              		.loc 2 322 0
 3607 001c 37060000 		lui	a2,%hi(.LANCHOR0)
 3608 0020 2310F600 		sh	a5,%lo(.LANCHOR0)(a2)
 323:../src/nes/K6502.c ****   A = X = Y = 0;
 3609              		.loc 2 323 0
 3610 0024 B7070000 		lui	a5,%hi(.LANCHOR13)
 3611 0028 7D56     		li	a2,-1
 3612 002a 2380C700 		sb	a2,%lo(.LANCHOR13)(a5)
 324:../src/nes/K6502.c ****   F = FLAG_Z | FLAG_R | FLAG_I;
 3613              		.loc 2 324 0
 3614 002e B7070000 		lui	a5,%hi(.LANCHOR3)
 3615 0032 23800700 		sb	zero,%lo(.LANCHOR3)(a5)
 3616 0036 B7070000 		lui	a5,%hi(.LANCHOR1)
 328:../src/nes/K6502.c ****   IRQ_State = IRQ_Wiring;
 3617              		.loc 2 328 0
 3618 003a 83460700 		lbu	a3,%lo(.LANCHOR5)(a4)
 324:../src/nes/K6502.c ****   F = FLAG_Z | FLAG_R | FLAG_I;
 3619              		.loc 2 324 0
 3620 003e 23800700 		sb	zero,%lo(.LANCHOR1)(a5)
 329:../src/nes/K6502.c **** 
 3621              		.loc 2 329 0
 3622 0042 37070000 		lui	a4,%hi(.LANCHOR7)
 324:../src/nes/K6502.c ****   F = FLAG_Z | FLAG_R | FLAG_I;
 3623              		.loc 2 324 0
 3624 0046 B7070000 		lui	a5,%hi(.LANCHOR14)
 329:../src/nes/K6502.c **** 
 3625              		.loc 2 329 0
 3626 004a 03470700 		lbu	a4,%lo(.LANCHOR7)(a4)
 324:../src/nes/K6502.c ****   F = FLAG_Z | FLAG_R | FLAG_I;
 3627              		.loc 2 324 0
 3628 004e 23800700 		sb	zero,%lo(.LANCHOR14)(a5)
 325:../src/nes/K6502.c **** 
 3629              		.loc 2 325 0
 3630 0052 13066002 		li	a2,38
 3631 0056 B7070000 		lui	a5,%hi(.LANCHOR15)
 3632 005a 2380C700 		sb	a2,%lo(.LANCHOR15)(a5)
 328:../src/nes/K6502.c ****   IRQ_State = IRQ_Wiring;
 3633              		.loc 2 328 0
 3634 005e B7070000 		lui	a5,%hi(.LANCHOR4)
 3635 0062 2380D700 		sb	a3,%lo(.LANCHOR4)(a5)
 329:../src/nes/K6502.c **** 
 3636              		.loc 2 329 0
 3637 0066 B7070000 		lui	a5,%hi(.LANCHOR6)
 3638 006a 2380E700 		sb	a4,%lo(.LANCHOR6)(a5)
 332:../src/nes/K6502.c **** }
 3639              		.loc 2 332 0
 3640 006e B7070000 		lui	a5,%hi(.LANCHOR2)
 3641 0072 23900700 		sh	zero,%lo(.LANCHOR2)(a5)
 333:../src/nes/K6502.c **** 
 3642              		.loc 2 333 0
 3643 0076 8280     		ret
 3644              		.cfi_endproc
 3645              	.LFE1:
 3647              		.section	.text.K6502_Set_Int_Wiring,"ax",@progbits
 3648              		.align	1
 3649              		.globl	K6502_Set_Int_Wiring
 3651              	K6502_Set_Int_Wiring:
 3652              	.LFB2:
 341:../src/nes/K6502.c **** /*
 3653              		.loc 2 341 0
 3654              		.cfi_startproc
 3655              	.LVL307:
 347:../src/nes/K6502.c ****   IRQ_Wiring = byIRQ_Wiring;
 3656              		.loc 2 347 0
 3657 0000 B7070000 		lui	a5,%hi(.LANCHOR5)
 3658 0004 2380A700 		sb	a0,%lo(.LANCHOR5)(a5)
 348:../src/nes/K6502.c **** }
 3659              		.loc 2 348 0
 3660 0008 B7070000 		lui	a5,%hi(.LANCHOR7)
 3661 000c 2380B700 		sb	a1,%lo(.LANCHOR7)(a5)
 349:../src/nes/K6502.c **** 
 3662              		.loc 2 349 0
 3663 0010 8280     		ret
 3664              		.cfi_endproc
 3665              	.LFE2:
 3667              		.section	.text.K6502_Step,"ax",@progbits
 3668              		.align	1
 3669              		.globl	K6502_Step
 3671              	K6502_Step:
 3672              	.LFB3:
 358:../src/nes/K6502.c **** /*
 3673              		.loc 2 358 0
 3674              		.cfi_startproc
 3675              	.LVL308:
 3676 0000 7971     		addi	sp,sp,-48
 3677              		.cfi_def_cfa_offset 48
 375:../src/nes/K6502.c ****   {
 3678              		.loc 2 375 0
 3679 0002 37070000 		lui	a4,%hi(.LANCHOR4)
 358:../src/nes/K6502.c **** /*
 3680              		.loc 2 358 0
 3681 0006 56CA     		sw	s5,20(sp)
 3682 0008 5AC8     		sw	s6,16(sp)
 375:../src/nes/K6502.c ****   {
 3683              		.loc 2 375 0
 3684 000a B7070000 		lui	a5,%hi(.LANCHOR5)
 358:../src/nes/K6502.c **** /*
 3685              		.loc 2 358 0
 3686 000e 06D6     		sw	ra,44(sp)
 3687 0010 22D4     		sw	s0,40(sp)
 3688 0012 26D2     		sw	s1,36(sp)
 3689 0014 4AD0     		sw	s2,32(sp)
 3690 0016 4ECE     		sw	s3,28(sp)
 3691 0018 52CC     		sw	s4,24(sp)
 3692 001a 5EC6     		sw	s7,12(sp)
 3693 001c 62C4     		sw	s8,8(sp)
 3694 001e 66C2     		sw	s9,4(sp)
 3695              		.cfi_offset 21, -28
 3696              		.cfi_offset 22, -32
 3697              		.cfi_offset 1, -4
 3698              		.cfi_offset 8, -8
 3699              		.cfi_offset 9, -12
 3700              		.cfi_offset 18, -16
 3701              		.cfi_offset 19, -20
 3702              		.cfi_offset 20, -24
 3703              		.cfi_offset 23, -36
 3704              		.cfi_offset 24, -40
 3705              		.cfi_offset 25, -44
 375:../src/nes/K6502.c ****   {
 3706              		.loc 2 375 0
 3707 0020 13070700 		addi	a4,a4,%lo(.LANCHOR4)
 3708 0024 03C30700 		lbu	t1,%lo(.LANCHOR5)(a5)
 3709 0028 83460700 		lbu	a3,0(a4)
 3710 002c B70A0000 		lui	s5,%hi(.LANCHOR2)
 3711 0030 938A0A00 		addi	s5,s5,%lo(.LANCHOR2)
 358:../src/nes/K6502.c **** /*
 3712              		.loc 2 358 0
 3713 0034 2A8B     		mv	s6,a0
 3714 0036 83D70A00 		lhu	a5,0(s5)
 375:../src/nes/K6502.c ****   {
 3715              		.loc 2 375 0
 3716 003a 63936618 		bne	a3,t1,.L975
 390:../src/nes/K6502.c ****   {
 3717              		.loc 2 390 0
 3718 003e 37070000 		lui	a4,%hi(.LANCHOR6)
 3719 0042 B7060000 		lui	a3,%hi(.LANCHOR7)
 3720 0046 13070700 		addi	a4,a4,%lo(.LANCHOR6)
 3721 004a 03C60600 		lbu	a2,%lo(.LANCHOR7)(a3)
 3722 004e 83460700 		lbu	a3,0(a4)
 3723 0052 638BC600 		beq	a3,a2,.L363
 394:../src/nes/K6502.c ****     {
 3724              		.loc 2 394 0
 3725 0056 B7040000 		lui	s1,%hi(.LANCHOR15)
 3726 005a 93840400 		addi	s1,s1,%lo(.LANCHOR15)
 3727 005e 83C60400 		lbu	a3,0(s1)
 3728 0062 918A     		andi	a3,a3,4
 3729 0064 63840630 		beqz	a3,.L976
 3730              	.L363:
 416:../src/nes/K6502.c ****     {
 3731              		.loc 2 416 0
 3732 0068 37040000 		lui	s0,%hi(.L388)
1033:../src/nes/K6502.c ****         break;
 3733              		.loc 2 1033 0
 3734 006c B7040000 		lui	s1,%hi(.LANCHOR8)
 3735              	.LBB730:
 3736              	.LBB731:
  44:../src/nes/K6502_rw.h **** }
 3737              		.loc 1 44 0
 3738 0070 37090000 		lui	s2,%hi(RAM)
 3739              	.LBE731:
 3740              	.LBE730:
 3741              	.LBB740:
 3742              	.LBB741:
 3743              	.LBB742:
 3744              	.LBB743:
 183:../src/nes/K6502_rw.h ****       } else {    /* SRAM BANK */
 3745              		.loc 1 183 0
 3746 0074 B7090000 		lui	s3,%hi(SRAM)
 3747              	.LBE743:
 3748              	.LBE742:
 3749              	.LBE741:
 3750              	.LBE740:
 416:../src/nes/K6502.c ****     {
 3751              		.loc 2 416 0
 3752 0078 13040400 		addi	s0,s0,%lo(.L388)
1033:../src/nes/K6502.c ****         break;
 3753              		.loc 2 1033 0
 3754 007c 93840400 		addi	s1,s1,%lo(.LANCHOR8)
 3755              	.LBB869:
 3756              	.LBB732:
  44:../src/nes/K6502_rw.h **** }
 3757              		.loc 1 44 0
 3758 0080 13090900 		addi	s2,s2,%lo(RAM)
 3759              	.LBE732:
 3760              	.LBE869:
 3761              	.LBB870:
 3762              	.LBB838:
 3763              	.LBB770:
 3764              	.LBB749:
 183:../src/nes/K6502_rw.h ****       } else {    /* SRAM BANK */
 3765              		.loc 1 183 0
 3766 0084 93890900 		addi	s3,s3,%lo(SRAM)
 3767              	.LVL309:
 3768              	.L362:
 3769              	.LBE749:
 3770              	.LBE770:
 3771              	.LBE838:
 3772              	.LBE870:
 410:../src/nes/K6502.c ****   {
 3773              		.loc 2 410 0
 3774 0088 63FF6707 		bleu	s6,a5,.L977
 413:../src/nes/K6502.c **** 
 3775              		.loc 2 413 0
 3776 008c 370A0000 		lui	s4,%hi(.LANCHOR0)
 3777 0090 130A0A00 		addi	s4,s4,%lo(.LANCHOR0)
 3778 0094 03550A00 		lhu	a0,0(s4)
 3779              	.LBB871:
 3780              	.LBB872:
  74:../src/nes/K6502_rw.h ****   {
 3781              		.loc 1 74 0
 3782 0098 9966     		li	a3,24576
 3783              	.LBE872:
 3784              	.LBE871:
 413:../src/nes/K6502.c **** 
 3785              		.loc 2 413 0
 3786 009a 13071500 		addi	a4,a0,1
 3787 009e 2310EA00 		sh	a4,0(s4)
 3788              	.LVL310:
 3789              	.LBB883:
 3790              	.LBB876:
  74:../src/nes/K6502_rw.h ****   {
 3791              		.loc 1 74 0
 3792 00a2 7977     		li	a4,-8192
 3793 00a4 698F     		and	a4,a0,a4
 3794 00a6 6309D70E 		beq	a4,a3,.L365
 3795 00aa 63FFE602 		bleu	a4,a3,.L978
 3796 00ae A967     		li	a5,40960
 3797 00b0 6304F708 		beq	a4,a5,.L370
 3798 00b4 63FAE706 		bleu	a4,a5,.L979
 3799 00b8 B167     		li	a5,49152
 3800 00ba 6303F70A 		beq	a4,a5,.L373
 3801 00be B967     		li	a5,57344
 3802 00c0 631BF702 		bne	a4,a5,.L364
 198:../src/nes/K6502_rw.h ****   }
 3803              		.loc 1 198 0
 3804 00c4 B7070000 		lui	a5,%hi(ROMBANK3)
 3805 00c8 03A70700 		lw	a4,%lo(ROMBANK3)(a5)
 3806              	.L957:
 195:../src/nes/K6502_rw.h **** 
 3807              		.loc 1 195 0
 3808 00cc 8967     		li	a5,8192
 3809 00ce FD17     		addi	a5,a5,-1
 3810 00d0 7D8D     		and	a0,a0,a5
 3811              	.LVL311:
 3812 00d2 3A95     		add	a0,a4,a0
 3813 00d4 03450500 		lbu	a0,0(a0)
 3814              	.L375:
 3815              	.LBE876:
 3816              	.LBE883:
 416:../src/nes/K6502.c ****     {
 3817              		.loc 2 416 0
 3818 00d8 9307E00F 		li	a5,254
 3819 00dc 63E4A734 		bgtu	a0,a5,.L386
 3820 00e0 0A05     		slli	a0,a0,2
 3821 00e2 2295     		add	a0,a0,s0
 3822 00e4 1C41     		lw	a5,0(a0)
 3823 00e6 8287     		jr	a5
 3824              		.section	.rodata.K6502_Step,"a",@progbits
 3825              		.align	2
 3826              		.align	2
 3827              	.L388:
 3828 0000 00000000 		.word	.L387
 3829 0004 00000000 		.word	.L389
 3830 0008 00000000 		.word	.L386
 3831 000c 00000000 		.word	.L386
 3832 0010 00000000 		.word	.L390
 3833 0014 00000000 		.word	.L391
 3834 0018 00000000 		.word	.L392
 3835 001c 00000000 		.word	.L386
 3836 0020 00000000 		.word	.L393
 3837 0024 00000000 		.word	.L394
 3838 0028 00000000 		.word	.L395
 3839 002c 00000000 		.word	.L386
 3840 0030 00000000 		.word	.L396
 3841 0034 00000000 		.word	.L397
 3842 0038 00000000 		.word	.L398
 3843 003c 00000000 		.word	.L386
 3844 0040 00000000 		.word	.L399
 3845 0044 00000000 		.word	.L400
 3846 0048 00000000 		.word	.L386
 3847 004c 00000000 		.word	.L386
 3848 0050 00000000 		.word	.L401
 3849 0054 00000000 		.word	.L402
 3850 0058 00000000 		.word	.L403
 3851 005c 00000000 		.word	.L386
 3852 0060 00000000 		.word	.L404
 3853 0064 00000000 		.word	.L405
 3854 0068 00000000 		.word	.L386
 3855 006c 00000000 		.word	.L386
 3856 0070 00000000 		.word	.L396
 3857 0074 00000000 		.word	.L406
 3858 0078 00000000 		.word	.L407
 3859 007c 00000000 		.word	.L386
 3860 0080 00000000 		.word	.L408
 3861 0084 00000000 		.word	.L409
 3862 0088 00000000 		.word	.L386
 3863 008c 00000000 		.word	.L386
 3864 0090 00000000 		.word	.L410
 3865 0094 00000000 		.word	.L411
 3866 0098 00000000 		.word	.L412
 3867 009c 00000000 		.word	.L386
 3868 00a0 00000000 		.word	.L413
 3869 00a4 00000000 		.word	.L414
 3870 00a8 00000000 		.word	.L415
 3871 00ac 00000000 		.word	.L386
 3872 00b0 00000000 		.word	.L416
 3873 00b4 00000000 		.word	.L417
 3874 00b8 00000000 		.word	.L418
 3875 00bc 00000000 		.word	.L386
 3876 00c0 00000000 		.word	.L419
 3877 00c4 00000000 		.word	.L420
 3878 00c8 00000000 		.word	.L386
 3879 00cc 00000000 		.word	.L386
 3880 00d0 00000000 		.word	.L401
 3881 00d4 00000000 		.word	.L421
 3882 00d8 00000000 		.word	.L422
 3883 00dc 00000000 		.word	.L386
 3884 00e0 00000000 		.word	.L423
 3885 00e4 00000000 		.word	.L424
 3886 00e8 00000000 		.word	.L386
 3887 00ec 00000000 		.word	.L386
 3888 00f0 00000000 		.word	.L396
 3889 00f4 00000000 		.word	.L425
 3890 00f8 00000000 		.word	.L426
 3891 00fc 00000000 		.word	.L386
 3892 0100 00000000 		.word	.L427
 3893 0104 00000000 		.word	.L428
 3894 0108 00000000 		.word	.L386
 3895 010c 00000000 		.word	.L386
 3896 0110 00000000 		.word	.L390
 3897 0114 00000000 		.word	.L429
 3898 0118 00000000 		.word	.L430
 3899 011c 00000000 		.word	.L386
 3900 0120 00000000 		.word	.L431
 3901 0124 00000000 		.word	.L432
 3902 0128 00000000 		.word	.L433
 3903 012c 00000000 		.word	.L386
 3904 0130 00000000 		.word	.L434
 3905 0134 00000000 		.word	.L435
 3906 0138 00000000 		.word	.L436
 3907 013c 00000000 		.word	.L386
 3908 0140 00000000 		.word	.L437
 3909 0144 00000000 		.word	.L438
