   1              		.file	"InfoNES.c"
   2              		.option nopic
   3              		.text
   4              	.Ltext0:
   5              		.cfi_sections	.debug_frame
   6              		.section	.text.InfoNES_Init,"ax",@progbits
   7              		.align	1
   8              		.globl	InfoNES_Init
  10              	InfoNES_Init:
  11              	.LFB0:
  12              		.file 1 "../src/InfoNES.c"
   1:../src/InfoNES.c **** /*===================================================================*/
   2:../src/InfoNES.c **** /*                                                                   */
   3:../src/InfoNES.c **** /*  InfoNES.cpp : NES Emulator for Win32, Linux(x86), Linux(PS2)     */
   4:../src/InfoNES.c **** /*                                                                   */
   5:../src/InfoNES.c **** /*  2000/05/18  InfoNES Project ( based on pNesX )                   */
   6:../src/InfoNES.c **** /*                                                                   */
   7:../src/InfoNES.c **** /*===================================================================*/
   8:../src/InfoNES.c **** 
   9:../src/InfoNES.c **** /*-------------------------------------------------------------------
  10:../src/InfoNES.c ****  * File List :
  11:../src/InfoNES.c ****  *
  12:../src/InfoNES.c ****  * [NES Hardware]
  13:../src/InfoNES.c ****  *   InfoNES.cpp
  14:../src/InfoNES.c ****  *   InfoNES.h
  15:../src/InfoNES.c ****  *   K6502_rw.h
  16:../src/InfoNES.c ****  *
  17:../src/InfoNES.c ****  * [Mapper function]
  18:../src/InfoNES.c ****  *   InfoNES_Mapper.cpp
  19:../src/InfoNES.c ****  *   InfoNES_Mapper.h
  20:../src/InfoNES.c ****  *
  21:../src/InfoNES.c ****  * [The function which depends on a system]
  22:../src/InfoNES.c ****  *   InfoNES_System_ooo.cpp (ooo is a system name. win, ...)
  23:../src/InfoNES.c ****  *   InfoNES_System.h
  24:../src/InfoNES.c ****  *
  25:../src/InfoNES.c ****  * [CPU]
  26:../src/InfoNES.c ****  *   K6502.cpp
  27:../src/InfoNES.c ****  *   K6502.h
  28:../src/InfoNES.c ****  *
  29:../src/InfoNES.c ****  * [Others]
  30:../src/InfoNES.c ****  *   InfoNES_Types.h
  31:../src/InfoNES.c ****  *
  32:../src/InfoNES.c ****  --------------------------------------------------------------------*/
  33:../src/InfoNES.c **** /*-------------------------------------------------------------------*/
  34:../src/InfoNES.c **** /*  Include files                                                    */
  35:../src/InfoNES.c **** /*-------------------------------------------------------------------*/
  36:../src/InfoNES.c **** 
  37:../src/InfoNES.c **** #include "InfoNES.h"
  38:../src/InfoNES.c **** #include "InfoNES_System.h"
  39:../src/InfoNES.c **** #include "InfoNES_Mapper.h"
  40:../src/InfoNES.c **** #include "InfoNES_pAPU.h"
  41:../src/InfoNES.c **** #include "K6502.h"
  42:../src/InfoNES.c **** 
  43:../src/InfoNES.c **** #ifdef __cplusplus 
  44:../src/InfoNES.c **** extern "C" { 
  45:../src/InfoNES.c **** #endif /* __cplusplus */ 
  46:../src/InfoNES.c **** 
  47:../src/InfoNES.c **** /*-------------------------------------------------------------------*/
  48:../src/InfoNES.c **** /*  NES resources                                                    */
  49:../src/InfoNES.c **** /*-------------------------------------------------------------------*/
  50:../src/InfoNES.c **** 
  51:../src/InfoNES.c **** /* RAM */
  52:../src/InfoNES.c **** BYTE RAM[ RAM_SIZE ];
  53:../src/InfoNES.c **** 
  54:../src/InfoNES.c **** /* SRAM */
  55:../src/InfoNES.c **** BYTE SRAM[ SRAM_SIZE ];
  56:../src/InfoNES.c **** 
  57:../src/InfoNES.c **** /* ROM */
  58:../src/InfoNES.c **** BYTE *ROM;
  59:../src/InfoNES.c **** 
  60:../src/InfoNES.c **** /* SRAM BANK ( 8Kb ) */
  61:../src/InfoNES.c **** BYTE *SRAMBANK;
  62:../src/InfoNES.c **** 
  63:../src/InfoNES.c **** /* ROM BANK ( 8Kb * 4 ) */
  64:../src/InfoNES.c **** BYTE *ROMBANK0;
  65:../src/InfoNES.c **** BYTE *ROMBANK1;
  66:../src/InfoNES.c **** BYTE *ROMBANK2;
  67:../src/InfoNES.c **** BYTE *ROMBANK3;
  68:../src/InfoNES.c **** 
  69:../src/InfoNES.c **** /*-------------------------------------------------------------------*/
  70:../src/InfoNES.c **** /*  PPU resources                                                    */
  71:../src/InfoNES.c **** /*-------------------------------------------------------------------*/
  72:../src/InfoNES.c **** 
  73:../src/InfoNES.c **** /* PPU RAM */
  74:../src/InfoNES.c **** BYTE PPURAM[ PPURAM_SIZE ];
  75:../src/InfoNES.c **** 
  76:../src/InfoNES.c **** /* VROM */
  77:../src/InfoNES.c **** BYTE *VROM;
  78:../src/InfoNES.c **** 
  79:../src/InfoNES.c **** /* PPU BANK ( 1Kb * 16 ) */
  80:../src/InfoNES.c **** BYTE *PPUBANK[ 16 ];
  81:../src/InfoNES.c **** 
  82:../src/InfoNES.c **** /* Sprite RAM */
  83:../src/InfoNES.c **** BYTE SPRRAM[ SPRRAM_SIZE ];
  84:../src/InfoNES.c **** 
  85:../src/InfoNES.c **** /* PPU Register */
  86:../src/InfoNES.c **** BYTE PPU_R0;
  87:../src/InfoNES.c **** BYTE PPU_R1;
  88:../src/InfoNES.c **** BYTE PPU_R2;
  89:../src/InfoNES.c **** BYTE PPU_R3;
  90:../src/InfoNES.c **** BYTE PPU_R7;
  91:../src/InfoNES.c **** 
  92:../src/InfoNES.c **** /* Vertical scroll value */
  93:../src/InfoNES.c **** BYTE PPU_Scr_V;
  94:../src/InfoNES.c **** BYTE PPU_Scr_V_Next;
  95:../src/InfoNES.c **** BYTE PPU_Scr_V_Byte;
  96:../src/InfoNES.c **** BYTE PPU_Scr_V_Byte_Next;
  97:../src/InfoNES.c **** BYTE PPU_Scr_V_Bit;
  98:../src/InfoNES.c **** BYTE PPU_Scr_V_Bit_Next;
  99:../src/InfoNES.c **** 
 100:../src/InfoNES.c **** /* Horizontal scroll value */
 101:../src/InfoNES.c **** BYTE PPU_Scr_H;
 102:../src/InfoNES.c **** BYTE PPU_Scr_H_Next;
 103:../src/InfoNES.c **** BYTE PPU_Scr_H_Byte;
 104:../src/InfoNES.c **** BYTE PPU_Scr_H_Byte_Next;
 105:../src/InfoNES.c **** BYTE PPU_Scr_H_Bit;
 106:../src/InfoNES.c **** BYTE PPU_Scr_H_Bit_Next;
 107:../src/InfoNES.c **** 
 108:../src/InfoNES.c **** /* PPU Address */
 109:../src/InfoNES.c **** WORD PPU_Addr;
 110:../src/InfoNES.c **** 
 111:../src/InfoNES.c **** /* PPU Address */
 112:../src/InfoNES.c **** WORD PPU_Temp;
 113:../src/InfoNES.c **** 
 114:../src/InfoNES.c **** /* The increase value of the PPU Address */
 115:../src/InfoNES.c **** WORD PPU_Increment;
 116:../src/InfoNES.c **** 
 117:../src/InfoNES.c **** /* Current Scanline */
 118:../src/InfoNES.c **** WORD PPU_Scanline;
 119:../src/InfoNES.c **** 
 120:../src/InfoNES.c **** /* Scanline Table */
 121:../src/InfoNES.c **** BYTE PPU_ScanTable[ 263 ];
 122:../src/InfoNES.c **** 
 123:../src/InfoNES.c **** /* Name Table Bank */
 124:../src/InfoNES.c **** BYTE PPU_NameTableBank;
 125:../src/InfoNES.c **** 
 126:../src/InfoNES.c **** /* BG Base Address */
 127:../src/InfoNES.c **** BYTE *PPU_BG_Base;
 128:../src/InfoNES.c **** 
 129:../src/InfoNES.c **** /* Sprite Base Address */
 130:../src/InfoNES.c **** BYTE *PPU_SP_Base;
 131:../src/InfoNES.c **** 
 132:../src/InfoNES.c **** /* Sprite Height */
 133:../src/InfoNES.c **** WORD PPU_SP_Height;
 134:../src/InfoNES.c **** 
 135:../src/InfoNES.c **** /* Sprite #0 Scanline Hit Position */
 136:../src/InfoNES.c **** int SpriteJustHit;
 137:../src/InfoNES.c **** 
 138:../src/InfoNES.c **** /* VRAM Write Enable ( 0: Disable, 1: Enable ) */
 139:../src/InfoNES.c **** BYTE byVramWriteEnable;
 140:../src/InfoNES.c **** 
 141:../src/InfoNES.c **** /* PPU Address and Scroll Latch Flag*/
 142:../src/InfoNES.c **** BYTE PPU_Latch_Flag;
 143:../src/InfoNES.c **** 
 144:../src/InfoNES.c **** /* Up and Down Clipping Flag ( 0: non-clip, 1: clip ) */ 
 145:../src/InfoNES.c **** BYTE PPU_UpDown_Clip;
 146:../src/InfoNES.c **** 
 147:../src/InfoNES.c **** /* Frame IRQ ( 0: Disabled, 1: Enabled )*/
 148:../src/InfoNES.c **** BYTE FrameIRQ_Enable;
 149:../src/InfoNES.c **** WORD FrameStep;
 150:../src/InfoNES.c **** 
 151:../src/InfoNES.c **** /*-------------------------------------------------------------------*/
 152:../src/InfoNES.c **** /*  Display and Others resouces                                      */
 153:../src/InfoNES.c **** /*-------------------------------------------------------------------*/
 154:../src/InfoNES.c **** 
 155:../src/InfoNES.c **** /* Frame Skip */
 156:../src/InfoNES.c **** WORD FrameSkip;
 157:../src/InfoNES.c **** WORD FrameCnt;
 158:../src/InfoNES.c **** 
 159:../src/InfoNES.c **** /* Display Buffer */
 160:../src/InfoNES.c **** #if 0
 161:../src/InfoNES.c **** WORD DoubleFrame[ 2 ][ NES_DISP_WIDTH * NES_DISP_HEIGHT ];
 162:../src/InfoNES.c **** WORD *WorkFrame;
 163:../src/InfoNES.c **** WORD WorkFrameIdx;
 164:../src/InfoNES.c **** #else
 165:../src/InfoNES.c **** WORD WorkFrame[ NES_DISP_WIDTH * NES_DISP_HEIGHT ];
 166:../src/InfoNES.c **** #endif
 167:../src/InfoNES.c **** 
 168:../src/InfoNES.c **** /* Character Buffer */
 169:../src/InfoNES.c **** BYTE ChrBuf[ 256 * 2 * 8 * 8 ];
 170:../src/InfoNES.c **** 
 171:../src/InfoNES.c **** /* Update flag for ChrBuf */
 172:../src/InfoNES.c **** BYTE ChrBufUpdate;
 173:../src/InfoNES.c **** 
 174:../src/InfoNES.c **** /* Palette Table */
 175:../src/InfoNES.c **** WORD PalTable[ 32 ];
 176:../src/InfoNES.c **** 
 177:../src/InfoNES.c **** /* Table for Mirroring */
 178:../src/InfoNES.c **** BYTE PPU_MirrorTable[][ 4 ] =
 179:../src/InfoNES.c **** {
 180:../src/InfoNES.c ****   { NAME_TABLE0, NAME_TABLE0, NAME_TABLE1, NAME_TABLE1 },
 181:../src/InfoNES.c ****   { NAME_TABLE0, NAME_TABLE1, NAME_TABLE0, NAME_TABLE1 },
 182:../src/InfoNES.c ****   { NAME_TABLE1, NAME_TABLE1, NAME_TABLE1, NAME_TABLE1 },
 183:../src/InfoNES.c ****   { NAME_TABLE0, NAME_TABLE0, NAME_TABLE0, NAME_TABLE0 },
 184:../src/InfoNES.c ****   { NAME_TABLE0, NAME_TABLE1, NAME_TABLE2, NAME_TABLE3 },
 185:../src/InfoNES.c ****   { NAME_TABLE0, NAME_TABLE0, NAME_TABLE0, NAME_TABLE1 }
 186:../src/InfoNES.c **** };
 187:../src/InfoNES.c **** 
 188:../src/InfoNES.c **** /*-------------------------------------------------------------------*/
 189:../src/InfoNES.c **** /*  APU and Pad resources                                            */
 190:../src/InfoNES.c **** /*-------------------------------------------------------------------*/
 191:../src/InfoNES.c **** 
 192:../src/InfoNES.c **** #ifndef APU_NONE
 193:../src/InfoNES.c **** /* APU Register */
 194:../src/InfoNES.c **** BYTE APU_Reg[ 0x18 ];
 195:../src/InfoNES.c **** 
 196:../src/InfoNES.c **** /* APU Mute ( 0:OFF, 1:ON ) */
 197:../src/InfoNES.c **** int APU_Mute = 0;
 198:../src/InfoNES.c **** #endif /* APU_NONE */
 199:../src/InfoNES.c **** 
 200:../src/InfoNES.c **** /* Pad data */
 201:../src/InfoNES.c **** DWORD PAD1_Latch;
 202:../src/InfoNES.c **** DWORD PAD2_Latch;
 203:../src/InfoNES.c **** DWORD PAD_System;
 204:../src/InfoNES.c **** DWORD PAD1_Bit;
 205:../src/InfoNES.c **** DWORD PAD2_Bit;
 206:../src/InfoNES.c **** 
 207:../src/InfoNES.c **** /*-------------------------------------------------------------------*/
 208:../src/InfoNES.c **** /*  Mapper Function                                                  */
 209:../src/InfoNES.c **** /*-------------------------------------------------------------------*/
 210:../src/InfoNES.c **** 
 211:../src/InfoNES.c **** /* Initialize Mapper */
 212:../src/InfoNES.c **** void (*MapperInit)();
 213:../src/InfoNES.c **** /* Write to Mapper */
 214:../src/InfoNES.c **** void (*MapperWrite)( WORD wAddr, BYTE byData );
 215:../src/InfoNES.c **** /* Write to SRAM */
 216:../src/InfoNES.c **** void (*MapperSram)( WORD wAddr, BYTE byData );
 217:../src/InfoNES.c **** /* Write to Apu */
 218:../src/InfoNES.c **** void (*MapperApu)( WORD wAddr, BYTE byData );
 219:../src/InfoNES.c **** /* Read from Apu */
 220:../src/InfoNES.c **** BYTE (*MapperReadApu)( WORD wAddr );
 221:../src/InfoNES.c **** /* Callback at VSync */
 222:../src/InfoNES.c **** void (*MapperVSync)();
 223:../src/InfoNES.c **** /* Callback at HSync */
 224:../src/InfoNES.c **** void (*MapperHSync)();
 225:../src/InfoNES.c **** /* Callback at PPU read/write */
 226:../src/InfoNES.c **** void (*MapperPPU)( WORD wAddr );
 227:../src/InfoNES.c **** /* Callback at Rendering Screen 1:BG, 0:Sprite */
 228:../src/InfoNES.c **** void (*MapperRenderScreen)( BYTE byMode );
 229:../src/InfoNES.c **** 
 230:../src/InfoNES.c **** /*-------------------------------------------------------------------*/
 231:../src/InfoNES.c **** /*  ROM information                                                  */
 232:../src/InfoNES.c **** /*-------------------------------------------------------------------*/
 233:../src/InfoNES.c **** 
 234:../src/InfoNES.c **** /* .nes File Header */
 235:../src/InfoNES.c **** struct NesHeader_tag NesHeader;
 236:../src/InfoNES.c **** 
 237:../src/InfoNES.c **** /* Mapper Number */
 238:../src/InfoNES.c **** BYTE MapperNo;
 239:../src/InfoNES.c **** 
 240:../src/InfoNES.c **** /* Mirroring 0:Horizontal 1:Vertical */
 241:../src/InfoNES.c **** BYTE ROM_Mirroring;
 242:../src/InfoNES.c **** /* It has SRAM */
 243:../src/InfoNES.c **** BYTE ROM_SRAM;
 244:../src/InfoNES.c **** /* It has Trainer */
 245:../src/InfoNES.c **** BYTE ROM_Trainer;
 246:../src/InfoNES.c **** /* Four screen VRAM  */
 247:../src/InfoNES.c **** BYTE ROM_FourScr;
 248:../src/InfoNES.c **** 
 249:../src/InfoNES.c **** /*===================================================================*/
 250:../src/InfoNES.c **** /*                                                                   */
 251:../src/InfoNES.c **** /*                InfoNES_Init() : Initialize InfoNES                */
 252:../src/InfoNES.c **** /*                                                                   */
 253:../src/InfoNES.c **** /*===================================================================*/
 254:../src/InfoNES.c **** void InfoNES_Init()
 255:../src/InfoNES.c **** {
  13              		.loc 1 255 0
  14              		.cfi_startproc
  15 0000 4111     		addi	sp,sp,-16
  16              		.cfi_def_cfa_offset 16
  17 0002 06C6     		sw	ra,12(sp)
  18              		.cfi_offset 1, -4
 256:../src/InfoNES.c **** /*
 257:../src/InfoNES.c ****  *  Initialize InfoNES
 258:../src/InfoNES.c ****  *
 259:../src/InfoNES.c ****  *  Remarks
 260:../src/InfoNES.c ****  *    Initialize K6502 and Scanline Table.
 261:../src/InfoNES.c ****  */
 262:../src/InfoNES.c ****   int nIdx;
 263:../src/InfoNES.c **** 
 264:../src/InfoNES.c ****   // Initialize 6502
 265:../src/InfoNES.c ****   K6502_Init();
  19              		.loc 1 265 0
  20 0004 97000000 		call	K6502_Init
  20      E7800000 
  21              	.LVL0:
  22 000c 37070000 		lui	a4,%hi(.LANCHOR0)
  23 0010 13070700 		addi	a4,a4,%lo(.LANCHOR0)
 266:../src/InfoNES.c **** 
 267:../src/InfoNES.c ****   // Initialize Scanline Table
 268:../src/InfoNES.c ****   for ( nIdx = 0; nIdx < 263; ++nIdx )
  24              		.loc 1 268 0
  25 0014 8147     		li	a5,0
 269:../src/InfoNES.c ****   {
 270:../src/InfoNES.c ****     if ( nIdx < SCAN_ON_SCREEN_START )
  26              		.loc 1 270 0
  27 0016 1D46     		li	a2,7
 271:../src/InfoNES.c ****       PPU_ScanTable[ nIdx ] = SCAN_ON_SCREEN;
 272:../src/InfoNES.c ****     else
 273:../src/InfoNES.c ****     if ( nIdx < SCAN_BOTTOM_OFF_SCREEN_START )
  28              		.loc 1 273 0
  29 0018 1305700E 		li	a0,231
 274:../src/InfoNES.c ****       PPU_ScanTable[ nIdx ] = SCAN_ON_SCREEN;
 275:../src/InfoNES.c ****     else
 276:../src/InfoNES.c ****     if ( nIdx < SCAN_UNKNOWN_START )
  30              		.loc 1 276 0
  31 001c 1308F00E 		li	a6,239
 277:../src/InfoNES.c ****       PPU_ScanTable[ nIdx ] = SCAN_ON_SCREEN;
 278:../src/InfoNES.c ****     else
 279:../src/InfoNES.c ****     if ( nIdx < SCAN_VBLANK_START )
  32              		.loc 1 279 0
  33 0020 1303200F 		li	t1,242
 280:../src/InfoNES.c ****       PPU_ScanTable[ nIdx ] = SCAN_UNKNOWN;
 281:../src/InfoNES.c ****     else
 282:../src/InfoNES.c ****       PPU_ScanTable[ nIdx ] = SCAN_VBLANK;
  34              		.loc 1 282 0
  35 0024 114E     		li	t3,4
 280:../src/InfoNES.c ****       PPU_ScanTable[ nIdx ] = SCAN_UNKNOWN;
  36              		.loc 1 280 0
  37 0026 8D48     		li	a7,3
 277:../src/InfoNES.c ****       PPU_ScanTable[ nIdx ] = SCAN_ON_SCREEN;
  38              		.loc 1 277 0
  39 0028 8545     		li	a1,1
 268:../src/InfoNES.c ****   {
  40              		.loc 1 268 0
  41 002a 93067010 		li	a3,263
  42              	.LVL1:
  43              	.L7:
 270:../src/InfoNES.c ****       PPU_ScanTable[ nIdx ] = SCAN_ON_SCREEN;
  44              		.loc 1 270 0
  45 002e 6354F600 		ble	a5,a2,.L11
 273:../src/InfoNES.c ****       PPU_ScanTable[ nIdx ] = SCAN_ON_SCREEN;
  46              		.loc 1 273 0
  47 0032 634BF500 		bgt	a5,a0,.L4
  48              	.L11:
 277:../src/InfoNES.c ****     else
  49              		.loc 1 277 0
  50 0036 2300B700 		sb	a1,0(a4)
  51              	.L3:
 268:../src/InfoNES.c ****   {
  52              		.loc 1 268 0 discriminator 2
  53 003a 8507     		addi	a5,a5,1
  54              	.LVL2:
  55 003c 0507     		addi	a4,a4,1
  56 003e E398D7FE 		bne	a5,a3,.L7
 283:../src/InfoNES.c ****   }
 284:../src/InfoNES.c **** }
  57              		.loc 1 284 0
  58 0042 B240     		lw	ra,12(sp)
  59              		.cfi_remember_state
  60              		.cfi_restore 1
  61 0044 4101     		addi	sp,sp,16
  62              		.cfi_def_cfa_offset 0
  63 0046 8280     		jr	ra
  64              	.L4:
  65              		.cfi_restore_state
 276:../src/InfoNES.c ****       PPU_ScanTable[ nIdx ] = SCAN_ON_SCREEN;
  66              		.loc 1 276 0
  67 0048 E357F8FE 		ble	a5,a6,.L11
 279:../src/InfoNES.c ****       PPU_ScanTable[ nIdx ] = SCAN_UNKNOWN;
  68              		.loc 1 279 0
  69 004c 6345F300 		bgt	a5,t1,.L6
 280:../src/InfoNES.c ****     else
  70              		.loc 1 280 0
  71 0050 23001701 		sb	a7,0(a4)
  72 0054 DDB7     		j	.L3
  73              	.L6:
 282:../src/InfoNES.c ****   }
  74              		.loc 1 282 0
  75 0056 2300C701 		sb	t3,0(a4)
  76 005a C5B7     		j	.L3
  77              		.cfi_endproc
  78              	.LFE0:
  80              		.section	.text.InfoNES_Fin,"ax",@progbits
  81              		.align	1
  82              		.globl	InfoNES_Fin
  84              	InfoNES_Fin:
  85              	.LFB1:
 285:../src/InfoNES.c **** 
 286:../src/InfoNES.c **** /*===================================================================*/
 287:../src/InfoNES.c **** /*                                                                   */
 288:../src/InfoNES.c **** /*                InfoNES_Fin() : Completion treatment               */
 289:../src/InfoNES.c **** /*                                                                   */
 290:../src/InfoNES.c **** /*===================================================================*/
 291:../src/InfoNES.c **** void InfoNES_Fin()
 292:../src/InfoNES.c **** {
  86              		.loc 1 292 0
  87              		.cfi_startproc
 293:../src/InfoNES.c **** /*
 294:../src/InfoNES.c ****  *  Completion treatment
 295:../src/InfoNES.c ****  *
 296:../src/InfoNES.c ****  *  Remarks
 297:../src/InfoNES.c ****  *    Release resources
 298:../src/InfoNES.c ****  */
 299:../src/InfoNES.c **** #ifndef APU_NONE
 300:../src/InfoNES.c ****   // Finalize pAPU
 301:../src/InfoNES.c ****   InfoNES_pAPUDone();
 302:../src/InfoNES.c **** #endif /* APU_NONE */
 303:../src/InfoNES.c **** 
 304:../src/InfoNES.c ****   // Release a memory for ROM
 305:../src/InfoNES.c ****   InfoNES_ReleaseRom();
  88              		.loc 1 305 0
  89 0000 17030000 		tail	InfoNES_ReleaseRom
  89      67000300 
  90              	.LVL3:
  91              		.cfi_endproc
  92              	.LFE1:
  94              		.section	.text.InfoNES_SetupPPU,"ax",@progbits
  95              		.align	1
  96              		.globl	InfoNES_SetupPPU
  98              	InfoNES_SetupPPU:
  99              	.LFB4:
 306:../src/InfoNES.c **** }
 307:../src/InfoNES.c **** 
 308:../src/InfoNES.c **** /*===================================================================*/
 309:../src/InfoNES.c **** /*                                                                   */
 310:../src/InfoNES.c **** /*                  InfoNES_Load() : Load a cassette                 */
 311:../src/InfoNES.c **** /*                                                                   */
 312:../src/InfoNES.c **** /*===================================================================*/
 313:../src/InfoNES.c **** int InfoNES_Load( const char *pszFileName )
 314:../src/InfoNES.c **** {
 315:../src/InfoNES.c **** /*
 316:../src/InfoNES.c ****  *  Load a cassette
 317:../src/InfoNES.c ****  *
 318:../src/InfoNES.c ****  *  Parameters
 319:../src/InfoNES.c ****  *    const char *pszFileName            (Read)
 320:../src/InfoNES.c ****  *      File name of ROM image
 321:../src/InfoNES.c ****  *
 322:../src/InfoNES.c ****  *  Return values
 323:../src/InfoNES.c ****  *     0 : It was finished normally.
 324:../src/InfoNES.c ****  *    -1 : An error occurred.
 325:../src/InfoNES.c ****  *
 326:../src/InfoNES.c ****  *  Remarks
 327:../src/InfoNES.c ****  *    Read a ROM image in the memory. 
 328:../src/InfoNES.c ****  *    Reset InfoNES.
 329:../src/InfoNES.c ****  */
 330:../src/InfoNES.c **** 
 331:../src/InfoNES.c ****   // Release a memory for ROM
 332:../src/InfoNES.c ****   InfoNES_ReleaseRom();
 333:../src/InfoNES.c **** 
 334:../src/InfoNES.c ****   // Read a ROM image in the memory
 335:../src/InfoNES.c ****   if ( InfoNES_ReadRom( pszFileName ) < 0 )
 336:../src/InfoNES.c ****     return -1;
 337:../src/InfoNES.c **** 
 338:../src/InfoNES.c ****   // Reset InfoNES
 339:../src/InfoNES.c ****   if ( InfoNES_Reset() < 0 )
 340:../src/InfoNES.c ****     return -1;
 341:../src/InfoNES.c **** 
 342:../src/InfoNES.c ****   // Successful
 343:../src/InfoNES.c ****   return 0;
 344:../src/InfoNES.c **** }
 345:../src/InfoNES.c **** 
 346:../src/InfoNES.c **** /*===================================================================*/
 347:../src/InfoNES.c **** /*                                                                   */
 348:../src/InfoNES.c **** /*                 InfoNES_Reset() : Reset InfoNES                   */
 349:../src/InfoNES.c **** /*                                                                   */
 350:../src/InfoNES.c **** /*===================================================================*/
 351:../src/InfoNES.c **** int InfoNES_Reset()
 352:../src/InfoNES.c **** {
 353:../src/InfoNES.c **** /*
 354:../src/InfoNES.c ****  *  Reset InfoNES
 355:../src/InfoNES.c ****  *
 356:../src/InfoNES.c ****  *  Return values
 357:../src/InfoNES.c ****  *     0 : Normally
 358:../src/InfoNES.c ****  *    -1 : Non support mapper
 359:../src/InfoNES.c ****  *
 360:../src/InfoNES.c ****  *  Remarks
 361:../src/InfoNES.c ****  *    Initialize Resources, PPU and Mapper.
 362:../src/InfoNES.c ****  *    Reset CPU.
 363:../src/InfoNES.c ****  */
 364:../src/InfoNES.c **** 
 365:../src/InfoNES.c ****   int nIdx;
 366:../src/InfoNES.c **** 
 367:../src/InfoNES.c ****   /*-------------------------------------------------------------------*/
 368:../src/InfoNES.c ****   /*  Get information on the cassette                                  */
 369:../src/InfoNES.c ****   /*-------------------------------------------------------------------*/
 370:../src/InfoNES.c **** 
 371:../src/InfoNES.c ****   // Get Mapper Number
 372:../src/InfoNES.c ****   MapperNo = NesHeader.byInfo1 >> 4;
 373:../src/InfoNES.c **** 
 374:../src/InfoNES.c ****   // Check bit counts of Mapper No.
 375:../src/InfoNES.c ****   for ( nIdx = 4; nIdx < 8 && NesHeader.byReserve[ nIdx ] == 0; ++nIdx )
 376:../src/InfoNES.c ****     ;
 377:../src/InfoNES.c **** 
 378:../src/InfoNES.c ****   if ( nIdx == 8 )
 379:../src/InfoNES.c ****   {
 380:../src/InfoNES.c ****     // Mapper Number is 8bits
 381:../src/InfoNES.c ****     MapperNo |= ( NesHeader.byInfo2 & 0xf0 );
 382:../src/InfoNES.c ****   }
 383:../src/InfoNES.c **** 
 384:../src/InfoNES.c ****   // Get information on the ROM
 385:../src/InfoNES.c ****   ROM_Mirroring = NesHeader.byInfo1 & 1;
 386:../src/InfoNES.c ****   ROM_SRAM = NesHeader.byInfo1 & 2;
 387:../src/InfoNES.c ****   ROM_Trainer = NesHeader.byInfo1 & 4;
 388:../src/InfoNES.c ****   ROM_FourScr = NesHeader.byInfo1 & 8;
 389:../src/InfoNES.c **** 
 390:../src/InfoNES.c ****   /*-------------------------------------------------------------------*/
 391:../src/InfoNES.c ****   /*  Initialize resources                                             */
 392:../src/InfoNES.c ****   /*-------------------------------------------------------------------*/
 393:../src/InfoNES.c **** 
 394:../src/InfoNES.c ****   // Clear RAM
 395:../src/InfoNES.c ****   InfoNES_MemorySet( RAM, 0, sizeof RAM );
 396:../src/InfoNES.c **** 
 397:../src/InfoNES.c ****   // Reset frame skip and frame count
 398:../src/InfoNES.c ****   FrameSkip = 0;
 399:../src/InfoNES.c ****   FrameCnt = 0;
 400:../src/InfoNES.c **** 
 401:../src/InfoNES.c **** #if 0
 402:../src/InfoNES.c ****   // Reset work frame
 403:../src/InfoNES.c ****   WorkFrame = DoubleFrame[ 0 ];
 404:../src/InfoNES.c ****   WorkFrameIdx = 0;
 405:../src/InfoNES.c **** #endif
 406:../src/InfoNES.c **** 
 407:../src/InfoNES.c ****   // Reset update flag of ChrBuf
 408:../src/InfoNES.c ****   ChrBufUpdate = 0xff;
 409:../src/InfoNES.c **** 
 410:../src/InfoNES.c ****   // Reset palette table
 411:../src/InfoNES.c ****   InfoNES_MemorySet( PalTable, 0, sizeof PalTable );
 412:../src/InfoNES.c **** 
 413:../src/InfoNES.c **** #ifndef APU_NONE
 414:../src/InfoNES.c ****   // Reset APU register
 415:../src/InfoNES.c ****   InfoNES_MemorySet( APU_Reg, 0, sizeof APU_Reg );
 416:../src/InfoNES.c **** #endif /* APU_NONE */
 417:../src/InfoNES.c **** 
 418:../src/InfoNES.c ****   // Reset joypad
 419:../src/InfoNES.c ****   PAD1_Latch = PAD2_Latch = PAD_System = 0;
 420:../src/InfoNES.c ****   PAD1_Bit = PAD2_Bit = 0;
 421:../src/InfoNES.c **** 
 422:../src/InfoNES.c ****   /*-------------------------------------------------------------------*/
 423:../src/InfoNES.c ****   /*  Initialize PPU                                                   */
 424:../src/InfoNES.c ****   /*-------------------------------------------------------------------*/
 425:../src/InfoNES.c **** 
 426:../src/InfoNES.c ****   InfoNES_SetupPPU();
 427:../src/InfoNES.c **** 
 428:../src/InfoNES.c **** #ifndef APU_NONE
 429:../src/InfoNES.c ****   /*-------------------------------------------------------------------*/
 430:../src/InfoNES.c ****   /*  Initialize pAPU                                                  */
 431:../src/InfoNES.c ****   /*-------------------------------------------------------------------*/
 432:../src/InfoNES.c **** 
 433:../src/InfoNES.c ****   InfoNES_pAPUInit();
 434:../src/InfoNES.c **** #endif /* APU_NONE */
 435:../src/InfoNES.c **** 
 436:../src/InfoNES.c ****   /*-------------------------------------------------------------------*/
 437:../src/InfoNES.c ****   /*  Initialize Mapper                                                */
 438:../src/InfoNES.c ****   /*-------------------------------------------------------------------*/
 439:../src/InfoNES.c **** 
 440:../src/InfoNES.c ****   // Get Mapper Table Index
 441:../src/InfoNES.c ****   for ( nIdx = 0; MapperTable[ nIdx ].nMapperNo != -1; ++nIdx )
 442:../src/InfoNES.c ****   {
 443:../src/InfoNES.c ****     if ( MapperTable[ nIdx ].nMapperNo == MapperNo )
 444:../src/InfoNES.c ****       break;
 445:../src/InfoNES.c ****   }
 446:../src/InfoNES.c **** 
 447:../src/InfoNES.c ****   if ( MapperTable[ nIdx ].nMapperNo == -1 )
 448:../src/InfoNES.c ****   {
 449:../src/InfoNES.c ****     // Non support mapper
 450:../src/InfoNES.c ****     InfoNES_MessageBox( "Mapper #%d is unsupported.\n", MapperNo );
 451:../src/InfoNES.c ****     return -1;
 452:../src/InfoNES.c ****   }
 453:../src/InfoNES.c **** 
 454:../src/InfoNES.c ****   // Set up a mapper initialization function
 455:../src/InfoNES.c ****   MapperTable[ nIdx ].pMapperInit();
 456:../src/InfoNES.c **** 
 457:../src/InfoNES.c ****   /*-------------------------------------------------------------------*/
 458:../src/InfoNES.c ****   /*  Reset CPU                                                        */
 459:../src/InfoNES.c ****   /*-------------------------------------------------------------------*/
 460:../src/InfoNES.c **** 
 461:../src/InfoNES.c ****   K6502_Reset();
 462:../src/InfoNES.c **** 
 463:../src/InfoNES.c ****   // Successful
 464:../src/InfoNES.c ****   return 0;
 465:../src/InfoNES.c **** }
 466:../src/InfoNES.c **** 
 467:../src/InfoNES.c **** /*===================================================================*/
 468:../src/InfoNES.c **** /*                                                                   */
 469:../src/InfoNES.c **** /*                InfoNES_SetupPPU() : Initialize PPU                */
 470:../src/InfoNES.c **** /*                                                                   */
 471:../src/InfoNES.c **** /*===================================================================*/
 472:../src/InfoNES.c **** void InfoNES_SetupPPU()
 473:../src/InfoNES.c **** {
 100              		.loc 1 473 0
 101              		.cfi_startproc
 102 0000 4111     		addi	sp,sp,-16
 103              		.cfi_def_cfa_offset 16
 104 0002 22C4     		sw	s0,8(sp)
 105              		.cfi_offset 8, -8
 474:../src/InfoNES.c **** /*
 475:../src/InfoNES.c ****  *  Initialize PPU
 476:../src/InfoNES.c ****  *
 477:../src/InfoNES.c ****  */
 478:../src/InfoNES.c ****   int nPage;
 479:../src/InfoNES.c **** 
 480:../src/InfoNES.c ****   // Clear PPU and Sprite Memory
 481:../src/InfoNES.c ****   InfoNES_MemorySet( PPURAM, 0, sizeof PPURAM );
 106              		.loc 1 481 0
 107 0004 37040000 		lui	s0,%hi(PPURAM)
 108 0008 1166     		li	a2,16384
 109 000a 8145     		li	a1,0
 110 000c 13050400 		addi	a0,s0,%lo(PPURAM)
 473:../src/InfoNES.c **** /*
 111              		.loc 1 473 0
 112 0010 06C6     		sw	ra,12(sp)
 113              		.cfi_offset 1, -4
 114              		.loc 1 481 0
 115 0012 97000000 		call	InfoNES_MemorySet
 115      E7800000 
 116              	.LVL4:
 482:../src/InfoNES.c ****   InfoNES_MemorySet( SPRRAM, 0, sizeof SPRRAM );
 117              		.loc 1 482 0
 118 001a 37050000 		lui	a0,%hi(.LANCHOR1)
 119 001e 13060010 		li	a2,256
 120 0022 8145     		li	a1,0
 121 0024 13050500 		addi	a0,a0,%lo(.LANCHOR1)
 122 0028 97000000 		call	InfoNES_MemorySet
 122      E7800000 
 123              	.LVL5:
 483:../src/InfoNES.c **** 
 484:../src/InfoNES.c ****   // Reset PPU Register
 485:../src/InfoNES.c ****   PPU_R0 = PPU_R1 = PPU_R2 = PPU_R3 = PPU_R7 = 0;
 124              		.loc 1 485 0
 125 0030 37070000 		lui	a4,%hi(.LANCHOR2)
 126 0034 23000700 		sb	zero,%lo(.LANCHOR2)(a4)
 127 0038 37070000 		lui	a4,%hi(.LANCHOR3)
 128 003c 23000700 		sb	zero,%lo(.LANCHOR3)(a4)
 129 0040 37070000 		lui	a4,%hi(.LANCHOR4)
 130 0044 23000700 		sb	zero,%lo(.LANCHOR4)(a4)
 131 0048 37070000 		lui	a4,%hi(.LANCHOR5)
 132 004c 23000700 		sb	zero,%lo(.LANCHOR5)(a4)
 133 0050 37070000 		lui	a4,%hi(.LANCHOR6)
 134 0054 23000700 		sb	zero,%lo(.LANCHOR6)(a4)
 486:../src/InfoNES.c **** 
 487:../src/InfoNES.c ****   // Reset latch flag
 488:../src/InfoNES.c ****   PPU_Latch_Flag = 0;
 135              		.loc 1 488 0
 136 0058 37070000 		lui	a4,%hi(.LANCHOR7)
 137 005c 23000700 		sb	zero,%lo(.LANCHOR7)(a4)
 489:../src/InfoNES.c **** 
 490:../src/InfoNES.c ****   // Reset up and down clipping flag
 491:../src/InfoNES.c ****   PPU_UpDown_Clip = 0;
 138              		.loc 1 491 0
 139 0060 37070000 		lui	a4,%hi(.LANCHOR8)
 140 0064 23000700 		sb	zero,%lo(.LANCHOR8)(a4)
 492:../src/InfoNES.c **** 
 493:../src/InfoNES.c ****   FrameStep = 0;
 141              		.loc 1 493 0
 142 0068 37070000 		lui	a4,%hi(.LANCHOR9)
 143 006c 23100700 		sh	zero,%lo(.LANCHOR9)(a4)
 494:../src/InfoNES.c ****   FrameIRQ_Enable = 0;
 144              		.loc 1 494 0
 145 0070 37070000 		lui	a4,%hi(.LANCHOR10)
 146 0074 23000700 		sb	zero,%lo(.LANCHOR10)(a4)
 495:../src/InfoNES.c **** 
 496:../src/InfoNES.c ****   // Reset Scroll values
 497:../src/InfoNES.c ****   PPU_Scr_V = PPU_Scr_V_Next = PPU_Scr_V_Byte = PPU_Scr_V_Byte_Next = PPU_Scr_V_Bit = PPU_Scr_V_Bit
 147              		.loc 1 497 0
 148 0078 37070000 		lui	a4,%hi(.LANCHOR11)
 149 007c 23000700 		sb	zero,%lo(.LANCHOR11)(a4)
 150 0080 37070000 		lui	a4,%hi(.LANCHOR12)
 151 0084 23000700 		sb	zero,%lo(.LANCHOR12)(a4)
 152 0088 37070000 		lui	a4,%hi(.LANCHOR13)
 153 008c 23000700 		sb	zero,%lo(.LANCHOR13)(a4)
 154 0090 37070000 		lui	a4,%hi(.LANCHOR14)
 155 0094 23000700 		sb	zero,%lo(.LANCHOR14)(a4)
 156 0098 37070000 		lui	a4,%hi(.LANCHOR15)
 157 009c 23000700 		sb	zero,%lo(.LANCHOR15)(a4)
 158 00a0 37070000 		lui	a4,%hi(.LANCHOR16)
 159 00a4 23000700 		sb	zero,%lo(.LANCHOR16)(a4)
 498:../src/InfoNES.c ****   PPU_Scr_H = PPU_Scr_H_Next = PPU_Scr_H_Byte = PPU_Scr_H_Byte_Next = PPU_Scr_H_Bit = PPU_Scr_H_Bit
 160              		.loc 1 498 0
 161 00a8 37070000 		lui	a4,%hi(.LANCHOR17)
 162 00ac 23000700 		sb	zero,%lo(.LANCHOR17)(a4)
 163 00b0 37070000 		lui	a4,%hi(.LANCHOR18)
 164 00b4 23000700 		sb	zero,%lo(.LANCHOR18)(a4)
 165 00b8 37070000 		lui	a4,%hi(.LANCHOR19)
 166 00bc 23000700 		sb	zero,%lo(.LANCHOR19)(a4)
 167 00c0 37070000 		lui	a4,%hi(.LANCHOR20)
 168 00c4 23000700 		sb	zero,%lo(.LANCHOR20)(a4)
 169 00c8 37070000 		lui	a4,%hi(.LANCHOR21)
 170 00cc 23000700 		sb	zero,%lo(.LANCHOR21)(a4)
 171 00d0 37070000 		lui	a4,%hi(.LANCHOR22)
 172 00d4 23000700 		sb	zero,%lo(.LANCHOR22)(a4)
 499:../src/InfoNES.c **** 
 500:../src/InfoNES.c ****   // Reset PPU address
 501:../src/InfoNES.c ****   PPU_Addr = 0;
 173              		.loc 1 501 0
 174 00d8 37070000 		lui	a4,%hi(.LANCHOR23)
 175 00dc 23100700 		sh	zero,%lo(.LANCHOR23)(a4)
 502:../src/InfoNES.c ****   PPU_Temp = 0;
 176              		.loc 1 502 0
 177 00e0 37070000 		lui	a4,%hi(.LANCHOR24)
 178 00e4 23100700 		sh	zero,%lo(.LANCHOR24)(a4)
 503:../src/InfoNES.c **** 
 504:../src/InfoNES.c ****   // Reset scanline
 505:../src/InfoNES.c ****   PPU_Scanline = 0;
 179              		.loc 1 505 0
 180 00e8 37070000 		lui	a4,%hi(.LANCHOR25)
 181 00ec 23100700 		sh	zero,%lo(.LANCHOR25)(a4)
 506:../src/InfoNES.c **** 
 507:../src/InfoNES.c ****   // Reset hit position of sprite #0 
 508:../src/InfoNES.c ****   SpriteJustHit = 0;
 182              		.loc 1 508 0
 183 00f0 37070000 		lui	a4,%hi(.LANCHOR26)
 509:../src/InfoNES.c **** 
 510:../src/InfoNES.c ****   // Reset information on PPU_R0
 511:../src/InfoNES.c ****   PPU_Increment = 1;
 184              		.loc 1 511 0
 185 00f4 8546     		li	a3,1
 508:../src/InfoNES.c **** 
 186              		.loc 1 508 0
 187 00f6 23200700 		sw	zero,%lo(.LANCHOR26)(a4)
 188              		.loc 1 511 0
 189 00fa 37070000 		lui	a4,%hi(.LANCHOR27)
 190 00fe 2310D700 		sh	a3,%lo(.LANCHOR27)(a4)
 512:../src/InfoNES.c ****   PPU_NameTableBank = NAME_TABLE0;
 191              		.loc 1 512 0
 192 0102 37070000 		lui	a4,%hi(.LANCHOR28)
 193 0106 A146     		li	a3,8
 194 0108 2300D700 		sb	a3,%lo(.LANCHOR28)(a4)
 513:../src/InfoNES.c ****   PPU_BG_Base = ChrBuf;
 195              		.loc 1 513 0
 196 010c 37070000 		lui	a4,%hi(ChrBuf)
 197 0110 B7060000 		lui	a3,%hi(.LANCHOR29)
 198 0114 13070700 		addi	a4,a4,%lo(ChrBuf)
 199 0118 23A0E600 		sw	a4,%lo(.LANCHOR29)(a3)
 514:../src/InfoNES.c ****   PPU_SP_Base = ChrBuf + 256 * 64;
 200              		.loc 1 514 0
 201 011c 37470000 		lui	a4,%hi(ChrBuf+16384)
 202 0120 B7070000 		lui	a5,%hi(.LANCHOR32)
 203 0124 B7060000 		lui	a3,%hi(.LANCHOR30)
 204 0128 13070700 		addi	a4,a4,%lo(ChrBuf+16384)
 205 012c 93850700 		addi	a1,a5,%lo(.LANCHOR32)
 206 0130 23A0E600 		sw	a4,%lo(.LANCHOR30)(a3)
 515:../src/InfoNES.c ****   PPU_SP_Height = 8;
 207              		.loc 1 515 0
 208 0134 37070000 		lui	a4,%hi(.LANCHOR31)
 209 0138 A146     		li	a3,8
 210 013a 2310D700 		sh	a3,%lo(.LANCHOR31)(a4)
 211              	.LVL6:
 212 013e 13060400 		addi	a2,s0,%lo(PPURAM)
 213 0142 13070400 		addi	a4,s0,%lo(PPURAM)
 214 0146 93870700 		addi	a5,a5,%lo(.LANCHOR32)
 215 014a 93860504 		addi	a3,a1,64
 216              	.LVL7:
 217              	.L15:
 516:../src/InfoNES.c **** 
 517:../src/InfoNES.c ****   // Reset PPU banks
 518:../src/InfoNES.c ****   for ( nPage = 0; nPage < 16; ++nPage )
 519:../src/InfoNES.c ****     PPUBANK[ nPage ] = &PPURAM[ nPage * 0x400 ];
 218              		.loc 1 519 0 discriminator 3
 219 014e 98C3     		sw	a4,0(a5)
 220 0150 9107     		addi	a5,a5,4
 221 0152 13070740 		addi	a4,a4,1024
 518:../src/InfoNES.c ****     PPUBANK[ nPage ] = &PPURAM[ nPage * 0x400 ];
 222              		.loc 1 518 0 discriminator 3
 223 0156 E39CD7FE 		bne	a5,a3,.L15
 520:../src/InfoNES.c **** 
 521:../src/InfoNES.c ****   /* Mirroring of Name Table */
 522:../src/InfoNES.c ****   InfoNES_Mirroring( ROM_Mirroring );
 224              		.loc 1 522 0
 225 015a B7070000 		lui	a5,%hi(.LANCHOR33)
 226 015e 83C70700 		lbu	a5,%lo(.LANCHOR33)(a5)
 227              	.LVL8:
 523:../src/InfoNES.c **** 
 524:../src/InfoNES.c ****   /* Reset VRAM Write Enable */
 525:../src/InfoNES.c ****   byVramWriteEnable = ( NesHeader.byVRomSize == 0 ) ? 1 : 0;
 526:../src/InfoNES.c **** }
 228              		.loc 1 526 0
 229 0162 B240     		lw	ra,12(sp)
 230              		.cfi_restore 1
 231 0164 2244     		lw	s0,8(sp)
 232              		.cfi_restore 8
 233              	.LBB6:
 234              	.LBB7:
 527:../src/InfoNES.c **** 
 528:../src/InfoNES.c **** /*===================================================================*/
 529:../src/InfoNES.c **** /*                                                                   */
 530:../src/InfoNES.c **** /*       InfoNES_Mirroring() : Set up a Mirroring of Name Table      */
 531:../src/InfoNES.c **** /*                                                                   */
 532:../src/InfoNES.c **** /*===================================================================*/
 533:../src/InfoNES.c **** void InfoNES_Mirroring( int nType )
 534:../src/InfoNES.c **** {
 535:../src/InfoNES.c **** /*
 536:../src/InfoNES.c ****  *  Set up a Mirroring of Name Table
 537:../src/InfoNES.c ****  *
 538:../src/InfoNES.c ****  *  Parameters
 539:../src/InfoNES.c ****  *    int nType          (Read)
 540:../src/InfoNES.c ****  *      Mirroring Type
 541:../src/InfoNES.c ****  *        0 : Horizontal
 542:../src/InfoNES.c ****  *        1 : Vertical
 543:../src/InfoNES.c ****  *        2 : One Screen 0x2400
 544:../src/InfoNES.c ****  *        3 : One Screen 0x2000
 545:../src/InfoNES.c ****  *        4 : Four Screen
 546:../src/InfoNES.c ****  *        5 : Special for Mapper #233
 547:../src/InfoNES.c ****  */
 548:../src/InfoNES.c **** 
 549:../src/InfoNES.c ****   PPUBANK[ NAME_TABLE0 ] = &PPURAM[ PPU_MirrorTable[ nType ][ 0 ] * 0x400 ];
 235              		.loc 1 549 0
 236 0166 13972700 		slli	a4,a5,2
 237 016a B7070000 		lui	a5,%hi(.LANCHOR34)
 238              	.LVL9:
 239 016e 93870700 		addi	a5,a5,%lo(.LANCHOR34)
 240 0172 BA97     		add	a5,a5,a4
 550:../src/InfoNES.c ****   PPUBANK[ NAME_TABLE1 ] = &PPURAM[ PPU_MirrorTable[ nType ][ 1 ] * 0x400 ];
 551:../src/InfoNES.c ****   PPUBANK[ NAME_TABLE2 ] = &PPURAM[ PPU_MirrorTable[ nType ][ 2 ] * 0x400 ];
 241              		.loc 1 551 0
 242 0174 03C72700 		lbu	a4,2(a5)
 549:../src/InfoNES.c ****   PPUBANK[ NAME_TABLE1 ] = &PPURAM[ PPU_MirrorTable[ nType ][ 1 ] * 0x400 ];
 243              		.loc 1 549 0
 244 0178 03C50700 		lbu	a0,0(a5)
 550:../src/InfoNES.c ****   PPUBANK[ NAME_TABLE1 ] = &PPURAM[ PPU_MirrorTable[ nType ][ 1 ] * 0x400 ];
 245              		.loc 1 550 0
 246 017c 83C61700 		lbu	a3,1(a5)
 552:../src/InfoNES.c ****   PPUBANK[ NAME_TABLE3 ] = &PPURAM[ PPU_MirrorTable[ nType ][ 3 ] * 0x400 ];
 247              		.loc 1 552 0
 248 0180 83C83700 		lbu	a7,3(a5)
 249              	.LBE7:
 250              	.LBE6:
 525:../src/InfoNES.c **** }
 251              		.loc 1 525 0
 252 0184 B7070000 		lui	a5,%hi(.LANCHOR36+5)
 253 0188 03C85700 		lbu	a6,%lo(.LANCHOR36+5)(a5)
 254              	.LBB10:
 255              	.LBB8:
 551:../src/InfoNES.c ****   PPUBANK[ NAME_TABLE3 ] = &PPURAM[ PPU_MirrorTable[ nType ][ 3 ] * 0x400 ];
 256              		.loc 1 551 0
 257 018c 9317A700 		slli	a5,a4,10
 258 0190 B297     		add	a5,a2,a5
 550:../src/InfoNES.c ****   PPUBANK[ NAME_TABLE2 ] = &PPURAM[ PPU_MirrorTable[ nType ][ 2 ] * 0x400 ];
 259              		.loc 1 550 0
 260 0192 AA06     		slli	a3,a3,10
 549:../src/InfoNES.c ****   PPUBANK[ NAME_TABLE1 ] = &PPURAM[ PPU_MirrorTable[ nType ][ 1 ] * 0x400 ];
 261              		.loc 1 549 0
 262 0194 2A05     		slli	a0,a0,10
 263              		.loc 1 552 0
 264 0196 AA08     		slli	a7,a7,10
 550:../src/InfoNES.c ****   PPUBANK[ NAME_TABLE2 ] = &PPURAM[ PPU_MirrorTable[ nType ][ 2 ] * 0x400 ];
 265              		.loc 1 550 0
 266 0198 3307D600 		add	a4,a2,a3
 549:../src/InfoNES.c ****   PPUBANK[ NAME_TABLE1 ] = &PPURAM[ PPU_MirrorTable[ nType ][ 1 ] * 0x400 ];
 267              		.loc 1 549 0
 268 019c 3295     		add	a0,a2,a0
 551:../src/InfoNES.c ****   PPUBANK[ NAME_TABLE3 ] = &PPURAM[ PPU_MirrorTable[ nType ][ 3 ] * 0x400 ];
 269              		.loc 1 551 0
 270 019e 9CD5     		sw	a5,40(a1)
 271              		.loc 1 552 0
 272 01a0 4696     		add	a2,a2,a7
 273              	.LBE8:
 274              	.LBE10:
 525:../src/InfoNES.c **** }
 275              		.loc 1 525 0
 276 01a2 93361800 		seqz	a3,a6
 277 01a6 B7070000 		lui	a5,%hi(.LANCHOR35)
 278              	.LBB11:
 279              	.LBB9:
 549:../src/InfoNES.c ****   PPUBANK[ NAME_TABLE1 ] = &PPURAM[ PPU_MirrorTable[ nType ][ 1 ] * 0x400 ];
 280              		.loc 1 549 0
 281 01aa 88D1     		sw	a0,32(a1)
 550:../src/InfoNES.c ****   PPUBANK[ NAME_TABLE2 ] = &PPURAM[ PPU_MirrorTable[ nType ][ 2 ] * 0x400 ];
 282              		.loc 1 550 0
 283 01ac D8D1     		sw	a4,36(a1)
 284              		.loc 1 552 0
 285 01ae D0D5     		sw	a2,44(a1)
 286              	.LVL10:
 287              	.LBE9:
 288              	.LBE11:
 525:../src/InfoNES.c **** }
 289              		.loc 1 525 0
 290 01b0 2380D700 		sb	a3,%lo(.LANCHOR35)(a5)
 526:../src/InfoNES.c **** 
 291              		.loc 1 526 0
 292 01b4 4101     		addi	sp,sp,16
 293              		.cfi_def_cfa_offset 0
 294 01b6 8280     		jr	ra
 295              		.cfi_endproc
 296              	.LFE4:
 298              		.section	.text.InfoNES_Reset,"ax",@progbits
 299              		.align	1
 300              		.globl	InfoNES_Reset
 302              	InfoNES_Reset:
 303              	.LFB3:
 352:../src/InfoNES.c **** /*
 304              		.loc 1 352 0
 305              		.cfi_startproc
 372:../src/InfoNES.c **** 
 306              		.loc 1 372 0
 307 0000 B7070000 		lui	a5,%hi(.LANCHOR36)
 352:../src/InfoNES.c **** /*
 308              		.loc 1 352 0
 309 0004 4111     		addi	sp,sp,-16
 310              		.cfi_def_cfa_offset 16
 311 0006 22C4     		sw	s0,8(sp)
 312 0008 06C6     		sw	ra,12(sp)
 313              		.cfi_offset 8, -8
 314              		.cfi_offset 1, -4
 372:../src/InfoNES.c **** 
 315              		.loc 1 372 0
 316 000a 13870700 		addi	a4,a5,%lo(.LANCHOR36)
 317 000e 03476700 		lbu	a4,6(a4)
 318 0012 37040000 		lui	s0,%hi(.LANCHOR37)
 319 0016 13850700 		addi	a0,a5,%lo(.LANCHOR36)
 320 001a 13040400 		addi	s0,s0,%lo(.LANCHOR37)
 321 001e 93554700 		srli	a1,a4,4
 322 0022 2300B400 		sb	a1,0(s0)
 323              	.LVL11:
 324 0026 93870700 		addi	a5,a5,%lo(.LANCHOR36)
 325 002a 13064500 		addi	a2,a0,4
 326              	.LVL12:
 327              	.L19:
 375:../src/InfoNES.c ****     ;
 328              		.loc 1 375 0 discriminator 3
 329 002e 83C6C700 		lbu	a3,12(a5)
 330 0032 8507     		addi	a5,a5,1
 331              	.LVL13:
 332 0034 89EA     		bnez	a3,.L27
 375:../src/InfoNES.c ****     ;
 333              		.loc 1 375 0 is_stmt 0 discriminator 4
 334 0036 E39CC7FE 		bne	a5,a2,.L19
 381:../src/InfoNES.c ****   }
 335              		.loc 1 381 0 is_stmt 1
 336 003a 83477500 		lbu	a5,7(a0)
 337              	.LVL14:
 338 003e C19B     		andi	a5,a5,-16
 339 0040 CD8F     		or	a5,a5,a1
 340 0042 2300F400 		sb	a5,0(s0)
 341              	.L27:
 385:../src/InfoNES.c ****   ROM_SRAM = NesHeader.byInfo1 & 2;
 342              		.loc 1 385 0
 343 0046 93781700 		andi	a7,a4,1
 344 004a B7070000 		lui	a5,%hi(.LANCHOR33)
 386:../src/InfoNES.c ****   ROM_Trainer = NesHeader.byInfo1 & 4;
 345              		.loc 1 386 0
 346 004e 13782700 		andi	a6,a4,2
 385:../src/InfoNES.c ****   ROM_SRAM = NesHeader.byInfo1 & 2;
 347              		.loc 1 385 0
 348 0052 23801701 		sb	a7,%lo(.LANCHOR33)(a5)
 386:../src/InfoNES.c ****   ROM_Trainer = NesHeader.byInfo1 & 4;
 349              		.loc 1 386 0
 350 0056 B7070000 		lui	a5,%hi(.LANCHOR38)
 387:../src/InfoNES.c ****   ROM_FourScr = NesHeader.byInfo1 & 8;
 351              		.loc 1 387 0
 352 005a 93764700 		andi	a3,a4,4
 386:../src/InfoNES.c ****   ROM_Trainer = NesHeader.byInfo1 & 4;
 353              		.loc 1 386 0
 354 005e 23800701 		sb	a6,%lo(.LANCHOR38)(a5)
 395:../src/InfoNES.c **** 
 355              		.loc 1 395 0
 356 0062 37050000 		lui	a0,%hi(RAM)
 387:../src/InfoNES.c ****   ROM_FourScr = NesHeader.byInfo1 & 8;
 357              		.loc 1 387 0
 358 0066 B7070000 		lui	a5,%hi(.LANCHOR39)
 359 006a 2380D700 		sb	a3,%lo(.LANCHOR39)(a5)
 388:../src/InfoNES.c **** 
 360              		.loc 1 388 0
 361 006e 218B     		andi	a4,a4,8
 362 0070 B7070000 		lui	a5,%hi(.LANCHOR40)
 395:../src/InfoNES.c **** 
 363              		.loc 1 395 0
 364 0074 0966     		li	a2,8192
 365 0076 8145     		li	a1,0
 366 0078 13050500 		addi	a0,a0,%lo(RAM)
 388:../src/InfoNES.c **** 
 367              		.loc 1 388 0
 368 007c 2380E700 		sb	a4,%lo(.LANCHOR40)(a5)
 395:../src/InfoNES.c **** 
 369              		.loc 1 395 0
 370 0080 97000000 		call	InfoNES_MemorySet
 370      E7800000 
 371              	.LVL15:
 398:../src/InfoNES.c ****   FrameCnt = 0;
 372              		.loc 1 398 0
 373 0088 B7070000 		lui	a5,%hi(.LANCHOR41)
 374 008c 23900700 		sh	zero,%lo(.LANCHOR41)(a5)
 411:../src/InfoNES.c **** 
 375              		.loc 1 411 0
 376 0090 37050000 		lui	a0,%hi(.LANCHOR44)
 399:../src/InfoNES.c **** 
 377              		.loc 1 399 0
 378 0094 B7070000 		lui	a5,%hi(.LANCHOR42)
 408:../src/InfoNES.c **** 
 379              		.loc 1 408 0
 380 0098 7D57     		li	a4,-1
 411:../src/InfoNES.c **** 
 381              		.loc 1 411 0
 382 009a 13060004 		li	a2,64
 383 009e 8145     		li	a1,0
 399:../src/InfoNES.c **** 
 384              		.loc 1 399 0
 385 00a0 23900700 		sh	zero,%lo(.LANCHOR42)(a5)
 411:../src/InfoNES.c **** 
 386              		.loc 1 411 0
 387 00a4 13050500 		addi	a0,a0,%lo(.LANCHOR44)
 408:../src/InfoNES.c **** 
 388              		.loc 1 408 0
 389 00a8 B7070000 		lui	a5,%hi(.LANCHOR43)
 390 00ac 2380E700 		sb	a4,%lo(.LANCHOR43)(a5)
 411:../src/InfoNES.c **** 
 391              		.loc 1 411 0
 392 00b0 97000000 		call	InfoNES_MemorySet
 392      E7800000 
 393              	.LVL16:
 419:../src/InfoNES.c ****   PAD1_Bit = PAD2_Bit = 0;
 394              		.loc 1 419 0
 395 00b8 B7070000 		lui	a5,%hi(.LANCHOR45)
 396 00bc 23A00700 		sw	zero,%lo(.LANCHOR45)(a5)
 397 00c0 B7070000 		lui	a5,%hi(.LANCHOR46)
 398 00c4 23A00700 		sw	zero,%lo(.LANCHOR46)(a5)
 399 00c8 B7070000 		lui	a5,%hi(.LANCHOR47)
 400 00cc 23A00700 		sw	zero,%lo(.LANCHOR47)(a5)
 420:../src/InfoNES.c **** 
 401              		.loc 1 420 0
 402 00d0 B7070000 		lui	a5,%hi(.LANCHOR48)
 403 00d4 23A00700 		sw	zero,%lo(.LANCHOR48)(a5)
 404 00d8 B7070000 		lui	a5,%hi(.LANCHOR49)
 405 00dc 23A00700 		sw	zero,%lo(.LANCHOR49)(a5)
 426:../src/InfoNES.c **** 
 406              		.loc 1 426 0
 407 00e0 97000000 		call	InfoNES_SetupPPU
 407      E7800000 
 408              	.LVL17:
 441:../src/InfoNES.c ****   {
 409              		.loc 1 441 0
 410 00e8 37060000 		lui	a2,%hi(MapperTable)
 411 00ec 83270600 		lw	a5,%lo(MapperTable)(a2)
 412 00f0 7D57     		li	a4,-1
 443:../src/InfoNES.c ****       break;
 413              		.loc 1 443 0
 414 00f2 83450400 		lbu	a1,0(s0)
 441:../src/InfoNES.c ****   {
 415              		.loc 1 441 0
 416 00f6 6382E702 		beq	a5,a4,.L26
 443:../src/InfoNES.c ****       break;
 417              		.loc 1 443 0
 418 00fa 638DB702 		beq	a5,a1,.L29
 419 00fe B7070000 		lui	a5,%hi(MapperTable+8)
 420 0102 93878700 		addi	a5,a5,%lo(MapperTable+8)
 441:../src/InfoNES.c ****   {
 421              		.loc 1 441 0
 422 0106 8146     		li	a3,0
 423 0108 7D55     		li	a0,-1
 424 010a 19A0     		j	.L24
 425              	.LVL18:
 426              	.L25:
 443:../src/InfoNES.c ****       break;
 427              		.loc 1 443 0
 428 010c 6305B702 		beq	a4,a1,.L23
 429              	.LVL19:
 430              	.L24:
 441:../src/InfoNES.c ****   {
 431              		.loc 1 441 0 discriminator 2
 432 0110 9843     		lw	a4,0(a5)
 433 0112 8506     		addi	a3,a3,1
 434              	.LVL20:
 435 0114 A107     		addi	a5,a5,8
 436 0116 E31BA7FE 		bne	a4,a0,.L25
 437              	.LVL21:
 438              	.L26:
 450:../src/InfoNES.c ****     return -1;
 439              		.loc 1 450 0
 440 011a 37050000 		lui	a0,%hi(.LC0)
 441 011e 13050500 		addi	a0,a0,%lo(.LC0)
 442 0122 97000000 		call	InfoNES_MessageBox
 442      E7800000 
 443              	.LVL22:
 465:../src/InfoNES.c **** 
 444              		.loc 1 465 0
 445 012a B240     		lw	ra,12(sp)
 446              		.cfi_remember_state
 447              		.cfi_restore 1
 448 012c 2244     		lw	s0,8(sp)
 449              		.cfi_restore 8
 451:../src/InfoNES.c ****   }
 450              		.loc 1 451 0
 451 012e 7D55     		li	a0,-1
 465:../src/InfoNES.c **** 
 452              		.loc 1 465 0
 453 0130 4101     		addi	sp,sp,16
 454              		.cfi_def_cfa_offset 0
 455 0132 8280     		jr	ra
 456              	.LVL23:
 457              	.L29:
 458              		.cfi_restore_state
 441:../src/InfoNES.c ****   {
 459              		.loc 1 441 0
 460 0134 8146     		li	a3,0
 461              	.LVL24:
 462              	.L23:
 455:../src/InfoNES.c **** 
 463              		.loc 1 455 0
 464 0136 13060600 		addi	a2,a2,%lo(MapperTable)
 465 013a 8E06     		slli	a3,a3,3
 466 013c B296     		add	a3,a2,a3
 467 013e DC42     		lw	a5,4(a3)
 468 0140 8297     		jalr	a5
 469              	.LVL25:
 461:../src/InfoNES.c **** 
 470              		.loc 1 461 0
 471 0142 97000000 		call	K6502_Reset
 471      E7800000 
 472              	.LVL26:
 465:../src/InfoNES.c **** 
 473              		.loc 1 465 0
 474 014a B240     		lw	ra,12(sp)
 475              		.cfi_restore 1
 476 014c 2244     		lw	s0,8(sp)
 477              		.cfi_restore 8
 464:../src/InfoNES.c **** }
 478              		.loc 1 464 0
 479 014e 0145     		li	a0,0
 465:../src/InfoNES.c **** 
 480              		.loc 1 465 0
 481 0150 4101     		addi	sp,sp,16
 482              		.cfi_def_cfa_offset 0
 483 0152 8280     		jr	ra
 484              		.cfi_endproc
 485              	.LFE3:
 487              		.section	.text.InfoNES_Load,"ax",@progbits
 488              		.align	1
 489              		.globl	InfoNES_Load
 491              	InfoNES_Load:
 492              	.LFB2:
 314:../src/InfoNES.c **** /*
 493              		.loc 1 314 0
 494              		.cfi_startproc
 495              	.LVL27:
 496 0000 4111     		addi	sp,sp,-16
 497              		.cfi_def_cfa_offset 16
 498 0002 22C4     		sw	s0,8(sp)
 499 0004 06C6     		sw	ra,12(sp)
 500              		.cfi_offset 8, -8
 501              		.cfi_offset 1, -4
 314:../src/InfoNES.c **** /*
 502              		.loc 1 314 0
 503 0006 2A84     		mv	s0,a0
 332:../src/InfoNES.c **** 
 504              		.loc 1 332 0
 505 0008 97000000 		call	InfoNES_ReleaseRom
 505      E7800000 
 506              	.LVL28:
 335:../src/InfoNES.c ****     return -1;
 507              		.loc 1 335 0
 508 0010 2285     		mv	a0,s0
 509 0012 97000000 		call	InfoNES_ReadRom
 509      E7800000 
 510              	.LVL29:
 511 001a 634B0500 		bltz	a0,.L33
 339:../src/InfoNES.c ****     return -1;
 512              		.loc 1 339 0
 513 001e 97000000 		call	InfoNES_Reset
 513      E7800000 
 514              	.LVL30:
 515 0026 7D85     		srai	a0,a0,31
 516              	.L31:
 344:../src/InfoNES.c **** 
 517              		.loc 1 344 0
 518 0028 B240     		lw	ra,12(sp)
 519              		.cfi_remember_state
 520              		.cfi_restore 1
 521 002a 2244     		lw	s0,8(sp)
 522              		.cfi_restore 8
 523              	.LVL31:
 524 002c 4101     		addi	sp,sp,16
 525              		.cfi_def_cfa_offset 0
 526 002e 8280     		jr	ra
 527              	.LVL32:
 528              	.L33:
 529              		.cfi_restore_state
 336:../src/InfoNES.c **** 
 530              		.loc 1 336 0
 531 0030 7D55     		li	a0,-1
 532 0032 DDBF     		j	.L31
 533              		.cfi_endproc
 534              	.LFE2:
 536              		.section	.text.InfoNES_Mirroring,"ax",@progbits
 537              		.align	1
 538              		.globl	InfoNES_Mirroring
 540              	InfoNES_Mirroring:
 541              	.LFB5:
 534:../src/InfoNES.c **** /*
 542              		.loc 1 534 0
 543              		.cfi_startproc
 544              	.LVL33:
 549:../src/InfoNES.c ****   PPUBANK[ NAME_TABLE1 ] = &PPURAM[ PPU_MirrorTable[ nType ][ 1 ] * 0x400 ];
 545              		.loc 1 549 0
 546 0000 93172500 		slli	a5,a0,2
 547 0004 37050000 		lui	a0,%hi(.LANCHOR34)
 548              	.LVL34:
 549 0008 13050500 		addi	a0,a0,%lo(.LANCHOR34)
 550 000c 3E95     		add	a0,a0,a5
 551 000e 83470500 		lbu	a5,0(a0)
 550:../src/InfoNES.c ****   PPUBANK[ NAME_TABLE2 ] = &PPURAM[ PPU_MirrorTable[ nType ][ 2 ] * 0x400 ];
 552              		.loc 1 550 0
 553 0012 83451500 		lbu	a1,1(a0)
 551:../src/InfoNES.c ****   PPUBANK[ NAME_TABLE3 ] = &PPURAM[ PPU_MirrorTable[ nType ][ 3 ] * 0x400 ];
 554              		.loc 1 551 0
 555 0016 03462500 		lbu	a2,2(a0)
 556              		.loc 1 552 0
 557 001a 83463500 		lbu	a3,3(a0)
 549:../src/InfoNES.c ****   PPUBANK[ NAME_TABLE1 ] = &PPURAM[ PPU_MirrorTable[ nType ][ 1 ] * 0x400 ];
 558              		.loc 1 549 0
 559 001e 37070000 		lui	a4,%hi(PPURAM)
 560 0022 13070700 		addi	a4,a4,%lo(PPURAM)
 561 0026 1395A700 		slli	a0,a5,10
 550:../src/InfoNES.c ****   PPUBANK[ NAME_TABLE2 ] = &PPURAM[ PPU_MirrorTable[ nType ][ 2 ] * 0x400 ];
 562              		.loc 1 550 0
 563 002a AA05     		slli	a1,a1,10
 551:../src/InfoNES.c ****   PPUBANK[ NAME_TABLE3 ] = &PPURAM[ PPU_MirrorTable[ nType ][ 3 ] * 0x400 ];
 564              		.loc 1 551 0
 565 002c 2A06     		slli	a2,a2,10
 566              		.loc 1 552 0
 567 002e AA06     		slli	a3,a3,10
 549:../src/InfoNES.c ****   PPUBANK[ NAME_TABLE1 ] = &PPURAM[ PPU_MirrorTable[ nType ][ 1 ] * 0x400 ];
 568              		.loc 1 549 0
 569 0030 B7070000 		lui	a5,%hi(.LANCHOR32)
 570 0034 93870700 		addi	a5,a5,%lo(.LANCHOR32)
 571 0038 3A95     		add	a0,a0,a4
 550:../src/InfoNES.c ****   PPUBANK[ NAME_TABLE2 ] = &PPURAM[ PPU_MirrorTable[ nType ][ 2 ] * 0x400 ];
 572              		.loc 1 550 0
 573 003a BA95     		add	a1,a1,a4
 551:../src/InfoNES.c ****   PPUBANK[ NAME_TABLE3 ] = &PPURAM[ PPU_MirrorTable[ nType ][ 3 ] * 0x400 ];
 574              		.loc 1 551 0
 575 003c 3A96     		add	a2,a2,a4
 576              		.loc 1 552 0
 577 003e 3697     		add	a4,a3,a4
 549:../src/InfoNES.c ****   PPUBANK[ NAME_TABLE1 ] = &PPURAM[ PPU_MirrorTable[ nType ][ 1 ] * 0x400 ];
 578              		.loc 1 549 0
 579 0040 88D3     		sw	a0,32(a5)
 550:../src/InfoNES.c ****   PPUBANK[ NAME_TABLE2 ] = &PPURAM[ PPU_MirrorTable[ nType ][ 2 ] * 0x400 ];
 580              		.loc 1 550 0
 581 0042 CCD3     		sw	a1,36(a5)
 551:../src/InfoNES.c ****   PPUBANK[ NAME_TABLE3 ] = &PPURAM[ PPU_MirrorTable[ nType ][ 3 ] * 0x400 ];
 582              		.loc 1 551 0
 583 0044 90D7     		sw	a2,40(a5)
 584              		.loc 1 552 0
 585 0046 D8D7     		sw	a4,44(a5)
 553:../src/InfoNES.c **** }
 586              		.loc 1 553 0
 587 0048 8280     		ret
 588              		.cfi_endproc
 589              	.LFE5:
 591              		.section	.text.InfoNES_DrawLine,"ax",@progbits
 592              		.align	1
 593              		.globl	InfoNES_DrawLine
 595              	InfoNES_DrawLine:
 596              	.LFB9:
 554:../src/InfoNES.c **** 
 555:../src/InfoNES.c **** /*===================================================================*/
 556:../src/InfoNES.c **** /*                                                                   */
 557:../src/InfoNES.c **** /*              InfoNES_Main() : The main loop of InfoNES            */
 558:../src/InfoNES.c **** /*                                                                   */
 559:../src/InfoNES.c **** /*===================================================================*/
 560:../src/InfoNES.c **** void InfoNES_Main()
 561:../src/InfoNES.c **** {
 562:../src/InfoNES.c **** /*
 563:../src/InfoNES.c ****  *  The main loop of InfoNES
 564:../src/InfoNES.c ****  *
 565:../src/InfoNES.c ****  */
 566:../src/InfoNES.c **** 
 567:../src/InfoNES.c ****   // Initialize InfoNES
 568:../src/InfoNES.c ****   InfoNES_Init();
 569:../src/InfoNES.c **** 
 570:../src/InfoNES.c ****   // Main loop
 571:../src/InfoNES.c ****   while ( 1 )
 572:../src/InfoNES.c ****   {
 573:../src/InfoNES.c ****     /*-------------------------------------------------------------------*/
 574:../src/InfoNES.c ****     /*  To the menu screen                                               */
 575:../src/InfoNES.c ****     /*-------------------------------------------------------------------*/
 576:../src/InfoNES.c ****     if ( InfoNES_Menu() == -1 )
 577:../src/InfoNES.c ****       break;  // Quit
 578:../src/InfoNES.c ****     
 579:../src/InfoNES.c ****     /*-------------------------------------------------------------------*/
 580:../src/InfoNES.c ****     /*  Start a NES emulation                                            */
 581:../src/InfoNES.c ****     /*-------------------------------------------------------------------*/
 582:../src/InfoNES.c ****     InfoNES_Cycle();
 583:../src/InfoNES.c ****   }
 584:../src/InfoNES.c **** 
 585:../src/InfoNES.c ****   // Completion treatment
 586:../src/InfoNES.c ****   InfoNES_Fin();
 587:../src/InfoNES.c **** }
 588:../src/InfoNES.c **** 
 589:../src/InfoNES.c **** /*===================================================================*/
 590:../src/InfoNES.c **** /*                                                                   */
 591:../src/InfoNES.c **** /*              InfoNES_Cycle() : The loop of emulation              */
 592:../src/InfoNES.c **** /*                                                                   */
 593:../src/InfoNES.c **** /*===================================================================*/
 594:../src/InfoNES.c **** void InfoNES_Cycle()
 595:../src/InfoNES.c **** {
 596:../src/InfoNES.c **** /*
 597:../src/InfoNES.c ****  *  The loop of emulation
 598:../src/InfoNES.c ****  *
 599:../src/InfoNES.c ****  */
 600:../src/InfoNES.c **** 
 601:../src/InfoNES.c **** #if 0
 602:../src/InfoNES.c ****   // Set the PPU adress to the buffered value
 603:../src/InfoNES.c ****   if ( ( PPU_R1 & R1_SHOW_SP ) || ( PPU_R1 & R1_SHOW_SCR ) )
 604:../src/InfoNES.c **** 		PPU_Addr = PPU_Temp;
 605:../src/InfoNES.c **** #endif
 606:../src/InfoNES.c **** 
 607:../src/InfoNES.c ****   // Emulation loop
 608:../src/InfoNES.c ****   for (;;)
 609:../src/InfoNES.c ****   {    
 610:../src/InfoNES.c ****     int nStep;
 611:../src/InfoNES.c **** 
 612:../src/InfoNES.c ****     // Set a flag if a scanning line is a hit in the sprite #0
 613:../src/InfoNES.c ****     if ( SpriteJustHit == PPU_Scanline &&
 614:../src/InfoNES.c ****       PPU_ScanTable[ PPU_Scanline ] == SCAN_ON_SCREEN )
 615:../src/InfoNES.c ****     {
 616:../src/InfoNES.c ****       // # of Steps to execute before sprite #0 hit
 617:../src/InfoNES.c ****       nStep = SPRRAM[ SPR_X ] * STEP_PER_SCANLINE / NES_DISP_WIDTH;
 618:../src/InfoNES.c **** 
 619:../src/InfoNES.c ****       // Execute instructions
 620:../src/InfoNES.c ****       K6502_Step( nStep );
 621:../src/InfoNES.c **** 
 622:../src/InfoNES.c ****       // Set a sprite hit flag
 623:../src/InfoNES.c ****       if ( ( PPU_R1 & R1_SHOW_SP ) && ( PPU_R1 & R1_SHOW_SCR ) )
 624:../src/InfoNES.c ****         PPU_R2 |= R2_HIT_SP;
 625:../src/InfoNES.c **** 
 626:../src/InfoNES.c ****       // NMI is required if there is necessity
 627:../src/InfoNES.c ****       if ( ( PPU_R0 & R0_NMI_SP ) && ( PPU_R1 & R1_SHOW_SP ) )
 628:../src/InfoNES.c ****         NMI_REQ;
 629:../src/InfoNES.c **** 
 630:../src/InfoNES.c ****       // Execute instructions
 631:../src/InfoNES.c ****       K6502_Step( STEP_PER_SCANLINE - nStep );
 632:../src/InfoNES.c ****     }
 633:../src/InfoNES.c ****     else
 634:../src/InfoNES.c ****     {
 635:../src/InfoNES.c ****       // Execute instructions
 636:../src/InfoNES.c ****       K6502_Step( STEP_PER_SCANLINE );
 637:../src/InfoNES.c ****     }
 638:../src/InfoNES.c **** 
 639:../src/InfoNES.c ****     // Frame IRQ in H-Sync
 640:../src/InfoNES.c ****     FrameStep += STEP_PER_SCANLINE;
 641:../src/InfoNES.c ****     if ( FrameStep > STEP_PER_FRAME && FrameIRQ_Enable )
 642:../src/InfoNES.c ****     {
 643:../src/InfoNES.c ****       FrameStep %= STEP_PER_FRAME;
 644:../src/InfoNES.c ****       IRQ_REQ;
 645:../src/InfoNES.c **** #ifndef APU_NONE
 646:../src/InfoNES.c ****       APU_Reg[ 0x4015 ] |= 0x40;
 647:../src/InfoNES.c **** #endif /* APU_NONE */
 648:../src/InfoNES.c ****     }
 649:../src/InfoNES.c **** 
 650:../src/InfoNES.c ****     // A mapper function in H-Sync
 651:../src/InfoNES.c ****     MapperHSync();
 652:../src/InfoNES.c ****     
 653:../src/InfoNES.c ****     // A function in H-Sync
 654:../src/InfoNES.c ****     if ( InfoNES_HSync() == -1 )
 655:../src/InfoNES.c ****       return;  // To the menu screen
 656:../src/InfoNES.c **** 
 657:../src/InfoNES.c ****     // HSYNC Wait
 658:../src/InfoNES.c ****     InfoNES_Wait();
 659:../src/InfoNES.c ****   }
 660:../src/InfoNES.c **** }
 661:../src/InfoNES.c **** 
 662:../src/InfoNES.c **** /*===================================================================*/
 663:../src/InfoNES.c **** /*                                                                   */
 664:../src/InfoNES.c **** /*              InfoNES_HSync() : A function in H-Sync               */
 665:../src/InfoNES.c **** /*                                                                   */
 666:../src/InfoNES.c **** /*===================================================================*/
 667:../src/InfoNES.c **** int InfoNES_HSync()
 668:../src/InfoNES.c **** {
 669:../src/InfoNES.c **** /*
 670:../src/InfoNES.c ****  *  A function in H-Sync
 671:../src/InfoNES.c ****  *
 672:../src/InfoNES.c ****  *  Return values
 673:../src/InfoNES.c ****  *    0 : Normally
 674:../src/InfoNES.c ****  *   -1 : Exit an emulation
 675:../src/InfoNES.c ****  */
 676:../src/InfoNES.c **** 
 677:../src/InfoNES.c ****   /*-------------------------------------------------------------------*/
 678:../src/InfoNES.c ****   /*  Render a scanline                                                */
 679:../src/InfoNES.c ****   /*-------------------------------------------------------------------*/
 680:../src/InfoNES.c ****   if ( FrameCnt == 0 &&
 681:../src/InfoNES.c ****        PPU_ScanTable[ PPU_Scanline ] == SCAN_ON_SCREEN )
 682:../src/InfoNES.c ****   {
 683:../src/InfoNES.c ****     InfoNES_DrawLine();
 684:../src/InfoNES.c ****   }
 685:../src/InfoNES.c **** 
 686:../src/InfoNES.c ****   /*-------------------------------------------------------------------*/
 687:../src/InfoNES.c ****   /*  Set new scroll values                                            */
 688:../src/InfoNES.c ****   /*-------------------------------------------------------------------*/
 689:../src/InfoNES.c ****   PPU_Scr_V      = PPU_Scr_V_Next;
 690:../src/InfoNES.c ****   PPU_Scr_V_Byte = PPU_Scr_V_Byte_Next;
 691:../src/InfoNES.c ****   PPU_Scr_V_Bit  = PPU_Scr_V_Bit_Next;
 692:../src/InfoNES.c **** 
 693:../src/InfoNES.c ****   PPU_Scr_H      = PPU_Scr_H_Next;
 694:../src/InfoNES.c ****   PPU_Scr_H_Byte = PPU_Scr_H_Byte_Next;
 695:../src/InfoNES.c ****   PPU_Scr_H_Bit  = PPU_Scr_H_Bit_Next;
 696:../src/InfoNES.c **** 
 697:../src/InfoNES.c ****   /*-------------------------------------------------------------------*/
 698:../src/InfoNES.c ****   /*  Next Scanline                                                    */
 699:../src/InfoNES.c ****   /*-------------------------------------------------------------------*/
 700:../src/InfoNES.c ****   PPU_Scanline = ( PPU_Scanline == SCAN_VBLANK_END ) ? 0 : PPU_Scanline + 1;
 701:../src/InfoNES.c **** 
 702:../src/InfoNES.c ****   /*-------------------------------------------------------------------*/
 703:../src/InfoNES.c ****   /*  Operation in the specific scanning line                          */
 704:../src/InfoNES.c ****   /*-------------------------------------------------------------------*/
 705:../src/InfoNES.c ****   switch ( PPU_Scanline )
 706:../src/InfoNES.c ****   {
 707:../src/InfoNES.c ****     case SCAN_TOP_OFF_SCREEN:
 708:../src/InfoNES.c ****       // Reset a PPU status
 709:../src/InfoNES.c ****       PPU_R2 = 0;
 710:../src/InfoNES.c **** 
 711:../src/InfoNES.c ****       // Set up a character data
 712:../src/InfoNES.c ****       if ( NesHeader.byVRomSize == 0 && FrameCnt == 0 )
 713:../src/InfoNES.c ****         InfoNES_SetupChr();
 714:../src/InfoNES.c **** 
 715:../src/InfoNES.c ****       // Get position of sprite #0
 716:../src/InfoNES.c ****       InfoNES_GetSprHitY();
 717:../src/InfoNES.c ****       break;
 718:../src/InfoNES.c **** 
 719:../src/InfoNES.c ****     case SCAN_UNKNOWN_START:
 720:../src/InfoNES.c ****       if ( FrameCnt == 0 )
 721:../src/InfoNES.c ****       {
 722:../src/InfoNES.c ****         // Transfer the contents of work frame on the screen
 723:../src/InfoNES.c ****         InfoNES_LoadFrame();
 724:../src/InfoNES.c ****         
 725:../src/InfoNES.c **** #if 0
 726:../src/InfoNES.c ****         // Switching of the double buffer
 727:../src/InfoNES.c ****         WorkFrameIdx = 1 - WorkFrameIdx;
 728:../src/InfoNES.c ****         WorkFrame = DoubleFrame[ WorkFrameIdx ];
 729:../src/InfoNES.c **** #endif
 730:../src/InfoNES.c ****       }
 731:../src/InfoNES.c ****       break;
 732:../src/InfoNES.c **** 
 733:../src/InfoNES.c ****     case SCAN_VBLANK_START:
 734:../src/InfoNES.c ****       // FrameCnt + 1
 735:../src/InfoNES.c ****       FrameCnt = ( FrameCnt >= FrameSkip ) ? 0 : FrameCnt + 1;
 736:../src/InfoNES.c **** 
 737:../src/InfoNES.c ****       // Set a V-Blank flag
 738:../src/InfoNES.c ****       PPU_R2 = R2_IN_VBLANK;
 739:../src/InfoNES.c **** 
 740:../src/InfoNES.c ****       // Reset latch flag
 741:../src/InfoNES.c ****       PPU_Latch_Flag = 0;
 742:../src/InfoNES.c **** 
 743:../src/InfoNES.c **** #ifndef APU_NONE
 744:../src/InfoNES.c ****       // pAPU Sound function in V-Sync
 745:../src/InfoNES.c ****       if ( !APU_Mute )
 746:../src/InfoNES.c ****         InfoNES_pAPUVsync();
 747:../src/InfoNES.c **** #endif /* APU_NONE */
 748:../src/InfoNES.c **** 
 749:../src/InfoNES.c ****       // A mapper function in V-Sync
 750:../src/InfoNES.c ****       MapperVSync();
 751:../src/InfoNES.c **** 
 752:../src/InfoNES.c ****       // Get the condition of the joypad
 753:../src/InfoNES.c ****       InfoNES_PadState( &PAD1_Latch, &PAD2_Latch, &PAD_System );
 754:../src/InfoNES.c ****       
 755:../src/InfoNES.c ****       // NMI on V-Blank
 756:../src/InfoNES.c ****       if ( PPU_R0 & R0_NMI_VB )
 757:../src/InfoNES.c ****         NMI_REQ;
 758:../src/InfoNES.c **** 
 759:../src/InfoNES.c ****       // Exit an emulation if a QUIT button is pushed
 760:../src/InfoNES.c ****       if ( PAD_PUSH( PAD_System, PAD_SYS_QUIT ) )
 761:../src/InfoNES.c ****         return -1;  // Exit an emulation      
 762:../src/InfoNES.c ****       
 763:../src/InfoNES.c ****       break;
 764:../src/InfoNES.c ****   }
 765:../src/InfoNES.c **** 
 766:../src/InfoNES.c ****   // Successful
 767:../src/InfoNES.c ****   return 0;
 768:../src/InfoNES.c **** }
 769:../src/InfoNES.c **** 
 770:../src/InfoNES.c **** /*===================================================================*/
 771:../src/InfoNES.c **** /*                                                                   */
 772:../src/InfoNES.c **** /*              InfoNES_DrawLine() : Render a scanline               */
 773:../src/InfoNES.c **** /*                                                                   */
 774:../src/InfoNES.c **** /*===================================================================*/
 775:../src/InfoNES.c **** void InfoNES_DrawLine()
 776:../src/InfoNES.c **** {
 597              		.loc 1 776 0
 598              		.cfi_startproc
 599 0000 0971     		addi	sp,sp,-384
 600              		.cfi_def_cfa_offset 384
 601 0002 232A9115 		sw	s9,340(sp)
 602              		.cfi_offset 25, -44
 777:../src/InfoNES.c **** /*
 778:../src/InfoNES.c ****  *  Render a scanline
 779:../src/InfoNES.c ****  *
 780:../src/InfoNES.c ****  */
 781:../src/InfoNES.c **** 
 782:../src/InfoNES.c ****   int nX;
 783:../src/InfoNES.c ****   int nY;
 784:../src/InfoNES.c ****   int nY4;
 785:../src/InfoNES.c ****   int nYBit;
 786:../src/InfoNES.c ****   WORD *pPalTbl;
 787:../src/InfoNES.c ****   BYTE *pAttrBase;
 788:../src/InfoNES.c ****   WORD *pPoint;
 789:../src/InfoNES.c ****   int nNameTable;
 790:../src/InfoNES.c ****   BYTE *pbyNameTable;
 791:../src/InfoNES.c ****   BYTE *pbyChrData;
 792:../src/InfoNES.c ****   BYTE *pSPRRAM;
 793:../src/InfoNES.c ****   int nAttr;
 794:../src/InfoNES.c ****   int nSprCnt;
 795:../src/InfoNES.c ****   int nIdx;
 796:../src/InfoNES.c ****   int nSprData;
 797:../src/InfoNES.c ****   BYTE bySprCol;
 798:../src/InfoNES.c ****   BYTE pSprBuf[ NES_DISP_WIDTH + 7 ];
 799:../src/InfoNES.c **** 
 800:../src/InfoNES.c ****   /*-------------------------------------------------------------------*/
 801:../src/InfoNES.c ****   /*  Render Background                                                */
 802:../src/InfoNES.c ****   /*-------------------------------------------------------------------*/
 803:../src/InfoNES.c **** 
 804:../src/InfoNES.c ****   /* MMC5 VROM switch */
 805:../src/InfoNES.c ****   MapperRenderScreen( 1 );
 603              		.loc 1 805 0
 604 0006 B70C0000 		lui	s9,%hi(.LANCHOR50)
 605 000a 93870C00 		addi	a5,s9,%lo(.LANCHOR50)
 606 000e 3EC8     		sw	a5,16(sp)
 607 0010 9C43     		lw	a5,0(a5)
 776:../src/InfoNES.c **** /*
 608              		.loc 1 776 0
 609 0012 23206117 		sw	s6,352(sp)
 610 0016 2328A115 		sw	s10,336(sp)
 611 001a 2326B115 		sw	s11,332(sp)
 612 001e 232E1116 		sw	ra,380(sp)
 613 0022 232C8116 		sw	s0,376(sp)
 614 0026 232A9116 		sw	s1,372(sp)
 615 002a 23282117 		sw	s2,368(sp)
 616 002e 23263117 		sw	s3,364(sp)
 617 0032 23244117 		sw	s4,360(sp)
 618 0036 23225117 		sw	s5,356(sp)
 619 003a 232E7115 		sw	s7,348(sp)
 620 003e 232C8115 		sw	s8,344(sp)
 621              		.cfi_offset 22, -32
 622              		.cfi_offset 26, -48
 623              		.cfi_offset 27, -52
 624              		.cfi_offset 1, -4
 625              		.cfi_offset 8, -8
 626              		.cfi_offset 9, -12
 627              		.cfi_offset 18, -16
 628              		.cfi_offset 19, -20
 629              		.cfi_offset 20, -24
 630              		.cfi_offset 21, -28
 631              		.cfi_offset 23, -36
 632              		.cfi_offset 24, -40
 633              		.loc 1 805 0
 634 0042 0545     		li	a0,1
 635 0044 8297     		jalr	a5
 636              	.LVL35:
 806:../src/InfoNES.c **** 
 807:../src/InfoNES.c ****   // Pointer to the render position
 808:../src/InfoNES.c ****   pPoint = &WorkFrame[ PPU_Scanline * NES_DISP_WIDTH ];
 637              		.loc 1 808 0
 638 0046 370D0000 		lui	s10,%hi(.LANCHOR25)
 809:../src/InfoNES.c **** 
 810:../src/InfoNES.c ****   // Clear a scanline if screen is off
 811:../src/InfoNES.c ****   if ( !( PPU_R1 & R1_SHOW_SCR ) )
 639              		.loc 1 811 0
 640 004a 370B0000 		lui	s6,%hi(.LANCHOR5)
 808:../src/InfoNES.c **** 
 641              		.loc 1 808 0
 642 004e 93070D00 		addi	a5,s10,%lo(.LANCHOR25)
 643              		.loc 1 811 0
 644 0052 13070B00 		addi	a4,s6,%lo(.LANCHOR5)
 808:../src/InfoNES.c **** 
 645              		.loc 1 808 0
 646 0056 3ECA     		sw	a5,20(sp)
 647              		.loc 1 811 0
 648 0058 3AC4     		sw	a4,8(sp)
 808:../src/InfoNES.c **** 
 649              		.loc 1 808 0
 650 005a 83D70700 		lhu	a5,0(a5)
 651              		.loc 1 811 0
 652 005e 03470700 		lbu	a4,0(a4)
 808:../src/InfoNES.c **** 
 653              		.loc 1 808 0
 654 0062 B70D0000 		lui	s11,%hi(WorkFrame)
 655 0066 13860D00 		addi	a2,s11,%lo(WorkFrame)
 656 006a 93969700 		slli	a3,a5,9
 657 006e 32CE     		sw	a2,28(sp)
 658              		.loc 1 811 0
 659 0070 218B     		andi	a4,a4,8
 808:../src/InfoNES.c **** 
 660              		.loc 1 808 0
 661 0072 B30DD600 		add	s11,a2,a3
 662              	.LVL36:
 663              		.loc 1 811 0
 664 0076 630A0766 		beqz	a4,.L149
 812:../src/InfoNES.c ****   {
 813:../src/InfoNES.c ****     InfoNES_MemorySet( pPoint, 0, NES_DISP_WIDTH << 1 );
 814:../src/InfoNES.c ****   }
 815:../src/InfoNES.c ****   else
 816:../src/InfoNES.c ****   {
 817:../src/InfoNES.c ****     nNameTable = PPU_NameTableBank;
 818:../src/InfoNES.c **** 
 819:../src/InfoNES.c ****     nY = PPU_Scr_V_Byte + ( PPU_Scanline >> 3 );
 820:../src/InfoNES.c **** 
 821:../src/InfoNES.c ****     nYBit = PPU_Scr_V_Bit + ( PPU_Scanline & 7 );
 665              		.loc 1 821 0
 666 007a 37070000 		lui	a4,%hi(.LANCHOR12)
 667 007e 83440700 		lbu	s1,%lo(.LANCHOR12)(a4)
 819:../src/InfoNES.c **** 
 668              		.loc 1 819 0
 669 0082 37070000 		lui	a4,%hi(.LANCHOR14)
 670 0086 03440700 		lbu	s0,%lo(.LANCHOR14)(a4)
 671              		.loc 1 821 0
 672 008a 13F77700 		andi	a4,a5,7
 673 008e BA94     		add	s1,s1,a4
 819:../src/InfoNES.c **** 
 674              		.loc 1 819 0
 675 0090 8D83     		srli	a5,a5,3
 817:../src/InfoNES.c **** 
 676              		.loc 1 817 0
 677 0092 37070000 		lui	a4,%hi(.LANCHOR28)
 822:../src/InfoNES.c **** 
 823:../src/InfoNES.c ****     if ( nYBit > 7 )
 678              		.loc 1 823 0
 679 0096 1D46     		li	a2,7
 817:../src/InfoNES.c **** 
 680              		.loc 1 817 0
 681 0098 03470700 		lbu	a4,%lo(.LANCHOR28)(a4)
 682              	.LVL37:
 819:../src/InfoNES.c **** 
 683              		.loc 1 819 0
 684 009c 3E94     		add	s0,s0,a5
 685              	.LVL38:
 686              		.loc 1 823 0
 687 009e 63549600 		ble	s1,a2,.L39
 824:../src/InfoNES.c ****     {
 825:../src/InfoNES.c ****       ++nY;
 688              		.loc 1 825 0
 689 00a2 0504     		addi	s0,s0,1
 690              	.LVL39:
 826:../src/InfoNES.c ****       nYBit &= 7;
 691              		.loc 1 826 0
 692 00a4 9D88     		andi	s1,s1,7
 693              	.LVL40:
 694              	.L39:
 827:../src/InfoNES.c ****     }
 828:../src/InfoNES.c ****     nYBit <<= 3;
 829:../src/InfoNES.c **** 
 830:../src/InfoNES.c ****     if ( nY > 29 )
 695              		.loc 1 830 0
 696 00a6 F547     		li	a5,29
 828:../src/InfoNES.c **** 
 697              		.loc 1 828 0
 698 00a8 8E04     		slli	s1,s1,3
 699              	.LVL41:
 700              		.loc 1 830 0
 701 00aa 63C9873A 		bgt	s0,a5,.L40
 817:../src/InfoNES.c **** 
 702              		.loc 1 817 0
 703 00ae 3AC6     		sw	a4,12(sp)
 704              	.LVL42:
 705              	.L41:
 831:../src/InfoNES.c ****     {
 832:../src/InfoNES.c ****       // Next NameTable (An up-down direction)
 833:../src/InfoNES.c ****       nNameTable ^= NAME_TABLE_V_MASK;
 834:../src/InfoNES.c ****       nY -= 30;
 835:../src/InfoNES.c ****     }
 836:../src/InfoNES.c **** 
 837:../src/InfoNES.c ****     nX = PPU_Scr_H_Byte;
 838:../src/InfoNES.c **** 
 839:../src/InfoNES.c ****     nY4 = ( ( nY & 2 ) << 1 );
 840:../src/InfoNES.c **** 
 841:../src/InfoNES.c ****     /*-------------------------------------------------------------------*/
 842:../src/InfoNES.c ****     /*  Rendering of the block of the left end                           */
 843:../src/InfoNES.c ****     /*-------------------------------------------------------------------*/
 844:../src/InfoNES.c **** 
 845:../src/InfoNES.c ****     pbyNameTable = PPUBANK[ nNameTable ] + nY * 32 + nX;
 706              		.loc 1 845 0
 707 00b0 B7070000 		lui	a5,%hi(.LANCHOR32)
 708 00b4 13870700 		addi	a4,a5,%lo(.LANCHOR32)
 709 00b8 B247     		lw	a5,12(sp)
 837:../src/InfoNES.c **** 
 710              		.loc 1 837 0
 711 00ba B70A0000 		lui	s5,%hi(.LANCHOR20)
 712 00be 938A0A00 		addi	s5,s5,%lo(.LANCHOR20)
 713              		.loc 1 845 0
 714 00c2 8A07     		slli	a5,a5,2
 715 00c4 BA97     		add	a5,a4,a5
 837:../src/InfoNES.c **** 
 716              		.loc 1 837 0
 717 00c6 83C60A00 		lbu	a3,0(s5)
 718              		.loc 1 845 0
 719 00ca 83A90700 		lw	s3,0(a5)
 846:../src/InfoNES.c ****     pbyChrData = PPU_BG_Base + ( *pbyNameTable << 6 ) + nYBit;
 847:../src/InfoNES.c ****     pAttrBase = PPUBANK[ nNameTable ] + 0x3c0 + ( nY / 4 ) * 8;
 720              		.loc 1 847 0
 721 00ce 93572440 		srai	a5,s0,2
 722 00d2 8E07     		slli	a5,a5,3
 723 00d4 1386073C 		addi	a2,a5,960
 845:../src/InfoNES.c ****     pbyChrData = PPU_BG_Base + ( *pbyNameTable << 6 ) + nYBit;
 724              		.loc 1 845 0
 725 00d8 3AD6     		sw	a4,44(sp)
 726 00da 13175400 		slli	a4,s0,5
 727 00de B307D700 		add	a5,a4,a3
 728              		.loc 1 847 0
 729 00e2 338CC900 		add	s8,s3,a2
 845:../src/InfoNES.c ****     pbyChrData = PPU_BG_Base + ( *pbyNameTable << 6 ) + nYBit;
 730              		.loc 1 845 0
 731 00e6 3AD0     		sw	a4,32(sp)
 848:../src/InfoNES.c ****     pPalTbl =  &PalTable[ ( ( ( pAttrBase[ nX >> 2 ] >> ( ( nX & 2 ) + nY4 ) ) & 3 ) << 2 ) ];
 732              		.loc 1 848 0
 733 00e8 13D72640 		srai	a4,a3,2
 734 00ec 6297     		add	a4,s8,a4
 845:../src/InfoNES.c ****     pbyChrData = PPU_BG_Base + ( *pbyNameTable << 6 ) + nYBit;
 735              		.loc 1 845 0
 736 00ee BE99     		add	s3,s3,a5
 737              		.loc 1 848 0
 738 00f0 03480700 		lbu	a6,0(a4)
 847:../src/InfoNES.c ****     pPalTbl =  &PalTable[ ( ( ( pAttrBase[ nX >> 2 ] >> ( ( nX & 2 ) + nY4 ) ) & 3 ) << 2 ) ];
 739              		.loc 1 847 0
 740 00f4 32D2     		sw	a2,36(sp)
 839:../src/InfoNES.c **** 
 741              		.loc 1 839 0
 742 00f6 0604     		slli	s0,s0,1
 743              	.LVL43:
 846:../src/InfoNES.c ****     pAttrBase = PPUBANK[ nNameTable ] + 0x3c0 + ( nY / 4 ) * 8;
 744              		.loc 1 846 0
 745 00f8 83C70900 		lbu	a5,0(s3)
 746 00fc B7050000 		lui	a1,%hi(.LANCHOR29)
 849:../src/InfoNES.c **** 
 850:../src/InfoNES.c ****     for ( nIdx = PPU_Scr_H_Bit; nIdx < 8; ++nIdx )
 747              		.loc 1 850 0
 748 0100 37060000 		lui	a2,%hi(.LANCHOR18)
 848:../src/InfoNES.c **** 
 749              		.loc 1 848 0
 750 0104 13F72600 		andi	a4,a3,2
 837:../src/InfoNES.c **** 
 751              		.loc 1 837 0
 752 0108 36CC     		sw	a3,24(sp)
 753              	.LVL44:
 839:../src/InfoNES.c **** 
 754              		.loc 1 839 0
 755 010a 1188     		andi	s0,s0,4
 756              	.LVL45:
 757              		.loc 1 850 0
 758 010c 93060600 		addi	a3,a2,%lo(.LANCHOR18)
 759              	.LVL46:
 846:../src/InfoNES.c ****     pAttrBase = PPUBANK[ nNameTable ] + 0x3c0 + ( nY / 4 ) * 8;
 760              		.loc 1 846 0
 761 0110 138B0500 		addi	s6,a1,%lo(.LANCHOR29)
 848:../src/InfoNES.c **** 
 762              		.loc 1 848 0
 763 0114 2297     		add	a4,a4,s0
 846:../src/InfoNES.c ****     pAttrBase = PPUBANK[ nNameTable ] + 0x3c0 + ( nY / 4 ) * 8;
 764              		.loc 1 846 0
 765 0116 83280B00 		lw	a7,0(s6)
 766              		.loc 1 850 0
 767 011a 03C30600 		lbu	t1,0(a3)
 848:../src/InfoNES.c **** 
 768              		.loc 1 848 0
 769 011e 3358E840 		sra	a6,a6,a4
 846:../src/InfoNES.c ****     pAttrBase = PPUBANK[ nNameTable ] + 0x3c0 + ( nY / 4 ) * 8;
 770              		.loc 1 846 0
 771 0122 9A07     		slli	a5,a5,6
 772 0124 A697     		add	a5,a5,s1
 848:../src/InfoNES.c **** 
 773              		.loc 1 848 0
 774 0126 0E08     		slli	a6,a6,3
 775              		.loc 1 850 0
 776 0128 36D4     		sw	a3,40(sp)
 777 012a 1D47     		li	a4,7
 846:../src/InfoNES.c ****     pAttrBase = PPUBANK[ nNameTable ] + 0x3c0 + ( nY / 4 ) * 8;
 778              		.loc 1 846 0
 779 012c BE98     		add	a7,a7,a5
 780              	.LVL47:
 781 012e 13788801 		andi	a6,a6,24
 782              	.LVL48:
 783              		.loc 1 850 0
 784 0132 636D6702 		bgtu	t1,a4,.L42
 785 0136 37070000 		lui	a4,%hi(.LANCHOR44)
 786 013a 33866800 		add	a2,a7,t1
 787 013e 138E8800 		addi	t3,a7,8
 808:../src/InfoNES.c **** 
 788              		.loc 1 808 0
 789 0142 6E85     		mv	a0,s11
 790 0144 930C0700 		addi	s9,a4,%lo(.LANCHOR44)
 791              	.LVL49:
 792              	.L43:
 851:../src/InfoNES.c ****     {
 852:../src/InfoNES.c ****       *( pPoint++ ) = pPalTbl[ pbyChrData[ nIdx ] ];
 793              		.loc 1 852 0 discriminator 3
 794 0148 83470600 		lbu	a5,0(a2)
 795 014c 0905     		addi	a0,a0,2
 796              	.LVL50:
 797 014e 0506     		addi	a2,a2,1
 798              	.LVL51:
 799 0150 8607     		slli	a5,a5,1
 800 0152 E697     		add	a5,s9,a5
 801 0154 C297     		add	a5,a5,a6
 802 0156 83D70700 		lhu	a5,0(a5)
 803 015a 231FF5FE 		sh	a5,-2(a0)
 804              	.LVL52:
 850:../src/InfoNES.c ****     {
 805              		.loc 1 850 0 discriminator 3
 806 015e E315CEFE 		bne	t3,a2,.L43
 807 0162 B3076040 		sub	a5,zero,t1
 808 0166 8607     		slli	a5,a5,1
 809 0168 C107     		addi	a5,a5,16
 810 016a BE9D     		add	s11,s11,a5
 811              	.LVL53:
 812              	.L42:
 853:../src/InfoNES.c ****     }
 854:../src/InfoNES.c **** 
 855:../src/InfoNES.c ****     // Callback at PPU read/write
 856:../src/InfoNES.c ****     MapperPPU( PATTBL( pbyChrData ) );
 813              		.loc 1 856 0
 814 016c 37090000 		lui	s2,%hi(ChrBuf)
 815 0170 37060000 		lui	a2,%hi(.LANCHOR51)
 816 0174 13090900 		addi	s2,s2,%lo(ChrBuf)
 817 0178 130D0600 		addi	s10,a2,%lo(.LANCHOR51)
 818 017c 33852841 		sub	a0,a7,s2
 819 0180 83270D00 		lw	a5,0(s10)
 820 0184 0985     		srai	a0,a0,2
 821 0186 4205     		slli	a0,a0,16
 822 0188 4181     		srli	a0,a0,16
 823 018a 8297     		jalr	a5
 824              	.LVL54:
 857:../src/InfoNES.c **** 
 858:../src/InfoNES.c ****     ++nX;
 859:../src/InfoNES.c ****     ++pbyNameTable;
 860:../src/InfoNES.c **** 
 861:../src/InfoNES.c ****     /*-------------------------------------------------------------------*/
 862:../src/InfoNES.c ****     /*  Rendering of the left table                                      */
 863:../src/InfoNES.c ****     /*-------------------------------------------------------------------*/
 864:../src/InfoNES.c **** 
 865:../src/InfoNES.c ****     for ( ; nX < 32; ++nX )
 825              		.loc 1 865 0
 826 018c 6247     		lw	a4,24(sp)
 827 018e F947     		li	a5,30
 859:../src/InfoNES.c **** 
 828              		.loc 1 859 0
 829 0190 138A1900 		addi	s4,s3,1
 830              	.LVL55:
 831              		.loc 1 865 0
 832 0194 63C9E70E 		bgt	a4,a5,.L44
 833 0198 B38BE940 		sub	s7,s3,a4
 834 019c BA87     		mv	a5,a4
 835 019e 93860B02 		addi	a3,s7,32
 836 01a2 37070000 		lui	a4,%hi(.LANCHOR44)
 837 01a6 36C2     		sw	a3,4(sp)
 838 01a8 EE8B     		mv	s7,s11
 839 01aa 930C0700 		addi	s9,a4,%lo(.LANCHOR44)
 840 01ae B3893741 		sub	s3,a5,s3
 841              	.LVL56:
 842              	.L45:
 866:../src/InfoNES.c ****     {
 867:../src/InfoNES.c ****       pbyChrData = PPU_BG_Base + ( *pbyNameTable << 6 ) + nYBit;
 843              		.loc 1 867 0 discriminator 2
 844 01b2 03480A00 		lbu	a6,0(s4)
 845 01b6 33053A01 		add	a0,s4,s3
 846              	.LVL57:
 868:../src/InfoNES.c ****       pPalTbl = &PalTable[ ( ( ( pAttrBase[ nX >> 2 ] >> ( ( nX & 2 ) + nY4 ) ) & 3 ) << 2 ) ];
 847              		.loc 1 868 0 discriminator 2
 848 01ba 93572540 		srai	a5,a0,2
 867:../src/InfoNES.c ****       pPalTbl = &PalTable[ ( ( ( pAttrBase[ nX >> 2 ] >> ( ( nX & 2 ) + nY4 ) ) & 3 ) << 2 ) ];
 849              		.loc 1 867 0 discriminator 2
 850 01be 032E0B00 		lw	t3,0(s6)
 851              		.loc 1 868 0 discriminator 2
 852 01c2 E297     		add	a5,s8,a5
 853 01c4 83C70700 		lbu	a5,0(a5)
 867:../src/InfoNES.c ****       pPalTbl = &PalTable[ ( ( ( pAttrBase[ nX >> 2 ] >> ( ( nX & 2 ) + nY4 ) ) & 3 ) << 2 ) ];
 854              		.loc 1 867 0 discriminator 2
 855 01c8 1A08     		slli	a6,a6,6
 856 01ca 2698     		add	a6,a6,s1
 857              		.loc 1 868 0 discriminator 2
 858 01cc 0989     		andi	a0,a0,2
 859              	.LVL58:
 867:../src/InfoNES.c ****       pPalTbl = &PalTable[ ( ( ( pAttrBase[ nX >> 2 ] >> ( ( nX & 2 ) + nY4 ) ) & 3 ) << 2 ) ];
 860              		.loc 1 867 0 discriminator 2
 861 01ce 7298     		add	a6,t3,a6
 862              	.LVL59:
 863              		.loc 1 868 0 discriminator 2
 864 01d0 418D     		or	a0,a0,s0
 869:../src/InfoNES.c **** 
 870:../src/InfoNES.c ****       pPoint[ 0 ] = pPalTbl[ pbyChrData[ 0 ] ]; 
 865              		.loc 1 870 0 discriminator 2
 866 01d2 034E0800 		lbu	t3,0(a6)
 868:../src/InfoNES.c **** 
 867              		.loc 1 868 0 discriminator 2
 868 01d6 B3D7A740 		sra	a5,a5,a0
 869 01da 8E07     		slli	a5,a5,3
 870 01dc E18B     		andi	a5,a5,24
 871 01de E697     		add	a5,s9,a5
 872              	.LVL60:
 873              		.loc 1 870 0 discriminator 2
 874 01e0 13151E00 		slli	a0,t3,1
 875 01e4 3E95     		add	a0,a5,a0
 876 01e6 035E0500 		lhu	t3,0(a0)
 871:../src/InfoNES.c ****       pPoint[ 1 ] = pPalTbl[ pbyChrData[ 1 ] ];
 872:../src/InfoNES.c ****       pPoint[ 2 ] = pPalTbl[ pbyChrData[ 2 ] ];
 873:../src/InfoNES.c ****       pPoint[ 3 ] = pPalTbl[ pbyChrData[ 3 ] ];
 874:../src/InfoNES.c ****       pPoint[ 4 ] = pPalTbl[ pbyChrData[ 4 ] ];
 875:../src/InfoNES.c ****       pPoint[ 5 ] = pPalTbl[ pbyChrData[ 5 ] ];
 876:../src/InfoNES.c ****       pPoint[ 6 ] = pPalTbl[ pbyChrData[ 6 ] ];
 877:../src/InfoNES.c ****       pPoint[ 7 ] = pPalTbl[ pbyChrData[ 7 ] ];
 878:../src/InfoNES.c ****       pPoint += 8;
 877              		.loc 1 878 0 discriminator 2
 878 01ea C10B     		addi	s7,s7,16
 879              	.LVL61:
 879:../src/InfoNES.c **** 
 880:../src/InfoNES.c ****       // Callback at PPU read/write
 881:../src/InfoNES.c ****       MapperPPU( PATTBL( pbyChrData ) );
 880              		.loc 1 881 0 discriminator 2
 881 01ec 33052841 		sub	a0,a6,s2
 870:../src/InfoNES.c ****       pPoint[ 1 ] = pPalTbl[ pbyChrData[ 1 ] ];
 882              		.loc 1 870 0 discriminator 2
 883 01f0 2398CBFF 		sh	t3,-16(s7)
 871:../src/InfoNES.c ****       pPoint[ 1 ] = pPalTbl[ pbyChrData[ 1 ] ];
 884              		.loc 1 871 0 discriminator 2
 885 01f4 034E1800 		lbu	t3,1(a6)
 886              		.loc 1 881 0 discriminator 2
 887 01f8 832E0D00 		lw	t4,0(s10)
 888 01fc 0985     		srai	a0,a0,2
 871:../src/InfoNES.c ****       pPoint[ 1 ] = pPalTbl[ pbyChrData[ 1 ] ];
 889              		.loc 1 871 0 discriminator 2
 890 01fe 060E     		slli	t3,t3,1
 891 0200 3E9E     		add	t3,a5,t3
 892 0202 035E0E00 		lhu	t3,0(t3)
 893              		.loc 1 881 0 discriminator 2
 894 0206 4205     		slli	a0,a0,16
 895 0208 4181     		srli	a0,a0,16
 871:../src/InfoNES.c ****       pPoint[ 1 ] = pPalTbl[ pbyChrData[ 1 ] ];
 896              		.loc 1 871 0 discriminator 2
 897 020a 2399CBFF 		sh	t3,-14(s7)
 872:../src/InfoNES.c ****       pPoint[ 3 ] = pPalTbl[ pbyChrData[ 3 ] ];
 898              		.loc 1 872 0 discriminator 2
 899 020e 034E2800 		lbu	t3,2(a6)
 882:../src/InfoNES.c **** 
 883:../src/InfoNES.c ****       ++pbyNameTable;
 900              		.loc 1 883 0 discriminator 2
 901 0212 050A     		addi	s4,s4,1
 902              	.LVL62:
 872:../src/InfoNES.c ****       pPoint[ 3 ] = pPalTbl[ pbyChrData[ 3 ] ];
 903              		.loc 1 872 0 discriminator 2
 904 0214 060E     		slli	t3,t3,1
 905 0216 3E9E     		add	t3,a5,t3
 906 0218 035E0E00 		lhu	t3,0(t3)
 907 021c 239ACBFF 		sh	t3,-12(s7)
 873:../src/InfoNES.c ****       pPoint[ 4 ] = pPalTbl[ pbyChrData[ 4 ] ];
 908              		.loc 1 873 0 discriminator 2
 909 0220 034E3800 		lbu	t3,3(a6)
 910 0224 060E     		slli	t3,t3,1
 911 0226 3E9E     		add	t3,a5,t3
 912 0228 035E0E00 		lhu	t3,0(t3)
 913 022c 239BCBFF 		sh	t3,-10(s7)
 874:../src/InfoNES.c ****       pPoint[ 5 ] = pPalTbl[ pbyChrData[ 5 ] ];
 914              		.loc 1 874 0 discriminator 2
 915 0230 034E4800 		lbu	t3,4(a6)
 916 0234 060E     		slli	t3,t3,1
 917 0236 3E9E     		add	t3,a5,t3
 918 0238 035E0E00 		lhu	t3,0(t3)
 919 023c 239CCBFF 		sh	t3,-8(s7)
 875:../src/InfoNES.c ****       pPoint[ 6 ] = pPalTbl[ pbyChrData[ 6 ] ];
 920              		.loc 1 875 0 discriminator 2
 921 0240 034E5800 		lbu	t3,5(a6)
 922 0244 060E     		slli	t3,t3,1
 923 0246 3E9E     		add	t3,a5,t3
 924 0248 035E0E00 		lhu	t3,0(t3)
 925 024c 239DCBFF 		sh	t3,-6(s7)
 876:../src/InfoNES.c ****       pPoint[ 7 ] = pPalTbl[ pbyChrData[ 7 ] ];
 926              		.loc 1 876 0 discriminator 2
 927 0250 034E6800 		lbu	t3,6(a6)
 928 0254 060E     		slli	t3,t3,1
 929 0256 3E9E     		add	t3,a5,t3
 930 0258 035E0E00 		lhu	t3,0(t3)
 931 025c 239ECBFF 		sh	t3,-4(s7)
 877:../src/InfoNES.c ****       pPoint += 8;
 932              		.loc 1 877 0 discriminator 2
 933 0260 03487800 		lbu	a6,7(a6)
 934              	.LVL63:
 935 0264 0608     		slli	a6,a6,1
 936 0266 C297     		add	a5,a5,a6
 937              	.LVL64:
 938 0268 83D70700 		lhu	a5,0(a5)
 939 026c 239FFBFE 		sh	a5,-2(s7)
 940              	.LVL65:
 881:../src/InfoNES.c **** 
 941              		.loc 1 881 0 discriminator 2
 942 0270 829E     		jalr	t4
 943              	.LVL66:
 865:../src/InfoNES.c ****     {
 944              		.loc 1 865 0 discriminator 2
 945 0272 9247     		lw	a5,4(sp)
 946 0274 E31FFAF2 		bne	s4,a5,.L45
 947 0278 E247     		lw	a5,24(sp)
 948 027a B307F040 		sub	a5,zero,a5
 949 027e 9207     		slli	a5,a5,4
 950 0280 9387071F 		addi	a5,a5,496
 951 0284 BE9D     		add	s11,s11,a5
 952              	.LVL67:
 953              	.L44:
 884:../src/InfoNES.c ****     }
 885:../src/InfoNES.c **** 
 886:../src/InfoNES.c ****     // Holizontal Mirror
 887:../src/InfoNES.c ****     nNameTable ^= NAME_TABLE_H_MASK;
 954              		.loc 1 887 0
 955 0286 B247     		lw	a5,12(sp)
 888:../src/InfoNES.c **** 
 889:../src/InfoNES.c ****     pbyNameTable = PPUBANK[ nNameTable ] + nY * 32;
 956              		.loc 1 889 0
 957 0288 3257     		lw	a4,44(sp)
 887:../src/InfoNES.c **** 
 958              		.loc 1 887 0
 959 028a 93C71700 		xori	a5,a5,1
 960              	.LVL68:
 961              		.loc 1 889 0
 962 028e 8A07     		slli	a5,a5,2
 963              	.LVL69:
 964 0290 BA97     		add	a5,a4,a5
 965 0292 83A90700 		lw	s3,0(a5)
 966 0296 0257     		lw	a4,32(sp)
 890:../src/InfoNES.c ****     pAttrBase = PPUBANK[ nNameTable ] + 0x3c0 + ( nY / 4 ) * 8;
 891:../src/InfoNES.c **** 
 892:../src/InfoNES.c ****     /*-------------------------------------------------------------------*/
 893:../src/InfoNES.c ****     /*  Rendering of the right table                                     */
 894:../src/InfoNES.c ****     /*-------------------------------------------------------------------*/
 895:../src/InfoNES.c **** 
 896:../src/InfoNES.c ****     for ( nX = 0; nX < PPU_Scr_H_Byte; ++nX )
 967              		.loc 1 896 0
 968 0298 83C70A00 		lbu	a5,0(s5)
 889:../src/InfoNES.c ****     pAttrBase = PPUBANK[ nNameTable ] + 0x3c0 + ( nY / 4 ) * 8;
 969              		.loc 1 889 0
 970 029c 338AE900 		add	s4,s3,a4
 971              	.LVL70:
 890:../src/InfoNES.c ****     pAttrBase = PPUBANK[ nNameTable ] + 0x3c0 + ( nY / 4 ) * 8;
 972              		.loc 1 890 0
 973 02a0 1257     		lw	a4,36(sp)
 974 02a2 BA99     		add	s3,s3,a4
 975              	.LVL71:
 976              		.loc 1 896 0
 977 02a4 EDC3     		beqz	a5,.L46
 978 02a6 37070000 		lui	a4,%hi(.LANCHOR44)
 979 02aa 814B     		li	s7,0
 980 02ac 930C0700 		addi	s9,a4,%lo(.LANCHOR44)
 981              	.LVL72:
 982              	.L47:
 897:../src/InfoNES.c ****     {
 898:../src/InfoNES.c ****       pbyChrData = PPU_BG_Base + ( *pbyNameTable << 6 ) + nYBit;
 983              		.loc 1 898 0 discriminator 3
 984 02b0 03450A00 		lbu	a0,0(s4)
 899:../src/InfoNES.c ****       pPalTbl = &PalTable[ ( ( ( pAttrBase[ nX >> 2 ] >> ( ( nX & 2 ) + nY4 ) ) & 3 ) << 2 ) ];
 985              		.loc 1 899 0 discriminator 3
 986 02b4 93D72B40 		srai	a5,s7,2
 898:../src/InfoNES.c ****       pPalTbl = &PalTable[ ( ( ( pAttrBase[ nX >> 2 ] >> ( ( nX & 2 ) + nY4 ) ) & 3 ) << 2 ) ];
 987              		.loc 1 898 0 discriminator 3
 988 02b8 03280B00 		lw	a6,0(s6)
 989              		.loc 1 899 0 discriminator 3
 990 02bc CE97     		add	a5,s3,a5
 991 02be 83C70700 		lbu	a5,0(a5)
 898:../src/InfoNES.c ****       pPalTbl = &PalTable[ ( ( ( pAttrBase[ nX >> 2 ] >> ( ( nX & 2 ) + nY4 ) ) & 3 ) << 2 ) ];
 992              		.loc 1 898 0 discriminator 3
 993 02c2 1A05     		slli	a0,a0,6
 994 02c4 2695     		add	a0,a0,s1
 995              		.loc 1 899 0 discriminator 3
 996 02c6 93F82B00 		andi	a7,s7,2
 898:../src/InfoNES.c ****       pPalTbl = &PalTable[ ( ( ( pAttrBase[ nX >> 2 ] >> ( ( nX & 2 ) + nY4 ) ) & 3 ) << 2 ) ];
 997              		.loc 1 898 0 discriminator 3
 998 02ca 2A98     		add	a6,a6,a0
 999              	.LVL73:
 1000              		.loc 1 899 0 discriminator 3
 1001 02cc B3E88800 		or	a7,a7,s0
 900:../src/InfoNES.c **** 
 901:../src/InfoNES.c ****       pPoint[ 0 ] = pPalTbl[ pbyChrData[ 0 ] ]; 
 1002              		.loc 1 901 0 discriminator 3
 1003 02d0 03450800 		lbu	a0,0(a6)
 899:../src/InfoNES.c **** 
 1004              		.loc 1 899 0 discriminator 3
 1005 02d4 B3D71741 		sra	a5,a5,a7
 1006 02d8 8E07     		slli	a5,a5,3
 1007 02da E18B     		andi	a5,a5,24
 1008 02dc E697     		add	a5,s9,a5
 1009              	.LVL74:
 1010              		.loc 1 901 0 discriminator 3
 1011 02de 0605     		slli	a0,a0,1
 1012 02e0 3E95     		add	a0,a5,a0
 1013 02e2 83580500 		lhu	a7,0(a0)
 902:../src/InfoNES.c ****       pPoint[ 1 ] = pPalTbl[ pbyChrData[ 1 ] ];
 903:../src/InfoNES.c ****       pPoint[ 2 ] = pPalTbl[ pbyChrData[ 2 ] ];
 904:../src/InfoNES.c ****       pPoint[ 3 ] = pPalTbl[ pbyChrData[ 3 ] ];
 905:../src/InfoNES.c ****       pPoint[ 4 ] = pPalTbl[ pbyChrData[ 4 ] ];
 906:../src/InfoNES.c ****       pPoint[ 5 ] = pPalTbl[ pbyChrData[ 5 ] ];
 907:../src/InfoNES.c ****       pPoint[ 6 ] = pPalTbl[ pbyChrData[ 6 ] ];
 908:../src/InfoNES.c ****       pPoint[ 7 ] = pPalTbl[ pbyChrData[ 7 ] ];
 909:../src/InfoNES.c ****       pPoint += 8;
 1014              		.loc 1 909 0 discriminator 3
 1015 02e6 C10D     		addi	s11,s11,16
 1016              	.LVL75:
 910:../src/InfoNES.c **** 
 911:../src/InfoNES.c ****       // Callback at PPU read/write
 912:../src/InfoNES.c ****       MapperPPU( PATTBL( pbyChrData ) );
 1017              		.loc 1 912 0 discriminator 3
 1018 02e8 33052841 		sub	a0,a6,s2
 901:../src/InfoNES.c ****       pPoint[ 1 ] = pPalTbl[ pbyChrData[ 1 ] ];
 1019              		.loc 1 901 0 discriminator 3
 1020 02ec 23981DFF 		sh	a7,-16(s11)
 902:../src/InfoNES.c ****       pPoint[ 1 ] = pPalTbl[ pbyChrData[ 1 ] ];
 1021              		.loc 1 902 0 discriminator 3
 1022 02f0 83481800 		lbu	a7,1(a6)
 1023              		.loc 1 912 0 discriminator 3
 1024 02f4 03230D00 		lw	t1,0(s10)
 1025 02f8 0985     		srai	a0,a0,2
 902:../src/InfoNES.c ****       pPoint[ 1 ] = pPalTbl[ pbyChrData[ 1 ] ];
 1026              		.loc 1 902 0 discriminator 3
 1027 02fa 8608     		slli	a7,a7,1
 1028 02fc BE98     		add	a7,a5,a7
 1029 02fe 83D80800 		lhu	a7,0(a7)
 1030              		.loc 1 912 0 discriminator 3
 1031 0302 4205     		slli	a0,a0,16
 1032 0304 4181     		srli	a0,a0,16
 902:../src/InfoNES.c ****       pPoint[ 1 ] = pPalTbl[ pbyChrData[ 1 ] ];
 1033              		.loc 1 902 0 discriminator 3
 1034 0306 23991DFF 		sh	a7,-14(s11)
 903:../src/InfoNES.c ****       pPoint[ 3 ] = pPalTbl[ pbyChrData[ 3 ] ];
 1035              		.loc 1 903 0 discriminator 3
 1036 030a 83482800 		lbu	a7,2(a6)
 896:../src/InfoNES.c ****     {
 1037              		.loc 1 896 0 discriminator 3
 1038 030e 850B     		addi	s7,s7,1
 1039              	.LVL76:
 913:../src/InfoNES.c **** 
 914:../src/InfoNES.c ****       ++pbyNameTable;
 1040              		.loc 1 914 0 discriminator 3
 1041 0310 050A     		addi	s4,s4,1
 1042              	.LVL77:
 903:../src/InfoNES.c ****       pPoint[ 3 ] = pPalTbl[ pbyChrData[ 3 ] ];
 1043              		.loc 1 903 0 discriminator 3
 1044 0312 8608     		slli	a7,a7,1
 1045 0314 BE98     		add	a7,a5,a7
 1046 0316 83D80800 		lhu	a7,0(a7)
 1047 031a 239A1DFF 		sh	a7,-12(s11)
 904:../src/InfoNES.c ****       pPoint[ 4 ] = pPalTbl[ pbyChrData[ 4 ] ];
 1048              		.loc 1 904 0 discriminator 3
 1049 031e 83483800 		lbu	a7,3(a6)
 1050 0322 8608     		slli	a7,a7,1
 1051 0324 BE98     		add	a7,a5,a7
 1052 0326 83D80800 		lhu	a7,0(a7)
 1053 032a 239B1DFF 		sh	a7,-10(s11)
 905:../src/InfoNES.c ****       pPoint[ 5 ] = pPalTbl[ pbyChrData[ 5 ] ];
 1054              		.loc 1 905 0 discriminator 3
 1055 032e 83484800 		lbu	a7,4(a6)
 1056 0332 8608     		slli	a7,a7,1
 1057 0334 BE98     		add	a7,a5,a7
 1058 0336 83D80800 		lhu	a7,0(a7)
 1059 033a 239C1DFF 		sh	a7,-8(s11)
 906:../src/InfoNES.c ****       pPoint[ 6 ] = pPalTbl[ pbyChrData[ 6 ] ];
 1060              		.loc 1 906 0 discriminator 3
 1061 033e 83485800 		lbu	a7,5(a6)
 1062 0342 8608     		slli	a7,a7,1
 1063 0344 BE98     		add	a7,a5,a7
 1064 0346 83D80800 		lhu	a7,0(a7)
 1065 034a 239D1DFF 		sh	a7,-6(s11)
 907:../src/InfoNES.c ****       pPoint[ 7 ] = pPalTbl[ pbyChrData[ 7 ] ];
 1066              		.loc 1 907 0 discriminator 3
 1067 034e 83486800 		lbu	a7,6(a6)
 1068 0352 8608     		slli	a7,a7,1
 1069 0354 BE98     		add	a7,a5,a7
 1070 0356 83D80800 		lhu	a7,0(a7)
 1071 035a 239E1DFF 		sh	a7,-4(s11)
 908:../src/InfoNES.c ****       pPoint += 8;
 1072              		.loc 1 908 0 discriminator 3
 1073 035e 03487800 		lbu	a6,7(a6)
 1074              	.LVL78:
 1075 0362 0608     		slli	a6,a6,1
 1076 0364 C297     		add	a5,a5,a6
 1077              	.LVL79:
 1078 0366 83D70700 		lhu	a5,0(a5)
 1079 036a 239FFDFE 		sh	a5,-2(s11)
 1080              	.LVL80:
 912:../src/InfoNES.c **** 
 1081              		.loc 1 912 0 discriminator 3
 1082 036e 0293     		jalr	t1
 1083              	.LVL81:
 896:../src/InfoNES.c ****     {
 1084              		.loc 1 896 0 discriminator 3
 1085 0370 83C70A00 		lbu	a5,0(s5)
 1086 0374 E3CEFBF2 		bgt	a5,s7,.L47
 1087 0378 93D72B40 		srai	a5,s7,2
 1088 037c 93FB2B00 		andi	s7,s7,2
 1089              	.LVL82:
 1090 0380 BE99     		add	s3,s3,a5
 1091              	.LVL83:
 1092 0382 33647401 		or	s0,s0,s7
 1093              	.LVL84:
 1094              	.L46:
 915:../src/InfoNES.c ****     }
 916:../src/InfoNES.c **** 
 917:../src/InfoNES.c ****     /*-------------------------------------------------------------------*/
 918:../src/InfoNES.c ****     /*  Rendering of the block of the right end                          */
 919:../src/InfoNES.c ****     /*-------------------------------------------------------------------*/
 920:../src/InfoNES.c **** 
 921:../src/InfoNES.c ****     pbyChrData = PPU_BG_Base + ( *pbyNameTable << 6 ) + nYBit;
 922:../src/InfoNES.c ****     pPalTbl = &PalTable[ ( ( ( pAttrBase[ nX >> 2 ] >> ( ( nX & 2 ) + nY4 ) ) & 3 ) << 2 ) ];
 923:../src/InfoNES.c ****     for ( nIdx = 0; nIdx < PPU_Scr_H_Bit; ++nIdx )
 1095              		.loc 1 923 0
 1096 0386 A256     		lw	a3,40(sp)
 921:../src/InfoNES.c ****     pPalTbl = &PalTable[ ( ( ( pAttrBase[ nX >> 2 ] >> ( ( nX & 2 ) + nY4 ) ) & 3 ) << 2 ) ];
 1097              		.loc 1 921 0
 1098 0388 03470A00 		lbu	a4,0(s4)
 922:../src/InfoNES.c ****     for ( nIdx = 0; nIdx < PPU_Scr_H_Bit; ++nIdx )
 1099              		.loc 1 922 0
 1100 038c 03C80900 		lbu	a6,0(s3)
 921:../src/InfoNES.c ****     pPalTbl = &PalTable[ ( ( ( pAttrBase[ nX >> 2 ] >> ( ( nX & 2 ) + nY4 ) ) & 3 ) << 2 ) ];
 1101              		.loc 1 921 0
 1102 0390 83270B00 		lw	a5,0(s6)
 1103              		.loc 1 923 0
 1104 0394 83C80600 		lbu	a7,0(a3)
 921:../src/InfoNES.c ****     pPalTbl = &PalTable[ ( ( ( pAttrBase[ nX >> 2 ] >> ( ( nX & 2 ) + nY4 ) ) & 3 ) << 2 ) ];
 1105              		.loc 1 921 0
 1106 0398 1A07     		slli	a4,a4,6
 922:../src/InfoNES.c ****     for ( nIdx = 0; nIdx < PPU_Scr_H_Bit; ++nIdx )
 1107              		.loc 1 922 0
 1108 039a 33588840 		sra	a6,a6,s0
 921:../src/InfoNES.c ****     pPalTbl = &PalTable[ ( ( ( pAttrBase[ nX >> 2 ] >> ( ( nX & 2 ) + nY4 ) ) & 3 ) << 2 ) ];
 1109              		.loc 1 921 0
 1110 039e BA94     		add	s1,a4,s1
 1111              	.LVL85:
 922:../src/InfoNES.c ****     for ( nIdx = 0; nIdx < PPU_Scr_H_Bit; ++nIdx )
 1112              		.loc 1 922 0
 1113 03a0 0E08     		slli	a6,a6,3
 921:../src/InfoNES.c ****     pPalTbl = &PalTable[ ( ( ( pAttrBase[ nX >> 2 ] >> ( ( nX & 2 ) + nY4 ) ) & 3 ) << 2 ) ];
 1114              		.loc 1 921 0
 1115 03a2 BE94     		add	s1,a5,s1
 1116              	.LVL86:
 1117 03a4 13788801 		andi	a6,a6,24
 1118              	.LVL87:
 1119              		.loc 1 923 0
 1120 03a8 63860802 		beqz	a7,.L48
 1121 03ac 37070000 		lui	a4,%hi(.LANCHOR44)
 1122 03b0 A685     		mv	a1,s1
 1123 03b2 6E85     		mv	a0,s11
 1124 03b4 A698     		add	a7,a7,s1
 1125 03b6 930C0700 		addi	s9,a4,%lo(.LANCHOR44)
 1126              	.LVL88:
 1127              	.L49:
 924:../src/InfoNES.c ****     {
 925:../src/InfoNES.c ****       pPoint[ nIdx ] = pPalTbl[ pbyChrData[ nIdx ] ];
 1128              		.loc 1 925 0 discriminator 3
 1129 03ba 83C70500 		lbu	a5,0(a1)
 1130 03be 0905     		addi	a0,a0,2
 1131 03c0 8505     		addi	a1,a1,1
 1132              	.LVL89:
 1133 03c2 8607     		slli	a5,a5,1
 1134 03c4 E697     		add	a5,s9,a5
 1135 03c6 C297     		add	a5,a5,a6
 1136 03c8 83D70700 		lhu	a5,0(a5)
 1137 03cc 231FF5FE 		sh	a5,-2(a0)
 1138              	.LVL90:
 923:../src/InfoNES.c ****     {
 1139              		.loc 1 923 0 discriminator 3
 1140 03d0 E395B8FE 		bne	a7,a1,.L49
 1141              	.L48:
 926:../src/InfoNES.c ****     }
 927:../src/InfoNES.c **** 
 928:../src/InfoNES.c ****     // Callback at PPU read/write
 929:../src/InfoNES.c ****     MapperPPU( PATTBL( pbyChrData ) );
 1142              		.loc 1 929 0
 1143 03d4 B3842441 		sub	s1,s1,s2
 1144              	.LVL91:
 1145 03d8 83270D00 		lw	a5,0(s10)
 1146 03dc 13D52440 		srai	a0,s1,2
 1147 03e0 4205     		slli	a0,a0,16
 1148 03e2 4181     		srli	a0,a0,16
 1149 03e4 8297     		jalr	a5
 1150              	.LVL92:
 930:../src/InfoNES.c **** 
 931:../src/InfoNES.c ****     /*-------------------------------------------------------------------*/
 932:../src/InfoNES.c ****     /*  Backgroud Clipping                                               */
 933:../src/InfoNES.c ****     /*-------------------------------------------------------------------*/
 934:../src/InfoNES.c ****     if ( !( PPU_R1 & R1_CLIP_BG ) )
 1151              		.loc 1 934 0
 1152 03e6 A247     		lw	a5,8(sp)
 1153 03e8 83C70700 		lbu	a5,0(a5)
 1154 03ec 898B     		andi	a5,a5,2
 1155 03ee 63870730 		beqz	a5,.L150
 1156              	.L50:
 935:../src/InfoNES.c ****     {
 936:../src/InfoNES.c ****       WORD *pPointTop;
 937:../src/InfoNES.c **** 
 938:../src/InfoNES.c ****       pPointTop = &WorkFrame[ PPU_Scanline * NES_DISP_WIDTH ];
 939:../src/InfoNES.c ****       InfoNES_MemorySet( pPointTop, 0, 8 << 1 );
 940:../src/InfoNES.c ****     }
 941:../src/InfoNES.c **** 
 942:../src/InfoNES.c ****     /*-------------------------------------------------------------------*/
 943:../src/InfoNES.c ****     /*  Clear a scanline if up and down clipping flag is set             */
 944:../src/InfoNES.c ****     /*-------------------------------------------------------------------*/
 945:../src/InfoNES.c ****     if ( PPU_UpDown_Clip && 
 1157              		.loc 1 945 0
 1158 03f2 B7070000 		lui	a5,%hi(.LANCHOR8)
 1159 03f6 83C70700 		lbu	a5,%lo(.LANCHOR8)(a5)
 1160 03fa 81CF     		beqz	a5,.L38
 946:../src/InfoNES.c ****        ( SCAN_ON_SCREEN_START > PPU_Scanline || PPU_Scanline > SCAN_BOTTOM_OFF_SCREEN_START ) )
 1161              		.loc 1 946 0 discriminator 1
 1162 03fc D247     		lw	a5,20(sp)
 945:../src/InfoNES.c ****        ( SCAN_ON_SCREEN_START > PPU_Scanline || PPU_Scanline > SCAN_BOTTOM_OFF_SCREEN_START ) )
 1163              		.loc 1 945 0 discriminator 1
 1164 03fe 1306000E 		li	a2,224
 1165              		.loc 1 946 0 discriminator 1
 1166 0402 03D70700 		lhu	a4,0(a5)
 1167 0406 930787FF 		addi	a5,a4,-8
 945:../src/InfoNES.c ****        ( SCAN_ON_SCREEN_START > PPU_Scanline || PPU_Scanline > SCAN_BOTTOM_OFF_SCREEN_START ) )
 1168              		.loc 1 945 0 discriminator 1
 1169 040a C207     		slli	a5,a5,16
 1170 040c C183     		srli	a5,a5,16
 1171 040e 636EF630 		bgtu	a5,a2,.L151
 1172              	.LVL93:
 1173              	.L38:
 947:../src/InfoNES.c ****     {
 948:../src/InfoNES.c ****       WORD *pPointTop;
 949:../src/InfoNES.c **** 
 950:../src/InfoNES.c ****       pPointTop = &WorkFrame[ PPU_Scanline * NES_DISP_WIDTH ];
 951:../src/InfoNES.c ****       InfoNES_MemorySet( pPointTop, 0, NES_DISP_WIDTH << 1 );
 952:../src/InfoNES.c ****     }  
 953:../src/InfoNES.c ****   }
 954:../src/InfoNES.c **** 
 955:../src/InfoNES.c ****   /*-------------------------------------------------------------------*/
 956:../src/InfoNES.c ****   /*  Render a sprite                                                  */
 957:../src/InfoNES.c ****   /*-------------------------------------------------------------------*/
 958:../src/InfoNES.c **** 
 959:../src/InfoNES.c ****   /* MMC5 VROM switch */
 960:../src/InfoNES.c ****   MapperRenderScreen( 0 );
 1174              		.loc 1 960 0
 1175 0412 C247     		lw	a5,16(sp)
 1176 0414 0145     		li	a0,0
 1177 0416 9C43     		lw	a5,0(a5)
 1178 0418 8297     		jalr	a5
 1179              	.LVL94:
 961:../src/InfoNES.c **** 
 962:../src/InfoNES.c ****   if ( PPU_R1 & R1_SHOW_SP )
 1180              		.loc 1 962 0
 1181 041a A247     		lw	a5,8(sp)
 1182 041c 83C70700 		lbu	a5,0(a5)
 1183 0420 C18B     		andi	a5,a5,16
 1184 0422 B1E3     		bnez	a5,.L152
 1185              	.LVL95:
 1186              	.L36:
 963:../src/InfoNES.c ****   {
 964:../src/InfoNES.c ****     // Reset Scanline Sprite Count
 965:../src/InfoNES.c ****     PPU_R2 &= ~R2_MAX_SP;
 966:../src/InfoNES.c **** 
 967:../src/InfoNES.c ****     // Reset sprite buffer
 968:../src/InfoNES.c ****     InfoNES_MemorySet( pSprBuf, 0, sizeof pSprBuf );
 969:../src/InfoNES.c **** 
 970:../src/InfoNES.c ****     // Render a sprite to the sprite buffer
 971:../src/InfoNES.c ****     nSprCnt = 0;
 972:../src/InfoNES.c ****     for ( pSPRRAM = SPRRAM + ( 63 << 2 ); pSPRRAM >= SPRRAM; pSPRRAM -= 4 )
 973:../src/InfoNES.c ****     {
 974:../src/InfoNES.c ****       nY = pSPRRAM[ SPR_Y ] + 1;
 975:../src/InfoNES.c ****       if ( nY > PPU_Scanline || nY + PPU_SP_Height <= PPU_Scanline )
 976:../src/InfoNES.c ****         continue;  // Next sprite
 977:../src/InfoNES.c **** 
 978:../src/InfoNES.c ****      /*-------------------------------------------------------------------*/
 979:../src/InfoNES.c ****      /*  A sprite in scanning line                                        */
 980:../src/InfoNES.c ****      /*-------------------------------------------------------------------*/
 981:../src/InfoNES.c **** 
 982:../src/InfoNES.c ****       // Holizontal Sprite Count +1
 983:../src/InfoNES.c ****       ++nSprCnt;
 984:../src/InfoNES.c ****       
 985:../src/InfoNES.c ****       nAttr = pSPRRAM[ SPR_ATTR ];
 986:../src/InfoNES.c ****       nYBit = PPU_Scanline - nY;
 987:../src/InfoNES.c ****       nYBit = ( nAttr & SPR_ATTR_V_FLIP ) ? ( PPU_SP_Height - nYBit - 1 ) << 3 : nYBit << 3;
 988:../src/InfoNES.c **** 
 989:../src/InfoNES.c ****       if ( PPU_R0 & R0_SP_SIZE )
 990:../src/InfoNES.c ****       {
 991:../src/InfoNES.c ****         // Sprite size 8x16
 992:../src/InfoNES.c ****         if ( pSPRRAM[ SPR_CHR ] & 1 )
 993:../src/InfoNES.c ****         {
 994:../src/InfoNES.c ****           pbyChrData = ChrBuf + 256 * 64 + ( ( pSPRRAM[ SPR_CHR ] & 0xfe ) << 6 ) + nYBit;
 995:../src/InfoNES.c ****         }
 996:../src/InfoNES.c ****         else
 997:../src/InfoNES.c ****         {
 998:../src/InfoNES.c ****           pbyChrData = ChrBuf + ( ( pSPRRAM[ SPR_CHR ] & 0xfe ) << 6 ) + nYBit;
 999:../src/InfoNES.c ****         }
1000:../src/InfoNES.c ****       }
1001:../src/InfoNES.c ****       else
1002:../src/InfoNES.c ****       {
1003:../src/InfoNES.c ****         // Sprite size 8x8
1004:../src/InfoNES.c ****         pbyChrData = PPU_SP_Base + ( pSPRRAM[ SPR_CHR ] << 6 ) + nYBit;
1005:../src/InfoNES.c ****       }
1006:../src/InfoNES.c **** 
1007:../src/InfoNES.c ****       nAttr ^= SPR_ATTR_PRI;
1008:../src/InfoNES.c ****       bySprCol = ( nAttr & ( SPR_ATTR_COLOR | SPR_ATTR_PRI ) ) << 2;
1009:../src/InfoNES.c ****       nX = pSPRRAM[ SPR_X ];
1010:../src/InfoNES.c **** 
1011:../src/InfoNES.c ****       if ( nAttr & SPR_ATTR_H_FLIP )
1012:../src/InfoNES.c ****       {
1013:../src/InfoNES.c ****         // Horizontal flip
1014:../src/InfoNES.c ****         if ( pbyChrData[ 7 ] )
1015:../src/InfoNES.c ****           pSprBuf[ nX ]     = bySprCol | pbyChrData[ 7 ];
1016:../src/InfoNES.c ****         if ( pbyChrData[ 6 ] )
1017:../src/InfoNES.c ****           pSprBuf[ nX + 1 ] = bySprCol | pbyChrData[ 6 ];
1018:../src/InfoNES.c ****         if ( pbyChrData[ 5 ] )
1019:../src/InfoNES.c ****           pSprBuf[ nX + 2 ] = bySprCol | pbyChrData[ 5 ];
1020:../src/InfoNES.c ****         if ( pbyChrData[ 4 ] )
1021:../src/InfoNES.c ****           pSprBuf[ nX + 3 ] = bySprCol | pbyChrData[ 4 ];
1022:../src/InfoNES.c ****         if ( pbyChrData[ 3 ] )
1023:../src/InfoNES.c ****           pSprBuf[ nX + 4 ] = bySprCol | pbyChrData[ 3 ];
1024:../src/InfoNES.c ****         if ( pbyChrData[ 2 ] )
1025:../src/InfoNES.c ****           pSprBuf[ nX + 5 ] = bySprCol | pbyChrData[ 2 ];
1026:../src/InfoNES.c ****         if ( pbyChrData[ 1 ] )
1027:../src/InfoNES.c ****           pSprBuf[ nX + 6 ] = bySprCol | pbyChrData[ 1 ];
1028:../src/InfoNES.c ****         if ( pbyChrData[ 0 ] )
1029:../src/InfoNES.c ****           pSprBuf[ nX + 7 ] = bySprCol | pbyChrData[ 0 ];
1030:../src/InfoNES.c ****       }
1031:../src/InfoNES.c ****       else
1032:../src/InfoNES.c ****       {
1033:../src/InfoNES.c ****         // Non flip
1034:../src/InfoNES.c ****         if ( pbyChrData[ 0 ] )
1035:../src/InfoNES.c ****           pSprBuf[ nX ]     = bySprCol | pbyChrData[ 0 ];
1036:../src/InfoNES.c ****         if ( pbyChrData[ 1 ] )
1037:../src/InfoNES.c ****           pSprBuf[ nX + 1 ] = bySprCol | pbyChrData[ 1 ];
1038:../src/InfoNES.c ****         if ( pbyChrData[ 2 ] )
1039:../src/InfoNES.c ****           pSprBuf[ nX + 2 ] = bySprCol | pbyChrData[ 2 ];
1040:../src/InfoNES.c ****         if ( pbyChrData[ 3 ] )
1041:../src/InfoNES.c ****           pSprBuf[ nX + 3 ] = bySprCol | pbyChrData[ 3 ];
1042:../src/InfoNES.c ****         if ( pbyChrData[ 4 ] )
1043:../src/InfoNES.c ****           pSprBuf[ nX + 4 ] = bySprCol | pbyChrData[ 4 ];
1044:../src/InfoNES.c ****         if ( pbyChrData[ 5 ] )
1045:../src/InfoNES.c ****           pSprBuf[ nX + 5 ] = bySprCol | pbyChrData[ 5 ];
1046:../src/InfoNES.c ****         if ( pbyChrData[ 6 ] )
1047:../src/InfoNES.c ****           pSprBuf[ nX + 6 ] = bySprCol | pbyChrData[ 6 ];
1048:../src/InfoNES.c ****         if ( pbyChrData[ 7 ] )
1049:../src/InfoNES.c ****           pSprBuf[ nX + 7 ] = bySprCol | pbyChrData[ 7 ];
1050:../src/InfoNES.c ****       }
1051:../src/InfoNES.c ****     }
1052:../src/InfoNES.c **** 
1053:../src/InfoNES.c ****     // Rendering sprite
1054:../src/InfoNES.c ****     pPoint -= ( NES_DISP_WIDTH - PPU_Scr_H_Bit );
1055:../src/InfoNES.c ****     for ( nX = 0; nX < NES_DISP_WIDTH; ++nX )
1056:../src/InfoNES.c ****     {
1057:../src/InfoNES.c ****       nSprData = pSprBuf[ nX ];
1058:../src/InfoNES.c ****       if ( nSprData  && ( nSprData & 0x80 || pPoint[ nX ] & 0x8000 ) )
1059:../src/InfoNES.c ****       {
1060:../src/InfoNES.c ****         pPoint[ nX ] = PalTable[ ( nSprData & 0xf ) + 0x10 ];
1061:../src/InfoNES.c ****       }
1062:../src/InfoNES.c ****     }
1063:../src/InfoNES.c **** 
1064:../src/InfoNES.c ****     /*-------------------------------------------------------------------*/
1065:../src/InfoNES.c ****     /*  Sprite Clipping                                                  */
1066:../src/InfoNES.c ****     /*-------------------------------------------------------------------*/
1067:../src/InfoNES.c ****     if ( !( PPU_R1 & R1_CLIP_SP ) )
1068:../src/InfoNES.c ****     {
1069:../src/InfoNES.c ****       WORD *pPointTop;
1070:../src/InfoNES.c **** 
1071:../src/InfoNES.c ****       pPointTop = &WorkFrame[ PPU_Scanline * NES_DISP_WIDTH ];
1072:../src/InfoNES.c ****       InfoNES_MemorySet( pPointTop, 0, 8 << 1 );
1073:../src/InfoNES.c ****     }
1074:../src/InfoNES.c **** 
1075:../src/InfoNES.c ****     if ( nSprCnt >= 8 )
1076:../src/InfoNES.c ****       PPU_R2 |= R2_MAX_SP;  // Set a flag of maximum sprites on scanline
1077:../src/InfoNES.c ****   }
1078:../src/InfoNES.c **** }
 1187              		.loc 1 1078 0
 1188 0424 8320C117 		lw	ra,380(sp)
 1189              		.cfi_remember_state
 1190              		.cfi_restore 1
 1191 0428 03248117 		lw	s0,376(sp)
 1192              		.cfi_restore 8
 1193 042c 83244117 		lw	s1,372(sp)
 1194              		.cfi_restore 9
 1195 0430 03290117 		lw	s2,368(sp)
 1196              		.cfi_restore 18
 1197 0434 8329C116 		lw	s3,364(sp)
 1198              		.cfi_restore 19
 1199 0438 032A8116 		lw	s4,360(sp)
 1200              		.cfi_restore 20
 1201 043c 832A4116 		lw	s5,356(sp)
 1202              		.cfi_restore 21
 1203 0440 032B0116 		lw	s6,352(sp)
 1204              		.cfi_restore 22
 1205 0444 832BC115 		lw	s7,348(sp)
 1206              		.cfi_restore 23
 1207 0448 032C8115 		lw	s8,344(sp)
 1208              		.cfi_restore 24
 1209 044c 832C4115 		lw	s9,340(sp)
 1210              		.cfi_restore 25
 1211 0450 032D0115 		lw	s10,336(sp)
 1212              		.cfi_restore 26
 1213 0454 832DC114 		lw	s11,332(sp)
 1214              		.cfi_restore 27
 1215 0458 1961     		addi	sp,sp,384
 1216              		.cfi_def_cfa_offset 0
 1217 045a 8280     		jr	ra
 1218              	.LVL96:
 1219              	.L40:
 1220              		.cfi_restore_state
 833:../src/InfoNES.c ****       nY -= 30;
 1221              		.loc 1 833 0
 1222 045c 93472700 		xori	a5,a4,2
 1223 0460 3EC6     		sw	a5,12(sp)
 1224              	.LVL97:
 834:../src/InfoNES.c ****     }
 1225              		.loc 1 834 0
 1226 0462 0914     		addi	s0,s0,-30
 1227              	.LVL98:
 1228 0464 B1B1     		j	.L41
 1229              	.LVL99:
 1230              	.L152:
 965:../src/InfoNES.c **** 
 1231              		.loc 1 965 0
 1232 0466 37040000 		lui	s0,%hi(.LANCHOR4)
 1233 046a 13040400 		addi	s0,s0,%lo(.LANCHOR4)
 1234 046e 83470400 		lbu	a5,0(s0)
 968:../src/InfoNES.c **** 
 1235              		.loc 1 968 0
 1236 0472 13067010 		li	a2,263
 1237 0476 8145     		li	a1,0
 965:../src/InfoNES.c **** 
 1238              		.loc 1 965 0
 1239 0478 93F7F7FD 		andi	a5,a5,-33
 968:../src/InfoNES.c **** 
 1240              		.loc 1 968 0
 1241 047c 2818     		addi	a0,sp,56
 965:../src/InfoNES.c **** 
 1242              		.loc 1 965 0
 1243 047e 2300F400 		sb	a5,0(s0)
 968:../src/InfoNES.c **** 
 1244              		.loc 1 968 0
 1245 0482 97000000 		call	InfoNES_MemorySet
 1245      E7800000 
 1246              	.LVL100:
 989:../src/InfoNES.c ****       {
 1247              		.loc 1 989 0
 1248 048a B7070000 		lui	a5,%hi(.LANCHOR6)
 1249 048e 03CE0700 		lbu	t3,%lo(.LANCHOR6)(a5)
 975:../src/InfoNES.c ****         continue;  // Next sprite
 1250              		.loc 1 975 0
 1251 0492 D247     		lw	a5,20(sp)
 972:../src/InfoNES.c ****     {
 1252              		.loc 1 972 0
 1253 0494 B7080000 		lui	a7,%hi(.LANCHOR1)
 1254 0498 93880800 		addi	a7,a7,%lo(.LANCHOR1)
 975:../src/InfoNES.c ****         continue;  // Next sprite
 1255              		.loc 1 975 0
 1256 049c 03D50700 		lhu	a0,0(a5)
 1257 04a0 B7070000 		lui	a5,%hi(.LANCHOR31)
 1258 04a4 03D30700 		lhu	t1,%lo(.LANCHOR31)(a5)
 1259 04a8 9162     		li	t0,16384
1004:../src/InfoNES.c ****       }
 1260              		.loc 1 1004 0
 1261 04aa B7070000 		lui	a5,%hi(.LANCHOR30)
 998:../src/InfoNES.c ****         }
 1262              		.loc 1 998 0
 1263 04ae B70E0000 		lui	t4,%hi(ChrBuf)
1004:../src/InfoNES.c ****       }
 1264              		.loc 1 1004 0
 1265 04b2 83AF0700 		lw	t6,%lo(.LANCHOR30)(a5)
 1266 04b6 137E0E02 		andi	t3,t3,32
 971:../src/InfoNES.c ****     for ( pSPRRAM = SPRRAM + ( 63 << 2 ); pSPRRAM >= SPRRAM; pSPRRAM -= 4 )
 1267              		.loc 1 971 0
 1268 04ba 8144     		li	s1,0
 972:../src/InfoNES.c ****     {
 1269              		.loc 1 972 0
 1270 04bc 1388C80F 		addi	a6,a7,252
 1271 04c0 138F02F8 		addi	t5,t0,-128
 998:../src/InfoNES.c ****         }
 1272              		.loc 1 998 0
 1273 04c4 938E0E00 		addi	t4,t4,%lo(ChrBuf)
 1274 04c8 7DA8     		j	.L74
 1275              	.LVL101:
 1276              	.L154:
 992:../src/InfoNES.c ****         {
 1277              		.loc 1 992 0
 1278 04ca 8589     		andi	a1,a1,1
 1279 04cc 3376E601 		and	a2,a2,t5
 1280 04d0 63890520 		beqz	a1,.L57
 994:../src/InfoNES.c ****         }
 1281              		.loc 1 994 0
 1282 04d4 1696     		add	a2,a2,t0
 1283 04d6 B3077600 		add	a5,a2,t2
 1284 04da F697     		add	a5,a5,t4
 1285              	.LVL102:
 1286              	.L58:
 1287 04dc 13470702 		xori	a4,a4,32
 1288              	.LVL103:
1008:../src/InfoNES.c ****       nX = pSPRRAM[ SPR_X ];
 1289              		.loc 1 1008 0
 1290 04e0 13162700 		slli	a2,a4,2
1011:../src/InfoNES.c ****       {
 1291              		.loc 1 1011 0
 1292 04e4 13770704 		andi	a4,a4,64
 1293              	.LVL104:
1008:../src/InfoNES.c ****       nX = pSPRRAM[ SPR_X ];
 1294              		.loc 1 1008 0
 1295 04e8 1376C608 		andi	a2,a2,140
 1296              	.LVL105:
1009:../src/InfoNES.c **** 
 1297              		.loc 1 1009 0
 1298 04ec 83453800 		lbu	a1,3(a6)
 1299              	.LVL106:
1011:../src/InfoNES.c ****       {
 1300              		.loc 1 1011 0
 1301 04f0 6DCB     		beqz	a4,.L59
 1302              	.LVL107:
 1303              	.L155:
1014:../src/InfoNES.c ****           pSprBuf[ nX ]     = bySprCol | pbyChrData[ 7 ];
 1304              		.loc 1 1014 0
 1305 04f2 03C77700 		lbu	a4,7(a5)
 1306 04f6 19C7     		beqz	a4,.L60
1015:../src/InfoNES.c ****         if ( pbyChrData[ 6 ] )
 1307              		.loc 1 1015 0
 1308 04f8 9402     		addi	a3,sp,320
 1309 04fa 518F     		or	a4,a4,a2
 1310 04fc B383B600 		add	t2,a3,a1
 1311              	.LVL108:
 1312 0500 238CE3EE 		sb	a4,-264(t2)
 1313              	.L60:
1016:../src/InfoNES.c ****           pSprBuf[ nX + 1 ] = bySprCol | pbyChrData[ 6 ];
 1314              		.loc 1 1016 0
 1315 0504 03C76700 		lbu	a4,6(a5)
 1316 0508 19C7     		beqz	a4,.L61
1017:../src/InfoNES.c ****         if ( pbyChrData[ 5 ] )
 1317              		.loc 1 1017 0
 1318 050a 9402     		addi	a3,sp,320
 1319 050c 518F     		or	a4,a4,a2
 1320 050e B383B600 		add	t2,a3,a1
 1321 0512 A38CE3EE 		sb	a4,-263(t2)
 1322              	.L61:
1018:../src/InfoNES.c ****           pSprBuf[ nX + 2 ] = bySprCol | pbyChrData[ 5 ];
 1323              		.loc 1 1018 0
 1324 0516 03C75700 		lbu	a4,5(a5)
 1325 051a 19C7     		beqz	a4,.L62
1019:../src/InfoNES.c ****         if ( pbyChrData[ 4 ] )
 1326              		.loc 1 1019 0
 1327 051c 9402     		addi	a3,sp,320
 1328 051e 518F     		or	a4,a4,a2
 1329 0520 B383B600 		add	t2,a3,a1
 1330 0524 238DE3EE 		sb	a4,-262(t2)
 1331              	.L62:
1020:../src/InfoNES.c ****           pSprBuf[ nX + 3 ] = bySprCol | pbyChrData[ 4 ];
 1332              		.loc 1 1020 0
 1333 0528 03C74700 		lbu	a4,4(a5)
 1334 052c 19C7     		beqz	a4,.L63
1021:../src/InfoNES.c ****         if ( pbyChrData[ 3 ] )
 1335              		.loc 1 1021 0
 1336 052e 9402     		addi	a3,sp,320
 1337 0530 518F     		or	a4,a4,a2
 1338 0532 B383B600 		add	t2,a3,a1
 1339 0536 A38DE3EE 		sb	a4,-261(t2)
 1340              	.L63:
1022:../src/InfoNES.c ****           pSprBuf[ nX + 4 ] = bySprCol | pbyChrData[ 3 ];
 1341              		.loc 1 1022 0
 1342 053a 03C73700 		lbu	a4,3(a5)
 1343 053e 19C7     		beqz	a4,.L64
1023:../src/InfoNES.c ****         if ( pbyChrData[ 2 ] )
 1344              		.loc 1 1023 0
 1345 0540 9402     		addi	a3,sp,320
 1346 0542 518F     		or	a4,a4,a2
 1347 0544 B383B600 		add	t2,a3,a1
 1348 0548 238EE3EE 		sb	a4,-260(t2)
 1349              	.L64:
1024:../src/InfoNES.c ****           pSprBuf[ nX + 5 ] = bySprCol | pbyChrData[ 2 ];
 1350              		.loc 1 1024 0
 1351 054c 03C72700 		lbu	a4,2(a5)
 1352 0550 19C7     		beqz	a4,.L65
1025:../src/InfoNES.c ****         if ( pbyChrData[ 1 ] )
 1353              		.loc 1 1025 0
 1354 0552 9402     		addi	a3,sp,320
 1355 0554 518F     		or	a4,a4,a2
 1356 0556 B383B600 		add	t2,a3,a1
 1357 055a A38EE3EE 		sb	a4,-259(t2)
 1358              	.L65:
1026:../src/InfoNES.c ****           pSprBuf[ nX + 6 ] = bySprCol | pbyChrData[ 1 ];
 1359              		.loc 1 1026 0
 1360 055e 03C71700 		lbu	a4,1(a5)
 1361 0562 19C7     		beqz	a4,.L66
1027:../src/InfoNES.c ****         if ( pbyChrData[ 0 ] )
 1362              		.loc 1 1027 0
 1363 0564 9402     		addi	a3,sp,320
 1364 0566 518F     		or	a4,a4,a2
 1365 0568 B383B600 		add	t2,a3,a1
 1366 056c 238FE3EE 		sb	a4,-258(t2)
 1367              	.L66:
1028:../src/InfoNES.c ****           pSprBuf[ nX + 7 ] = bySprCol | pbyChrData[ 0 ];
 1368              		.loc 1 1028 0
 1369 0570 83C70700 		lbu	a5,0(a5)
 1370              	.LVL109:
 1371 0574 91C7     		beqz	a5,.L53
 1372              	.L147:
1049:../src/InfoNES.c ****       }
 1373              		.loc 1 1049 0
 1374 0576 9802     		addi	a4,sp,320
 1375 0578 BA95     		add	a1,a4,a1
 1376              	.LVL110:
 1377 057a 5D8E     		or	a2,a5,a2
 1378              	.LVL111:
 1379 057c A38FC5EE 		sb	a2,-257(a1)
 1380              	.L53:
 972:../src/InfoNES.c ****     {
 1381              		.loc 1 972 0 discriminator 2
 1382 0580 7118     		addi	a6,a6,-4
 1383              	.LVL112:
 1384 0582 6365180F 		bltu	a6,a7,.L153
 1385              	.LVL113:
 1386              	.L74:
 974:../src/InfoNES.c ****       if ( nY > PPU_Scanline || nY + PPU_SP_Height <= PPU_Scanline )
 1387              		.loc 1 974 0
 1388 0586 83470800 		lbu	a5,0(a6)
 1389 058a 8507     		addi	a5,a5,1
 1390              	.LVL114:
 975:../src/InfoNES.c ****         continue;  // Next sprite
 1391              		.loc 1 975 0
 1392 058c E34AF5FE 		blt	a0,a5,.L53
 975:../src/InfoNES.c ****         continue;  // Next sprite
 1393              		.loc 1 975 0 is_stmt 0 discriminator 1
 1394 0590 3307F300 		add	a4,t1,a5
 1395 0594 E356E5FE 		bge	a0,a4,.L53
 985:../src/InfoNES.c ****       nYBit = PPU_Scanline - nY;
 1396              		.loc 1 985 0 is_stmt 1
 1397 0598 03472800 		lbu	a4,2(a6)
 986:../src/InfoNES.c ****       nYBit = ( nAttr & SPR_ATTR_V_FLIP ) ? ( PPU_SP_Height - nYBit - 1 ) << 3 : nYBit << 3;
 1398              		.loc 1 986 0
 1399 059c B307F540 		sub	a5,a0,a5
 1400              	.LVL115:
 983:../src/InfoNES.c ****       
 1401              		.loc 1 983 0
 1402 05a0 8504     		addi	s1,s1,1
 1403              	.LVL116:
 987:../src/InfoNES.c **** 
 1404              		.loc 1 987 0
 1405 05a2 13168701 		slli	a2,a4,24
 1406 05a6 6186     		srai	a2,a2,24
 1407 05a8 93933700 		slli	t2,a5,3
 1408 05ac 63570600 		bgez	a2,.L55
 987:../src/InfoNES.c **** 
 1409              		.loc 1 987 0 is_stmt 0 discriminator 1
 1410 05b0 B307F340 		sub	a5,t1,a5
 1411              	.LVL117:
 1412 05b4 FD17     		addi	a5,a5,-1
 1413 05b6 93933700 		slli	t2,a5,3
 1414              	.L55:
 1415              	.LVL118:
 1416 05ba 83451800 		lbu	a1,1(a6)
 1417 05be 13966500 		slli	a2,a1,6
 989:../src/InfoNES.c ****       {
 1418              		.loc 1 989 0 is_stmt 1 discriminator 4
 1419 05c2 E3140EF0 		bnez	t3,.L154
 1420 05c6 13470702 		xori	a4,a4,32
 1421              	.LVL119:
1004:../src/InfoNES.c ****       }
 1422              		.loc 1 1004 0
 1423 05ca B3077600 		add	a5,a2,t2
1008:../src/InfoNES.c ****       nX = pSPRRAM[ SPR_X ];
 1424              		.loc 1 1008 0
 1425 05ce 13162700 		slli	a2,a4,2
1011:../src/InfoNES.c ****       {
 1426              		.loc 1 1011 0
 1427 05d2 13770704 		andi	a4,a4,64
 1428              	.LVL120:
1004:../src/InfoNES.c ****       }
 1429              		.loc 1 1004 0
 1430 05d6 FE97     		add	a5,t6,a5
 1431              	.LVL121:
1008:../src/InfoNES.c ****       nX = pSPRRAM[ SPR_X ];
 1432              		.loc 1 1008 0
 1433 05d8 1376C608 		andi	a2,a2,140
 1434              	.LVL122:
1009:../src/InfoNES.c **** 
 1435              		.loc 1 1009 0
 1436 05dc 83453800 		lbu	a1,3(a6)
 1437              	.LVL123:
1011:../src/InfoNES.c ****       {
 1438              		.loc 1 1011 0
 1439 05e0 09FB     		bnez	a4,.L155
 1440              	.L59:
1034:../src/InfoNES.c ****           pSprBuf[ nX ]     = bySprCol | pbyChrData[ 0 ];
 1441              		.loc 1 1034 0
 1442 05e2 03C70700 		lbu	a4,0(a5)
 1443 05e6 19C7     		beqz	a4,.L67
1035:../src/InfoNES.c ****         if ( pbyChrData[ 1 ] )
 1444              		.loc 1 1035 0
 1445 05e8 9402     		addi	a3,sp,320
 1446 05ea 518F     		or	a4,a4,a2
 1447 05ec B383B600 		add	t2,a3,a1
 1448              	.LVL124:
 1449 05f0 238CE3EE 		sb	a4,-264(t2)
 1450              	.L67:
1036:../src/InfoNES.c ****           pSprBuf[ nX + 1 ] = bySprCol | pbyChrData[ 1 ];
 1451              		.loc 1 1036 0
 1452 05f4 03C71700 		lbu	a4,1(a5)
 1453 05f8 19C7     		beqz	a4,.L68
1037:../src/InfoNES.c ****         if ( pbyChrData[ 2 ] )
 1454              		.loc 1 1037 0
 1455 05fa 9402     		addi	a3,sp,320
 1456 05fc 518F     		or	a4,a4,a2
 1457 05fe B383B600 		add	t2,a3,a1
 1458 0602 A38CE3EE 		sb	a4,-263(t2)
 1459              	.L68:
1038:../src/InfoNES.c ****           pSprBuf[ nX + 2 ] = bySprCol | pbyChrData[ 2 ];
 1460              		.loc 1 1038 0
 1461 0606 03C72700 		lbu	a4,2(a5)
 1462 060a 19C7     		beqz	a4,.L69
1039:../src/InfoNES.c ****         if ( pbyChrData[ 3 ] )
 1463              		.loc 1 1039 0
 1464 060c 9402     		addi	a3,sp,320
 1465 060e 518F     		or	a4,a4,a2
 1466 0610 B383B600 		add	t2,a3,a1
 1467 0614 238DE3EE 		sb	a4,-262(t2)
 1468              	.L69:
1040:../src/InfoNES.c ****           pSprBuf[ nX + 3 ] = bySprCol | pbyChrData[ 3 ];
 1469              		.loc 1 1040 0
 1470 0618 03C73700 		lbu	a4,3(a5)
 1471 061c 19C7     		beqz	a4,.L70
1041:../src/InfoNES.c ****         if ( pbyChrData[ 4 ] )
 1472              		.loc 1 1041 0
 1473 061e 9402     		addi	a3,sp,320
 1474 0620 518F     		or	a4,a4,a2
 1475 0622 B383B600 		add	t2,a3,a1
 1476 0626 A38DE3EE 		sb	a4,-261(t2)
 1477              	.L70:
1042:../src/InfoNES.c ****           pSprBuf[ nX + 4 ] = bySprCol | pbyChrData[ 4 ];
 1478              		.loc 1 1042 0
 1479 062a 03C74700 		lbu	a4,4(a5)
 1480 062e 19C7     		beqz	a4,.L71
1043:../src/InfoNES.c ****         if ( pbyChrData[ 5 ] )
 1481              		.loc 1 1043 0
 1482 0630 9402     		addi	a3,sp,320
 1483 0632 518F     		or	a4,a4,a2
 1484 0634 B383B600 		add	t2,a3,a1
 1485 0638 238EE3EE 		sb	a4,-260(t2)
 1486              	.L71:
1044:../src/InfoNES.c ****           pSprBuf[ nX + 5 ] = bySprCol | pbyChrData[ 5 ];
 1487              		.loc 1 1044 0
 1488 063c 03C75700 		lbu	a4,5(a5)
 1489 0640 19C7     		beqz	a4,.L72
1045:../src/InfoNES.c ****         if ( pbyChrData[ 6 ] )
 1490              		.loc 1 1045 0
 1491 0642 9402     		addi	a3,sp,320
 1492 0644 518F     		or	a4,a4,a2
 1493 0646 B383B600 		add	t2,a3,a1
 1494 064a A38EE3EE 		sb	a4,-259(t2)
 1495              	.L72:
1046:../src/InfoNES.c ****           pSprBuf[ nX + 6 ] = bySprCol | pbyChrData[ 6 ];
 1496              		.loc 1 1046 0
 1497 064e 03C76700 		lbu	a4,6(a5)
 1498 0652 19C7     		beqz	a4,.L73
1047:../src/InfoNES.c ****         if ( pbyChrData[ 7 ] )
 1499              		.loc 1 1047 0
 1500 0654 9402     		addi	a3,sp,320
 1501 0656 518F     		or	a4,a4,a2
 1502 0658 B383B600 		add	t2,a3,a1
 1503 065c 238FE3EE 		sb	a4,-258(t2)
 1504              	.L73:
1048:../src/InfoNES.c ****           pSprBuf[ nX + 7 ] = bySprCol | pbyChrData[ 7 ];
 1505              		.loc 1 1048 0
 1506 0660 83C77700 		lbu	a5,7(a5)
 1507              	.LVL125:
 1508 0664 89FB     		bnez	a5,.L147
 972:../src/InfoNES.c ****     {
 1509              		.loc 1 972 0
 1510 0666 7118     		addi	a6,a6,-4
 1511              	.LVL126:
 1512 0668 E37F18F1 		bgeu	a6,a7,.L74
 1513              	.LVL127:
 1514              	.L153:
1054:../src/InfoNES.c ****     for ( nX = 0; nX < NES_DISP_WIDTH; ++nX )
 1515              		.loc 1 1054 0
 1516 066c B7070000 		lui	a5,%hi(.LANCHOR18)
 1517 0670 03C70700 		lbu	a4,%lo(.LANCHOR18)(a5)
 1518 0674 93070010 		li	a5,256
1060:../src/InfoNES.c ****       }
 1519              		.loc 1 1060 0
 1520 0678 37080000 		lui	a6,%hi(.LANCHOR44)
 1521              	.LVL128:
1054:../src/InfoNES.c ****     for ( nX = 0; nX < NES_DISP_WIDTH; ++nX )
 1522              		.loc 1 1054 0
 1523 067c 998F     		sub	a5,a5,a4
 1524 067e 8607     		slli	a5,a5,1
 1525 0680 3818     		addi	a4,sp,56
 1526 0682 B386FD40 		sub	a3,s11,a5
 1527 0686 2C1A     		addi	a1,sp,312
1060:../src/InfoNES.c ****       }
 1528              		.loc 1 1060 0
 1529 0688 13080800 		addi	a6,a6,%lo(.LANCHOR44)
 1530 068c 01A8     		j	.L77
 1531              	.LVL129:
 1532              	.L157:
1058:../src/InfoNES.c ****       {
 1533              		.loc 1 1058 0 discriminator 2
 1534 068e 03960600 		lh	a2,0(a3)
 1535 0692 63420602 		bltz	a2,.L76
 1536              	.L75:
 1537 0696 8906     		addi	a3,a3,2
1055:../src/InfoNES.c ****     {
 1538              		.loc 1 1055 0 discriminator 2
 1539 0698 6386E502 		beq	a1,a4,.L156
 1540              	.LVL130:
 1541              	.L77:
1057:../src/InfoNES.c ****       if ( nSprData  && ( nSprData & 0x80 || pPoint[ nX ] & 0x8000 ) )
 1542              		.loc 1 1057 0
 1543 069c 83470700 		lbu	a5,0(a4)
 1544              	.LVL131:
 1545 06a0 0507     		addi	a4,a4,1
 1546              	.LVL132:
1058:../src/InfoNES.c ****       {
 1547              		.loc 1 1058 0
 1548 06a2 13968701 		slli	a2,a5,24
 1549 06a6 6186     		srai	a2,a2,24
 1550 06a8 FDD7     		beqz	a5,.L75
1060:../src/InfoNES.c ****       }
 1551              		.loc 1 1060 0 discriminator 1
 1552 06aa BD8B     		andi	a5,a5,15
 1553              	.LVL133:
 1554 06ac C107     		addi	a5,a5,16
 1555 06ae 8607     		slli	a5,a5,1
 1556 06b0 C297     		add	a5,a6,a5
1058:../src/InfoNES.c ****       {
 1557              		.loc 1 1058 0 discriminator 1
 1558 06b2 E35E06FC 		bgez	a2,.L157
 1559              	.L76:
1060:../src/InfoNES.c ****       }
 1560              		.loc 1 1060 0
 1561 06b6 83D70700 		lhu	a5,0(a5)
 1562 06ba 8906     		addi	a3,a3,2
 1563 06bc 239FF6FE 		sh	a5,-2(a3)
1055:../src/InfoNES.c ****     {
 1564              		.loc 1 1055 0
 1565 06c0 E39EE5FC 		bne	a1,a4,.L77
 1566              	.L156:
1067:../src/InfoNES.c ****     {
 1567              		.loc 1 1067 0
 1568 06c4 A247     		lw	a5,8(sp)
 1569 06c6 83C70700 		lbu	a5,0(a5)
 1570 06ca 918B     		andi	a5,a5,4
 1571 06cc A9C7     		beqz	a5,.L158
 1572              	.LVL134:
 1573              	.L78:
1075:../src/InfoNES.c ****       PPU_R2 |= R2_MAX_SP;  // Set a flag of maximum sprites on scanline
 1574              		.loc 1 1075 0
 1575 06ce 9D47     		li	a5,7
 1576 06d0 E3DA97D4 		ble	s1,a5,.L36
1076:../src/InfoNES.c ****   }
 1577              		.loc 1 1076 0
 1578 06d4 83470400 		lbu	a5,0(s0)
 1579 06d8 93E70702 		ori	a5,a5,32
 1580 06dc 2300F400 		sb	a5,0(s0)
 1581              		.loc 1 1078 0
 1582 06e0 91B3     		j	.L36
 1583              	.LVL135:
 1584              	.L57:
 998:../src/InfoNES.c ****         }
 1585              		.loc 1 998 0
 1586 06e2 B387C300 		add	a5,t2,a2
 1587 06e6 F697     		add	a5,a5,t4
 1588              	.LVL136:
 1589 06e8 D5BB     		j	.L58
 1590              	.LVL137:
 1591              	.L149:
 813:../src/InfoNES.c ****   }
 1592              		.loc 1 813 0
 1593 06ea 13060020 		li	a2,512
 1594 06ee 8145     		li	a1,0
 1595 06f0 6E85     		mv	a0,s11
 1596 06f2 97000000 		call	InfoNES_MemorySet
 1596      E7800000 
 1597              	.LVL138:
 1598 06fa 21BB     		j	.L38
 1599              	.LVL139:
 1600              	.L150:
 1601              	.LBB12:
 938:../src/InfoNES.c ****       InfoNES_MemorySet( pPointTop, 0, 8 << 1 );
 1602              		.loc 1 938 0
 1603 06fc D247     		lw	a5,20(sp)
 939:../src/InfoNES.c ****     }
 1604              		.loc 1 939 0
 1605 06fe 4146     		li	a2,16
 1606 0700 8145     		li	a1,0
 938:../src/InfoNES.c ****       InfoNES_MemorySet( pPointTop, 0, 8 << 1 );
 1607              		.loc 1 938 0
 1608 0702 03D50700 		lhu	a0,0(a5)
 939:../src/InfoNES.c ****     }
 1609              		.loc 1 939 0
 1610 0706 F247     		lw	a5,28(sp)
 938:../src/InfoNES.c ****       InfoNES_MemorySet( pPointTop, 0, 8 << 1 );
 1611              		.loc 1 938 0
 1612 0708 2605     		slli	a0,a0,9
 939:../src/InfoNES.c ****     }
 1613              		.loc 1 939 0
 1614 070a 3E95     		add	a0,a5,a0
 1615 070c 97000000 		call	InfoNES_MemorySet
 1615      E7800000 
 1616              	.LVL140:
 1617 0714 F9B9     		j	.L50
 1618              	.LVL141:
 1619              	.L158:
 1620              	.LBE12:
 1621              	.LBB13:
1072:../src/InfoNES.c ****     }
 1622              		.loc 1 1072 0
 1623 0716 F247     		lw	a5,28(sp)
1071:../src/InfoNES.c ****       InfoNES_MemorySet( pPointTop, 0, 8 << 1 );
 1624              		.loc 1 1071 0
 1625 0718 2605     		slli	a0,a0,9
 1626              	.LVL142:
1072:../src/InfoNES.c ****     }
 1627              		.loc 1 1072 0
 1628 071a 4146     		li	a2,16
 1629 071c 8145     		li	a1,0
 1630 071e 3E95     		add	a0,a5,a0
 1631 0720 97000000 		call	InfoNES_MemorySet
 1631      E7800000 
 1632              	.LVL143:
 1633 0728 5DB7     		j	.L78
 1634              	.LVL144:
 1635              	.L151:
 1636              	.LBE13:
 1637              	.LBB14:
 951:../src/InfoNES.c ****     }  
 1638              		.loc 1 951 0
 1639 072a F247     		lw	a5,28(sp)
 950:../src/InfoNES.c ****       InfoNES_MemorySet( pPointTop, 0, NES_DISP_WIDTH << 1 );
 1640              		.loc 1 950 0
 1641 072c 2607     		slli	a4,a4,9
 1642              	.LVL145:
 951:../src/InfoNES.c ****     }  
 1643              		.loc 1 951 0
 1644 072e 13060020 		li	a2,512
 1645 0732 8145     		li	a1,0
 1646 0734 3385E700 		add	a0,a5,a4
 1647 0738 97000000 		call	InfoNES_MemorySet
 1647      E7800000 
 1648              	.LVL146:
 1649 0740 C9B9     		j	.L38
 1650              	.LBE14:
 1651              		.cfi_endproc
 1652              	.LFE9:
 1654              		.section	.text.InfoNES_GetSprHitY,"ax",@progbits
 1655              		.align	1
 1656              		.globl	InfoNES_GetSprHitY
 1658              	InfoNES_GetSprHitY:
 1659              	.LFB10:
1079:../src/InfoNES.c **** 
1080:../src/InfoNES.c **** /*===================================================================*/
1081:../src/InfoNES.c **** /*                                                                   */
1082:../src/InfoNES.c **** /* InfoNES_GetSprHitY() : Get a position of scanline hits sprite #0  */
1083:../src/InfoNES.c **** /*                                                                   */
1084:../src/InfoNES.c **** /*===================================================================*/
1085:../src/InfoNES.c **** void InfoNES_GetSprHitY()
1086:../src/InfoNES.c **** {
 1660              		.loc 1 1086 0
 1661              		.cfi_startproc
1087:../src/InfoNES.c **** /*
1088:../src/InfoNES.c ****  * Get a position of scanline hits sprite #0
1089:../src/InfoNES.c ****  *
1090:../src/InfoNES.c ****  */
1091:../src/InfoNES.c **** 
1092:../src/InfoNES.c ****   int nYBit;
1093:../src/InfoNES.c ****   DWORD *pdwChrData;
1094:../src/InfoNES.c ****   int nOff;
1095:../src/InfoNES.c **** 
1096:../src/InfoNES.c ****   if ( SPRRAM[ SPR_ATTR ] & SPR_ATTR_V_FLIP )
 1662              		.loc 1 1096 0
 1663 0000 37070000 		lui	a4,%hi(.LANCHOR1)
 1664 0004 13070700 		addi	a4,a4,%lo(.LANCHOR1)
 1665 0008 83072700 		lb	a5,2(a4)
 1666 000c 8146     		li	a3,0
1097:../src/InfoNES.c ****   {
1098:../src/InfoNES.c ****     // Vertical flip
1099:../src/InfoNES.c ****     nYBit = ( PPU_SP_Height - 1 ) << 3;
1100:../src/InfoNES.c ****     nOff = -2;
1101:../src/InfoNES.c ****   }
1102:../src/InfoNES.c ****   else
1103:../src/InfoNES.c ****   {
1104:../src/InfoNES.c ****     // Non flip
1105:../src/InfoNES.c ****     nYBit = 0;
1106:../src/InfoNES.c ****     nOff = 2;
 1667              		.loc 1 1106 0
 1668 000e 8945     		li	a1,2
1096:../src/InfoNES.c ****   {
 1669              		.loc 1 1096 0
 1670 0010 63D90700 		bgez	a5,.L160
 1671              	.LVL147:
1099:../src/InfoNES.c ****     nOff = -2;
 1672              		.loc 1 1099 0
 1673 0014 B7070000 		lui	a5,%hi(.LANCHOR31)
 1674 0018 83D60700 		lhu	a3,%lo(.LANCHOR31)(a5)
1100:../src/InfoNES.c ****   }
 1675              		.loc 1 1100 0
 1676 001c F955     		li	a1,-2
1099:../src/InfoNES.c ****     nOff = -2;
 1677              		.loc 1 1099 0
 1678 001e FD16     		addi	a3,a3,-1
 1679 0020 8E06     		slli	a3,a3,3
 1680              	.LVL148:
 1681              	.L160:
1107:../src/InfoNES.c ****   }
1108:../src/InfoNES.c **** 
1109:../src/InfoNES.c ****   if ( PPU_R0 & R0_SP_SIZE )
 1682              		.loc 1 1109 0
 1683 0022 B7070000 		lui	a5,%hi(.LANCHOR6)
 1684 0026 83C70700 		lbu	a5,%lo(.LANCHOR6)(a5)
 1685 002a 03451700 		lbu	a0,1(a4)
 1686 002e 93F70702 		andi	a5,a5,32
 1687 0032 13166500 		slli	a2,a0,6
 1688 0036 9DCF     		beqz	a5,.L161
 1689 0038 1168     		li	a6,16384
 1690 003a 930708F8 		addi	a5,a6,-128
1110:../src/InfoNES.c ****   {
1111:../src/InfoNES.c ****     // Sprite size 8x16
1112:../src/InfoNES.c ****     if ( SPRRAM[ SPR_CHR ] & 1 )
 1691              		.loc 1 1112 0
 1692 003e 0589     		andi	a0,a0,1
 1693 0040 F18F     		and	a5,a2,a5
 1694 0042 45C1     		beqz	a0,.L162
1113:../src/InfoNES.c ****     {
1114:../src/InfoNES.c ****       pdwChrData = (DWORD *)( ChrBuf + 256 * 64 + ( ( SPRRAM[ SPR_CHR ] & 0xfe ) << 6 ) + nYBit );
 1695              		.loc 1 1114 0
 1696 0044 C297     		add	a5,a5,a6
1115:../src/InfoNES.c ****     }
1116:../src/InfoNES.c ****     else
1117:../src/InfoNES.c ****     {
1118:../src/InfoNES.c ****       pdwChrData = (DWORD * )( ChrBuf + ( ( SPRRAM[ SPR_CHR ] & 0xfe ) << 6 ) + nYBit );
1119:../src/InfoNES.c ****     } 
1120:../src/InfoNES.c ****   }
1121:../src/InfoNES.c ****   else
1122:../src/InfoNES.c ****   {
1123:../src/InfoNES.c ****     // Sprite size 8x8
1124:../src/InfoNES.c ****     pdwChrData = (DWORD *)( PPU_SP_Base + ( SPRRAM[ SPR_CHR ] << 6 ) + nYBit );
1125:../src/InfoNES.c ****   }
1126:../src/InfoNES.c **** 
1127:../src/InfoNES.c ****   if ( ( SPRRAM[ SPR_Y ] + 1 <= SCAN_UNKNOWN_START ) && ( SPRRAM[SPR_Y] > 0 ) )
 1697              		.loc 1 1127 0
 1698 0046 03470700 		lbu	a4,0(a4)
1114:../src/InfoNES.c ****     }
 1699              		.loc 1 1114 0
 1700 004a BE96     		add	a3,a5,a3
 1701 004c B7070000 		lui	a5,%hi(ChrBuf)
 1702 0050 93870700 		addi	a5,a5,%lo(ChrBuf)
 1703 0054 B697     		add	a5,a3,a5
 1704              	.LVL149:
 1705              		.loc 1 1127 0
 1706 0056 9306F7FF 		addi	a3,a4,-1
 1707 005a 1306E00E 		li	a2,238
 1708 005e 93F6F60F 		andi	a3,a3,0xff
 1709 0062 6379D602 		bleu	a3,a2,.L177
 1710              	.L164:
1128:../src/InfoNES.c **** 	{
1129:../src/InfoNES.c **** 		for ( int nLine = 0; nLine < PPU_SP_Height; nLine++ )
1130:../src/InfoNES.c **** 		{
1131:../src/InfoNES.c **** 			if ( pdwChrData[ 0 ] | pdwChrData[ 1 ] )
1132:../src/InfoNES.c **** 			{
1133:../src/InfoNES.c ****         // Scanline hits sprite #0
1134:../src/InfoNES.c **** 				SpriteJustHit = SPRRAM[SPR_Y] + 1 + nLine;
1135:../src/InfoNES.c **** 				nLine = SCAN_VBLANK_END;
1136:../src/InfoNES.c **** 			}
1137:../src/InfoNES.c **** 			pdwChrData += nOff;
1138:../src/InfoNES.c **** 		}
1139:../src/InfoNES.c ****   } else {
1140:../src/InfoNES.c ****     // Scanline didn't hit sprite #0
1141:../src/InfoNES.c **** 		SpriteJustHit = SCAN_UNKNOWN_START + 1;
 1711              		.loc 1 1141 0
 1712 0066 B7070000 		lui	a5,%hi(.LANCHOR26)
 1713              	.LVL150:
 1714 006a 1307100F 		li	a4,241
 1715 006e 23A0E700 		sw	a4,%lo(.LANCHOR26)(a5)
 1716              	.LVL151:
 1717              	.L159:
1142:../src/InfoNES.c ****   }
1143:../src/InfoNES.c **** }
 1718              		.loc 1 1143 0
 1719 0072 8280     		ret
 1720              	.LVL152:
 1721              	.L161:
1124:../src/InfoNES.c ****   }
 1722              		.loc 1 1124 0
 1723 0074 B7070000 		lui	a5,%hi(.LANCHOR30)
 1724 0078 83A70700 		lw	a5,%lo(.LANCHOR30)(a5)
 1725 007c B296     		add	a3,a3,a2
 1726 007e B697     		add	a5,a5,a3
 1727              	.LVL153:
 1728              	.L163:
1127:../src/InfoNES.c **** 	{
 1729              		.loc 1 1127 0
 1730 0080 03470700 		lbu	a4,0(a4)
 1731 0084 1306E00E 		li	a2,238
 1732 0088 9306F7FF 		addi	a3,a4,-1
 1733 008c 93F6F60F 		andi	a3,a3,0xff
 1734 0090 E36BD6FC 		bgtu	a3,a2,.L164
 1735              	.L177:
 1736              	.LVL154:
 1737              	.LBB15:
1129:../src/InfoNES.c **** 		{
 1738              		.loc 1 1129 0
 1739 0094 B7060000 		lui	a3,%hi(.LANCHOR31)
 1740 0098 03D80600 		lhu	a6,%lo(.LANCHOR31)(a3)
 1741 009c E30B08FC 		beqz	a6,.L159
 1742 00a0 370E0000 		lui	t3,%hi(.LANCHOR26)
 1743 00a4 130E0E00 		addi	t3,t3,%lo(.LANCHOR26)
 1744 00a8 03230E00 		lw	t1,0(t3)
1137:../src/InfoNES.c **** 		}
 1745              		.loc 1 1137 0
 1746 00ac 8A05     		slli	a1,a1,2
 1747              	.LVL155:
 1748 00ae 8148     		li	a7,0
1129:../src/InfoNES.c **** 		{
 1749              		.loc 1 1129 0
 1750 00b0 8146     		li	a3,0
1134:../src/InfoNES.c **** 				nLine = SCAN_VBLANK_END;
 1751              		.loc 1 1134 0
 1752 00b2 13051700 		addi	a0,a4,1
 1753 00b6 29A0     		j	.L168
 1754              	.LVL156:
 1755              	.L179:
 1756 00b8 8506     		addi	a3,a3,1
 1757              	.LVL157:
1137:../src/InfoNES.c **** 		}
 1758              		.loc 1 1137 0
 1759 00ba AE97     		add	a5,a5,a1
 1760              	.LVL158:
1129:../src/InfoNES.c **** 		{
 1761              		.loc 1 1129 0
 1762 00bc 63DE0601 		ble	a6,a3,.L178
 1763              	.L168:
 1764              	.LVL159:
1131:../src/InfoNES.c **** 			{
 1765              		.loc 1 1131 0
 1766 00c0 9843     		lw	a4,0(a5)
 1767 00c2 D043     		lw	a2,4(a5)
 1768 00c4 518F     		or	a4,a4,a2
 1769 00c6 6DDB     		beqz	a4,.L179
1134:../src/InfoNES.c **** 				nLine = SCAN_VBLANK_END;
 1770              		.loc 1 1134 0
 1771 00c8 3303D500 		add	t1,a0,a3
 1772              	.LVL160:
 1773 00cc 93067010 		li	a3,263
 1774              	.LVL161:
 1775 00d0 8548     		li	a7,1
1137:../src/InfoNES.c **** 		}
 1776              		.loc 1 1137 0
 1777 00d2 AE97     		add	a5,a5,a1
 1778              	.LVL162:
1129:../src/InfoNES.c **** 		{
 1779              		.loc 1 1129 0
 1780 00d4 E3C606FF 		bgt	a6,a3,.L168
 1781              	.L178:
 1782 00d8 E38D08F8 		beqz	a7,.L159
 1783 00dc 23206E00 		sw	t1,0(t3)
 1784 00e0 8280     		ret
 1785              	.LVL163:
 1786              	.L162:
 1787              	.LBE15:
1118:../src/InfoNES.c ****     } 
 1788              		.loc 1 1118 0
 1789 00e2 BE96     		add	a3,a3,a5
 1790 00e4 B7070000 		lui	a5,%hi(ChrBuf)
 1791 00e8 93870700 		addi	a5,a5,%lo(ChrBuf)
 1792 00ec B697     		add	a5,a3,a5
 1793              	.LVL164:
 1794 00ee 49BF     		j	.L163
 1795              		.cfi_endproc
 1796              	.LFE10:
 1798              		.section	.text.InfoNES_SetupChr,"ax",@progbits
 1799              		.align	1
 1800              		.globl	InfoNES_SetupChr
 1802              	InfoNES_SetupChr:
 1803              	.LFB11:
1144:../src/InfoNES.c **** 
1145:../src/InfoNES.c **** /*===================================================================*/
1146:../src/InfoNES.c **** /*                                                                   */
1147:../src/InfoNES.c **** /*            InfoNES_SetupChr() : Develop character data            */
1148:../src/InfoNES.c **** /*                                                                   */
1149:../src/InfoNES.c **** /*===================================================================*/
1150:../src/InfoNES.c **** void InfoNES_SetupChr()
1151:../src/InfoNES.c **** {
 1804              		.loc 1 1151 0
 1805              		.cfi_startproc
 1806              	.LVL165:
1152:../src/InfoNES.c **** /*
1153:../src/InfoNES.c ****  *  Develop character data
1154:../src/InfoNES.c ****  *
1155:../src/InfoNES.c ****  */
1156:../src/InfoNES.c **** 
1157:../src/InfoNES.c ****   BYTE *pbyBGData;
1158:../src/InfoNES.c ****   BYTE byData1;
1159:../src/InfoNES.c ****   BYTE byData2;
1160:../src/InfoNES.c ****   int nIdx;
1161:../src/InfoNES.c ****   int nY;
1162:../src/InfoNES.c ****   int nOff;
1163:../src/InfoNES.c ****   static BYTE *pbyPrevBank[ 8 ];
1164:../src/InfoNES.c ****   int nBank;
1165:../src/InfoNES.c **** 
1166:../src/InfoNES.c ****   for ( nBank = 0; nBank < 8; ++nBank )
1167:../src/InfoNES.c ****   {
1168:../src/InfoNES.c ****     if ( pbyPrevBank[ nBank ] == PPUBANK[ nBank ] && !( ( ChrBufUpdate >> nBank ) & 1 ) )
 1807              		.loc 1 1168 0
 1808 0000 B7030000 		lui	t2,%hi(.LANCHOR43)
1151:../src/InfoNES.c **** /*
 1809              		.loc 1 1151 0
 1810 0004 0111     		addi	sp,sp,-32
 1811              		.cfi_def_cfa_offset 32
 1812              		.loc 1 1168 0
 1813 0006 93830300 		addi	t2,t2,%lo(.LANCHOR43)
1151:../src/InfoNES.c **** /*
 1814              		.loc 1 1151 0
 1815 000a 4ACA     		sw	s2,20(sp)
 1816              		.cfi_offset 18, -12
 1817              		.loc 1 1168 0
 1818 000c 03C90300 		lbu	s2,0(t2)
 1819 0010 370E0000 		lui	t3,%hi(.LANCHOR52)
 1820 0014 370F0000 		lui	t5,%hi(.LANCHOR32)
 1821 0018 B70E0000 		lui	t4,%hi(ChrBuf)
1151:../src/InfoNES.c **** /*
 1822              		.loc 1 1151 0
 1823 001c 22CE     		sw	s0,28(sp)
 1824 001e 26CC     		sw	s1,24(sp)
 1825 0020 4EC8     		sw	s3,16(sp)
 1826 0022 52C6     		sw	s4,12(sp)
 1827 0024 56C4     		sw	s5,8(sp)
 1828 0026 5AC2     		sw	s6,4(sp)
 1829              		.cfi_offset 8, -4
 1830              		.cfi_offset 9, -8
 1831              		.cfi_offset 19, -16
 1832              		.cfi_offset 20, -20
 1833              		.cfi_offset 21, -24
 1834              		.cfi_offset 22, -28
 1835 0028 130E0E00 		addi	t3,t3,%lo(.LANCHOR52)
 1836 002c 130F0F00 		addi	t5,t5,%lo(.LANCHOR32)
 1837 0030 938E0E00 		addi	t4,t4,%lo(ChrBuf)
1166:../src/InfoNES.c ****   {
 1838              		.loc 1 1166 0
 1839 0034 814F     		li	t6,0
 1840 0036 0564     		li	s0,4096
 1841 0038 A144     		li	s1,8
 1842              	.LVL166:
 1843              	.L185:
 1844              		.loc 1 1168 0
 1845 003a 83220F00 		lw	t0,0(t5)
 1846 003e 83270E00 		lw	a5,0(t3)
 1847 0042 6389570A 		beq	a5,t0,.L193
 1848              	.L181:
 1849 0046 9688     		mv	a7,t0
 1850 0048 33838E00 		add	t1,t4,s0
1166:../src/InfoNES.c ****   {
 1851              		.loc 1 1166 0
 1852 004c F687     		mv	a5,t4
 1853              	.L184:
 1854              	.LVL167:
 1855 004e 13880704 		addi	a6,a5,64
 1856 0052 4685     		mv	a0,a7
 1857              	.LVL168:
 1858              	.L183:
1169:../src/InfoNES.c ****       continue;  // Next bank
1170:../src/InfoNES.c **** 
1171:../src/InfoNES.c ****     /*-------------------------------------------------------------------*/
1172:../src/InfoNES.c ****     /*  An address is different from the last time                       */
1173:../src/InfoNES.c ****     /*    or                                                             */
1174:../src/InfoNES.c ****     /*  An update flag is being set                                      */
1175:../src/InfoNES.c ****     /*-------------------------------------------------------------------*/
1176:../src/InfoNES.c **** 
1177:../src/InfoNES.c ****     for ( nIdx = 0; nIdx < 64; ++nIdx )
1178:../src/InfoNES.c ****     {
1179:../src/InfoNES.c ****       nOff = ( nBank << 12 ) + ( nIdx << 6 );
1180:../src/InfoNES.c **** 
1181:../src/InfoNES.c ****       for ( nY = 0; nY < 8; ++nY )
1182:../src/InfoNES.c ****       {
1183:../src/InfoNES.c ****         pbyBGData = PPUBANK[ nBank ] + ( nIdx << 4 ) + nY;
1184:../src/InfoNES.c **** 
1185:../src/InfoNES.c ****         byData1 = ( ( pbyBGData[ 0 ] >> 1 ) & 0x55 ) | ( pbyBGData[ 8 ] & 0xAA );
 1859              		.loc 1 1185 0 discriminator 3
 1860 0054 03460500 		lbu	a2,0(a0)
 1861 0058 83458500 		lbu	a1,8(a0)
 1862 005c A107     		addi	a5,a5,8
 1863              	.LVL169:
 1864 005e 93561600 		srli	a3,a2,1
1186:../src/InfoNES.c ****         byData2 = ( pbyBGData[ 0 ] & 0x55 ) | ( ( pbyBGData[ 8 ] << 1 ) & 0xAA );
 1865              		.loc 1 1186 0 discriminator 3
 1866 0062 13971500 		slli	a4,a1,1
 1867 0066 13765605 		andi	a2,a2,85
1185:../src/InfoNES.c ****         byData2 = ( pbyBGData[ 0 ] & 0x55 ) | ( ( pbyBGData[ 8 ] << 1 ) & 0xAA );
 1868              		.loc 1 1185 0 discriminator 3
 1869 006a 93F5A5FA 		andi	a1,a1,-86
 1870 006e 93F65605 		andi	a3,a3,85
 1871              		.loc 1 1186 0 discriminator 3
 1872 0072 1377A70A 		andi	a4,a4,170
1185:../src/InfoNES.c ****         byData2 = ( pbyBGData[ 0 ] & 0x55 ) | ( ( pbyBGData[ 8 ] << 1 ) & 0xAA );
 1873              		.loc 1 1185 0 discriminator 3
 1874 0076 CD8E     		or	a3,a3,a1
 1875              	.LVL170:
 1876              		.loc 1 1186 0 discriminator 3
 1877 0078 518F     		or	a4,a4,a2
 1878              	.LVL171:
1187:../src/InfoNES.c **** 
1188:../src/InfoNES.c ****         ChrBuf[ nOff ]     = ( byData1 >> 6 ) & 3;
1189:../src/InfoNES.c ****         ChrBuf[ nOff + 1 ] = ( byData2 >> 6 ) & 3;
1190:../src/InfoNES.c ****         ChrBuf[ nOff + 2 ] = ( byData1 >> 4 ) & 3;
 1879              		.loc 1 1190 0 discriminator 3
 1880 007a 13DA4600 		srli	s4,a3,4
1191:../src/InfoNES.c ****         ChrBuf[ nOff + 3 ] = ( byData2 >> 4 ) & 3;
 1881              		.loc 1 1191 0 discriminator 3
 1882 007e 93594700 		srli	s3,a4,4
1192:../src/InfoNES.c ****         ChrBuf[ nOff + 4 ] = ( byData1 >> 2 ) & 3;
 1883              		.loc 1 1192 0 discriminator 3
 1884 0082 93D52600 		srli	a1,a3,2
1193:../src/InfoNES.c ****         ChrBuf[ nOff + 5 ] = ( byData2 >> 2 ) & 3;
 1885              		.loc 1 1193 0 discriminator 3
 1886 0086 13562700 		srli	a2,a4,2
1188:../src/InfoNES.c ****         ChrBuf[ nOff + 1 ] = ( byData2 >> 6 ) & 3;
 1887              		.loc 1 1188 0 discriminator 3
 1888 008a 13DB6600 		srli	s6,a3,6
1189:../src/InfoNES.c ****         ChrBuf[ nOff + 2 ] = ( byData1 >> 4 ) & 3;
 1889              		.loc 1 1189 0 discriminator 3
 1890 008e 935A6700 		srli	s5,a4,6
1190:../src/InfoNES.c ****         ChrBuf[ nOff + 3 ] = ( byData2 >> 4 ) & 3;
 1891              		.loc 1 1190 0 discriminator 3
 1892 0092 137A3A00 		andi	s4,s4,3
1191:../src/InfoNES.c ****         ChrBuf[ nOff + 4 ] = ( byData1 >> 2 ) & 3;
 1893              		.loc 1 1191 0 discriminator 3
 1894 0096 93F93900 		andi	s3,s3,3
1192:../src/InfoNES.c ****         ChrBuf[ nOff + 5 ] = ( byData2 >> 2 ) & 3;
 1895              		.loc 1 1192 0 discriminator 3
 1896 009a 8D89     		andi	a1,a1,3
 1897              		.loc 1 1193 0 discriminator 3
 1898 009c 0D8A     		andi	a2,a2,3
1194:../src/InfoNES.c ****         ChrBuf[ nOff + 6 ] = byData1 & 3;
 1899              		.loc 1 1194 0 discriminator 3
 1900 009e 8D8A     		andi	a3,a3,3
 1901              	.LVL172:
1195:../src/InfoNES.c ****         ChrBuf[ nOff + 7 ] = byData2 & 3;
 1902              		.loc 1 1195 0 discriminator 3
 1903 00a0 0D8B     		andi	a4,a4,3
 1904              	.LVL173:
1188:../src/InfoNES.c ****         ChrBuf[ nOff + 1 ] = ( byData2 >> 6 ) & 3;
 1905              		.loc 1 1188 0 discriminator 3
 1906 00a2 238C67FF 		sb	s6,-8(a5)
 1907              	.LVL174:
1189:../src/InfoNES.c ****         ChrBuf[ nOff + 2 ] = ( byData1 >> 4 ) & 3;
 1908              		.loc 1 1189 0 discriminator 3
 1909 00a6 A38C57FF 		sb	s5,-7(a5)
1190:../src/InfoNES.c ****         ChrBuf[ nOff + 3 ] = ( byData2 >> 4 ) & 3;
 1910              		.loc 1 1190 0 discriminator 3
 1911 00aa 238D47FF 		sb	s4,-6(a5)
1191:../src/InfoNES.c ****         ChrBuf[ nOff + 4 ] = ( byData1 >> 2 ) & 3;
 1912              		.loc 1 1191 0 discriminator 3
 1913 00ae A38D37FF 		sb	s3,-5(a5)
1192:../src/InfoNES.c ****         ChrBuf[ nOff + 5 ] = ( byData2 >> 2 ) & 3;
 1914              		.loc 1 1192 0 discriminator 3
 1915 00b2 238EB7FE 		sb	a1,-4(a5)
1193:../src/InfoNES.c ****         ChrBuf[ nOff + 6 ] = byData1 & 3;
 1916              		.loc 1 1193 0 discriminator 3
 1917 00b6 A38EC7FE 		sb	a2,-3(a5)
1194:../src/InfoNES.c ****         ChrBuf[ nOff + 7 ] = byData2 & 3;
 1918              		.loc 1 1194 0 discriminator 3
 1919 00ba 238FD7FE 		sb	a3,-2(a5)
 1920              		.loc 1 1195 0 discriminator 3
 1921 00be A38FE7FE 		sb	a4,-1(a5)
 1922              	.LVL175:
 1923 00c2 0505     		addi	a0,a0,1
 1924              	.LVL176:
1181:../src/InfoNES.c ****       {
 1925              		.loc 1 1181 0 discriminator 3
 1926 00c4 E318F8F8 		bne	a6,a5,.L183
 1927              	.LVL177:
 1928 00c8 C108     		addi	a7,a7,16
 1929              	.LVL178:
1177:../src/InfoNES.c ****     {
 1930              		.loc 1 1177 0 discriminator 2
 1931 00ca E31203F9 		bne	t1,a6,.L184
1196:../src/InfoNES.c **** 
1197:../src/InfoNES.c ****         nOff += 8;
1198:../src/InfoNES.c ****       }
1199:../src/InfoNES.c ****     }
1200:../src/InfoNES.c ****     // Keep this address
1201:../src/InfoNES.c ****     pbyPrevBank[ nBank ] = PPUBANK[ nBank ];
 1932              		.loc 1 1201 0
 1933 00ce 23205E00 		sw	t0,0(t3)
 1934              	.LVL179:
 1935              	.L182:
1166:../src/InfoNES.c ****   {
 1936              		.loc 1 1166 0 discriminator 2
 1937 00d2 850F     		addi	t6,t6,1
 1938              	.LVL180:
 1939 00d4 110E     		addi	t3,t3,4
 1940 00d6 110F     		addi	t5,t5,4
 1941 00d8 A29E     		add	t4,t4,s0
 1942 00da E3909FF6 		bne	t6,s1,.L185
1202:../src/InfoNES.c ****   }
1203:../src/InfoNES.c **** 
1204:../src/InfoNES.c ****   // Reset update flag
1205:../src/InfoNES.c ****   ChrBufUpdate = 0;
1206:../src/InfoNES.c **** }
 1943              		.loc 1 1206 0
 1944 00de 7244     		lw	s0,28(sp)
 1945              		.cfi_remember_state
 1946              		.cfi_restore 8
1205:../src/InfoNES.c **** }
 1947              		.loc 1 1205 0
 1948 00e0 23800300 		sb	zero,0(t2)
 1949              		.loc 1 1206 0
 1950 00e4 E244     		lw	s1,24(sp)
 1951              		.cfi_restore 9
 1952 00e6 5249     		lw	s2,20(sp)
 1953              		.cfi_restore 18
 1954 00e8 C249     		lw	s3,16(sp)
 1955              		.cfi_restore 19
 1956 00ea 324A     		lw	s4,12(sp)
 1957              		.cfi_restore 20
 1958 00ec A24A     		lw	s5,8(sp)
 1959              		.cfi_restore 21
 1960 00ee 124B     		lw	s6,4(sp)
 1961              		.cfi_restore 22
 1962 00f0 0561     		addi	sp,sp,32
 1963              		.cfi_def_cfa_offset 0
 1964 00f2 8280     		jr	ra
 1965              	.L193:
 1966              		.cfi_restore_state
1168:../src/InfoNES.c ****       continue;  // Next bank
 1967              		.loc 1 1168 0 discriminator 1
 1968 00f4 B357F941 		sra	a5,s2,t6
 1969 00f8 858B     		andi	a5,a5,1
 1970 00fa B1F7     		bnez	a5,.L181
 1971 00fc D9BF     		j	.L182
 1972              		.cfi_endproc
 1973              	.LFE11:
 1975              		.section	.text.InfoNES_HSync,"ax",@progbits
 1976              		.align	1
 1977              		.globl	InfoNES_HSync
 1979              	InfoNES_HSync:
 1980              	.LFB8:
 668:../src/InfoNES.c **** /*
 1981              		.loc 1 668 0
 1982              		.cfi_startproc
 1983 0000 0111     		addi	sp,sp,-32
 1984              		.cfi_def_cfa_offset 32
 1985 0002 26CA     		sw	s1,20(sp)
 1986              		.cfi_offset 9, -12
 680:../src/InfoNES.c ****        PPU_ScanTable[ PPU_Scanline ] == SCAN_ON_SCREEN )
 1987              		.loc 1 680 0
 1988 0004 B7040000 		lui	s1,%hi(.LANCHOR42)
 1989 0008 93840400 		addi	s1,s1,%lo(.LANCHOR42)
 1990 000c 03D70400 		lhu	a4,0(s1)
 668:../src/InfoNES.c **** /*
 1991              		.loc 1 668 0
 1992 0010 22CC     		sw	s0,24(sp)
 1993              		.cfi_offset 8, -8
 1994 0012 37040000 		lui	s0,%hi(.LANCHOR25)
 1995 0016 13040400 		addi	s0,s0,%lo(.LANCHOR25)
 1996 001a 06CE     		sw	ra,28(sp)
 1997              		.cfi_offset 1, -4
 1998 001c 83570400 		lhu	a5,0(s0)
 680:../src/InfoNES.c ****        PPU_ScanTable[ PPU_Scanline ] == SCAN_ON_SCREEN )
 1999              		.loc 1 680 0
 2000 0020 19EB     		bnez	a4,.L195
 681:../src/InfoNES.c ****   {
 2001              		.loc 1 681 0 discriminator 1
 2002 0022 37070000 		lui	a4,%hi(.LANCHOR0)
 2003 0026 13070700 		addi	a4,a4,%lo(.LANCHOR0)
 2004 002a 3E97     		add	a4,a4,a5
 680:../src/InfoNES.c ****        PPU_ScanTable[ PPU_Scanline ] == SCAN_ON_SCREEN )
 2005              		.loc 1 680 0 discriminator 1
 2006 002c 83460700 		lbu	a3,0(a4)
 2007 0030 0547     		li	a4,1
 2008 0032 638BE614 		beq	a3,a4,.L212
 2009              	.L195:
 689:../src/InfoNES.c ****   PPU_Scr_V_Byte = PPU_Scr_V_Byte_Next;
 2010              		.loc 1 689 0
 2011 0036 37070000 		lui	a4,%hi(.LANCHOR15)
 2012 003a 83480700 		lbu	a7,%lo(.LANCHOR15)(a4)
 690:../src/InfoNES.c ****   PPU_Scr_V_Bit  = PPU_Scr_V_Bit_Next;
 2013              		.loc 1 690 0
 2014 003e 37070000 		lui	a4,%hi(.LANCHOR13)
 2015 0042 03480700 		lbu	a6,%lo(.LANCHOR13)(a4)
 691:../src/InfoNES.c **** 
 2016              		.loc 1 691 0
 2017 0046 37070000 		lui	a4,%hi(.LANCHOR11)
 2018 004a 03450700 		lbu	a0,%lo(.LANCHOR11)(a4)
 693:../src/InfoNES.c ****   PPU_Scr_H_Byte = PPU_Scr_H_Byte_Next;
 2019              		.loc 1 693 0
 2020 004e 37070000 		lui	a4,%hi(.LANCHOR21)
 2021 0052 83450700 		lbu	a1,%lo(.LANCHOR21)(a4)
 694:../src/InfoNES.c ****   PPU_Scr_H_Bit  = PPU_Scr_H_Bit_Next;
 2022              		.loc 1 694 0
 2023 0056 37070000 		lui	a4,%hi(.LANCHOR19)
 2024 005a 03460700 		lbu	a2,%lo(.LANCHOR19)(a4)
 695:../src/InfoNES.c **** 
 2025              		.loc 1 695 0
 2026 005e 37070000 		lui	a4,%hi(.LANCHOR17)
 2027 0062 83460700 		lbu	a3,%lo(.LANCHOR17)(a4)
 689:../src/InfoNES.c ****   PPU_Scr_V_Byte = PPU_Scr_V_Byte_Next;
 2028              		.loc 1 689 0
 2029 0066 37070000 		lui	a4,%hi(.LANCHOR16)
 2030 006a 23001701 		sb	a7,%lo(.LANCHOR16)(a4)
 690:../src/InfoNES.c ****   PPU_Scr_V_Bit  = PPU_Scr_V_Bit_Next;
 2031              		.loc 1 690 0
 2032 006e 37070000 		lui	a4,%hi(.LANCHOR14)
 2033 0072 23000701 		sb	a6,%lo(.LANCHOR14)(a4)
 691:../src/InfoNES.c **** 
 2034              		.loc 1 691 0
 2035 0076 37070000 		lui	a4,%hi(.LANCHOR12)
 2036 007a 2300A700 		sb	a0,%lo(.LANCHOR12)(a4)
 693:../src/InfoNES.c ****   PPU_Scr_H_Byte = PPU_Scr_H_Byte_Next;
 2037              		.loc 1 693 0
 2038 007e 37070000 		lui	a4,%hi(.LANCHOR22)
 2039 0082 2300B700 		sb	a1,%lo(.LANCHOR22)(a4)
 694:../src/InfoNES.c ****   PPU_Scr_H_Bit  = PPU_Scr_H_Bit_Next;
 2040              		.loc 1 694 0
 2041 0086 37070000 		lui	a4,%hi(.LANCHOR20)
 2042 008a 2300C700 		sb	a2,%lo(.LANCHOR20)(a4)
 695:../src/InfoNES.c **** 
 2043              		.loc 1 695 0
 2044 008e 37070000 		lui	a4,%hi(.LANCHOR18)
 2045 0092 2300D700 		sb	a3,%lo(.LANCHOR18)(a4)
 700:../src/InfoNES.c **** 
 2046              		.loc 1 700 0
 2047 0096 13076010 		li	a4,262
 2048 009a 6381E704 		beq	a5,a4,.L213
 700:../src/InfoNES.c **** 
 2049              		.loc 1 700 0 is_stmt 0 discriminator 1
 2050 009e 8507     		addi	a5,a5,1
 2051 00a0 C207     		slli	a5,a5,16
 2052 00a2 C183     		srli	a5,a5,16
 2053 00a4 2310F400 		sh	a5,0(s0)
 705:../src/InfoNES.c ****   {
 2054              		.loc 1 705 0 is_stmt 1 discriminator 1
 2055 00a8 1307000F 		li	a4,240
 2056 00ac 638DE700 		beq	a5,a4,.L199
 2057 00b0 1307300F 		li	a4,243
 2058 00b4 638CE704 		beq	a5,a4,.L200
 767:../src/InfoNES.c **** }
 2059              		.loc 1 767 0 discriminator 1
 2060 00b8 0145     		li	a0,0
 705:../src/InfoNES.c ****   {
 2061              		.loc 1 705 0 discriminator 1
 2062 00ba 9DC3     		beqz	a5,.L197
 2063              	.L194:
 768:../src/InfoNES.c **** 
 2064              		.loc 1 768 0
 2065 00bc F240     		lw	ra,28(sp)
 2066              		.cfi_remember_state
 2067              		.cfi_restore 1
 2068 00be 6244     		lw	s0,24(sp)
 2069              		.cfi_restore 8
 2070 00c0 D244     		lw	s1,20(sp)
 2071              		.cfi_restore 9
 2072 00c2 0561     		addi	sp,sp,32
 2073              		.cfi_def_cfa_offset 0
 2074 00c4 8280     		jr	ra
 2075              	.L199:
 2076              		.cfi_restore_state
 720:../src/InfoNES.c ****       {
 2077              		.loc 1 720 0
 2078 00c6 83D70400 		lhu	a5,0(s1)
 767:../src/InfoNES.c **** }
 2079              		.loc 1 767 0
 2080 00ca 0145     		li	a0,0
 720:../src/InfoNES.c ****       {
 2081              		.loc 1 720 0
 2082 00cc E5FB     		bnez	a5,.L194
 2083 00ce 2AC6     		sw	a0,12(sp)
 723:../src/InfoNES.c ****         
 2084              		.loc 1 723 0
 2085 00d0 97000000 		call	InfoNES_LoadFrame
 2085      E7800000 
 2086              	.LVL181:
 2087 00d8 3245     		lw	a0,12(sp)
 2088 00da CDB7     		j	.L194
 2089              	.L213:
 700:../src/InfoNES.c **** 
 2090              		.loc 1 700 0
 2091 00dc 23100400 		sh	zero,0(s0)
 2092              	.L197:
 712:../src/InfoNES.c ****         InfoNES_SetupChr();
 2093              		.loc 1 712 0
 2094 00e0 B7070000 		lui	a5,%hi(.LANCHOR36+5)
 2095 00e4 83C75700 		lbu	a5,%lo(.LANCHOR36+5)(a5)
 709:../src/InfoNES.c **** 
 2096              		.loc 1 709 0
 2097 00e8 37070000 		lui	a4,%hi(.LANCHOR4)
 2098 00ec 23000700 		sb	zero,%lo(.LANCHOR4)(a4)
 712:../src/InfoNES.c ****         InfoNES_SetupChr();
 2099              		.loc 1 712 0
 2100 00f0 81E7     		bnez	a5,.L201
 712:../src/InfoNES.c ****         InfoNES_SetupChr();
 2101              		.loc 1 712 0 is_stmt 0 discriminator 1
 2102 00f2 83D70400 		lhu	a5,0(s1)
 2103 00f6 CDC7     		beqz	a5,.L214
 2104              	.L201:
 716:../src/InfoNES.c ****       break;
 2105              		.loc 1 716 0 is_stmt 1
 2106 00f8 97000000 		call	InfoNES_GetSprHitY
 2106      E7800000 
 2107              	.LVL182:
 768:../src/InfoNES.c **** 
 2108              		.loc 1 768 0
 2109 0100 F240     		lw	ra,28(sp)
 2110              		.cfi_remember_state
 2111              		.cfi_restore 1
 2112 0102 6244     		lw	s0,24(sp)
 2113              		.cfi_restore 8
 2114 0104 D244     		lw	s1,20(sp)
 2115              		.cfi_restore 9
 767:../src/InfoNES.c **** }
 2116              		.loc 1 767 0
 2117 0106 0145     		li	a0,0
 768:../src/InfoNES.c **** 
 2118              		.loc 1 768 0
 2119 0108 0561     		addi	sp,sp,32
 2120              		.cfi_def_cfa_offset 0
 2121 010a 8280     		jr	ra
 2122              	.L200:
 2123              		.cfi_restore_state
 735:../src/InfoNES.c **** 
 2124              		.loc 1 735 0
 2125 010c 37070000 		lui	a4,%hi(.LANCHOR41)
 2126 0110 83560700 		lhu	a3,%lo(.LANCHOR41)(a4)
 2127 0114 83D70400 		lhu	a5,0(s1)
 2128 0118 0147     		li	a4,0
 2129 011a 63F6D700 		bleu	a3,a5,.L202
 735:../src/InfoNES.c **** 
 2130              		.loc 1 735 0 is_stmt 0 discriminator 1
 2131 011e 8507     		addi	a5,a5,1
 2132 0120 13970701 		slli	a4,a5,16
 2133 0124 4183     		srli	a4,a4,16
 2134              	.L202:
 750:../src/InfoNES.c **** 
 2135              		.loc 1 750 0 is_stmt 1 discriminator 4
 2136 0126 B7070000 		lui	a5,%hi(.LANCHOR53)
 2137 012a 83A70700 		lw	a5,%lo(.LANCHOR53)(a5)
 738:../src/InfoNES.c **** 
 2138              		.loc 1 738 0 discriminator 4
 2139 012e 930600F8 		li	a3,-128
 735:../src/InfoNES.c **** 
 2140              		.loc 1 735 0 discriminator 4
 2141 0132 2390E400 		sh	a4,0(s1)
 738:../src/InfoNES.c **** 
 2142              		.loc 1 738 0 discriminator 4
 2143 0136 37070000 		lui	a4,%hi(.LANCHOR4)
 2144 013a 2300D700 		sb	a3,%lo(.LANCHOR4)(a4)
 741:../src/InfoNES.c **** 
 2145              		.loc 1 741 0 discriminator 4
 2146 013e 37070000 		lui	a4,%hi(.LANCHOR7)
 2147 0142 23000700 		sb	zero,%lo(.LANCHOR7)(a4)
 750:../src/InfoNES.c **** 
 2148              		.loc 1 750 0 discriminator 4
 2149 0146 8297     		jalr	a5
 2150              	.LVL183:
 753:../src/InfoNES.c ****       
 2151              		.loc 1 753 0 discriminator 4
 2152 0148 37040000 		lui	s0,%hi(.LANCHOR45)
 2153 014c B7050000 		lui	a1,%hi(.LANCHOR46)
 2154 0150 37050000 		lui	a0,%hi(.LANCHOR47)
 2155 0154 13060400 		addi	a2,s0,%lo(.LANCHOR45)
 2156 0158 93850500 		addi	a1,a1,%lo(.LANCHOR46)
 2157 015c 13050500 		addi	a0,a0,%lo(.LANCHOR47)
 2158 0160 97000000 		call	InfoNES_PadState
 2158      E7800000 
 2159              	.LVL184:
 756:../src/InfoNES.c ****         NMI_REQ;
 2160              		.loc 1 756 0 discriminator 4
 2161 0168 B7070000 		lui	a5,%hi(.LANCHOR6)
 2162 016c 83870700 		lb	a5,%lo(.LANCHOR6)(a5)
 2163 0170 63C30702 		bltz	a5,.L215
 2164              	.L203:
 760:../src/InfoNES.c ****         return -1;  // Exit an emulation      
 2165              		.loc 1 760 0
 2166 0174 03250400 		lw	a0,%lo(.LANCHOR45)(s0)
 768:../src/InfoNES.c **** 
 2167              		.loc 1 768 0
 2168 0178 F240     		lw	ra,28(sp)
 2169              		.cfi_remember_state
 2170              		.cfi_restore 1
 2171 017a 6244     		lw	s0,24(sp)
 2172              		.cfi_restore 8
 760:../src/InfoNES.c ****         return -1;  // Exit an emulation      
 2173              		.loc 1 760 0
 2174 017c 0589     		andi	a0,a0,1
 768:../src/InfoNES.c **** 
 2175              		.loc 1 768 0
 2176 017e D244     		lw	s1,20(sp)
 2177              		.cfi_restore 9
 760:../src/InfoNES.c ****         return -1;  // Exit an emulation      
 2178              		.loc 1 760 0
 2179 0180 3305A040 		sub	a0,zero,a0
 768:../src/InfoNES.c **** 
 2180              		.loc 1 768 0
 2181 0184 0561     		addi	sp,sp,32
 2182              		.cfi_def_cfa_offset 0
 2183 0186 8280     		jr	ra
 2184              	.L212:
 2185              		.cfi_restore_state
 683:../src/InfoNES.c ****   }
 2186              		.loc 1 683 0
 2187 0188 97000000 		call	InfoNES_DrawLine
 2187      E7800000 
 2188              	.LVL185:
 2189 0190 83570400 		lhu	a5,0(s0)
 2190 0194 4DB5     		j	.L195
 2191              	.L215:
 757:../src/InfoNES.c **** 
 2192              		.loc 1 757 0
 2193 0196 B7070000 		lui	a5,%hi(NMI_State)
 2194 019a 23800700 		sb	zero,%lo(NMI_State)(a5)
 2195 019e D9BF     		j	.L203
 2196              	.L214:
 713:../src/InfoNES.c **** 
 2197              		.loc 1 713 0
 2198 01a0 97000000 		call	InfoNES_SetupChr
 2198      E7800000 
 2199              	.LVL186:
 2200 01a8 81BF     		j	.L201
 2201              		.cfi_endproc
 2202              	.LFE8:
 2204              		.section	.text.InfoNES_Cycle,"ax",@progbits
 2205              		.align	1
 2206              		.globl	InfoNES_Cycle
 2208              	InfoNES_Cycle:
 2209              	.LFB7:
 595:../src/InfoNES.c **** /*
 2210              		.loc 1 595 0
 2211              		.cfi_startproc
 2212 0000 7971     		addi	sp,sp,-48
 2213              		.cfi_def_cfa_offset 48
 2214 0002 22D4     		sw	s0,40(sp)
 2215 0004 26D2     		sw	s1,36(sp)
 2216 0006 4AD0     		sw	s2,32(sp)
 2217 0008 4ECE     		sw	s3,28(sp)
 2218 000a 52CC     		sw	s4,24(sp)
 2219 000c 56CA     		sw	s5,20(sp)
 2220              		.cfi_offset 8, -8
 2221              		.cfi_offset 9, -12
 2222              		.cfi_offset 18, -16
 2223              		.cfi_offset 19, -20
 2224              		.cfi_offset 20, -24
 2225              		.cfi_offset 21, -28
 2226 000e B7090000 		lui	s3,%hi(.LANCHOR25)
 2227 0012 37090000 		lui	s2,%hi(.LANCHOR26)
 2228 0016 37040000 		lui	s0,%hi(.LANCHOR9)
 2229 001a B7040000 		lui	s1,%hi(.LANCHOR54)
 2230              	.LBB16:
 614:../src/InfoNES.c ****     {
 2231              		.loc 1 614 0
 2232 001e 370A0000 		lui	s4,%hi(.LANCHOR0)
 617:../src/InfoNES.c **** 
 2233              		.loc 1 617 0
 2234 0022 B70A0000 		lui	s5,%hi(.LANCHOR1)
 2235              	.LBE16:
 595:../src/InfoNES.c **** /*
 2236              		.loc 1 595 0
 2237 0026 5AC8     		sw	s6,16(sp)
 2238 0028 5EC6     		sw	s7,12(sp)
 2239 002a 62C4     		sw	s8,8(sp)
 2240 002c 66C2     		sw	s9,4(sp)
 2241 002e 06D6     		sw	ra,44(sp)
 2242 0030 6AC0     		sw	s10,0(sp)
 2243              		.cfi_offset 22, -32
 2244              		.cfi_offset 23, -36
 2245              		.cfi_offset 24, -40
 2246              		.cfi_offset 25, -44
 2247              		.cfi_offset 1, -4
 2248              		.cfi_offset 26, -48
 2249 0032 93890900 		addi	s3,s3,%lo(.LANCHOR25)
 2250 0036 13090900 		addi	s2,s2,%lo(.LANCHOR26)
 2251 003a 13040400 		addi	s0,s0,%lo(.LANCHOR9)
 2252 003e 93840400 		addi	s1,s1,%lo(.LANCHOR54)
 2253              	.LBB17:
 614:../src/InfoNES.c ****     {
 2254              		.loc 1 614 0
 2255 0042 130A0A00 		addi	s4,s4,%lo(.LANCHOR0)
 617:../src/InfoNES.c **** 
 2256              		.loc 1 617 0
 2257 0046 938A0A00 		addi	s5,s5,%lo(.LANCHOR1)
 623:../src/InfoNES.c ****         PPU_R2 |= R2_HIT_SP;
 2258              		.loc 1 623 0
 2259 004a B70B0000 		lui	s7,%hi(.LANCHOR5)
 627:../src/InfoNES.c ****         NMI_REQ;
 2260              		.loc 1 627 0
 2261 004e 370B0000 		lui	s6,%hi(.LANCHOR6)
 628:../src/InfoNES.c **** 
 2262              		.loc 1 628 0
 2263 0052 B70C0000 		lui	s9,%hi(NMI_State)
 624:../src/InfoNES.c **** 
 2264              		.loc 1 624 0
 2265 0056 370C0000 		lui	s8,%hi(.LANCHOR4)
 2266 005a 29A0     		j	.L223
 2267              	.L235:
 658:../src/InfoNES.c ****   }
 2268              		.loc 1 658 0
 2269 005c 97000000 		call	InfoNES_Wait
 2269      E7800000 
 2270              	.LVL187:
 2271              	.L223:
 613:../src/InfoNES.c ****       PPU_ScanTable[ PPU_Scanline ] == SCAN_ON_SCREEN )
 2272              		.loc 1 613 0
 2273 0064 83D70900 		lhu	a5,0(s3)
 2274 0068 03270900 		lw	a4,0(s2)
 2275 006c 6398E700 		bne	a5,a4,.L217
 614:../src/InfoNES.c ****     {
 2276              		.loc 1 614 0 discriminator 1
 2277 0070 D297     		add	a5,s4,a5
 613:../src/InfoNES.c ****       PPU_ScanTable[ PPU_Scanline ] == SCAN_ON_SCREEN )
 2278              		.loc 1 613 0 discriminator 1
 2279 0072 03C70700 		lbu	a4,0(a5)
 2280 0076 8547     		li	a5,1
 2281 0078 6309F706 		beq	a4,a5,.L234
 2282              	.L217:
 636:../src/InfoNES.c ****     }
 2283              		.loc 1 636 0
 2284 007c 13051007 		li	a0,113
 2285 0080 97000000 		call	K6502_Step
 2285      E7800000 
 2286              	.LVL188:
 2287              	.L220:
 640:../src/InfoNES.c ****     if ( FrameStep > STEP_PER_FRAME && FrameIRQ_Enable )
 2288              		.loc 1 640 0
 2289 0088 83570400 		lhu	a5,0(s0)
 641:../src/InfoNES.c ****     {
 2290              		.loc 1 641 0
 2291 008c 1D67     		li	a4,28672
 2292 008e 13074748 		addi	a4,a4,1156
 640:../src/InfoNES.c ****     if ( FrameStep > STEP_PER_FRAME && FrameIRQ_Enable )
 2293              		.loc 1 640 0
 2294 0092 93871707 		addi	a5,a5,113
 2295 0096 C207     		slli	a5,a5,16
 2296 0098 C183     		srli	a5,a5,16
 2297 009a 2310F400 		sh	a5,0(s0)
 641:../src/InfoNES.c ****     {
 2298              		.loc 1 641 0
 2299 009e 637FF700 		bleu	a5,a4,.L221
 641:../src/InfoNES.c ****     {
 2300              		.loc 1 641 0 is_stmt 0 discriminator 1
 2301 00a2 B7060000 		lui	a3,%hi(.LANCHOR10)
 2302 00a6 83C60600 		lbu	a3,%lo(.LANCHOR10)(a3)
 2303 00aa 89CA     		beqz	a3,.L221
 643:../src/InfoNES.c ****       IRQ_REQ;
 2304              		.loc 1 643 0 is_stmt 1
 2305 00ac B3F7E702 		remu	a5,a5,a4
 644:../src/InfoNES.c **** #ifndef APU_NONE
 2306              		.loc 1 644 0
 2307 00b0 37070000 		lui	a4,%hi(IRQ_State)
 2308 00b4 23000700 		sb	zero,%lo(IRQ_State)(a4)
 643:../src/InfoNES.c ****       IRQ_REQ;
 2309              		.loc 1 643 0
 2310 00b8 2310F400 		sh	a5,0(s0)
 2311              	.L221:
 651:../src/InfoNES.c ****     
 2312              		.loc 1 651 0
 2313 00bc 9C40     		lw	a5,0(s1)
 2314 00be 8297     		jalr	a5
 2315              	.LVL189:
 654:../src/InfoNES.c ****       return;  // To the menu screen
 2316              		.loc 1 654 0
 2317 00c0 97000000 		call	InfoNES_HSync
 2317      E7800000 
 2318              	.LVL190:
 2319 00c8 FD57     		li	a5,-1
 2320 00ca E319F5F8 		bne	a0,a5,.L235
 2321              	.LBE17:
 660:../src/InfoNES.c **** 
 2322              		.loc 1 660 0
 2323 00ce B250     		lw	ra,44(sp)
 2324              		.cfi_remember_state
 2325              		.cfi_restore 1
 2326 00d0 2254     		lw	s0,40(sp)
 2327              		.cfi_restore 8
 2328 00d2 9254     		lw	s1,36(sp)
 2329              		.cfi_restore 9
 2330 00d4 0259     		lw	s2,32(sp)
 2331              		.cfi_restore 18
 2332 00d6 F249     		lw	s3,28(sp)
 2333              		.cfi_restore 19
 2334 00d8 624A     		lw	s4,24(sp)
 2335              		.cfi_restore 20
 2336 00da D24A     		lw	s5,20(sp)
 2337              		.cfi_restore 21
 2338 00dc 424B     		lw	s6,16(sp)
 2339              		.cfi_restore 22
 2340 00de B24B     		lw	s7,12(sp)
 2341              		.cfi_restore 23
 2342 00e0 224C     		lw	s8,8(sp)
 2343              		.cfi_restore 24
 2344 00e2 924C     		lw	s9,4(sp)
 2345              		.cfi_restore 25
 2346 00e4 024D     		lw	s10,0(sp)
 2347              		.cfi_restore 26
 2348 00e6 4561     		addi	sp,sp,48
 2349              		.cfi_def_cfa_offset 0
 2350 00e8 8280     		jr	ra
 2351              	.L234:
 2352              		.cfi_restore_state
 2353              	.LVL191:
 2354              	.LBB18:
 617:../src/InfoNES.c **** 
 2355              		.loc 1 617 0
 2356 00ea 83C73A00 		lbu	a5,3(s5)
 2357 00ee 139D3700 		slli	s10,a5,3
 2358 00f2 330DFD40 		sub	s10,s10,a5
 2359 00f6 120D     		slli	s10,s10,4
 2360 00f8 3E9D     		add	s10,s10,a5
 2361 00fa 135D8D40 		srai	s10,s10,8
 620:../src/InfoNES.c **** 
 2362              		.loc 1 620 0
 2363 00fe 420D     		slli	s10,s10,16
 2364 0100 135D0D01 		srli	s10,s10,16
 2365 0104 6A85     		mv	a0,s10
 2366 0106 97000000 		call	K6502_Step
 2366      E7800000 
 2367              	.LVL192:
 623:../src/InfoNES.c ****         PPU_R2 |= R2_HIT_SP;
 2368              		.loc 1 623 0
 2369 010e 03C70B00 		lbu	a4,%lo(.LANCHOR5)(s7)
 2370 0112 E147     		li	a5,24
 2371 0114 93768701 		andi	a3,a4,24
 2372 0118 6386F602 		beq	a3,a5,.L236
 627:../src/InfoNES.c ****         NMI_REQ;
 2373              		.loc 1 627 0
 2374 011c 83470B00 		lbu	a5,%lo(.LANCHOR6)(s6)
 2375 0120 93F70704 		andi	a5,a5,64
 2376 0124 89C7     		beqz	a5,.L219
 2377              	.L237:
 627:../src/InfoNES.c ****         NMI_REQ;
 2378              		.loc 1 627 0 is_stmt 0 discriminator 1
 2379 0126 418B     		andi	a4,a4,16
 2380 0128 19C3     		beqz	a4,.L219
 628:../src/InfoNES.c **** 
 2381              		.loc 1 628 0 is_stmt 1
 2382 012a 23800C00 		sb	zero,%lo(NMI_State)(s9)
 2383              	.L219:
 631:../src/InfoNES.c ****     }
 2384              		.loc 1 631 0
 2385 012e 13051007 		li	a0,113
 2386 0132 3305A541 		sub	a0,a0,s10
 2387 0136 4205     		slli	a0,a0,16
 2388 0138 4181     		srli	a0,a0,16
 2389 013a 97000000 		call	K6502_Step
 2389      E7800000 
 2390              	.LVL193:
 2391 0142 99B7     		j	.L220
 2392              	.L236:
 624:../src/InfoNES.c **** 
 2393              		.loc 1 624 0
 2394 0144 93060C00 		addi	a3,s8,%lo(.LANCHOR4)
 2395 0148 83C70600 		lbu	a5,0(a3)
 2396 014c 93E70704 		ori	a5,a5,64
 2397 0150 2380F600 		sb	a5,0(a3)
 627:../src/InfoNES.c ****         NMI_REQ;
 2398              		.loc 1 627 0
 2399 0154 83470B00 		lbu	a5,%lo(.LANCHOR6)(s6)
 2400 0158 93F70704 		andi	a5,a5,64
 2401 015c E9DB     		beqz	a5,.L219
 2402 015e E1B7     		j	.L237
 2403              	.LBE18:
 2404              		.cfi_endproc
 2405              	.LFE7:
 2407              		.section	.text.InfoNES_Main,"ax",@progbits
 2408              		.align	1
 2409              		.globl	InfoNES_Main
 2411              	InfoNES_Main:
 2412              	.LFB6:
 561:../src/InfoNES.c **** /*
 2413              		.loc 1 561 0
 2414              		.cfi_startproc
 2415 0000 4111     		addi	sp,sp,-16
 2416              		.cfi_def_cfa_offset 16
 2417 0002 22C4     		sw	s0,8(sp)
 2418 0004 06C6     		sw	ra,12(sp)
 2419              		.cfi_offset 8, -8
 2420              		.cfi_offset 1, -4
 576:../src/InfoNES.c ****       break;  // Quit
 2421              		.loc 1 576 0
 2422 0006 7D54     		li	s0,-1
 568:../src/InfoNES.c **** 
 2423              		.loc 1 568 0
 2424 0008 97000000 		call	InfoNES_Init
 2424      E7800000 
 2425              	.LVL194:
 2426 0010 29A0     		j	.L240
 2427              	.L242:
 582:../src/InfoNES.c ****   }
 2428              		.loc 1 582 0
 2429 0012 97000000 		call	InfoNES_Cycle
 2429      E7800000 
 2430              	.LVL195:
 2431              	.L240:
 576:../src/InfoNES.c ****       break;  // Quit
 2432              		.loc 1 576 0
 2433 001a 97000000 		call	InfoNES_Menu
 2433      E7800000 
 2434              	.LVL196:
 2435 0022 E31885FE 		bne	a0,s0,.L242
 587:../src/InfoNES.c **** 
 2436              		.loc 1 587 0
 2437 0026 2244     		lw	s0,8(sp)
 2438              		.cfi_restore 8
 2439 0028 B240     		lw	ra,12(sp)
 2440              		.cfi_restore 1
 2441 002a 4101     		addi	sp,sp,16
 2442              		.cfi_def_cfa_offset 0
 2443              	.LBB19:
 2444              	.LBB20:
 305:../src/InfoNES.c **** }
 2445              		.loc 1 305 0
 2446 002c 17030000 		tail	InfoNES_ReleaseRom
 2446      67000300 
 2447              	.LVL197:
 2448              	.LBE20:
 2449              	.LBE19:
 2450              		.cfi_endproc
 2451              	.LFE6:
 2453              		.globl	ROM_FourScr
 2454              		.globl	ROM_Trainer
 2455              		.globl	ROM_SRAM
 2456              		.globl	ROM_Mirroring
 2457              		.globl	MapperNo
 2458              		.globl	NesHeader
 2459              		.globl	MapperRenderScreen
 2460              		.globl	MapperPPU
 2461              		.globl	MapperHSync
 2462              		.globl	MapperVSync
 2463              		.globl	MapperReadApu
 2464              		.globl	MapperApu
 2465              		.globl	MapperSram
 2466              		.globl	MapperWrite
 2467              		.globl	MapperInit
 2468              		.globl	PAD2_Bit
 2469              		.globl	PAD1_Bit
 2470              		.globl	PAD_System
 2471              		.globl	PAD2_Latch
 2472              		.globl	PAD1_Latch
 2473              		.globl	PPU_MirrorTable
 2474              		.globl	PalTable
 2475              		.globl	ChrBufUpdate
 2476              		.globl	ChrBuf
 2477              		.globl	WorkFrame
 2478              		.globl	FrameCnt
 2479              		.globl	FrameSkip
 2480              		.globl	FrameStep
 2481              		.globl	FrameIRQ_Enable
 2482              		.globl	PPU_UpDown_Clip
 2483              		.globl	PPU_Latch_Flag
 2484              		.globl	byVramWriteEnable
 2485              		.globl	SpriteJustHit
 2486              		.globl	PPU_SP_Height
 2487              		.globl	PPU_SP_Base
 2488              		.globl	PPU_BG_Base
 2489              		.globl	PPU_NameTableBank
 2490              		.globl	PPU_ScanTable
 2491              		.globl	PPU_Scanline
 2492              		.globl	PPU_Increment
 2493              		.globl	PPU_Temp
 2494              		.globl	PPU_Addr
 2495              		.globl	PPU_Scr_H_Bit_Next
 2496              		.globl	PPU_Scr_H_Bit
 2497              		.globl	PPU_Scr_H_Byte_Next
 2498              		.globl	PPU_Scr_H_Byte
 2499              		.globl	PPU_Scr_H_Next
 2500              		.globl	PPU_Scr_H
 2501              		.globl	PPU_Scr_V_Bit_Next
 2502              		.globl	PPU_Scr_V_Bit
 2503              		.globl	PPU_Scr_V_Byte_Next
 2504              		.globl	PPU_Scr_V_Byte
 2505              		.globl	PPU_Scr_V_Next
 2506              		.globl	PPU_Scr_V
 2507              		.globl	PPU_R7
 2508              		.globl	PPU_R3
 2509              		.globl	PPU_R2
 2510              		.globl	PPU_R1
 2511              		.globl	PPU_R0
 2512              		.globl	SPRRAM
 2513              		.globl	PPUBANK
 2514              		.globl	VROM
 2515              		.globl	PPURAM
 2516              		.globl	ROMBANK3
 2517              		.globl	ROMBANK2
 2518              		.globl	ROMBANK1
 2519              		.globl	ROMBANK0
 2520              		.globl	SRAMBANK
 2521              		.globl	ROM
 2522              		.globl	SRAM
 2523              		.globl	RAM
 2524              		.section	.bss.ChrBuf,"aw",@nobits
 2525              		.align	2
 2528              	ChrBuf:
 2529 0000 00000000 		.zero	32768
 2529      00000000 
 2529      00000000 
 2529      00000000 
 2529      00000000 
 2530              		.section	.bss.NesHeader,"aw",@nobits
 2531              		.align	2
 2532              		.set	.LANCHOR36,. + 0
 2535              	NesHeader:
 2536 0000 00000000 		.zero	16
 2536      00000000 
 2536      00000000 
 2536      00000000 
 2537              		.section	.bss.PPUBANK,"aw",@nobits
 2538              		.align	2
 2539              		.set	.LANCHOR32,. + 0
 2542              	PPUBANK:
 2543 0000 00000000 		.zero	64
 2543      00000000 
 2543      00000000 
 2543      00000000 
 2543      00000000 
 2544              		.section	.bss.PPURAM,"aw",@nobits
 2545              		.align	2
 2548              	PPURAM:
 2549 0000 00000000 		.zero	16384
 2549      00000000 
 2549      00000000 
 2549      00000000 
 2549      00000000 
 2550              		.section	.bss.PPU_ScanTable,"aw",@nobits
 2551              		.align	2
 2552              		.set	.LANCHOR0,. + 0
 2555              	PPU_ScanTable:
 2556 0000 00000000 		.zero	263
 2556      00000000 
 2556      00000000 
 2556      00000000 
 2556      00000000 
 2557              		.section	.bss.PalTable,"aw",@nobits
 2558              		.align	2
 2559              		.set	.LANCHOR44,. + 0
 2562              	PalTable:
 2563 0000 00000000 		.zero	64
 2563      00000000 
 2563      00000000 
 2563      00000000 
 2563      00000000 
 2564              		.section	.bss.RAM,"aw",@nobits
 2565              		.align	2
 2568              	RAM:
 2569 0000 00000000 		.zero	8192
 2569      00000000 
 2569      00000000 
 2569      00000000 
 2569      00000000 
 2570              		.section	.bss.SPRRAM,"aw",@nobits
 2571              		.align	2
 2572              		.set	.LANCHOR1,. + 0
 2575              	SPRRAM:
 2576 0000 00000000 		.zero	256
 2576      00000000 
 2576      00000000 
 2576      00000000 
 2576      00000000 
 2577              		.section	.bss.SRAM,"aw",@nobits
 2578              		.align	2
 2581              	SRAM:
 2582 0000 00000000 		.zero	8192
 2582      00000000 
 2582      00000000 
 2582      00000000 
 2582      00000000 
 2583              		.section	.bss.WorkFrame,"aw",@nobits
 2584              		.align	2
 2587              	WorkFrame:
 2588 0000 00000000 		.zero	122880
 2588      00000000 
 2588      00000000 
 2588      00000000 
 2588      00000000 
 2589              		.section	.bss.pbyPrevBank.2519,"aw",@nobits
 2590              		.align	2
 2591              		.set	.LANCHOR52,. + 0
 2594              	pbyPrevBank.2519:
 2595 0000 00000000 		.zero	32
 2595      00000000 
 2595      00000000 
 2595      00000000 
 2595      00000000 
 2596              		.section	.data.PPU_MirrorTable,"aw",@progbits
 2597              		.align	2
 2598              		.set	.LANCHOR34,. + 0
 2601              	PPU_MirrorTable:
 2602 0000 08       		.byte	8
 2603 0001 08       		.byte	8
 2604 0002 09       		.byte	9
 2605 0003 09       		.byte	9
 2606 0004 08       		.byte	8
 2607 0005 09       		.byte	9
 2608 0006 08       		.byte	8
 2609 0007 09       		.byte	9
 2610 0008 09       		.byte	9
 2611 0009 09       		.byte	9
 2612 000a 09       		.byte	9
 2613 000b 09       		.byte	9
 2614 000c 08       		.byte	8
 2615 000d 08       		.byte	8
 2616 000e 08       		.byte	8
 2617 000f 08       		.byte	8
 2618 0010 08       		.byte	8
 2619 0011 09       		.byte	9
 2620 0012 0A       		.byte	10
 2621 0013 0B       		.byte	11
 2622 0014 08       		.byte	8
 2623 0015 08       		.byte	8
 2624 0016 08       		.byte	8
 2625 0017 09       		.byte	9
 2626              		.section	.rodata.InfoNES_Reset.str1.4,"aMS",@progbits,1
 2627              		.align	2
 2628              	.LC0:
 2629 0000 4D617070 		.string	"Mapper #%d is unsupported.\n"
 2629      65722023 
 2629      25642069 
 2629      7320756E 
 2629      73757070 
 2630              		.section	.sbss.ChrBufUpdate,"aw",@nobits
 2631              		.set	.LANCHOR43,. + 0
 2634              	ChrBufUpdate:
 2635 0000 00       		.zero	1
 2636              		.section	.sbss.FrameCnt,"aw",@nobits
 2637              		.align	1
 2638              		.set	.LANCHOR42,. + 0
 2641              	FrameCnt:
 2642 0000 0000     		.zero	2
 2643              		.section	.sbss.FrameIRQ_Enable,"aw",@nobits
 2644              		.set	.LANCHOR10,. + 0
 2647              	FrameIRQ_Enable:
 2648 0000 00       		.zero	1
 2649              		.section	.sbss.FrameSkip,"aw",@nobits
 2650              		.align	1
 2651              		.set	.LANCHOR41,. + 0
 2654              	FrameSkip:
 2655 0000 0000     		.zero	2
 2656              		.section	.sbss.FrameStep,"aw",@nobits
 2657              		.align	1
 2658              		.set	.LANCHOR9,. + 0
 2661              	FrameStep:
 2662 0000 0000     		.zero	2
 2663              		.section	.sbss.MapperApu,"aw",@nobits
 2664              		.align	2
 2667              	MapperApu:
 2668 0000 00000000 		.zero	4
 2669              		.section	.sbss.MapperHSync,"aw",@nobits
 2670              		.align	2
 2671              		.set	.LANCHOR54,. + 0
 2674              	MapperHSync:
 2675 0000 00000000 		.zero	4
 2676              		.section	.sbss.MapperInit,"aw",@nobits
 2677              		.align	2
 2680              	MapperInit:
 2681 0000 00000000 		.zero	4
 2682              		.section	.sbss.MapperNo,"aw",@nobits
 2683              		.set	.LANCHOR37,. + 0
 2686              	MapperNo:
 2687 0000 00       		.zero	1
 2688              		.section	.sbss.MapperPPU,"aw",@nobits
 2689              		.align	2
 2690              		.set	.LANCHOR51,. + 0
 2693              	MapperPPU:
 2694 0000 00000000 		.zero	4
 2695              		.section	.sbss.MapperReadApu,"aw",@nobits
 2696              		.align	2
 2699              	MapperReadApu:
 2700 0000 00000000 		.zero	4
 2701              		.section	.sbss.MapperRenderScreen,"aw",@nobits
 2702              		.align	2
 2703              		.set	.LANCHOR50,. + 0
 2706              	MapperRenderScreen:
 2707 0000 00000000 		.zero	4
 2708              		.section	.sbss.MapperSram,"aw",@nobits
 2709              		.align	2
 2712              	MapperSram:
 2713 0000 00000000 		.zero	4
 2714              		.section	.sbss.MapperVSync,"aw",@nobits
 2715              		.align	2
 2716              		.set	.LANCHOR53,. + 0
 2719              	MapperVSync:
 2720 0000 00000000 		.zero	4
 2721              		.section	.sbss.MapperWrite,"aw",@nobits
 2722              		.align	2
 2725              	MapperWrite:
 2726 0000 00000000 		.zero	4
 2727              		.section	.sbss.PAD1_Bit,"aw",@nobits
 2728              		.align	2
 2729              		.set	.LANCHOR49,. + 0
 2732              	PAD1_Bit:
 2733 0000 00000000 		.zero	4
 2734              		.section	.sbss.PAD1_Latch,"aw",@nobits
 2735              		.align	2
 2736              		.set	.LANCHOR47,. + 0
 2739              	PAD1_Latch:
 2740 0000 00000000 		.zero	4
 2741              		.section	.sbss.PAD2_Bit,"aw",@nobits
 2742              		.align	2
 2743              		.set	.LANCHOR48,. + 0
 2746              	PAD2_Bit:
 2747 0000 00000000 		.zero	4
 2748              		.section	.sbss.PAD2_Latch,"aw",@nobits
 2749              		.align	2
 2750              		.set	.LANCHOR46,. + 0
 2753              	PAD2_Latch:
 2754 0000 00000000 		.zero	4
 2755              		.section	.sbss.PAD_System,"aw",@nobits
 2756              		.align	2
 2757              		.set	.LANCHOR45,. + 0
 2760              	PAD_System:
 2761 0000 00000000 		.zero	4
 2762              		.section	.sbss.PPU_Addr,"aw",@nobits
 2763              		.align	1
 2764              		.set	.LANCHOR23,. + 0
 2767              	PPU_Addr:
 2768 0000 0000     		.zero	2
 2769              		.section	.sbss.PPU_BG_Base,"aw",@nobits
 2770              		.align	2
 2771              		.set	.LANCHOR29,. + 0
 2774              	PPU_BG_Base:
 2775 0000 00000000 		.zero	4
 2776              		.section	.sbss.PPU_Increment,"aw",@nobits
 2777              		.align	1
 2778              		.set	.LANCHOR27,. + 0
 2781              	PPU_Increment:
 2782 0000 0000     		.zero	2
 2783              		.section	.sbss.PPU_Latch_Flag,"aw",@nobits
 2784              		.set	.LANCHOR7,. + 0
 2787              	PPU_Latch_Flag:
 2788 0000 00       		.zero	1
 2789              		.section	.sbss.PPU_NameTableBank,"aw",@nobits
 2790              		.set	.LANCHOR28,. + 0
 2793              	PPU_NameTableBank:
 2794 0000 00       		.zero	1
 2795              		.section	.sbss.PPU_R0,"aw",@nobits
 2796              		.set	.LANCHOR6,. + 0
 2799              	PPU_R0:
 2800 0000 00       		.zero	1
 2801              		.section	.sbss.PPU_R1,"aw",@nobits
 2802              		.set	.LANCHOR5,. + 0
 2805              	PPU_R1:
 2806 0000 00       		.zero	1
 2807              		.section	.sbss.PPU_R2,"aw",@nobits
 2808              		.set	.LANCHOR4,. + 0
 2811              	PPU_R2:
 2812 0000 00       		.zero	1
 2813              		.section	.sbss.PPU_R3,"aw",@nobits
 2814              		.set	.LANCHOR3,. + 0
 2817              	PPU_R3:
 2818 0000 00       		.zero	1
 2819              		.section	.sbss.PPU_R7,"aw",@nobits
 2820              		.set	.LANCHOR2,. + 0
 2823              	PPU_R7:
 2824 0000 00       		.zero	1
 2825              		.section	.sbss.PPU_SP_Base,"aw",@nobits
 2826              		.align	2
 2827              		.set	.LANCHOR30,. + 0
 2830              	PPU_SP_Base:
 2831 0000 00000000 		.zero	4
 2832              		.section	.sbss.PPU_SP_Height,"aw",@nobits
 2833              		.align	1
 2834              		.set	.LANCHOR31,. + 0
 2837              	PPU_SP_Height:
 2838 0000 0000     		.zero	2
 2839              		.section	.sbss.PPU_Scanline,"aw",@nobits
 2840              		.align	1
 2841              		.set	.LANCHOR25,. + 0
 2844              	PPU_Scanline:
 2845 0000 0000     		.zero	2
 2846              		.section	.sbss.PPU_Scr_H,"aw",@nobits
 2847              		.set	.LANCHOR22,. + 0
 2850              	PPU_Scr_H:
 2851 0000 00       		.zero	1
 2852              		.section	.sbss.PPU_Scr_H_Bit,"aw",@nobits
 2853              		.set	.LANCHOR18,. + 0
 2856              	PPU_Scr_H_Bit:
 2857 0000 00       		.zero	1
 2858              		.section	.sbss.PPU_Scr_H_Bit_Next,"aw",@nobits
 2859              		.set	.LANCHOR17,. + 0
 2862              	PPU_Scr_H_Bit_Next:
 2863 0000 00       		.zero	1
 2864              		.section	.sbss.PPU_Scr_H_Byte,"aw",@nobits
 2865              		.set	.LANCHOR20,. + 0
 2868              	PPU_Scr_H_Byte:
 2869 0000 00       		.zero	1
 2870              		.section	.sbss.PPU_Scr_H_Byte_Next,"aw",@nobits
 2871              		.set	.LANCHOR19,. + 0
 2874              	PPU_Scr_H_Byte_Next:
 2875 0000 00       		.zero	1
 2876              		.section	.sbss.PPU_Scr_H_Next,"aw",@nobits
 2877              		.set	.LANCHOR21,. + 0
 2880              	PPU_Scr_H_Next:
 2881 0000 00       		.zero	1
 2882              		.section	.sbss.PPU_Scr_V,"aw",@nobits
 2883              		.set	.LANCHOR16,. + 0
 2886              	PPU_Scr_V:
 2887 0000 00       		.zero	1
 2888              		.section	.sbss.PPU_Scr_V_Bit,"aw",@nobits
 2889              		.set	.LANCHOR12,. + 0
 2892              	PPU_Scr_V_Bit:
 2893 0000 00       		.zero	1
 2894              		.section	.sbss.PPU_Scr_V_Bit_Next,"aw",@nobits
 2895              		.set	.LANCHOR11,. + 0
 2898              	PPU_Scr_V_Bit_Next:
 2899 0000 00       		.zero	1
 2900              		.section	.sbss.PPU_Scr_V_Byte,"aw",@nobits
 2901              		.set	.LANCHOR14,. + 0
 2904              	PPU_Scr_V_Byte:
 2905 0000 00       		.zero	1
 2906              		.section	.sbss.PPU_Scr_V_Byte_Next,"aw",@nobits
 2907              		.set	.LANCHOR13,. + 0
 2910              	PPU_Scr_V_Byte_Next:
 2911 0000 00       		.zero	1
 2912              		.section	.sbss.PPU_Scr_V_Next,"aw",@nobits
 2913              		.set	.LANCHOR15,. + 0
 2916              	PPU_Scr_V_Next:
 2917 0000 00       		.zero	1
 2918              		.section	.sbss.PPU_Temp,"aw",@nobits
 2919              		.align	1
 2920              		.set	.LANCHOR24,. + 0
 2923              	PPU_Temp:
 2924 0000 0000     		.zero	2
 2925              		.section	.sbss.PPU_UpDown_Clip,"aw",@nobits
 2926              		.set	.LANCHOR8,. + 0
 2929              	PPU_UpDown_Clip:
 2930 0000 00       		.zero	1
 2931              		.section	.sbss.ROM,"aw",@nobits
 2932              		.align	2
 2935              	ROM:
 2936 0000 00000000 		.zero	4
 2937              		.section	.sbss.ROMBANK0,"aw",@nobits
 2938              		.align	2
 2941              	ROMBANK0:
 2942 0000 00000000 		.zero	4
 2943              		.section	.sbss.ROMBANK1,"aw",@nobits
 2944              		.align	2
 2947              	ROMBANK1:
 2948 0000 00000000 		.zero	4
 2949              		.section	.sbss.ROMBANK2,"aw",@nobits
 2950              		.align	2
 2953              	ROMBANK2:
 2954 0000 00000000 		.zero	4
 2955              		.section	.sbss.ROMBANK3,"aw",@nobits
 2956              		.align	2
 2959              	ROMBANK3:
 2960 0000 00000000 		.zero	4
 2961              		.section	.sbss.ROM_FourScr,"aw",@nobits
 2962              		.set	.LANCHOR40,. + 0
 2965              	ROM_FourScr:
 2966 0000 00       		.zero	1
 2967              		.section	.sbss.ROM_Mirroring,"aw",@nobits
 2968              		.set	.LANCHOR33,. + 0
 2971              	ROM_Mirroring:
 2972 0000 00       		.zero	1
 2973              		.section	.sbss.ROM_SRAM,"aw",@nobits
 2974              		.set	.LANCHOR38,. + 0
 2977              	ROM_SRAM:
 2978 0000 00       		.zero	1
 2979              		.section	.sbss.ROM_Trainer,"aw",@nobits
 2980              		.set	.LANCHOR39,. + 0
 2983              	ROM_Trainer:
 2984 0000 00       		.zero	1
 2985              		.section	.sbss.SRAMBANK,"aw",@nobits
 2986              		.align	2
 2989              	SRAMBANK:
 2990 0000 00000000 		.zero	4
 2991              		.section	.sbss.SpriteJustHit,"aw",@nobits
 2992              		.align	2
 2993              		.set	.LANCHOR26,. + 0
 2996              	SpriteJustHit:
 2997 0000 00000000 		.zero	4
 2998              		.section	.sbss.VROM,"aw",@nobits
 2999              		.align	2
 3002              	VROM:
 3003 0000 00000000 		.zero	4
 3004              		.section	.sbss.byVramWriteEnable,"aw",@nobits
 3005              		.set	.LANCHOR35,. + 0
 3008              	byVramWriteEnable:
 3009 0000 00       		.zero	1
 3010              		.text
 3011              	.Letext0:
 3012              		.file 2 "../src/InfoNES_Types.h"
 3013              		.file 3 "../src/InfoNES.h"
 3014              		.file 4 "../src/InfoNES_System.h"
 3015              		.file 5 "../src/InfoNES_Mapper.h"
 3016              		.file 6 "../src/K6502.h"