   1              		.file	"K6502.c"
   2              		.option nopic
   3              		.text
   4              	.Ltext0:
   5              		.cfi_sections	.debug_frame
   6              		.section	.text.K6502_Write,"ax",@progbits
   7              		.align	1
   9              	K6502_Write:
  10              	.LFB9:
  11              		.file 1 "../src/K6502_rw.h"
   1:../src/K6502_rw.h **** /*===================================================================*/
   2:../src/K6502_rw.h **** /*                                                                   */
   3:../src/K6502_rw.h **** /*  K6502_RW.h : 6502 Reading/Writing Operation for NES              */
   4:../src/K6502_rw.h **** /*               This file is included in K6502.cpp                  */
   5:../src/K6502_rw.h **** /*                                                                   */
   6:../src/K6502_rw.h **** /*  2000/5/23   InfoNES Project ( based on pNesX )                   */
   7:../src/K6502_rw.h **** /*                                                                   */
   8:../src/K6502_rw.h **** /*===================================================================*/
   9:../src/K6502_rw.h **** 
  10:../src/K6502_rw.h **** #ifndef K6502_RW_H_INCLUDED
  11:../src/K6502_rw.h **** #define K6502_RW_H_INCLUDED
  12:../src/K6502_rw.h **** 
  13:../src/K6502_rw.h **** /*-------------------------------------------------------------------*/
  14:../src/K6502_rw.h **** /*  Include files                                                    */
  15:../src/K6502_rw.h **** /*-------------------------------------------------------------------*/
  16:../src/K6502_rw.h **** 
  17:../src/K6502_rw.h **** #include "InfoNES.h"
  18:../src/K6502_rw.h **** #include "InfoNES_System.h"
  19:../src/K6502_rw.h **** #include "InfoNES_pAPU.h"
  20:../src/K6502_rw.h **** 
  21:../src/K6502_rw.h **** #ifdef __cplusplus 
  22:../src/K6502_rw.h **** extern "C" { 
  23:../src/K6502_rw.h **** #endif /* __cplusplus */ 
  24:../src/K6502_rw.h **** 
  25:../src/K6502_rw.h **** /*===================================================================*/
  26:../src/K6502_rw.h **** /*                                                                   */
  27:../src/K6502_rw.h **** /*            K6502_ReadZp() : Reading from the zero page            */
  28:../src/K6502_rw.h **** /*                                                                   */
  29:../src/K6502_rw.h **** /*===================================================================*/
  30:../src/K6502_rw.h **** static inline BYTE K6502_ReadZp( BYTE byAddr )
  31:../src/K6502_rw.h **** {
  32:../src/K6502_rw.h **** /*
  33:../src/K6502_rw.h ****  *  Reading from the zero page
  34:../src/K6502_rw.h ****  *
  35:../src/K6502_rw.h ****  *  Parameters
  36:../src/K6502_rw.h ****  *    BYTE byAddr              (Read)
  37:../src/K6502_rw.h ****  *      An address inside the zero page
  38:../src/K6502_rw.h ****  *
  39:../src/K6502_rw.h ****  *  Return values
  40:../src/K6502_rw.h ****  *    Read Data
  41:../src/K6502_rw.h ****  */
  42:../src/K6502_rw.h **** 
  43:../src/K6502_rw.h ****   return RAM[ byAddr ];
  44:../src/K6502_rw.h **** }
  45:../src/K6502_rw.h **** 
  46:../src/K6502_rw.h **** /*===================================================================*/
  47:../src/K6502_rw.h **** /*                                                                   */
  48:../src/K6502_rw.h **** /*               K6502_Read() : Reading operation                    */
  49:../src/K6502_rw.h **** /*                                                                   */
  50:../src/K6502_rw.h **** /*===================================================================*/
  51:../src/K6502_rw.h **** static inline BYTE K6502_Read( WORD wAddr )
  52:../src/K6502_rw.h **** {
  53:../src/K6502_rw.h **** /*
  54:../src/K6502_rw.h ****  *  Reading operation
  55:../src/K6502_rw.h ****  *
  56:../src/K6502_rw.h ****  *  Parameters
  57:../src/K6502_rw.h ****  *    WORD wAddr              (Read)
  58:../src/K6502_rw.h ****  *      Address to read
  59:../src/K6502_rw.h ****  *
  60:../src/K6502_rw.h ****  *  Return values
  61:../src/K6502_rw.h ****  *    Read data
  62:../src/K6502_rw.h ****  *
  63:../src/K6502_rw.h ****  *  Remarks
  64:../src/K6502_rw.h ****  *    0x0000 - 0x1fff  RAM ( 0x800 - 0x1fff is mirror of 0x0 - 0x7ff )
  65:../src/K6502_rw.h ****  *    0x2000 - 0x3fff  PPU
  66:../src/K6502_rw.h ****  *    0x4000 - 0x5fff  Sound
  67:../src/K6502_rw.h ****  *    0x6000 - 0x7fff  SRAM ( Battery Backed )
  68:../src/K6502_rw.h ****  *    0x8000 - 0xffff  ROM
  69:../src/K6502_rw.h ****  *
  70:../src/K6502_rw.h ****  */
  71:../src/K6502_rw.h ****   BYTE byRet;
  72:../src/K6502_rw.h **** 
  73:../src/K6502_rw.h ****   switch ( wAddr & 0xe000 )
  74:../src/K6502_rw.h ****   {
  75:../src/K6502_rw.h ****     case 0x0000:  /* RAM */
  76:../src/K6502_rw.h ****       return RAM[ wAddr & 0x7ff ];
  77:../src/K6502_rw.h **** 
  78:../src/K6502_rw.h ****     case 0x2000:  /* PPU */
  79:../src/K6502_rw.h ****       if ( ( wAddr & 0x7 ) == 0x7 )   /* PPU Memory */
  80:../src/K6502_rw.h ****       {
  81:../src/K6502_rw.h ****         WORD addr = PPU_Addr & 0x3fff;
  82:../src/K6502_rw.h **** 
  83:../src/K6502_rw.h ****         // Set return value;
  84:../src/K6502_rw.h **** 	byRet = PPU_R7;
  85:../src/K6502_rw.h **** 
  86:../src/K6502_rw.h ****         // Increment PPU Address
  87:../src/K6502_rw.h ****         PPU_Addr += PPU_Increment;
  88:../src/K6502_rw.h **** 
  89:../src/K6502_rw.h ****         // Read PPU Memory
  90:../src/K6502_rw.h ****         PPU_R7 = PPUBANK[ addr >> 10 ][ addr & 0x3ff ];
  91:../src/K6502_rw.h **** 
  92:../src/K6502_rw.h ****         return byRet;
  93:../src/K6502_rw.h ****       }
  94:../src/K6502_rw.h ****       else
  95:../src/K6502_rw.h ****       if ( ( wAddr & 0x7 ) == 0x4 )   /* SPR_RAM I/O Register */
  96:../src/K6502_rw.h ****       {
  97:../src/K6502_rw.h ****         return SPRRAM[ PPU_R3++ ];
  98:../src/K6502_rw.h ****       }
  99:../src/K6502_rw.h ****       else                            
 100:../src/K6502_rw.h ****       if ( ( wAddr & 0x7 ) == 0x2 )   /* PPU Status */
 101:../src/K6502_rw.h ****       {
 102:../src/K6502_rw.h ****         // Set return value
 103:../src/K6502_rw.h ****         byRet = PPU_R2;
 104:../src/K6502_rw.h **** 
 105:../src/K6502_rw.h **** #if 0
 106:../src/K6502_rw.h ****         // Reset a V-Blank flag
 107:../src/K6502_rw.h ****         PPU_R2 &= ~R2_IN_VBLANK;
 108:../src/K6502_rw.h **** #endif
 109:../src/K6502_rw.h **** 
 110:../src/K6502_rw.h ****         // Reset address latch
 111:../src/K6502_rw.h ****         PPU_Latch_Flag = 0;
 112:../src/K6502_rw.h **** 
 113:../src/K6502_rw.h ****         // Make a Nametable 0 in V-Blank
 114:../src/K6502_rw.h ****         if ( PPU_Scanline >= SCAN_VBLANK_START && !( PPU_R0 & R0_NMI_VB ) )
 115:../src/K6502_rw.h ****         {
 116:../src/K6502_rw.h ****           PPU_R0 &= ~R0_NAME_ADDR;
 117:../src/K6502_rw.h ****           PPU_NameTableBank = NAME_TABLE0;
 118:../src/K6502_rw.h ****         }
 119:../src/K6502_rw.h ****         return byRet;
 120:../src/K6502_rw.h ****       }
 121:../src/K6502_rw.h ****       else /* $2000, $2001, $2003, $2005, $2006 */
 122:../src/K6502_rw.h ****       {
 123:../src/K6502_rw.h ****         return PPU_R7;
 124:../src/K6502_rw.h ****       }
 125:../src/K6502_rw.h ****       break;
 126:../src/K6502_rw.h **** 
 127:../src/K6502_rw.h ****     case 0x4000:  /* Sound */
 128:../src/K6502_rw.h ****       if ( wAddr == 0x4014 ) 
 129:../src/K6502_rw.h ****       {
 130:../src/K6502_rw.h **** 	return wAddr & 0xff;
 131:../src/K6502_rw.h ****       }
 132:../src/K6502_rw.h ****       else
 133:../src/K6502_rw.h ****       if ( wAddr == 0x4015 )
 134:../src/K6502_rw.h ****       {
 135:../src/K6502_rw.h **** #ifndef APU_NONE
 136:../src/K6502_rw.h ****         // APU control
 137:../src/K6502_rw.h ****         byRet = APU_Reg[ 0x4015 ];
 138:../src/K6502_rw.h **** 	if ( ApuC1Atl > 0 ) byRet |= (1<<0);
 139:../src/K6502_rw.h **** 	if ( ApuC2Atl > 0 ) byRet |= (1<<1);
 140:../src/K6502_rw.h **** 	if (  !ApuC3Holdnote ) {
 141:../src/K6502_rw.h **** 	  if ( ApuC3Atl > 0 ) byRet |= (1<<2);
 142:../src/K6502_rw.h **** 	} else {
 143:../src/K6502_rw.h **** 	  if ( ApuC3Llc > 0 ) byRet |= (1<<2);
 144:../src/K6502_rw.h **** 	}
 145:../src/K6502_rw.h **** 	if ( ApuC4Atl > 0 ) byRet |= (1<<3);
 146:../src/K6502_rw.h **** 
 147:../src/K6502_rw.h **** 	// FrameIRQ
 148:../src/K6502_rw.h ****         APU_Reg[ 0x4015 ] &= ~0x40;
 149:../src/K6502_rw.h **** #else
 150:../src/K6502_rw.h **** 		byRet = 0;
 151:../src/K6502_rw.h **** #endif /* APU_NONE */
 152:../src/K6502_rw.h ****         return byRet;
 153:../src/K6502_rw.h ****       }
 154:../src/K6502_rw.h ****       else
 155:../src/K6502_rw.h ****       if ( wAddr == 0x4016 )
 156:../src/K6502_rw.h ****       {
 157:../src/K6502_rw.h ****         // Set Joypad1 data
 158:../src/K6502_rw.h ****         byRet = (BYTE)( ( PAD1_Latch >> PAD1_Bit ) & 1 ) | 0x40;
 159:../src/K6502_rw.h ****         PAD1_Bit = ( PAD1_Bit == 23 ) ? 0 : ( PAD1_Bit + 1 );
 160:../src/K6502_rw.h ****         return byRet;
 161:../src/K6502_rw.h ****       }
 162:../src/K6502_rw.h ****       else
 163:../src/K6502_rw.h ****       if ( wAddr == 0x4017 )
 164:../src/K6502_rw.h ****       {
 165:../src/K6502_rw.h ****         // Set Joypad2 data
 166:../src/K6502_rw.h ****         byRet = (BYTE)( ( PAD2_Latch >> PAD2_Bit ) & 1 ) | 0x40;
 167:../src/K6502_rw.h ****         PAD2_Bit = ( PAD2_Bit == 23 ) ? 0 : ( PAD2_Bit + 1 );
 168:../src/K6502_rw.h ****         return byRet;
 169:../src/K6502_rw.h ****       }
 170:../src/K6502_rw.h ****       else 
 171:../src/K6502_rw.h ****       {
 172:../src/K6502_rw.h ****         /* Return Mapper Register*/
 173:../src/K6502_rw.h ****         return MapperReadApu( wAddr );
 174:../src/K6502_rw.h ****       }
 175:../src/K6502_rw.h ****       break;
 176:../src/K6502_rw.h ****       // The other sound registers are not readable.
 177:../src/K6502_rw.h **** 
 178:../src/K6502_rw.h ****     case 0x6000:  /* SRAM */
 179:../src/K6502_rw.h ****       if ( ROM_SRAM )
 180:../src/K6502_rw.h ****       {
 181:../src/K6502_rw.h ****         return SRAM[ wAddr & 0x1fff ];
 182:../src/K6502_rw.h ****       } else {    /* SRAM BANK */
 183:../src/K6502_rw.h ****         return SRAMBANK[ wAddr & 0x1fff ];
 184:../src/K6502_rw.h ****       }
 185:../src/K6502_rw.h **** 
 186:../src/K6502_rw.h ****     case 0x8000:  /* ROM BANK 0 */
 187:../src/K6502_rw.h ****       return ROMBANK0[ wAddr & 0x1fff ];
 188:../src/K6502_rw.h **** 
 189:../src/K6502_rw.h ****     case 0xa000:  /* ROM BANK 1 */
 190:../src/K6502_rw.h ****       return ROMBANK1[ wAddr & 0x1fff ];
 191:../src/K6502_rw.h **** 
 192:../src/K6502_rw.h ****     case 0xc000:  /* ROM BANK 2 */
 193:../src/K6502_rw.h ****       return ROMBANK2[ wAddr & 0x1fff ];
 194:../src/K6502_rw.h **** 
 195:../src/K6502_rw.h ****     case 0xe000:  /* ROM BANK 3 */
 196:../src/K6502_rw.h ****       return ROMBANK3[ wAddr & 0x1fff ];
 197:../src/K6502_rw.h ****   }
 198:../src/K6502_rw.h **** 
 199:../src/K6502_rw.h ****   return ( wAddr >> 8 ); /* when a register is not readable the upper half
 200:../src/K6502_rw.h ****                             address is returned. */
 201:../src/K6502_rw.h **** }
 202:../src/K6502_rw.h **** 
 203:../src/K6502_rw.h **** /*===================================================================*/
 204:../src/K6502_rw.h **** /*                                                                   */
 205:../src/K6502_rw.h **** /*               K6502_Write() : Writing operation                    */
 206:../src/K6502_rw.h **** /*                                                                   */
 207:../src/K6502_rw.h **** /*===================================================================*/
 208:../src/K6502_rw.h **** static inline void K6502_Write( WORD wAddr, BYTE byData )
 209:../src/K6502_rw.h **** {
  12              		.loc 1 209 0
  13              		.cfi_startproc
  14              	.LVL0:
  15 0000 4111     		addi	sp,sp,-16
  16              		.cfi_def_cfa_offset 16
 210:../src/K6502_rw.h **** /*
 211:../src/K6502_rw.h ****  *  Writing operation
 212:../src/K6502_rw.h ****  *
 213:../src/K6502_rw.h ****  *  Parameters
 214:../src/K6502_rw.h ****  *    WORD wAddr              (Read)
 215:../src/K6502_rw.h ****  *      Address to write
 216:../src/K6502_rw.h ****  *
 217:../src/K6502_rw.h ****  *    BYTE byData             (Read)
 218:../src/K6502_rw.h ****  *      Data to write
 219:../src/K6502_rw.h ****  *
 220:../src/K6502_rw.h ****  *  Remarks
 221:../src/K6502_rw.h ****  *    0x0000 - 0x1fff  RAM ( 0x800 - 0x1fff is mirror of 0x0 - 0x7ff )
 222:../src/K6502_rw.h ****  *    0x2000 - 0x3fff  PPU
 223:../src/K6502_rw.h ****  *    0x4000 - 0x5fff  Sound
 224:../src/K6502_rw.h ****  *    0x6000 - 0x7fff  SRAM ( Battery Backed )
 225:../src/K6502_rw.h ****  *    0x8000 - 0xffff  ROM
 226:../src/K6502_rw.h ****  *
 227:../src/K6502_rw.h ****  */
 228:../src/K6502_rw.h **** 
 229:../src/K6502_rw.h ****   switch ( wAddr & 0xe000 )
  17              		.loc 1 229 0
  18 0002 F977     		li	a5,-8192
 209:../src/K6502_rw.h **** /*
  19              		.loc 1 209 0
  20 0004 22C4     		sw	s0,8(sp)
  21 0006 26C2     		sw	s1,4(sp)
  22 0008 06C6     		sw	ra,12(sp)
  23              		.cfi_offset 8, -8
  24              		.cfi_offset 9, -12
  25              		.cfi_offset 1, -4
  26              		.loc 1 229 0
  27 000a E98F     		and	a5,a0,a5
  28 000c 9966     		li	a3,24576
 209:../src/K6502_rw.h **** /*
  29              		.loc 1 209 0
  30 000e 2A84     		mv	s0,a0
  31 0010 AE84     		mv	s1,a1
  32              		.loc 1 229 0
  33 0012 6382D708 		beq	a5,a3,.L3
  34 0016 63EEF600 		bgtu	a5,a3,.L4
  35 001a 8966     		li	a3,8192
  36 001c 6381D704 		beq	a5,a3,.L5
  37 0020 9166     		li	a3,16384
  38 0022 6383D70A 		beq	a5,a3,.L6
  39 0026 B1C7     		beqz	a5,.L63
  40              	.LVL1:
  41              	.L1:
 230:../src/K6502_rw.h ****   {
 231:../src/K6502_rw.h ****     case 0x0000:  /* RAM */
 232:../src/K6502_rw.h ****       RAM[ wAddr & 0x7ff ] = byData;
 233:../src/K6502_rw.h ****       break;
 234:../src/K6502_rw.h **** 
 235:../src/K6502_rw.h ****     case 0x2000:  /* PPU */
 236:../src/K6502_rw.h ****       switch ( wAddr & 0x7 )
 237:../src/K6502_rw.h ****       {
 238:../src/K6502_rw.h ****         case 0:    /* 0x2000 */
 239:../src/K6502_rw.h ****           PPU_R0 = byData;
 240:../src/K6502_rw.h ****           PPU_Increment = ( PPU_R0 & R0_INC_ADDR ) ? 32 : 1;
 241:../src/K6502_rw.h ****           PPU_NameTableBank = NAME_TABLE0 + ( PPU_R0 & R0_NAME_ADDR );
 242:../src/K6502_rw.h ****           PPU_BG_Base = ( PPU_R0 & R0_BG_ADDR ) ? ChrBuf + 256 * 64 : ChrBuf;
 243:../src/K6502_rw.h ****           PPU_SP_Base = ( PPU_R0 & R0_SP_ADDR ) ? ChrBuf + 256 * 64 : ChrBuf;
 244:../src/K6502_rw.h ****           PPU_SP_Height = ( PPU_R0 & R0_SP_SIZE ) ? 16 : 8;
 245:../src/K6502_rw.h **** 
 246:../src/K6502_rw.h ****           // Account for Loopy's scrolling discoveries
 247:../src/K6502_rw.h **** 	  PPU_Temp = ( PPU_Temp & 0xF3FF ) | ( ( ( (WORD)byData ) & 0x0003 ) << 10 );
 248:../src/K6502_rw.h ****           break;
 249:../src/K6502_rw.h **** 
 250:../src/K6502_rw.h ****         case 1:   /* 0x2001 */
 251:../src/K6502_rw.h ****           PPU_R1 = byData;
 252:../src/K6502_rw.h ****           break;
 253:../src/K6502_rw.h **** 
 254:../src/K6502_rw.h ****         case 2:   /* 0x2002 */
 255:../src/K6502_rw.h **** #if 0	  
 256:../src/K6502_rw.h ****           PPU_R2 = byData;     // 0x2002 is not writable
 257:../src/K6502_rw.h **** #endif
 258:../src/K6502_rw.h ****           break;
 259:../src/K6502_rw.h **** 
 260:../src/K6502_rw.h ****         case 3:   /* 0x2003 */
 261:../src/K6502_rw.h ****           // Sprite RAM Address
 262:../src/K6502_rw.h ****           PPU_R3 = byData;
 263:../src/K6502_rw.h ****           break;
 264:../src/K6502_rw.h **** 
 265:../src/K6502_rw.h ****         case 4:   /* 0x2004 */
 266:../src/K6502_rw.h ****           // Write data to Sprite RAM
 267:../src/K6502_rw.h ****           SPRRAM[ PPU_R3++ ] = byData;
 268:../src/K6502_rw.h ****           break;
 269:../src/K6502_rw.h **** 
 270:../src/K6502_rw.h ****         case 5:   /* 0x2005 */
 271:../src/K6502_rw.h ****           // Set Scroll Register
 272:../src/K6502_rw.h ****           if ( PPU_Latch_Flag )
 273:../src/K6502_rw.h ****           {
 274:../src/K6502_rw.h ****             // V-Scroll Register
 275:../src/K6502_rw.h ****             PPU_Scr_V_Next = ( byData > 239 ) ? byData - 240 : byData;	    
 276:../src/K6502_rw.h **** 	    if ( byData > 239 ) PPU_NameTableBank ^= NAME_TABLE_V_MASK; 
 277:../src/K6502_rw.h ****             PPU_Scr_V_Byte_Next = PPU_Scr_V_Next >> 3;
 278:../src/K6502_rw.h ****             PPU_Scr_V_Bit_Next = PPU_Scr_V_Next & 7;
 279:../src/K6502_rw.h **** 
 280:../src/K6502_rw.h ****             // Added : more Loopy Stuff
 281:../src/K6502_rw.h **** 	    PPU_Temp = ( PPU_Temp & 0xFC1F ) | ( ( ( (WORD)byData ) & 0xF8 ) << 2);
 282:../src/K6502_rw.h **** 	    PPU_Temp = ( PPU_Temp & 0x8FFF ) | ( ( ( (WORD)byData ) & 0x07 ) << 12);
 283:../src/K6502_rw.h ****           }
 284:../src/K6502_rw.h ****           else
 285:../src/K6502_rw.h ****           {
 286:../src/K6502_rw.h ****             // H-Scroll Register
 287:../src/K6502_rw.h ****             PPU_Scr_H_Next = byData;
 288:../src/K6502_rw.h ****             PPU_Scr_H_Byte_Next = PPU_Scr_H_Next >> 3;
 289:../src/K6502_rw.h ****             PPU_Scr_H_Bit_Next = PPU_Scr_H_Next & 7;
 290:../src/K6502_rw.h **** 
 291:../src/K6502_rw.h ****             // Added : more Loopy Stuff
 292:../src/K6502_rw.h **** 	    PPU_Temp = ( PPU_Temp & 0xFFE0 ) | ( ( ( (WORD)byData ) & 0xF8 ) >> 3 );
 293:../src/K6502_rw.h ****           }
 294:../src/K6502_rw.h ****           PPU_Latch_Flag ^= 1;
 295:../src/K6502_rw.h ****           break;
 296:../src/K6502_rw.h **** 
 297:../src/K6502_rw.h ****         case 6:   /* 0x2006 */
 298:../src/K6502_rw.h ****           // Set PPU Address
 299:../src/K6502_rw.h ****           if ( PPU_Latch_Flag )
 300:../src/K6502_rw.h ****           {
 301:../src/K6502_rw.h ****             /* Low */
 302:../src/K6502_rw.h **** #if 0
 303:../src/K6502_rw.h ****             PPU_Addr = ( PPU_Addr & 0xff00 ) | ( (WORD)byData );
 304:../src/K6502_rw.h **** #else
 305:../src/K6502_rw.h ****             PPU_Temp = ( PPU_Temp & 0xFF00 ) | ( ( (WORD)byData ) & 0x00FF);
 306:../src/K6502_rw.h **** 	    PPU_Addr = PPU_Temp;
 307:../src/K6502_rw.h **** #endif
 308:../src/K6502_rw.h **** 	    if ( !( PPU_R2 & R2_IN_VBLANK ) ) {
 309:../src/K6502_rw.h **** 	      InfoNES_SetupScr();
 310:../src/K6502_rw.h **** 	    }
 311:../src/K6502_rw.h ****           }
 312:../src/K6502_rw.h ****           else
 313:../src/K6502_rw.h ****           {
 314:../src/K6502_rw.h ****             /* High */
 315:../src/K6502_rw.h **** #if 0
 316:../src/K6502_rw.h ****             PPU_Addr = ( PPU_Addr & 0x00ff ) | ( (WORD)( byData & 0x3f ) << 8 );
 317:../src/K6502_rw.h ****             InfoNES_SetupScr();
 318:../src/K6502_rw.h **** #else
 319:../src/K6502_rw.h ****             PPU_Temp = ( PPU_Temp & 0x00FF ) | ( ( ((WORD)byData) & 0x003F ) << 8 );
 320:../src/K6502_rw.h **** #endif            
 321:../src/K6502_rw.h ****           }
 322:../src/K6502_rw.h ****           PPU_Latch_Flag ^= 1;
 323:../src/K6502_rw.h ****           break;
 324:../src/K6502_rw.h **** 
 325:../src/K6502_rw.h ****         case 7:   /* 0x2007 */
 326:../src/K6502_rw.h ****           {
 327:../src/K6502_rw.h ****             WORD addr = PPU_Addr;
 328:../src/K6502_rw.h ****             
 329:../src/K6502_rw.h ****             // Increment PPU Address
 330:../src/K6502_rw.h ****             PPU_Addr += PPU_Increment;
 331:../src/K6502_rw.h ****             addr &= 0x3fff;
 332:../src/K6502_rw.h **** 
 333:../src/K6502_rw.h ****             // Write to PPU Memory
 334:../src/K6502_rw.h ****             if ( addr < 0x2000 && byVramWriteEnable )
 335:../src/K6502_rw.h ****             {
 336:../src/K6502_rw.h ****               // Pattern Data
 337:../src/K6502_rw.h ****               ChrBufUpdate |= ( 1 << ( addr >> 10 ) );
 338:../src/K6502_rw.h ****               PPUBANK[ addr >> 10 ][ addr & 0x3ff ] = byData;
 339:../src/K6502_rw.h ****             }
 340:../src/K6502_rw.h ****             else
 341:../src/K6502_rw.h ****             if ( addr < 0x3f00 )  /* 0x2000 - 0x3eff */
 342:../src/K6502_rw.h ****             {
 343:../src/K6502_rw.h ****               // Name Table and mirror
 344:../src/K6502_rw.h ****               PPUBANK[   addr            >> 10 ][ addr & 0x3ff ] = byData;
 345:../src/K6502_rw.h ****               PPUBANK[ ( addr ^ 0x1000 ) >> 10 ][ addr & 0x3ff ] = byData;
 346:../src/K6502_rw.h ****             }
 347:../src/K6502_rw.h ****             else
 348:../src/K6502_rw.h ****             if ( !( addr & 0xf ) )  /* 0x3f00 or 0x3f10 */
 349:../src/K6502_rw.h ****             {
 350:../src/K6502_rw.h ****               // Palette mirror
 351:../src/K6502_rw.h ****               PPURAM[ 0x3f10 ] = PPURAM[ 0x3f14 ] = PPURAM[ 0x3f18 ] = PPURAM[ 0x3f1c ] = 
 352:../src/K6502_rw.h ****               PPURAM[ 0x3f00 ] = PPURAM[ 0x3f04 ] = PPURAM[ 0x3f08 ] = PPURAM[ 0x3f0c ] = byData;
 353:../src/K6502_rw.h ****               PalTable[ 0x00 ] = PalTable[ 0x04 ] = PalTable[ 0x08 ] = PalTable[ 0x0c ] =
 354:../src/K6502_rw.h ****               PalTable[ 0x10 ] = PalTable[ 0x14 ] = PalTable[ 0x18 ] = PalTable[ 0x1c ] = NesPalett
 355:../src/K6502_rw.h ****             }
 356:../src/K6502_rw.h ****             else
 357:../src/K6502_rw.h **** 	    if ( addr & 3 )
 358:../src/K6502_rw.h ****             {
 359:../src/K6502_rw.h ****               // Palette
 360:../src/K6502_rw.h ****               PPURAM[ addr ] = byData;
 361:../src/K6502_rw.h ****               PalTable[ addr & 0x1f ] = NesPalette[ byData ];
 362:../src/K6502_rw.h ****             }
 363:../src/K6502_rw.h ****           }
 364:../src/K6502_rw.h ****           break;
 365:../src/K6502_rw.h ****       }
 366:../src/K6502_rw.h ****       break;
 367:../src/K6502_rw.h **** 
 368:../src/K6502_rw.h ****     case 0x4000:  /* Sound */
 369:../src/K6502_rw.h ****       switch ( wAddr & 0x1f )
 370:../src/K6502_rw.h ****       {
 371:../src/K6502_rw.h ****         case 0x00:
 372:../src/K6502_rw.h ****         case 0x01:
 373:../src/K6502_rw.h ****         case 0x02:
 374:../src/K6502_rw.h ****         case 0x03:          
 375:../src/K6502_rw.h ****         case 0x04:
 376:../src/K6502_rw.h ****         case 0x05:
 377:../src/K6502_rw.h ****         case 0x06:
 378:../src/K6502_rw.h ****         case 0x07:
 379:../src/K6502_rw.h ****         case 0x08:
 380:../src/K6502_rw.h ****         case 0x09:
 381:../src/K6502_rw.h ****         case 0x0a:
 382:../src/K6502_rw.h ****         case 0x0b:
 383:../src/K6502_rw.h ****         case 0x0c:
 384:../src/K6502_rw.h ****         case 0x0d:
 385:../src/K6502_rw.h ****         case 0x0e:
 386:../src/K6502_rw.h ****         case 0x0f:
 387:../src/K6502_rw.h ****         case 0x10:
 388:../src/K6502_rw.h ****         case 0x11:	  
 389:../src/K6502_rw.h ****         case 0x12:
 390:../src/K6502_rw.h ****         case 0x13:
 391:../src/K6502_rw.h **** #ifndef APU_NONE
 392:../src/K6502_rw.h ****           // Call Function corresponding to Sound Registers
 393:../src/K6502_rw.h ****           if ( !APU_Mute )
 394:../src/K6502_rw.h ****             pAPUSoundRegs[ wAddr & 0x1f ]( wAddr, byData );
 395:../src/K6502_rw.h **** #endif /* APU_NONE */
 396:../src/K6502_rw.h ****           break;
 397:../src/K6502_rw.h **** 
 398:../src/K6502_rw.h ****         case 0x14:  /* 0x4014 */
 399:../src/K6502_rw.h ****           // Sprite DMA
 400:../src/K6502_rw.h ****           switch ( byData >> 5 )
 401:../src/K6502_rw.h ****           {
 402:../src/K6502_rw.h ****             case 0x0:  /* RAM */
 403:../src/K6502_rw.h ****               InfoNES_MemoryCopy( SPRRAM, &RAM[ ( (WORD)byData << 8 ) & 0x7ff ], SPRRAM_SIZE );
 404:../src/K6502_rw.h ****               break;
 405:../src/K6502_rw.h **** 
 406:../src/K6502_rw.h ****             case 0x3:  /* SRAM */
 407:../src/K6502_rw.h ****               InfoNES_MemoryCopy( SPRRAM, &SRAM[ ( (WORD)byData << 8 ) & 0x1fff ], SPRRAM_SIZE );
 408:../src/K6502_rw.h ****               break;
 409:../src/K6502_rw.h **** 
 410:../src/K6502_rw.h ****             case 0x4:  /* ROM BANK 0 */
 411:../src/K6502_rw.h ****               InfoNES_MemoryCopy( SPRRAM, &ROMBANK0[ ( (WORD)byData << 8 ) & 0x1fff ], SPRRAM_SIZE 
 412:../src/K6502_rw.h ****               break;
 413:../src/K6502_rw.h **** 
 414:../src/K6502_rw.h ****             case 0x5:  /* ROM BANK 1 */
 415:../src/K6502_rw.h ****               InfoNES_MemoryCopy( SPRRAM, &ROMBANK1[ ( (WORD)byData << 8 ) & 0x1fff ], SPRRAM_SIZE 
 416:../src/K6502_rw.h ****               break;
 417:../src/K6502_rw.h **** 
 418:../src/K6502_rw.h ****             case 0x6:  /* ROM BANK 2 */
 419:../src/K6502_rw.h ****               InfoNES_MemoryCopy( SPRRAM, &ROMBANK2[ ( (WORD)byData << 8 ) & 0x1fff ], SPRRAM_SIZE 
 420:../src/K6502_rw.h ****               break;
 421:../src/K6502_rw.h **** 
 422:../src/K6502_rw.h ****             case 0x7:  /* ROM BANK 3 */
 423:../src/K6502_rw.h ****               InfoNES_MemoryCopy( SPRRAM, &ROMBANK3[ ( (WORD)byData << 8 ) & 0x1fff ], SPRRAM_SIZE 
 424:../src/K6502_rw.h ****               break;
 425:../src/K6502_rw.h ****           }
 426:../src/K6502_rw.h ****           break;
 427:../src/K6502_rw.h **** 
 428:../src/K6502_rw.h ****         case 0x15:  /* 0x4015 */
 429:../src/K6502_rw.h **** #ifndef APU_NONE
 430:../src/K6502_rw.h ****           InfoNES_pAPUWriteControl( wAddr, byData );
 431:../src/K6502_rw.h **** #endif /* APU_NONE */
 432:../src/K6502_rw.h **** #if 0
 433:../src/K6502_rw.h ****           /* Unknown */
 434:../src/K6502_rw.h ****           if ( byData & 0x10 ) 
 435:../src/K6502_rw.h ****           {
 436:../src/K6502_rw.h **** 	    byData &= ~0x80;
 437:../src/K6502_rw.h **** 	  }
 438:../src/K6502_rw.h **** #endif
 439:../src/K6502_rw.h ****           break;
 440:../src/K6502_rw.h **** 
 441:../src/K6502_rw.h ****         case 0x16:  /* 0x4016 */
 442:../src/K6502_rw.h **** #ifndef APU_NONE
 443:../src/K6502_rw.h **** 		  // For VS-Unisystem
 444:../src/K6502_rw.h **** 		  MapperApu( wAddr, byData );
 445:../src/K6502_rw.h ****           // Reset joypad
 446:../src/K6502_rw.h ****           if ( !( APU_Reg[ 0x16 ] & 1 ) && ( byData & 1 ) )
 447:../src/K6502_rw.h **** #else
 448:../src/K6502_rw.h ****           // Reset joypad
 449:../src/K6502_rw.h ****           if ( byData & 1 )
 450:../src/K6502_rw.h **** #endif /* APU_NONE */
 451:../src/K6502_rw.h ****           {
 452:../src/K6502_rw.h ****             PAD1_Bit = 0;
 453:../src/K6502_rw.h ****             PAD2_Bit = 0;
 454:../src/K6502_rw.h ****           }
 455:../src/K6502_rw.h ****           break;
 456:../src/K6502_rw.h **** 
 457:../src/K6502_rw.h ****         case 0x17:  /* 0x4017 */
 458:../src/K6502_rw.h ****           // Frame IRQ
 459:../src/K6502_rw.h ****           FrameStep = 0;
 460:../src/K6502_rw.h ****           if ( !( byData & 0xc0 ) )
 461:../src/K6502_rw.h ****           {
 462:../src/K6502_rw.h ****             FrameIRQ_Enable = 1;
 463:../src/K6502_rw.h ****           } else {
 464:../src/K6502_rw.h ****             FrameIRQ_Enable = 0;
 465:../src/K6502_rw.h ****           }
 466:../src/K6502_rw.h ****           break;
 467:../src/K6502_rw.h ****       }
 468:../src/K6502_rw.h **** 
 469:../src/K6502_rw.h ****       if ( wAddr <= 0x4017 )
 470:../src/K6502_rw.h ****       {
 471:../src/K6502_rw.h **** #ifndef APU_NONE
 472:../src/K6502_rw.h ****         /* Write to APU Register */
 473:../src/K6502_rw.h ****         APU_Reg[ wAddr & 0x1f ] = byData;
 474:../src/K6502_rw.h **** #endif /* APU_NONE */
 475:../src/K6502_rw.h ****       }
 476:../src/K6502_rw.h ****       else
 477:../src/K6502_rw.h ****       {
 478:../src/K6502_rw.h ****         /* Write to APU */
 479:../src/K6502_rw.h ****         MapperApu( wAddr, byData );
 480:../src/K6502_rw.h ****       }
 481:../src/K6502_rw.h ****       break;
 482:../src/K6502_rw.h **** 
 483:../src/K6502_rw.h ****     case 0x6000:  /* SRAM */
 484:../src/K6502_rw.h ****       SRAM[ wAddr & 0x1fff ] = byData;
 485:../src/K6502_rw.h **** 
 486:../src/K6502_rw.h ****       /* Write to SRAM, when no SRAM */
 487:../src/K6502_rw.h ****       if ( !ROM_SRAM )
 488:../src/K6502_rw.h ****       {
 489:../src/K6502_rw.h ****         MapperSram( wAddr, byData );
 490:../src/K6502_rw.h ****       }
 491:../src/K6502_rw.h ****       break;
 492:../src/K6502_rw.h **** 
 493:../src/K6502_rw.h ****     case 0x8000:  /* ROM BANK 0 */
 494:../src/K6502_rw.h ****     case 0xa000:  /* ROM BANK 1 */
 495:../src/K6502_rw.h ****     case 0xc000:  /* ROM BANK 2 */
 496:../src/K6502_rw.h ****     case 0xe000:  /* ROM BANK 3 */
 497:../src/K6502_rw.h ****       // Write to Mapper
 498:../src/K6502_rw.h ****       MapperWrite( wAddr, byData );
 499:../src/K6502_rw.h ****       break;
 500:../src/K6502_rw.h ****   }
 501:../src/K6502_rw.h **** }
  42              		.loc 1 501 0
  43 0028 B240     		lw	ra,12(sp)
  44              		.cfi_remember_state
  45              		.cfi_restore 1
  46 002a 2244     		lw	s0,8(sp)
  47              		.cfi_restore 8
  48 002c 9244     		lw	s1,4(sp)
  49              		.cfi_restore 9
  50 002e 4101     		addi	sp,sp,16
  51              		.cfi_def_cfa_offset 0
  52 0030 8280     		jr	ra
  53              	.LVL2:
  54              	.L4:
  55              		.cfi_restore_state
 229:../src/K6502_rw.h ****   {
  56              		.loc 1 229 0
  57 0032 A966     		li	a3,40960
  58 0034 638AD700 		beq	a5,a3,.L8
  59 0038 63FBF604 		bleu	a5,a3,.L64
  60 003c B166     		li	a3,49152
  61 003e 6385D700 		beq	a5,a3,.L8
  62 0042 B966     		li	a3,57344
  63 0044 E392D7FE 		bne	a5,a3,.L1
  64              	.L8:
 498:../src/K6502_rw.h ****       break;
  65              		.loc 1 498 0
  66 0048 B7070000 		lui	a5,%hi(MapperWrite)
  67 004c 03A30700 		lw	t1,%lo(MapperWrite)(a5)
  68              	.LVL3:
  69              	.L60:
  70 0050 2285     		mv	a0,s0
  71              		.loc 1 501 0
  72 0052 2244     		lw	s0,8(sp)
  73              		.cfi_remember_state
  74              		.cfi_restore 8
  75 0054 B240     		lw	ra,12(sp)
  76              		.cfi_restore 1
 498:../src/K6502_rw.h ****       break;
  77              		.loc 1 498 0
  78 0056 A685     		mv	a1,s1
  79              		.loc 1 501 0
  80 0058 9244     		lw	s1,4(sp)
  81              		.cfi_restore 9
  82 005a 4101     		addi	sp,sp,16
  83              		.cfi_def_cfa_offset 0
 498:../src/K6502_rw.h ****       break;
  84              		.loc 1 498 0
  85 005c 0283     		jr	t1
  86              	.LVL4:
  87              	.L5:
  88              		.cfi_restore_state
 236:../src/K6502_rw.h ****       {
  89              		.loc 1 236 0
  90 005e 13777500 		andi	a4,a0,7
  91 0062 B7070000 		lui	a5,%hi(.L11)
  92 0066 93870700 		addi	a5,a5,%lo(.L11)
  93 006a 0A07     		slli	a4,a4,2
  94 006c 3E97     		add	a4,a4,a5
  95 006e 1C43     		lw	a5,0(a4)
  96 0070 8287     		jr	a5
  97              		.section	.rodata.K6502_Write,"a",@progbits
  98              		.align	2
  99              		.align	2
 100              	.L11:
 101 0000 00000000 		.word	.L10
 102 0004 00000000 		.word	.L12
 103 0008 00000000 		.word	.L1
 104 000c 00000000 		.word	.L13
 105 0010 00000000 		.word	.L14
 106 0014 00000000 		.word	.L15
 107 0018 00000000 		.word	.L16
 108 001c 00000000 		.word	.L17
 109              		.section	.text.K6502_Write
 110              	.L63:
 232:../src/K6502_rw.h ****       break;
 111              		.loc 1 232 0
 112 0072 B7070000 		lui	a5,%hi(RAM)
 113 0076 1377F57F 		andi	a4,a0,2047
 114 007a 93870700 		addi	a5,a5,%lo(RAM)
 115 007e 3E97     		add	a4,a4,a5
 116 0080 2300B700 		sb	a1,0(a4)
 117              		.loc 1 501 0
 118 0084 B240     		lw	ra,12(sp)
 119              		.cfi_remember_state
 120              		.cfi_restore 1
 121 0086 2244     		lw	s0,8(sp)
 122              		.cfi_restore 8
 123 0088 9244     		lw	s1,4(sp)
 124              		.cfi_restore 9
 125 008a 4101     		addi	sp,sp,16
 126              		.cfi_def_cfa_offset 0
 127 008c 8280     		jr	ra
 128              	.L64:
 129              		.cfi_restore_state
 229:../src/K6502_rw.h ****   {
 130              		.loc 1 229 0
 131 008e A166     		li	a3,32768
 132 0090 E38CD7FA 		beq	a5,a3,.L8
 133 0094 51BF     		j	.L1
 134              	.L3:
 484:../src/K6502_rw.h **** 
 135              		.loc 1 484 0
 136 0096 8967     		li	a5,8192
 137 0098 FD17     		addi	a5,a5,-1
 138 009a 3377F500 		and	a4,a0,a5
 487:../src/K6502_rw.h ****       {
 139              		.loc 1 487 0
 140 009e B7060000 		lui	a3,%hi(ROM_SRAM)
 484:../src/K6502_rw.h **** 
 141              		.loc 1 484 0
 142 00a2 B7070000 		lui	a5,%hi(SRAM)
 143 00a6 93870700 		addi	a5,a5,%lo(SRAM)
 487:../src/K6502_rw.h ****       {
 144              		.loc 1 487 0
 145 00aa 83C60600 		lbu	a3,%lo(ROM_SRAM)(a3)
 484:../src/K6502_rw.h **** 
 146              		.loc 1 484 0
 147 00ae 3E97     		add	a4,a4,a5
 148 00b0 2300B700 		sb	a1,0(a4)
 487:../src/K6502_rw.h ****       {
 149              		.loc 1 487 0
 150 00b4 B5FA     		bnez	a3,.L1
 151              		.loc 1 501 0
 152 00b6 2244     		lw	s0,8(sp)
 153              		.cfi_remember_state
 154              		.cfi_restore 8
 489:../src/K6502_rw.h ****       }
 155              		.loc 1 489 0
 156 00b8 B7070000 		lui	a5,%hi(MapperSram)
 157              		.loc 1 501 0
 158 00bc B240     		lw	ra,12(sp)
 159              		.cfi_restore 1
 160 00be 9244     		lw	s1,4(sp)
 161              		.cfi_restore 9
 489:../src/K6502_rw.h ****       }
 162              		.loc 1 489 0
 163 00c0 03A30700 		lw	t1,%lo(MapperSram)(a5)
 164              		.loc 1 501 0
 165 00c4 4101     		addi	sp,sp,16
 166              		.cfi_def_cfa_offset 0
 498:../src/K6502_rw.h ****       break;
 167              		.loc 1 498 0
 168 00c6 0283     		jr	t1
 169              	.LVL5:
 170              	.L6:
 171              		.cfi_restore_state
 369:../src/K6502_rw.h ****       {
 172              		.loc 1 369 0
 173 00c8 9377F501 		andi	a5,a0,31
 174 00cc 5947     		li	a4,22
 175 00ce 638BE72C 		beq	a5,a4,.L33
 176 00d2 5D47     		li	a4,23
 177 00d4 638BE72A 		beq	a5,a4,.L34
 178 00d8 5147     		li	a4,20
 179 00da 6381E720 		beq	a5,a4,.L65
 180              	.LVL6:
 181              	.L32:
 469:../src/K6502_rw.h ****       {
 182              		.loc 1 469 0
 183 00de 9167     		li	a5,16384
 184 00e0 DD07     		addi	a5,a5,23
 185 00e2 E3F387F4 		bleu	s0,a5,.L1
 479:../src/K6502_rw.h ****       }
 186              		.loc 1 479 0
 187 00e6 B7070000 		lui	a5,%hi(MapperApu)
 188 00ea 03A30700 		lw	t1,%lo(MapperApu)(a5)
 189 00ee 8DB7     		j	.L60
 190              	.LVL7:
 191              	.L16:
 299:../src/K6502_rw.h ****           {
 192              		.loc 1 299 0
 193 00f0 B7060000 		lui	a3,%hi(PPU_Latch_Flag)
 194 00f4 03C70600 		lbu	a4,%lo(PPU_Latch_Flag)(a3)
 195 00f8 B7050000 		lui	a1,%hi(PPU_Temp)
 196              	.LVL8:
 197 00fc 83970500 		lh	a5,%lo(PPU_Temp)(a1)
 198 0100 6304072C 		beqz	a4,.L25
 305:../src/K6502_rw.h **** 	    PPU_Addr = PPU_Temp;
 199              		.loc 1 305 0
 200 0104 93F707F0 		andi	a5,a5,-256
 201 0108 C58F     		or	a5,a5,s1
 308:../src/K6502_rw.h **** 	      InfoNES_SetupScr();
 202              		.loc 1 308 0
 203 010a 37060000 		lui	a2,%hi(PPU_R2)
 305:../src/K6502_rw.h **** 	    PPU_Addr = PPU_Temp;
 204              		.loc 1 305 0
 205 010e C207     		slli	a5,a5,16
 206 0110 C183     		srli	a5,a5,16
 308:../src/K6502_rw.h **** 	      InfoNES_SetupScr();
 207              		.loc 1 308 0
 208 0112 03060600 		lb	a2,%lo(PPU_R2)(a2)
 305:../src/K6502_rw.h **** 	    PPU_Addr = PPU_Temp;
 209              		.loc 1 305 0
 210 0116 2390F500 		sh	a5,%lo(PPU_Temp)(a1)
 306:../src/K6502_rw.h **** #endif
 211              		.loc 1 306 0
 212 011a B7050000 		lui	a1,%hi(PPU_Addr)
 213 011e 2390F500 		sh	a5,%lo(PPU_Addr)(a1)
 308:../src/K6502_rw.h **** 	      InfoNES_SetupScr();
 214              		.loc 1 308 0
 215 0122 63490600 		bltz	a2,.L26
 309:../src/K6502_rw.h **** 	    }
 216              		.loc 1 309 0
 217 0126 A987     		srai	a5,a5,10
 218 0128 8D8B     		andi	a5,a5,3
 219 012a A107     		addi	a5,a5,8
 220 012c 37060000 		lui	a2,%hi(PPU_NameTableBank)
 221 0130 2300F600 		sb	a5,%lo(PPU_NameTableBank)(a2)
 222              	.LVL9:
 223              	.L26:
 322:../src/K6502_rw.h ****           break;
 224              		.loc 1 322 0
 225 0134 13471700 		xori	a4,a4,1
 226 0138 2380E600 		sb	a4,%lo(PPU_Latch_Flag)(a3)
 323:../src/K6502_rw.h **** 
 227              		.loc 1 323 0
 228 013c F5B5     		j	.L1
 229              	.LVL10:
 230              	.L15:
 272:../src/K6502_rw.h ****           {
 231              		.loc 1 272 0
 232 013e B7060000 		lui	a3,%hi(PPU_Latch_Flag)
 233 0142 03C50600 		lbu	a0,%lo(PPU_Latch_Flag)(a3)
 234              	.LVL11:
 235 0146 37080000 		lui	a6,%hi(PPU_Temp)
 236 014a 83170800 		lh	a5,%lo(PPU_Temp)(a6)
 237 014e 6308052E 		beqz	a0,.L22
 275:../src/K6502_rw.h **** 	    if ( byData > 239 ) PPU_NameTableBank ^= NAME_TABLE_V_MASK; 
 238              		.loc 1 275 0
 239 0152 1307F00E 		li	a4,239
 240 0156 6378B730 		bleu	a1,a4,.L23
 276:../src/K6502_rw.h ****             PPU_Scr_V_Byte_Next = PPU_Scr_V_Next >> 3;
 241              		.loc 1 276 0 discriminator 1
 242 015a B7080000 		lui	a7,%hi(PPU_NameTableBank)
 243 015e 03C70800 		lbu	a4,%lo(PPU_NameTableBank)(a7)
 275:../src/K6502_rw.h **** 	    if ( byData > 239 ) PPU_NameTableBank ^= NAME_TABLE_V_MASK; 
 244              		.loc 1 275 0 discriminator 1
 245 0162 C105     		addi	a1,a1,16
 246              	.LVL12:
 247 0164 93F5F50F 		andi	a1,a1,0xff
 276:../src/K6502_rw.h ****             PPU_Scr_V_Byte_Next = PPU_Scr_V_Next >> 3;
 248              		.loc 1 276 0 discriminator 1
 249 0168 13472700 		xori	a4,a4,2
 275:../src/K6502_rw.h **** 	    if ( byData > 239 ) PPU_NameTableBank ^= NAME_TABLE_V_MASK; 
 250              		.loc 1 275 0 discriminator 1
 251 016c 37030000 		lui	t1,%hi(PPU_Scr_V_Next)
 252 0170 2300B300 		sb	a1,%lo(PPU_Scr_V_Next)(t1)
 276:../src/K6502_rw.h ****             PPU_Scr_V_Byte_Next = PPU_Scr_V_Next >> 3;
 253              		.loc 1 276 0 discriminator 1
 254 0174 2380E800 		sb	a4,%lo(PPU_NameTableBank)(a7)
 255              	.L45:
 281:../src/K6502_rw.h **** 	    PPU_Temp = ( PPU_Temp & 0x8FFF ) | ( ( ( (WORD)byData ) & 0x07 ) << 12);
 256              		.loc 1 281 0
 257 0178 13972400 		slli	a4,s1,2
 258 017c 1377073E 		andi	a4,a4,992
 259 0180 93F7F7C1 		andi	a5,a5,-993
 282:../src/K6502_rw.h ****           }
 260              		.loc 1 282 0
 261 0184 6576     		li	a2,-28672
 281:../src/K6502_rw.h **** 	    PPU_Temp = ( PPU_Temp & 0x8FFF ) | ( ( ( (WORD)byData ) & 0x07 ) << 12);
 262              		.loc 1 281 0
 263 0186 D98F     		or	a5,a4,a5
 282:../src/K6502_rw.h ****           }
 264              		.loc 1 282 0
 265 0188 7D16     		addi	a2,a2,-1
 266 018a F18F     		and	a5,a5,a2
 267 018c 1397C400 		slli	a4,s1,12
 268 0190 1D66     		li	a2,28672
 269 0192 718F     		and	a4,a4,a2
 270 0194 D98F     		or	a5,a5,a4
 277:../src/K6502_rw.h ****             PPU_Scr_V_Bit_Next = PPU_Scr_V_Next & 7;
 271              		.loc 1 277 0
 272 0196 13D63500 		srli	a2,a1,3
 273 019a 37070000 		lui	a4,%hi(PPU_Scr_V_Byte_Next)
 278:../src/K6502_rw.h **** 
 274              		.loc 1 278 0
 275 019e 9D89     		andi	a1,a1,7
 277:../src/K6502_rw.h ****             PPU_Scr_V_Bit_Next = PPU_Scr_V_Next & 7;
 276              		.loc 1 277 0
 277 01a0 2300C700 		sb	a2,%lo(PPU_Scr_V_Byte_Next)(a4)
 278:../src/K6502_rw.h **** 
 278              		.loc 1 278 0
 279 01a4 37070000 		lui	a4,%hi(PPU_Scr_V_Bit_Next)
 280 01a8 2300B700 		sb	a1,%lo(PPU_Scr_V_Bit_Next)(a4)
 282:../src/K6502_rw.h ****           }
 281              		.loc 1 282 0
 282 01ac 2310F800 		sh	a5,%lo(PPU_Temp)(a6)
 283              	.L24:
 294:../src/K6502_rw.h ****           break;
 284              		.loc 1 294 0
 285 01b0 93471500 		xori	a5,a0,1
 286 01b4 2380F600 		sb	a5,%lo(PPU_Latch_Flag)(a3)
 295:../src/K6502_rw.h **** 
 287              		.loc 1 295 0
 288 01b8 85BD     		j	.L1
 289              	.LVL13:
 290              	.L14:
 267:../src/K6502_rw.h ****           break;
 291              		.loc 1 267 0
 292 01ba B7060000 		lui	a3,%hi(PPU_R3)
 293 01be 83C70600 		lbu	a5,%lo(PPU_R3)(a3)
 294 01c2 37070000 		lui	a4,%hi(SPRRAM)
 295 01c6 13070700 		addi	a4,a4,%lo(SPRRAM)
 296 01ca 93851700 		addi	a1,a5,1
 297              	.LVL14:
 298 01ce BA97     		add	a5,a5,a4
 299 01d0 2380B600 		sb	a1,%lo(PPU_R3)(a3)
 300 01d4 23809700 		sb	s1,0(a5)
 268:../src/K6502_rw.h **** 
 301              		.loc 1 268 0
 302 01d8 81BD     		j	.L1
 303              	.LVL15:
 304              	.L13:
 262:../src/K6502_rw.h ****           break;
 305              		.loc 1 262 0
 306 01da B7070000 		lui	a5,%hi(PPU_R3)
 307 01de 2380B700 		sb	a1,%lo(PPU_R3)(a5)
 263:../src/K6502_rw.h **** 
 308              		.loc 1 263 0
 309 01e2 99B5     		j	.L1
 310              	.L10:
 239:../src/K6502_rw.h ****           PPU_Increment = ( PPU_R0 & R0_INC_ADDR ) ? 32 : 1;
 311              		.loc 1 239 0
 312 01e4 B7070000 		lui	a5,%hi(PPU_R0)
 313 01e8 2380B700 		sb	a1,%lo(PPU_R0)(a5)
 240:../src/K6502_rw.h ****           PPU_NameTableBank = NAME_TABLE0 + ( PPU_R0 & R0_NAME_ADDR );
 314              		.loc 1 240 0
 315 01ec 93F74500 		andi	a5,a1,4
 316 01f0 0547     		li	a4,1
 317 01f2 99C3     		beqz	a5,.L18
 318 01f4 13070002 		li	a4,32
 319              	.L18:
 241:../src/K6502_rw.h ****           PPU_BG_Base = ( PPU_R0 & R0_BG_ADDR ) ? ChrBuf + 256 * 64 : ChrBuf;
 320              		.loc 1 241 0 discriminator 4
 321 01f8 93F73400 		andi	a5,s1,3
 240:../src/K6502_rw.h ****           PPU_NameTableBank = NAME_TABLE0 + ( PPU_R0 & R0_NAME_ADDR );
 322              		.loc 1 240 0 discriminator 4
 323 01fc B7060000 		lui	a3,%hi(PPU_Increment)
 241:../src/K6502_rw.h ****           PPU_BG_Base = ( PPU_R0 & R0_BG_ADDR ) ? ChrBuf + 256 * 64 : ChrBuf;
 324              		.loc 1 241 0 discriminator 4
 325 0200 A107     		addi	a5,a5,8
 240:../src/K6502_rw.h ****           PPU_NameTableBank = NAME_TABLE0 + ( PPU_R0 & R0_NAME_ADDR );
 326              		.loc 1 240 0 discriminator 4
 327 0202 2390E600 		sh	a4,%lo(PPU_Increment)(a3)
 241:../src/K6502_rw.h ****           PPU_BG_Base = ( PPU_R0 & R0_BG_ADDR ) ? ChrBuf + 256 * 64 : ChrBuf;
 328              		.loc 1 241 0 discriminator 4
 329 0206 37070000 		lui	a4,%hi(PPU_NameTableBank)
 330 020a 2300F700 		sb	a5,%lo(PPU_NameTableBank)(a4)
 242:../src/K6502_rw.h ****           PPU_SP_Base = ( PPU_R0 & R0_SP_ADDR ) ? ChrBuf + 256 * 64 : ChrBuf;
 331              		.loc 1 242 0 discriminator 4
 332 020e 93F70401 		andi	a5,s1,16
 333 0212 63810722 		beqz	a5,.L47
 242:../src/K6502_rw.h ****           PPU_SP_Base = ( PPU_R0 & R0_SP_ADDR ) ? ChrBuf + 256 * 64 : ChrBuf;
 334              		.loc 1 242 0 is_stmt 0
 335 0216 B7470000 		lui	a5,%hi(ChrBuf+16384)
 336 021a 93870700 		addi	a5,a5,%lo(ChrBuf+16384)
 337              	.L19:
 242:../src/K6502_rw.h ****           PPU_SP_Base = ( PPU_R0 & R0_SP_ADDR ) ? ChrBuf + 256 * 64 : ChrBuf;
 338              		.loc 1 242 0 discriminator 4
 339 021e 37070000 		lui	a4,%hi(PPU_BG_Base)
 340 0222 2320F700 		sw	a5,%lo(PPU_BG_Base)(a4)
 243:../src/K6502_rw.h ****           PPU_SP_Height = ( PPU_R0 & R0_SP_SIZE ) ? 16 : 8;
 341              		.loc 1 243 0 is_stmt 1 discriminator 4
 342 0226 93F78400 		andi	a5,s1,8
 343 022a 63800720 		beqz	a5,.L48
 243:../src/K6502_rw.h ****           PPU_SP_Height = ( PPU_R0 & R0_SP_SIZE ) ? 16 : 8;
 344              		.loc 1 243 0 is_stmt 0
 345 022e B7470000 		lui	a5,%hi(ChrBuf+16384)
 346 0232 93870700 		addi	a5,a5,%lo(ChrBuf+16384)
 347              	.L20:
 243:../src/K6502_rw.h ****           PPU_SP_Height = ( PPU_R0 & R0_SP_SIZE ) ? 16 : 8;
 348              		.loc 1 243 0 discriminator 4
 349 0236 37070000 		lui	a4,%hi(PPU_SP_Base)
 350 023a 2320F700 		sw	a5,%lo(PPU_SP_Base)(a4)
 244:../src/K6502_rw.h **** 
 351              		.loc 1 244 0 is_stmt 1 discriminator 4
 352 023e 93F70402 		andi	a5,s1,32
 353 0242 A145     		li	a1,8
 354              	.LVL16:
 355 0244 91C3     		beqz	a5,.L21
 244:../src/K6502_rw.h **** 
 356              		.loc 1 244 0 is_stmt 0
 357 0246 C145     		li	a1,16
 358              	.L21:
 247:../src/K6502_rw.h ****           break;
 359              		.loc 1 247 0 is_stmt 1 discriminator 4
 360 0248 B7060000 		lui	a3,%hi(PPU_Temp)
 361 024c 83D70600 		lhu	a5,%lo(PPU_Temp)(a3)
 362 0250 7D77     		li	a4,-4096
 363 0252 1307F73F 		addi	a4,a4,1023
 364 0256 F98F     		and	a5,a5,a4
 365 0258 0567     		li	a4,4096
 366 025a 130707C0 		addi	a4,a4,-1024
 367 025e 1396A400 		slli	a2,s1,10
 368 0262 798E     		and	a2,a2,a4
 369 0264 D18F     		or	a5,a5,a2
 244:../src/K6502_rw.h **** 
 370              		.loc 1 244 0 discriminator 4
 371 0266 37070000 		lui	a4,%hi(PPU_SP_Height)
 372 026a 2310B700 		sh	a1,%lo(PPU_SP_Height)(a4)
 247:../src/K6502_rw.h ****           break;
 373              		.loc 1 247 0 discriminator 4
 374 026e 2390F600 		sh	a5,%lo(PPU_Temp)(a3)
 248:../src/K6502_rw.h **** 
 375              		.loc 1 248 0 discriminator 4
 376 0272 5DBB     		j	.L1
 377              	.LVL17:
 378              	.L17:
 379              	.LBB115:
 327:../src/K6502_rw.h ****             
 380              		.loc 1 327 0
 381 0274 37050000 		lui	a0,%hi(PPU_Addr)
 382              	.LVL18:
 330:../src/K6502_rw.h ****             addr &= 0x3fff;
 383              		.loc 1 330 0
 384 0278 B7070000 		lui	a5,%hi(PPU_Increment)
 327:../src/K6502_rw.h ****             
 385              		.loc 1 327 0
 386 027c 03570500 		lhu	a4,%lo(PPU_Addr)(a0)
 387              	.LVL19:
 330:../src/K6502_rw.h ****             addr &= 0x3fff;
 388              		.loc 1 330 0
 389 0280 83D50700 		lhu	a1,%lo(PPU_Increment)(a5)
 390              	.LVL20:
 331:../src/K6502_rw.h **** 
 391              		.loc 1 331 0
 392 0284 9166     		li	a3,16384
 393 0286 9387F6FF 		addi	a5,a3,-1
 330:../src/K6502_rw.h ****             addr &= 0x3fff;
 394              		.loc 1 330 0
 395 028a BA95     		add	a1,a4,a1
 396 028c 2310B500 		sh	a1,%lo(PPU_Addr)(a0)
 331:../src/K6502_rw.h **** 
 397              		.loc 1 331 0
 398 0290 F98F     		and	a5,a4,a5
 399              	.LVL21:
 334:../src/K6502_rw.h ****             {
 400              		.loc 1 334 0
 401 0292 8965     		li	a1,8192
 402 0294 63F6B714 		bgeu	a5,a1,.L27
 403 0298 A983     		srli	a5,a5,10
 404              	.LVL22:
 405 029a B7060000 		lui	a3,%hi(PPUBANK)
 406              	.LVL23:
 407 029e 93952700 		slli	a1,a5,2
 408 02a2 93860600 		addi	a3,a3,%lo(PPUBANK)
 409 02a6 B695     		add	a1,a3,a1
 334:../src/K6502_rw.h ****             {
 410              		.loc 1 334 0 is_stmt 0 discriminator 1
 411 02a8 37050000 		lui	a0,%hi(byVramWriteEnable)
 412 02ac 8C41     		lw	a1,0(a1)
 413 02ae 03450500 		lbu	a0,%lo(byVramWriteEnable)(a0)
 414 02b2 1377F73F 		andi	a4,a4,1023
 415              	.LVL24:
 416 02b6 BA95     		add	a1,a1,a4
 417 02b8 631C051A 		bnez	a0,.L66
 418              	.L28:
 345:../src/K6502_rw.h ****             }
 419              		.loc 1 345 0 is_stmt 1
 420 02bc 93C74700 		xori	a5,a5,4
 421 02c0 8A07     		slli	a5,a5,2
 344:../src/K6502_rw.h ****               PPUBANK[ ( addr ^ 0x1000 ) >> 10 ][ addr & 0x3ff ] = byData;
 422              		.loc 1 344 0
 423 02c2 23809500 		sb	s1,0(a1)
 345:../src/K6502_rw.h ****             }
 424              		.loc 1 345 0
 425 02c6 B697     		add	a5,a3,a5
 426 02c8 9C43     		lw	a5,0(a5)
 427 02ca 3E97     		add	a4,a5,a4
 428 02cc 23009700 		sb	s1,0(a4)
 429 02d0 A1BB     		j	.L1
 430              	.LVL25:
 431              	.L12:
 432              	.LBE115:
 251:../src/K6502_rw.h ****           break;
 433              		.loc 1 251 0
 434 02d2 B7070000 		lui	a5,%hi(PPU_R1)
 435 02d6 2380B700 		sb	a1,%lo(PPU_R1)(a5)
 252:../src/K6502_rw.h **** 
 436              		.loc 1 252 0
 437 02da B9B3     		j	.L1
 438              	.L65:
 400:../src/K6502_rw.h ****           {
 439              		.loc 1 400 0
 440 02dc 93D75500 		srli	a5,a1,5
 441 02e0 37070000 		lui	a4,%hi(.L37)
 442 02e4 8A07     		slli	a5,a5,2
 443 02e6 13070700 		addi	a4,a4,%lo(.L37)
 444 02ea BA97     		add	a5,a5,a4
 445 02ec 9C43     		lw	a5,0(a5)
 446 02ee 8287     		jr	a5
 447              		.section	.rodata.K6502_Write
 448              		.align	2
 449              		.align	2
 450              	.L37:
 451 0020 00000000 		.word	.L36
 452 0024 00000000 		.word	.L32
 453 0028 00000000 		.word	.L32
 454 002c 00000000 		.word	.L38
 455 0030 00000000 		.word	.L39
 456 0034 00000000 		.word	.L40
 457 0038 00000000 		.word	.L41
 458 003c 00000000 		.word	.L42
 459              		.section	.text.K6502_Write
 460              	.L42:
 423:../src/K6502_rw.h ****               break;
 461              		.loc 1 423 0
 462 02f0 B7070000 		lui	a5,%hi(ROMBANK3)
 463 02f4 83A50700 		lw	a1,%lo(ROMBANK3)(a5)
 464              	.LVL26:
 465              	.L59:
 466 02f8 0967     		li	a4,8192
 467 02fa 93978400 		slli	a5,s1,8
 468 02fe 7D17     		addi	a4,a4,-1
 469 0300 F98F     		and	a5,a5,a4
 470 0302 37050000 		lui	a0,%hi(SPRRAM)
 471              	.LVL27:
 472 0306 13060010 		li	a2,256
 473 030a BE95     		add	a1,a1,a5
 474 030c 13050500 		addi	a0,a0,%lo(SPRRAM)
 475 0310 97000000 		call	InfoNES_MemoryCopy
 475      E7800000 
 476              	.LVL28:
 424:../src/K6502_rw.h ****           }
 477              		.loc 1 424 0
 478 0318 D9B3     		j	.L32
 479              	.LVL29:
 480              	.L41:
 419:../src/K6502_rw.h ****               break;
 481              		.loc 1 419 0
 482 031a B7070000 		lui	a5,%hi(ROMBANK2)
 483 031e 83A50700 		lw	a1,%lo(ROMBANK2)(a5)
 484              	.LVL30:
 485 0322 D9BF     		j	.L59
 486              	.LVL31:
 487              	.L40:
 415:../src/K6502_rw.h ****               break;
 488              		.loc 1 415 0
 489 0324 B7070000 		lui	a5,%hi(ROMBANK1)
 490 0328 83A50700 		lw	a1,%lo(ROMBANK1)(a5)
 491              	.LVL32:
 492 032c F1B7     		j	.L59
 493              	.LVL33:
 494              	.L39:
 411:../src/K6502_rw.h ****               break;
 495              		.loc 1 411 0
 496 032e B7070000 		lui	a5,%hi(ROMBANK0)
 497 0332 83A50700 		lw	a1,%lo(ROMBANK0)(a5)
 498              	.LVL34:
 499 0336 C9B7     		j	.L59
 500              	.LVL35:
 501              	.L38:
 407:../src/K6502_rw.h ****               break;
 502              		.loc 1 407 0
 503 0338 0967     		li	a4,8192
 504 033a 93978500 		slli	a5,a1,8
 505 033e 7D17     		addi	a4,a4,-1
 506 0340 B7050000 		lui	a1,%hi(SRAM)
 507              	.LVL36:
 508 0344 F98F     		and	a5,a5,a4
 509 0346 93850500 		addi	a1,a1,%lo(SRAM)
 510 034a 37050000 		lui	a0,%hi(SPRRAM)
 511              	.LVL37:
 512 034e 13060010 		li	a2,256
 513 0352 BE95     		add	a1,a1,a5
 514 0354 13050500 		addi	a0,a0,%lo(SPRRAM)
 515 0358 97000000 		call	InfoNES_MemoryCopy
 515      E7800000 
 516              	.LVL38:
 408:../src/K6502_rw.h **** 
 517              		.loc 1 408 0
 518 0360 BDBB     		j	.L32
 519              	.LVL39:
 520              	.L36:
 403:../src/K6502_rw.h ****               break;
 521              		.loc 1 403 0
 522 0362 93978500 		slli	a5,a1,8
 523 0366 B7050000 		lui	a1,%hi(RAM)
 524              	.LVL40:
 525 036a 93F7F77F 		andi	a5,a5,2047
 526 036e 93850500 		addi	a1,a1,%lo(RAM)
 527 0372 37050000 		lui	a0,%hi(SPRRAM)
 528              	.LVL41:
 529 0376 13060010 		li	a2,256
 530 037a BE95     		add	a1,a1,a5
 531 037c 13050500 		addi	a0,a0,%lo(SPRRAM)
 532 0380 97000000 		call	InfoNES_MemoryCopy
 532      E7800000 
 533              	.LVL42:
 404:../src/K6502_rw.h **** 
 534              		.loc 1 404 0
 535 0388 99BB     		j	.L32
 536              	.LVL43:
 537              	.L34:
 459:../src/K6502_rw.h ****           if ( !( byData & 0xc0 ) )
 538              		.loc 1 459 0
 539 038a B7070000 		lui	a5,%hi(FrameStep)
 540 038e 23900700 		sh	zero,%lo(FrameStep)(a5)
 460:../src/K6502_rw.h ****           {
 541              		.loc 1 460 0
 542 0392 93F7050C 		andi	a5,a1,192
 543 0396 85E7     		bnez	a5,.L43
 462:../src/K6502_rw.h ****           } else {
 544              		.loc 1 462 0
 545 0398 B7070000 		lui	a5,%hi(FrameIRQ_Enable)
 546 039c 0547     		li	a4,1
 547 039e 2380E700 		sb	a4,%lo(FrameIRQ_Enable)(a5)
 548 03a2 35BB     		j	.L32
 549              	.L33:
 449:../src/K6502_rw.h **** #endif /* APU_NONE */
 550              		.loc 1 449 0
 551 03a4 93F71500 		andi	a5,a1,1
 552 03a8 E38B07D2 		beqz	a5,.L32
 452:../src/K6502_rw.h ****             PAD2_Bit = 0;
 553              		.loc 1 452 0
 554 03ac B7070000 		lui	a5,%hi(PAD1_Bit)
 555 03b0 23A00700 		sw	zero,%lo(PAD1_Bit)(a5)
 453:../src/K6502_rw.h ****           }
 556              		.loc 1 453 0
 557 03b4 B7070000 		lui	a5,%hi(PAD2_Bit)
 558 03b8 23A00700 		sw	zero,%lo(PAD2_Bit)(a5)
 559 03bc 0DB3     		j	.L32
 560              	.L43:
 464:../src/K6502_rw.h ****           }
 561              		.loc 1 464 0
 562 03be B7070000 		lui	a5,%hi(FrameIRQ_Enable)
 563 03c2 23800700 		sb	zero,%lo(FrameIRQ_Enable)(a5)
 564 03c6 21BB     		j	.L32
 565              	.LVL44:
 566              	.L25:
 319:../src/K6502_rw.h **** #endif            
 567              		.loc 1 319 0
 568 03c8 1165     		li	a0,16384
 569              	.LVL45:
 570 03ca 13968400 		slli	a2,s1,8
 571 03ce 130505F0 		addi	a0,a0,-256
 572 03d2 698E     		and	a2,a2,a0
 573 03d4 93F7F70F 		andi	a5,a5,255
 574 03d8 D18F     		or	a5,a2,a5
 575 03da 2390F500 		sh	a5,%lo(PPU_Temp)(a1)
 576 03de 99BB     		j	.L26
 577              	.LVL46:
 578              	.L27:
 579              	.LBB116:
 341:../src/K6502_rw.h ****             {
 580              		.loc 1 341 0
 581 03e0 9385F6EF 		addi	a1,a3,-257
 582 03e4 63F8F510 		bleu	a5,a1,.L67
 348:../src/K6502_rw.h ****             {
 583              		.loc 1 348 0
 584 03e8 9375F700 		andi	a1,a4,15
 585 03ec D9CD     		beqz	a1,.L68
 357:../src/K6502_rw.h ****             {
 586              		.loc 1 357 0
 587 03ee 93763700 		andi	a3,a4,3
 588 03f2 E38B06C2 		beqz	a3,.L1
 361:../src/K6502_rw.h ****             }
 589              		.loc 1 361 0
 590 03f6 B7050000 		lui	a1,%hi(NesPalette)
 591 03fa 93850500 		addi	a1,a1,%lo(NesPalette)
 592 03fe 93961400 		slli	a3,s1,1
 593 0402 AE96     		add	a3,a3,a1
 594 0404 03D50600 		lhu	a0,0(a3)
 595 0408 7D8B     		andi	a4,a4,31
 360:../src/K6502_rw.h ****               PalTable[ addr & 0x1f ] = NesPalette[ byData ];
 596              		.loc 1 360 0
 597 040a B7050000 		lui	a1,%hi(PPURAM)
 361:../src/K6502_rw.h ****             }
 598              		.loc 1 361 0
 599 040e B7060000 		lui	a3,%hi(PalTable)
 600 0412 0607     		slli	a4,a4,1
 360:../src/K6502_rw.h ****               PalTable[ addr & 0x1f ] = NesPalette[ byData ];
 601              		.loc 1 360 0
 602 0414 93850500 		addi	a1,a1,%lo(PPURAM)
 361:../src/K6502_rw.h ****             }
 603              		.loc 1 361 0
 604 0418 93860600 		addi	a3,a3,%lo(PalTable)
 360:../src/K6502_rw.h ****               PalTable[ addr & 0x1f ] = NesPalette[ byData ];
 605              		.loc 1 360 0
 606 041c AE97     		add	a5,a5,a1
 607              	.LVL47:
 361:../src/K6502_rw.h ****             }
 608              		.loc 1 361 0
 609 041e 3697     		add	a4,a4,a3
 360:../src/K6502_rw.h ****               PalTable[ addr & 0x1f ] = NesPalette[ byData ];
 610              		.loc 1 360 0
 611 0420 23809700 		sb	s1,0(a5)
 361:../src/K6502_rw.h ****             }
 612              		.loc 1 361 0
 613 0424 2310A700 		sh	a0,0(a4)
 614 0428 01B1     		j	.L1
 615              	.LVL48:
 616              	.L48:
 617              	.LBE116:
 243:../src/K6502_rw.h ****           PPU_SP_Height = ( PPU_R0 & R0_SP_SIZE ) ? 16 : 8;
 618              		.loc 1 243 0
 619 042a B7070000 		lui	a5,%hi(ChrBuf)
 620 042e 93870700 		addi	a5,a5,%lo(ChrBuf)
 621 0432 11B5     		j	.L20
 622              	.L47:
 242:../src/K6502_rw.h ****           PPU_SP_Base = ( PPU_R0 & R0_SP_ADDR ) ? ChrBuf + 256 * 64 : ChrBuf;
 623              		.loc 1 242 0
 624 0434 B7070000 		lui	a5,%hi(ChrBuf)
 625 0438 93870700 		addi	a5,a5,%lo(ChrBuf)
 626 043c CDB3     		j	.L19
 627              	.LVL49:
 628              	.L22:
 288:../src/K6502_rw.h ****             PPU_Scr_H_Bit_Next = PPU_Scr_H_Next & 7;
 629              		.loc 1 288 0
 630 043e 13D73500 		srli	a4,a1,3
 292:../src/K6502_rw.h ****           }
 631              		.loc 1 292 0
 632 0442 819B     		andi	a5,a5,-32
 288:../src/K6502_rw.h ****             PPU_Scr_H_Bit_Next = PPU_Scr_H_Next & 7;
 633              		.loc 1 288 0
 634 0444 37060000 		lui	a2,%hi(PPU_Scr_H_Byte_Next)
 292:../src/K6502_rw.h ****           }
 635              		.loc 1 292 0
 636 0448 D98F     		or	a5,a5,a4
 289:../src/K6502_rw.h **** 
 637              		.loc 1 289 0
 638 044a 9D89     		andi	a1,a1,7
 639              	.LVL50:
 287:../src/K6502_rw.h ****             PPU_Scr_H_Byte_Next = PPU_Scr_H_Next >> 3;
 640              		.loc 1 287 0
 641 044c B7080000 		lui	a7,%hi(PPU_Scr_H_Next)
 288:../src/K6502_rw.h ****             PPU_Scr_H_Bit_Next = PPU_Scr_H_Next & 7;
 642              		.loc 1 288 0
 643 0450 2300E600 		sb	a4,%lo(PPU_Scr_H_Byte_Next)(a2)
 289:../src/K6502_rw.h **** 
 644              		.loc 1 289 0
 645 0454 37070000 		lui	a4,%hi(PPU_Scr_H_Bit_Next)
 287:../src/K6502_rw.h ****             PPU_Scr_H_Byte_Next = PPU_Scr_H_Next >> 3;
 646              		.loc 1 287 0
 647 0458 23809800 		sb	s1,%lo(PPU_Scr_H_Next)(a7)
 289:../src/K6502_rw.h **** 
 648              		.loc 1 289 0
 649 045c 2300B700 		sb	a1,%lo(PPU_Scr_H_Bit_Next)(a4)
 292:../src/K6502_rw.h ****           }
 650              		.loc 1 292 0
 651 0460 2310F800 		sh	a5,%lo(PPU_Temp)(a6)
 652 0464 B1B3     		j	.L24
 653              	.LVL51:
 654              	.L23:
 275:../src/K6502_rw.h **** 	    if ( byData > 239 ) PPU_NameTableBank ^= NAME_TABLE_V_MASK; 
 655              		.loc 1 275 0
 656 0466 37070000 		lui	a4,%hi(PPU_Scr_V_Next)
 657 046a 2300B700 		sb	a1,%lo(PPU_Scr_V_Next)(a4)
 658 046e 29B3     		j	.L45
 659              	.LVL52:
 660              	.L66:
 661              	.LBB117:
 337:../src/K6502_rw.h ****               PPUBANK[ addr >> 10 ][ addr & 0x3ff ] = byData;
 662              		.loc 1 337 0
 663 0470 B7060000 		lui	a3,%hi(ChrBufUpdate)
 664 0474 03C50600 		lbu	a0,%lo(ChrBufUpdate)(a3)
 665 0478 0547     		li	a4,1
 666 047a B317F700 		sll	a5,a4,a5
 667 047e C98F     		or	a5,a5,a0
 668 0480 2380F600 		sb	a5,%lo(ChrBufUpdate)(a3)
 338:../src/K6502_rw.h ****             }
 669              		.loc 1 338 0
 670 0484 23809500 		sb	s1,0(a1)
 671 0488 45B6     		j	.L1
 672              	.LVL53:
 673              	.L68:
 674              	.LBE117:
 675              	.LBB118:
 676              	.LBB119:
 354:../src/K6502_rw.h ****             }
 677              		.loc 1 354 0
 678 048a 37070000 		lui	a4,%hi(NesPalette)
 679 048e 13070700 		addi	a4,a4,%lo(NesPalette)
 680 0492 93971400 		slli	a5,s1,1
 681              	.LVL54:
 682 0496 BA97     		add	a5,a5,a4
 683 0498 83D70700 		lhu	a5,0(a5)
 352:../src/K6502_rw.h ****               PalTable[ 0x00 ] = PalTable[ 0x04 ] = PalTable[ 0x08 ] = PalTable[ 0x0c ] =
 684              		.loc 1 352 0
 685 049c 37070000 		lui	a4,%hi(PPURAM)
 686 04a0 13070700 		addi	a4,a4,%lo(PPURAM)
 687 04a4 BA96     		add	a3,a3,a4
 354:../src/K6502_rw.h ****             }
 688              		.loc 1 354 0
 689 04a6 B7050000 		lui	a1,%hi(PalTable)
 690 04aa 2167     		li	a4,32768
 691 04ac D98F     		or	a5,a5,a4
 692 04ae 13870500 		addi	a4,a1,%lo(PalTable)
 352:../src/K6502_rw.h ****               PalTable[ 0x00 ] = PalTable[ 0x04 ] = PalTable[ 0x08 ] = PalTable[ 0x0c ] =
 693              		.loc 1 352 0
 694 04b2 238696F0 		sb	s1,-244(a3)
 695 04b6 238496F0 		sb	s1,-248(a3)
 696 04ba 238296F0 		sb	s1,-252(a3)
 697 04be 238096F0 		sb	s1,-256(a3)
 351:../src/K6502_rw.h ****               PPURAM[ 0x3f00 ] = PPURAM[ 0x3f04 ] = PPURAM[ 0x3f08 ] = PPURAM[ 0x3f0c ] = byData;
 698              		.loc 1 351 0
 699 04c2 238E96F0 		sb	s1,-228(a3)
 700 04c6 238C96F0 		sb	s1,-232(a3)
 701 04ca 238A96F0 		sb	s1,-236(a3)
 702 04ce 238896F0 		sb	s1,-240(a3)
 354:../src/K6502_rw.h ****             }
 703              		.loc 1 354 0
 704 04d2 231CF702 		sh	a5,56(a4)
 705 04d6 2318F702 		sh	a5,48(a4)
 706 04da 2314F702 		sh	a5,40(a4)
 707 04de 2310F702 		sh	a5,32(a4)
 353:../src/K6502_rw.h ****               PalTable[ 0x10 ] = PalTable[ 0x14 ] = PalTable[ 0x18 ] = PalTable[ 0x1c ] = NesPalett
 708              		.loc 1 353 0
 709 04e2 231CF700 		sh	a5,24(a4)
 710 04e6 2318F700 		sh	a5,16(a4)
 711 04ea 2314F700 		sh	a5,8(a4)
 712 04ee 2390F500 		sh	a5,%lo(PalTable)(a1)
 713 04f2 1DBE     		j	.L1
 714              	.LVL55:
 715              	.L67:
 716 04f4 A983     		srli	a5,a5,10
 717              	.LVL56:
 718 04f6 B7060000 		lui	a3,%hi(PPUBANK)
 719              	.LVL57:
 720 04fa 93952700 		slli	a1,a5,2
 721              	.LVL58:
 722 04fe 93860600 		addi	a3,a3,%lo(PPUBANK)
 723 0502 B695     		add	a1,a3,a1
 724 0504 8C41     		lw	a1,0(a1)
 725 0506 1377F73F 		andi	a4,a4,1023
 726              	.LVL59:
 727 050a BA95     		add	a1,a1,a4
 728 050c 45BB     		j	.L28
 729              	.LBE119:
 730              	.LBE118:
 731              		.cfi_endproc
 732              	.LFE9:
 734              		.section	.text.K6502_ReadAbsX,"ax",@progbits
 735              		.align	1
 737              	K6502_ReadAbsX:
 738              	.LFB4:
 739              		.file 2 "../src/K6502.c"
   1:../src/K6502.c **** /*===================================================================*/
   2:../src/K6502.c **** /*                                                                   */
   3:../src/K6502.c **** /*  K6502.cpp : 6502 Emulator                                        */
   4:../src/K6502.c **** /*                                                                   */
   5:../src/K6502.c **** /*  2000/5/10   InfoNES Project ( based on pNesX )                   */
   6:../src/K6502.c **** /*                                                                   */
   7:../src/K6502.c **** /*===================================================================*/
   8:../src/K6502.c **** 
   9:../src/K6502.c **** /*-------------------------------------------------------------------*/
  10:../src/K6502.c **** /*  Include files                                                    */
  11:../src/K6502.c **** /*-------------------------------------------------------------------*/
  12:../src/K6502.c **** 
  13:../src/K6502.c **** #include "K6502.h"
  14:../src/K6502.c **** #include "InfoNES_System.h"
  15:../src/K6502.c **** 
  16:../src/K6502.c **** #ifdef __cplusplus 
  17:../src/K6502.c **** extern "C" { 
  18:../src/K6502.c **** #endif /* __cplusplus */ 
  19:../src/K6502.c **** 
  20:../src/K6502.c **** /*-------------------------------------------------------------------*/
  21:../src/K6502.c **** /*  Operation Macros                                                 */
  22:../src/K6502.c **** /*-------------------------------------------------------------------*/
  23:../src/K6502.c **** 
  24:../src/K6502.c **** // Clock Op.
  25:../src/K6502.c **** #define CLK(a)   g_wPassedClocks += (a);
  26:../src/K6502.c **** 
  27:../src/K6502.c **** // Addressing Op.
  28:../src/K6502.c **** // Address
  29:../src/K6502.c **** // (Indirect,X)
  30:../src/K6502.c **** #define AA_IX    K6502_ReadZpW( K6502_Read( PC++ ) + X )
  31:../src/K6502.c **** // (Indirect),Y
  32:../src/K6502.c **** #define AA_IY    K6502_ReadZpW( K6502_Read( PC++ ) ) + Y
  33:../src/K6502.c **** // Zero Page
  34:../src/K6502.c **** #define AA_ZP    K6502_Read( PC++ )
  35:../src/K6502.c **** // Zero Page,X
  36:../src/K6502.c **** #define AA_ZPX   (BYTE)( K6502_Read( PC++ ) + X )
  37:../src/K6502.c **** // Zero Page,Y
  38:../src/K6502.c **** #define AA_ZPY   (BYTE)( K6502_Read( PC++ ) + Y )
  39:../src/K6502.c **** // Absolute
  40:../src/K6502.c **** #define AA_ABS   ( K6502_Read( PC++ ) | (WORD)K6502_Read( PC++ ) << 8 )
  41:../src/K6502.c **** // Absolute2 ( PC-- )
  42:../src/K6502.c **** #define AA_ABS2  ( K6502_Read( PC++ ) | (WORD)K6502_Read( PC ) << 8 )
  43:../src/K6502.c **** // Absolute,X
  44:../src/K6502.c **** #define AA_ABSX  AA_ABS + X
  45:../src/K6502.c **** // Absolute,Y
  46:../src/K6502.c **** #define AA_ABSY  AA_ABS + Y
  47:../src/K6502.c **** 
  48:../src/K6502.c **** // Data
  49:../src/K6502.c **** // (Indirect,X)
  50:../src/K6502.c **** #define A_IX    K6502_Read( AA_IX )
  51:../src/K6502.c **** // (Indirect),Y
  52:../src/K6502.c **** #define A_IY    K6502_ReadIY()
  53:../src/K6502.c **** // Zero Page
  54:../src/K6502.c **** #define A_ZP    K6502_ReadZp( AA_ZP )
  55:../src/K6502.c **** // Zero Page,X
  56:../src/K6502.c **** #define A_ZPX   K6502_ReadZp( AA_ZPX )
  57:../src/K6502.c **** // Zero Page,Y
  58:../src/K6502.c **** #define A_ZPY   K6502_ReadZp( AA_ZPY )
  59:../src/K6502.c **** // Absolute
  60:../src/K6502.c **** #define A_ABS   K6502_Read( AA_ABS )
  61:../src/K6502.c **** // Absolute,X
  62:../src/K6502.c **** #define A_ABSX  K6502_ReadAbsX()
  63:../src/K6502.c **** // Absolute,Y
  64:../src/K6502.c **** #define A_ABSY  K6502_ReadAbsY()
  65:../src/K6502.c **** // Immediate
  66:../src/K6502.c **** #define A_IMM   K6502_Read( PC++ )
  67:../src/K6502.c **** 
  68:../src/K6502.c **** // Flag Op.
  69:../src/K6502.c **** #define SETF(a)  F |= (a)
  70:../src/K6502.c **** #define RSTF(a)  F &= ~(a)
  71:../src/K6502.c **** #define TEST(a)  RSTF( FLAG_N | FLAG_Z ); SETF( g_byTestTable[ a ] )
  72:../src/K6502.c **** 
  73:../src/K6502.c **** // Load & Store Op.
  74:../src/K6502.c **** #define STA(a)    K6502_Write( (a), A );
  75:../src/K6502.c **** #define STX(a)    K6502_Write( (a), X );
  76:../src/K6502.c **** #define STY(a)    K6502_Write( (a), Y );
  77:../src/K6502.c **** #define LDA(a)    A = (a); TEST( A );
  78:../src/K6502.c **** #define LDX(a)    X = (a); TEST( X );
  79:../src/K6502.c **** #define LDY(a)    Y = (a); TEST( Y );
  80:../src/K6502.c **** 
  81:../src/K6502.c **** // Stack Op.
  82:../src/K6502.c **** #define PUSH(a)   K6502_Write( BASE_STACK + SP--, (a) )
  83:../src/K6502.c **** #define PUSHW(a)  PUSH( (a) >> 8 ); PUSH( (a) & 0xff )
  84:../src/K6502.c **** #define POP(a)    a = K6502_Read( BASE_STACK + ++SP )
  85:../src/K6502.c **** #define POPW(a)   POP(a); a |= ( K6502_Read( BASE_STACK + ++SP ) << 8 )
  86:../src/K6502.c **** 
  87:../src/K6502.c **** // Logical Op.
  88:../src/K6502.c **** #define ORA(a)  A |= (a); TEST( A )
  89:../src/K6502.c **** #define AND(a)  A &= (a); TEST( A )
  90:../src/K6502.c **** #define EOR(a)  A ^= (a); TEST( A )
  91:../src/K6502.c **** #define BIT(a)  byD0 = (a); RSTF( FLAG_N | FLAG_V | FLAG_Z ); SETF( ( byD0 & ( FLAG_N | FLAG_V ) ) 
  92:../src/K6502.c **** #define CMP(a)  wD0 = (WORD)A - (a); RSTF( FLAG_N | FLAG_Z | FLAG_C ); SETF( g_byTestTable[ wD0 & 0
  93:../src/K6502.c **** #define CPX(a)  wD0 = (WORD)X - (a); RSTF( FLAG_N | FLAG_Z | FLAG_C ); SETF( g_byTestTable[ wD0 & 0
  94:../src/K6502.c **** #define CPY(a)  wD0 = (WORD)Y - (a); RSTF( FLAG_N | FLAG_Z | FLAG_C ); SETF( g_byTestTable[ wD0 & 0
  95:../src/K6502.c ****   
  96:../src/K6502.c **** // Math Op. (A D flag isn't being supported.)
  97:../src/K6502.c **** #define ADC(a)  byD0 = (a); \
  98:../src/K6502.c ****                 wD0 = A + byD0 + ( F & FLAG_C ); \
  99:../src/K6502.c ****                 byD1 = (BYTE)wD0; \
 100:../src/K6502.c ****                 RSTF( FLAG_N | FLAG_V | FLAG_Z | FLAG_C ); \
 101:../src/K6502.c ****                 SETF( g_byTestTable[ byD1 ] | ( ( ~( A ^ byD0 ) & ( A ^ byD1 ) & 0x80 ) ? FLAG_V : 
 102:../src/K6502.c ****                 A = byD1;
 103:../src/K6502.c **** 
 104:../src/K6502.c **** #define SBC(a)  byD0 = (a); \
 105:../src/K6502.c ****                 wD0 = A - byD0 - ( ~F & FLAG_C ); \
 106:../src/K6502.c ****                 byD1 = (BYTE)wD0; \
 107:../src/K6502.c ****                 RSTF( FLAG_N | FLAG_V | FLAG_Z | FLAG_C ); \
 108:../src/K6502.c ****                 SETF( g_byTestTable[ byD1 ] | ( ( ( A ^ byD0 ) & ( A ^ byD1 ) & 0x80 ) ? FLAG_V : 0
 109:../src/K6502.c ****                 A = byD1;
 110:../src/K6502.c **** 
 111:../src/K6502.c **** #define DEC(a)  wA0 = a; byD0 = K6502_Read( wA0 ); --byD0; K6502_Write( wA0, byD0 ); TEST( byD0 )
 112:../src/K6502.c **** #define INC(a)  wA0 = a; byD0 = K6502_Read( wA0 ); ++byD0; K6502_Write( wA0, byD0 ); TEST( byD0 )
 113:../src/K6502.c **** 
 114:../src/K6502.c **** // Shift Op.
 115:../src/K6502.c **** #define ASLA    RSTF( FLAG_N | FLAG_Z | FLAG_C ); SETF( g_ASLTable[ A ].byFlag ); A = g_ASLTable[ A
 116:../src/K6502.c **** #define ASL(a)  RSTF( FLAG_N | FLAG_Z | FLAG_C ); wA0 = a; byD0 = K6502_Read( wA0 ); SETF( g_ASLTab
 117:../src/K6502.c **** #define LSRA    RSTF( FLAG_N | FLAG_Z | FLAG_C ); SETF( g_LSRTable[ A ].byFlag ); A = g_LSRTable[ A
 118:../src/K6502.c **** #define LSR(a)  RSTF( FLAG_N | FLAG_Z | FLAG_C ); wA0 = a; byD0 = K6502_Read( wA0 ); SETF( g_LSRTab
 119:../src/K6502.c **** #define ROLA    byD0 = F & FLAG_C; RSTF( FLAG_N | FLAG_Z | FLAG_C ); SETF( g_ROLTable[ byD0 ][ A ].
 120:../src/K6502.c **** #define ROL(a)  byD1 = F & FLAG_C; RSTF( FLAG_N | FLAG_Z | FLAG_C ); wA0 = a; byD0 = K6502_Read( wA
 121:../src/K6502.c **** #define RORA    byD0 = F & FLAG_C; RSTF( FLAG_N | FLAG_Z | FLAG_C ); SETF( g_RORTable[ byD0 ][ A ].
 122:../src/K6502.c **** #define ROR(a)  byD1 = F & FLAG_C; RSTF( FLAG_N | FLAG_Z | FLAG_C ); wA0 = a; byD0 = K6502_Read( wA
 123:../src/K6502.c **** 
 124:../src/K6502.c **** // Jump Op.
 125:../src/K6502.c **** #define JSR     wA0 = AA_ABS2; PUSHW( PC ); PC = wA0; 
 126:../src/K6502.c **** #if 0
 127:../src/K6502.c **** #define BRA(a)  if ( a ) { wA0 = PC; PC += (char)K6502_Read( PC ); CLK( 3 + ( ( wA0 & 0x0100 ) != (
 128:../src/K6502.c **** #else
 129:../src/K6502.c **** #define BRA(a) { \
 130:../src/K6502.c ****   if ( a ) \
 131:../src/K6502.c ****   { \
 132:../src/K6502.c ****     wA0 = PC; \
 133:../src/K6502.c **** 	byD0 = K6502_Read( PC ); \
 134:../src/K6502.c **** 	PC += ( ( byD0 & 0x80 ) ? ( 0xFF00 | (WORD)byD0 ) : (WORD)byD0 ); \
 135:../src/K6502.c **** 	CLK( 3 + ( ( wA0 & 0x0100 ) != ( PC & 0x0100 ) ) ); \
 136:../src/K6502.c ****     ++PC; \
 137:../src/K6502.c ****   } else { \
 138:../src/K6502.c **** 	++PC; \
 139:../src/K6502.c **** 	CLK( 2 ); \
 140:../src/K6502.c ****   } \
 141:../src/K6502.c **** }
 142:../src/K6502.c **** #endif
 143:../src/K6502.c **** #define JMP(a)  PC = a;
 144:../src/K6502.c **** 
 145:../src/K6502.c **** /*-------------------------------------------------------------------*/
 146:../src/K6502.c **** /*  Global valiables                                                 */
 147:../src/K6502.c **** /*-------------------------------------------------------------------*/
 148:../src/K6502.c **** 
 149:../src/K6502.c **** // 6502 Register
 150:../src/K6502.c **** WORD PC;
 151:../src/K6502.c **** BYTE SP;
 152:../src/K6502.c **** BYTE F;
 153:../src/K6502.c **** BYTE A;
 154:../src/K6502.c **** BYTE X;
 155:../src/K6502.c **** BYTE Y;
 156:../src/K6502.c **** 
 157:../src/K6502.c **** // The state of the IRQ pin
 158:../src/K6502.c **** BYTE IRQ_State;
 159:../src/K6502.c **** 
 160:../src/K6502.c **** // Wiring of the IRQ pin
 161:../src/K6502.c **** BYTE IRQ_Wiring;
 162:../src/K6502.c **** 
 163:../src/K6502.c **** // The state of the NMI pin
 164:../src/K6502.c **** BYTE NMI_State;
 165:../src/K6502.c **** 
 166:../src/K6502.c **** // Wiring of the NMI pin
 167:../src/K6502.c **** BYTE NMI_Wiring;
 168:../src/K6502.c **** 
 169:../src/K6502.c **** // The number of the clocks that it passed
 170:../src/K6502.c **** WORD g_wPassedClocks;
 171:../src/K6502.c **** 
 172:../src/K6502.c **** // A table for the test
 173:../src/K6502.c **** BYTE g_byTestTable[ 256 ];
 174:../src/K6502.c **** 
 175:../src/K6502.c **** // Value and Flag Data
 176:../src/K6502.c **** struct value_table_tag
 177:../src/K6502.c **** {
 178:../src/K6502.c ****   BYTE byValue;
 179:../src/K6502.c ****   BYTE byFlag;
 180:../src/K6502.c **** };
 181:../src/K6502.c **** 
 182:../src/K6502.c **** // A table for ASL
 183:../src/K6502.c **** struct value_table_tag g_ASLTable[ 256 ];
 184:../src/K6502.c **** 
 185:../src/K6502.c **** // A table for LSR
 186:../src/K6502.c **** struct value_table_tag g_LSRTable[ 256 ];
 187:../src/K6502.c **** 
 188:../src/K6502.c **** // A table for ROL
 189:../src/K6502.c **** struct value_table_tag g_ROLTable[ 2 ][ 256 ];
 190:../src/K6502.c **** 
 191:../src/K6502.c **** // A table for ROR
 192:../src/K6502.c **** struct value_table_tag g_RORTable[ 2 ][ 256 ];
 193:../src/K6502.c **** 
 194:../src/K6502.c **** /*===================================================================*/
 195:../src/K6502.c **** /*                                                                   */
 196:../src/K6502.c **** /*                K6502_Init() : Initialize K6502                    */
 197:../src/K6502.c **** /*                                                                   */
 198:../src/K6502.c **** /*===================================================================*/
 199:../src/K6502.c **** void K6502_Init()
 200:../src/K6502.c **** {
 201:../src/K6502.c **** /*
 202:../src/K6502.c ****  *  Initialize K6502
 203:../src/K6502.c ****  *
 204:../src/K6502.c ****  *  You must call this function only once at first.
 205:../src/K6502.c ****  */
 206:../src/K6502.c **** 
 207:../src/K6502.c ****   BYTE idx;
 208:../src/K6502.c ****   BYTE idx2;
 209:../src/K6502.c **** 
 210:../src/K6502.c ****   // The establishment of the IRQ pin
 211:../src/K6502.c ****   NMI_Wiring = NMI_State = 1;
 212:../src/K6502.c ****   IRQ_Wiring = IRQ_State = 1;
 213:../src/K6502.c **** 
 214:../src/K6502.c ****   // Make a table for the test
 215:../src/K6502.c ****   idx = 0;
 216:../src/K6502.c ****   do
 217:../src/K6502.c ****   {
 218:../src/K6502.c ****     if ( idx == 0 )
 219:../src/K6502.c ****       g_byTestTable[ 0 ] = FLAG_Z;
 220:../src/K6502.c ****     else
 221:../src/K6502.c ****     if ( idx > 127 )
 222:../src/K6502.c ****       g_byTestTable[ idx ] = FLAG_N;
 223:../src/K6502.c ****     else
 224:../src/K6502.c ****       g_byTestTable[ idx ] = 0;
 225:../src/K6502.c **** 
 226:../src/K6502.c ****     ++idx;
 227:../src/K6502.c ****   } while ( idx != 0 );
 228:../src/K6502.c **** 
 229:../src/K6502.c ****   // Make a table ASL
 230:../src/K6502.c ****   idx = 0;
 231:../src/K6502.c ****   do
 232:../src/K6502.c ****   {
 233:../src/K6502.c ****     g_ASLTable[ idx ].byValue = idx << 1;
 234:../src/K6502.c ****     g_ASLTable[ idx ].byFlag = 0;
 235:../src/K6502.c **** 
 236:../src/K6502.c ****     if ( idx > 127 )
 237:../src/K6502.c ****       g_ASLTable[ idx ].byFlag = FLAG_C;
 238:../src/K6502.c **** 
 239:../src/K6502.c ****     if ( g_ASLTable[ idx ].byValue == 0 )
 240:../src/K6502.c ****       g_ASLTable[ idx ].byFlag |= FLAG_Z;
 241:../src/K6502.c ****     else
 242:../src/K6502.c ****     if ( g_ASLTable[ idx ].byValue & 0x80 )
 243:../src/K6502.c ****       g_ASLTable[ idx ].byFlag |= FLAG_N;
 244:../src/K6502.c **** 
 245:../src/K6502.c ****     ++idx;
 246:../src/K6502.c ****   } while ( idx != 0 );
 247:../src/K6502.c **** 
 248:../src/K6502.c ****   // Make a table LSR
 249:../src/K6502.c ****   idx = 0;
 250:../src/K6502.c ****   do
 251:../src/K6502.c ****   {
 252:../src/K6502.c ****     g_LSRTable[ idx ].byValue = idx >> 1;
 253:../src/K6502.c ****     g_LSRTable[ idx ].byFlag = 0;
 254:../src/K6502.c **** 
 255:../src/K6502.c ****     if ( idx & 1 )
 256:../src/K6502.c ****       g_LSRTable[ idx ].byFlag = FLAG_C;
 257:../src/K6502.c **** 
 258:../src/K6502.c ****     if ( g_LSRTable[ idx ].byValue == 0 )
 259:../src/K6502.c ****       g_LSRTable[ idx ].byFlag |= FLAG_Z;
 260:../src/K6502.c **** 
 261:../src/K6502.c ****     ++idx;
 262:../src/K6502.c ****   } while ( idx != 0 );
 263:../src/K6502.c **** 
 264:../src/K6502.c ****   // Make a table ROL
 265:../src/K6502.c ****   for ( idx2 = 0; idx2 < 2; ++idx2 )
 266:../src/K6502.c ****   {
 267:../src/K6502.c ****     idx = 0;
 268:../src/K6502.c ****     do
 269:../src/K6502.c ****     {
 270:../src/K6502.c ****       g_ROLTable[ idx2 ][ idx ].byValue = ( idx << 1 ) | idx2;
 271:../src/K6502.c ****       g_ROLTable[ idx2 ][ idx ].byFlag = 0;
 272:../src/K6502.c **** 
 273:../src/K6502.c ****       if ( idx > 127 )
 274:../src/K6502.c ****         g_ROLTable[ idx2 ][ idx ].byFlag = FLAG_C;
 275:../src/K6502.c **** 
 276:../src/K6502.c ****       if ( g_ROLTable[ idx2 ][ idx ].byValue == 0 )
 277:../src/K6502.c ****         g_ROLTable[ idx2 ][ idx ].byFlag |= FLAG_Z;
 278:../src/K6502.c ****       else
 279:../src/K6502.c ****       if ( g_ROLTable[ idx2 ][ idx ].byValue & 0x80 )
 280:../src/K6502.c ****         g_ROLTable[ idx2 ][ idx ].byFlag |= FLAG_N;
 281:../src/K6502.c **** 
 282:../src/K6502.c ****       ++idx;
 283:../src/K6502.c ****     } while ( idx != 0 );
 284:../src/K6502.c ****   }
 285:../src/K6502.c **** 
 286:../src/K6502.c ****   // Make a table ROR
 287:../src/K6502.c ****   for ( idx2 = 0; idx2 < 2; ++idx2 )
 288:../src/K6502.c ****   {
 289:../src/K6502.c ****     idx = 0;
 290:../src/K6502.c ****     do
 291:../src/K6502.c ****     {
 292:../src/K6502.c ****       g_RORTable[ idx2 ][ idx ].byValue = ( idx >> 1 ) | ( idx2 << 7 );
 293:../src/K6502.c ****       g_RORTable[ idx2 ][ idx ].byFlag = 0;
 294:../src/K6502.c **** 
 295:../src/K6502.c ****       if ( idx & 1 )
 296:../src/K6502.c ****         g_RORTable[ idx2 ][ idx ].byFlag = FLAG_C;
 297:../src/K6502.c **** 
 298:../src/K6502.c ****       if ( g_RORTable[ idx2 ][ idx ].byValue == 0 )
 299:../src/K6502.c ****         g_RORTable[ idx2 ][ idx ].byFlag |= FLAG_Z;
 300:../src/K6502.c ****       else
 301:../src/K6502.c ****       if ( g_RORTable[ idx2 ][ idx ].byValue & 0x80 )
 302:../src/K6502.c ****         g_RORTable[ idx2 ][ idx ].byFlag |= FLAG_N;
 303:../src/K6502.c **** 
 304:../src/K6502.c ****       ++idx;
 305:../src/K6502.c ****     } while ( idx != 0 );
 306:../src/K6502.c ****   }
 307:../src/K6502.c **** }
 308:../src/K6502.c **** 
 309:../src/K6502.c **** /*===================================================================*/
 310:../src/K6502.c **** /*                                                                   */
 311:../src/K6502.c **** /*                K6502_Reset() : Reset a CPU                        */
 312:../src/K6502.c **** /*                                                                   */
 313:../src/K6502.c **** /*===================================================================*/
 314:../src/K6502.c **** void K6502_Reset()
 315:../src/K6502.c **** {
 316:../src/K6502.c **** /*
 317:../src/K6502.c ****  *  Reset a CPU
 318:../src/K6502.c ****  *
 319:../src/K6502.c ****  */
 320:../src/K6502.c **** 
 321:../src/K6502.c ****   // Reset Registers
 322:../src/K6502.c ****   PC = K6502_ReadW( VECTOR_RESET );
 323:../src/K6502.c ****   SP = 0xFF;
 324:../src/K6502.c ****   A = X = Y = 0;
 325:../src/K6502.c ****   F = FLAG_Z | FLAG_R | FLAG_I;
 326:../src/K6502.c **** 
 327:../src/K6502.c ****   // Set up the state of the Interrupt pin.
 328:../src/K6502.c ****   NMI_State = NMI_Wiring;
 329:../src/K6502.c ****   IRQ_State = IRQ_Wiring;
 330:../src/K6502.c **** 
 331:../src/K6502.c ****   // Reset Passed Clocks
 332:../src/K6502.c ****   g_wPassedClocks = 0;
 333:../src/K6502.c **** }
 334:../src/K6502.c **** 
 335:../src/K6502.c **** /*===================================================================*/
 336:../src/K6502.c **** /*                                                                   */
 337:../src/K6502.c **** /*    K6502_Set_Int_Wiring() : Set up wiring of the interrupt pin    */
 338:../src/K6502.c **** /*                                                                   */
 339:../src/K6502.c **** /*===================================================================*/
 340:../src/K6502.c **** void K6502_Set_Int_Wiring( BYTE byNMI_Wiring, BYTE byIRQ_Wiring )
 341:../src/K6502.c **** {
 342:../src/K6502.c **** /*
 343:../src/K6502.c ****  * Set up wiring of the interrupt pin
 344:../src/K6502.c ****  *
 345:../src/K6502.c ****  */
 346:../src/K6502.c **** 
 347:../src/K6502.c ****   NMI_Wiring = byNMI_Wiring;
 348:../src/K6502.c ****   IRQ_Wiring = byIRQ_Wiring;
 349:../src/K6502.c **** }
 350:../src/K6502.c **** 
 351:../src/K6502.c **** /*===================================================================*/
 352:../src/K6502.c **** /*                                                                   */
 353:../src/K6502.c **** /*  K6502_Step() :                                                   */
 354:../src/K6502.c **** /*          Only the specified number of the clocks execute Op.      */
 355:../src/K6502.c **** /*                                                                   */
 356:../src/K6502.c **** /*===================================================================*/
 357:../src/K6502.c **** void K6502_Step( WORD wClocks )
 358:../src/K6502.c **** {
 359:../src/K6502.c **** /*
 360:../src/K6502.c ****  *  Only the specified number of the clocks execute Op.
 361:../src/K6502.c ****  *
 362:../src/K6502.c ****  *  Parameters
 363:../src/K6502.c ****  *    WORD wClocks              (Read)
 364:../src/K6502.c ****  *      The number of the clocks
 365:../src/K6502.c ****  */
 366:../src/K6502.c **** 
 367:../src/K6502.c ****   BYTE byCode;
 368:../src/K6502.c **** 
 369:../src/K6502.c ****   WORD wA0;
 370:../src/K6502.c ****   BYTE byD0;
 371:../src/K6502.c ****   BYTE byD1;
 372:../src/K6502.c ****   WORD wD0;
 373:../src/K6502.c **** 
 374:../src/K6502.c ****   // Dispose of it if there is an interrupt requirement
 375:../src/K6502.c ****   if ( NMI_State != NMI_Wiring )
 376:../src/K6502.c ****   {
 377:../src/K6502.c ****     // NMI Interrupt
 378:../src/K6502.c ****     NMI_State = NMI_Wiring;
 379:../src/K6502.c ****     CLK( 7 );
 380:../src/K6502.c **** 
 381:../src/K6502.c ****     PUSHW( PC );
 382:../src/K6502.c ****     PUSH( F & ~FLAG_B );
 383:../src/K6502.c **** 
 384:../src/K6502.c ****     RSTF( FLAG_D );
 385:../src/K6502.c ****     SETF( FLAG_I );
 386:../src/K6502.c **** 
 387:../src/K6502.c ****     PC = K6502_ReadW( VECTOR_NMI );
 388:../src/K6502.c ****   }
 389:../src/K6502.c ****   else
 390:../src/K6502.c ****   if ( IRQ_State != IRQ_Wiring )
 391:../src/K6502.c ****   {
 392:../src/K6502.c ****     // IRQ Interrupt
 393:../src/K6502.c ****     // Execute IRQ if an I flag isn't being set
 394:../src/K6502.c ****     if ( !( F & FLAG_I ) )
 395:../src/K6502.c ****     {
 396:../src/K6502.c ****       IRQ_State = IRQ_Wiring;
 397:../src/K6502.c ****       CLK( 7 );
 398:../src/K6502.c **** 
 399:../src/K6502.c ****       PUSHW( PC );
 400:../src/K6502.c ****       PUSH( F & ~FLAG_B );
 401:../src/K6502.c **** 
 402:../src/K6502.c ****       RSTF( FLAG_D );
 403:../src/K6502.c ****       SETF( FLAG_I );
 404:../src/K6502.c ****     
 405:../src/K6502.c ****       PC = K6502_ReadW( VECTOR_IRQ );
 406:../src/K6502.c ****     }
 407:../src/K6502.c ****   }
 408:../src/K6502.c **** 
 409:../src/K6502.c ****   // It has a loop until a constant clock passes
 410:../src/K6502.c ****   while ( g_wPassedClocks < wClocks )
 411:../src/K6502.c ****   {
 412:../src/K6502.c ****     // Read an instruction
 413:../src/K6502.c ****     byCode = K6502_Read( PC++ );
 414:../src/K6502.c **** 
 415:../src/K6502.c ****     // Execute an instruction.
 416:../src/K6502.c ****     switch ( byCode )
 417:../src/K6502.c ****     {
 418:../src/K6502.c ****       case 0x00:  // BRK
 419:../src/K6502.c ****         ++PC; PUSHW( PC ); SETF( FLAG_B ); PUSH( F ); SETF( FLAG_I ); RSTF( FLAG_D ); PC = K6502_Re
 420:../src/K6502.c ****         break;
 421:../src/K6502.c **** 
 422:../src/K6502.c ****       case 0x01:  // ORA (Zpg,X)
 423:../src/K6502.c ****         ORA( A_IX ); CLK( 6 );
 424:../src/K6502.c ****         break;
 425:../src/K6502.c **** 
 426:../src/K6502.c ****       case 0x05:  // ORA Zpg
 427:../src/K6502.c ****         ORA( A_ZP ); CLK( 3 );
 428:../src/K6502.c ****         break;
 429:../src/K6502.c **** 
 430:../src/K6502.c ****       case 0x06:  // ASL Zpg
 431:../src/K6502.c ****         ASL( AA_ZP ); CLK( 5 );
 432:../src/K6502.c ****         break;
 433:../src/K6502.c **** 
 434:../src/K6502.c ****       case 0x08:  // PHP
 435:../src/K6502.c ****         SETF( FLAG_B ); PUSH( F ); CLK( 3 );
 436:../src/K6502.c ****         break;
 437:../src/K6502.c **** 
 438:../src/K6502.c ****       case 0x09:  // ORA #Oper
 439:../src/K6502.c ****         ORA( A_IMM ); CLK( 2 );
 440:../src/K6502.c ****         break;
 441:../src/K6502.c **** 
 442:../src/K6502.c ****       case 0x0A:  // ASL A
 443:../src/K6502.c ****         ASLA; CLK( 2 );
 444:../src/K6502.c ****         break;
 445:../src/K6502.c **** 
 446:../src/K6502.c ****       case 0x0D:  // ORA Abs
 447:../src/K6502.c ****         ORA( A_ABS ); CLK( 4 );
 448:../src/K6502.c ****         break;
 449:../src/K6502.c **** 
 450:../src/K6502.c ****       case 0x0e:  // ASL Abs 
 451:../src/K6502.c ****         ASL( AA_ABS ); CLK( 6 );
 452:../src/K6502.c ****         break;
 453:../src/K6502.c **** 
 454:../src/K6502.c ****       case 0x10: // BPL Oper
 455:../src/K6502.c ****         BRA( !( F & FLAG_N ) );
 456:../src/K6502.c ****         break;
 457:../src/K6502.c **** 
 458:../src/K6502.c ****       case 0x11: // ORA (Zpg),Y
 459:../src/K6502.c ****         ORA( A_IY ); CLK( 5 );
 460:../src/K6502.c ****         break;
 461:../src/K6502.c **** 
 462:../src/K6502.c ****       case 0x15: // ORA Zpg,X
 463:../src/K6502.c ****         ORA( A_ZPX ); CLK( 4 );
 464:../src/K6502.c ****         break;
 465:../src/K6502.c **** 
 466:../src/K6502.c ****       case 0x16: // ASL Zpg,X
 467:../src/K6502.c ****         ASL( AA_ZPX ); CLK( 6 );
 468:../src/K6502.c ****         break;
 469:../src/K6502.c **** 
 470:../src/K6502.c ****       case 0x18: // CLC
 471:../src/K6502.c ****         RSTF( FLAG_C ); CLK( 2 );
 472:../src/K6502.c ****         break;
 473:../src/K6502.c **** 
 474:../src/K6502.c ****       case 0x19: // ORA Abs,Y
 475:../src/K6502.c ****         ORA( A_ABSY ); CLK( 4 );
 476:../src/K6502.c ****         break;
 477:../src/K6502.c **** 
 478:../src/K6502.c ****       case 0x1D: // ORA Abs,X
 479:../src/K6502.c ****         ORA( A_ABSX ); CLK( 4 );
 480:../src/K6502.c ****         break;
 481:../src/K6502.c **** 
 482:../src/K6502.c ****       case 0x1E: // ASL Abs,X
 483:../src/K6502.c ****         ASL( AA_ABSX ); CLK( 7 );
 484:../src/K6502.c ****         break;
 485:../src/K6502.c **** 
 486:../src/K6502.c ****       case 0x20: // JSR Abs
 487:../src/K6502.c ****         JSR; CLK( 6 );
 488:../src/K6502.c ****         break;
 489:../src/K6502.c **** 
 490:../src/K6502.c ****       case 0x21: // AND (Zpg,X)
 491:../src/K6502.c ****         AND( A_IX ); CLK( 6 );
 492:../src/K6502.c ****         break;
 493:../src/K6502.c **** 
 494:../src/K6502.c ****       case 0x24: // BIT Zpg
 495:../src/K6502.c ****         BIT( A_ZP ); CLK( 3 );
 496:../src/K6502.c ****         break;
 497:../src/K6502.c **** 
 498:../src/K6502.c ****       case 0x25: // AND Zpg
 499:../src/K6502.c ****         AND( A_ZP ); CLK( 3 );
 500:../src/K6502.c ****         break;
 501:../src/K6502.c **** 
 502:../src/K6502.c ****       case 0x26: // ROL Zpg
 503:../src/K6502.c ****         ROL( AA_ZP ); CLK( 5 );
 504:../src/K6502.c ****         break;
 505:../src/K6502.c **** 
 506:../src/K6502.c ****       case 0x28: // PLP
 507:../src/K6502.c ****         POP( F ); SETF( FLAG_R ); CLK( 4 );
 508:../src/K6502.c ****         break;
 509:../src/K6502.c **** 
 510:../src/K6502.c ****       case 0x29: // AND #Oper
 511:../src/K6502.c ****         AND( A_IMM ); CLK( 2 );
 512:../src/K6502.c ****         break;
 513:../src/K6502.c **** 
 514:../src/K6502.c ****       case 0x2A: // ROL A
 515:../src/K6502.c ****         ROLA; CLK( 2 );
 516:../src/K6502.c ****         break;
 517:../src/K6502.c **** 
 518:../src/K6502.c ****       case 0x2C: // BIT Abs
 519:../src/K6502.c ****         BIT( A_ABS ); CLK( 4 );
 520:../src/K6502.c ****         break;
 521:../src/K6502.c **** 
 522:../src/K6502.c ****       case 0x2D: // AND Abs 
 523:../src/K6502.c ****         AND( A_ABS ); CLK( 4 );
 524:../src/K6502.c ****         break;
 525:../src/K6502.c **** 
 526:../src/K6502.c ****       case 0x2E: // ROL Abs
 527:../src/K6502.c ****         ROL( AA_ABS ); CLK( 6 );
 528:../src/K6502.c ****         break;
 529:../src/K6502.c **** 
 530:../src/K6502.c ****       case 0x30: // BMI Oper 
 531:../src/K6502.c ****         BRA( F & FLAG_N );
 532:../src/K6502.c ****         break;
 533:../src/K6502.c **** 
 534:../src/K6502.c ****       case 0x31: // AND (Zpg),Y
 535:../src/K6502.c ****         AND( A_IY ); CLK( 5 );
 536:../src/K6502.c ****         break;
 537:../src/K6502.c **** 
 538:../src/K6502.c ****       case 0x35: // AND Zpg,X
 539:../src/K6502.c ****         AND( A_ZPX ); CLK( 4 );
 540:../src/K6502.c ****         break;
 541:../src/K6502.c **** 
 542:../src/K6502.c ****       case 0x36: // ROL Zpg,X
 543:../src/K6502.c ****         ROL( AA_ZPX ); CLK( 6 );
 544:../src/K6502.c ****         break;
 545:../src/K6502.c **** 
 546:../src/K6502.c ****       case 0x38: // SEC
 547:../src/K6502.c ****         SETF( FLAG_C ); CLK( 2 );
 548:../src/K6502.c ****         break;
 549:../src/K6502.c **** 
 550:../src/K6502.c ****       case 0x39: // AND Abs,Y
 551:../src/K6502.c ****         AND( A_ABSY ); CLK( 4 );
 552:../src/K6502.c ****         break;
 553:../src/K6502.c **** 
 554:../src/K6502.c ****       case 0x3D: // AND Abs,X
 555:../src/K6502.c ****         AND( A_ABSX ); CLK( 4 );
 556:../src/K6502.c ****         break;
 557:../src/K6502.c **** 
 558:../src/K6502.c ****       case 0x3E: // ROL Abs,X
 559:../src/K6502.c ****         ROL( AA_ABSX ); CLK( 7 );
 560:../src/K6502.c ****         break;
 561:../src/K6502.c **** 
 562:../src/K6502.c ****       case 0x40: // RTI
 563:../src/K6502.c ****         POP( F ); SETF( FLAG_R ); POPW( PC ); CLK( 6 );
 564:../src/K6502.c ****         break;
 565:../src/K6502.c **** 
 566:../src/K6502.c ****       case 0x41: // EOR (Zpg,X)
 567:../src/K6502.c ****         EOR( A_IX ); CLK( 6 );
 568:../src/K6502.c ****         break;
 569:../src/K6502.c **** 
 570:../src/K6502.c ****       case 0x45: // EOR Zpg
 571:../src/K6502.c ****         EOR( A_ZP ); CLK( 3 );
 572:../src/K6502.c ****         break;
 573:../src/K6502.c **** 
 574:../src/K6502.c ****       case 0x46: // LSR Zpg
 575:../src/K6502.c ****         LSR( AA_ZP ); CLK( 5 );
 576:../src/K6502.c ****         break;
 577:../src/K6502.c **** 
 578:../src/K6502.c ****       case 0x48: // PHA
 579:../src/K6502.c ****         PUSH( A ); CLK( 3 );
 580:../src/K6502.c ****         break;
 581:../src/K6502.c **** 
 582:../src/K6502.c ****       case 0x49: // EOR #Oper
 583:../src/K6502.c ****         EOR( A_IMM ); CLK( 2 );
 584:../src/K6502.c ****         break;
 585:../src/K6502.c **** 
 586:../src/K6502.c ****       case 0x4A: // LSR A
 587:../src/K6502.c ****         LSRA; CLK( 2 );
 588:../src/K6502.c ****         break;
 589:../src/K6502.c **** 
 590:../src/K6502.c ****       case 0x4C: // JMP Abs
 591:../src/K6502.c ****         JMP( AA_ABS ); CLK( 3 );
 592:../src/K6502.c ****         break;
 593:../src/K6502.c **** 
 594:../src/K6502.c ****       case 0x4D: // EOR Abs
 595:../src/K6502.c ****         EOR( A_ABS ); CLK( 4 );
 596:../src/K6502.c ****         break;
 597:../src/K6502.c **** 
 598:../src/K6502.c ****       case 0x4E: // LSR Abs
 599:../src/K6502.c ****         LSR( AA_ABS ); CLK( 6 );
 600:../src/K6502.c ****         break;
 601:../src/K6502.c **** 
 602:../src/K6502.c ****       case 0x50: // BVC
 603:../src/K6502.c ****         BRA( !( F & FLAG_V ) );
 604:../src/K6502.c ****         break;
 605:../src/K6502.c **** 
 606:../src/K6502.c ****       case 0x51: // EOR (Zpg),Y
 607:../src/K6502.c ****         EOR( A_IY ); CLK( 5 );
 608:../src/K6502.c ****         break;
 609:../src/K6502.c **** 
 610:../src/K6502.c ****       case 0x55: // EOR Zpg,X
 611:../src/K6502.c ****         EOR( A_ZPX ); CLK( 4 );
 612:../src/K6502.c ****         break;
 613:../src/K6502.c **** 
 614:../src/K6502.c ****       case 0x56: // LSR Zpg,X
 615:../src/K6502.c ****         LSR( AA_ZPX ); CLK( 6 );
 616:../src/K6502.c ****         break;
 617:../src/K6502.c **** 
 618:../src/K6502.c ****       case 0x58: // CLI
 619:../src/K6502.c ****         byD0 = F;
 620:../src/K6502.c ****         RSTF( FLAG_I ); CLK( 2 );
 621:../src/K6502.c ****         if ( ( byD0 & FLAG_I ) && IRQ_State != IRQ_Wiring )  
 622:../src/K6502.c ****         {
 623:../src/K6502.c ****           IRQ_State = IRQ_Wiring;          
 624:../src/K6502.c ****           CLK( 7 );
 625:../src/K6502.c **** 
 626:../src/K6502.c ****           PUSHW( PC );
 627:../src/K6502.c ****           PUSH( F & ~FLAG_B );
 628:../src/K6502.c **** 
 629:../src/K6502.c ****           RSTF( FLAG_D );
 630:../src/K6502.c ****           SETF( FLAG_I );
 631:../src/K6502.c ****     
 632:../src/K6502.c ****           PC = K6502_ReadW( VECTOR_IRQ );
 633:../src/K6502.c ****         }
 634:../src/K6502.c ****         break;
 635:../src/K6502.c **** 
 636:../src/K6502.c ****       case 0x59: // EOR Abs,Y
 637:../src/K6502.c ****         EOR( A_ABSY ); CLK( 4 );
 638:../src/K6502.c ****         break;
 639:../src/K6502.c **** 
 640:../src/K6502.c ****       case 0x5D: // EOR Abs,X
 641:../src/K6502.c ****         EOR( A_ABSX ); CLK( 4 );
 642:../src/K6502.c ****         break;
 643:../src/K6502.c **** 
 644:../src/K6502.c ****       case 0x5E: // LSR Abs,X
 645:../src/K6502.c ****         LSR( AA_ABSX ); CLK( 7 );
 646:../src/K6502.c ****         break;
 647:../src/K6502.c **** 
 648:../src/K6502.c ****       case 0x60: // RTS
 649:../src/K6502.c ****         POPW( PC ); ++PC; CLK( 6 );
 650:../src/K6502.c ****         break;
 651:../src/K6502.c **** 
 652:../src/K6502.c ****       case 0x61: // ADC (Zpg,X)
 653:../src/K6502.c ****         ADC( A_IX ); CLK( 6 );
 654:../src/K6502.c ****         break;
 655:../src/K6502.c **** 
 656:../src/K6502.c ****       case 0x65: // ADC Zpg
 657:../src/K6502.c ****         ADC( A_ZP ); CLK( 3 );
 658:../src/K6502.c ****         break;
 659:../src/K6502.c **** 
 660:../src/K6502.c ****       case 0x66: // ROR Zpg
 661:../src/K6502.c ****         ROR( AA_ZP ); CLK( 5 );
 662:../src/K6502.c ****         break;
 663:../src/K6502.c **** 
 664:../src/K6502.c ****       case 0x68: // PLA
 665:../src/K6502.c ****         POP( A ); TEST( A ); CLK( 4 );
 666:../src/K6502.c ****         break;
 667:../src/K6502.c **** 
 668:../src/K6502.c ****       case 0x69: // ADC #Oper
 669:../src/K6502.c ****         ADC( A_IMM ); CLK( 2 );
 670:../src/K6502.c ****         break;
 671:../src/K6502.c **** 
 672:../src/K6502.c ****       case 0x6A: // ROR A
 673:../src/K6502.c ****         RORA; CLK( 2 );
 674:../src/K6502.c ****         break;
 675:../src/K6502.c **** 
 676:../src/K6502.c ****       case 0x6C: // JMP (Abs)
 677:../src/K6502.c ****         JMP( K6502_ReadW2( AA_ABS ) ); CLK( 5 );
 678:../src/K6502.c ****         break;
 679:../src/K6502.c **** 
 680:../src/K6502.c ****       case 0x6D: // ADC Abs
 681:../src/K6502.c ****         ADC( A_ABS ); CLK( 4 );
 682:../src/K6502.c ****         break;
 683:../src/K6502.c **** 
 684:../src/K6502.c ****       case 0x6E: // ROR Abs
 685:../src/K6502.c ****         ROR( AA_ABS ); CLK( 6 );
 686:../src/K6502.c ****         break;
 687:../src/K6502.c **** 
 688:../src/K6502.c ****       case 0x70: // BVS
 689:../src/K6502.c ****         BRA( F & FLAG_V );
 690:../src/K6502.c ****         break;
 691:../src/K6502.c **** 
 692:../src/K6502.c ****       case 0x71: // ADC (Zpg),Y
 693:../src/K6502.c ****         ADC( A_IY ); CLK( 5 );
 694:../src/K6502.c ****         break;
 695:../src/K6502.c **** 
 696:../src/K6502.c ****       case 0x75: // ADC Zpg,X
 697:../src/K6502.c ****         ADC( A_ZPX ); CLK( 4 );
 698:../src/K6502.c ****         break;
 699:../src/K6502.c **** 
 700:../src/K6502.c ****       case 0x76: // ROR Zpg,X
 701:../src/K6502.c ****         ROR( AA_ZPX ); CLK( 6 );
 702:../src/K6502.c ****         break;
 703:../src/K6502.c **** 
 704:../src/K6502.c ****       case 0x78: // SEI
 705:../src/K6502.c ****         SETF( FLAG_I ); CLK( 2 );
 706:../src/K6502.c ****         break;
 707:../src/K6502.c **** 
 708:../src/K6502.c ****       case 0x79: // ADC Abs,Y
 709:../src/K6502.c ****         ADC( A_ABSY ); CLK( 4 );
 710:../src/K6502.c ****         break;
 711:../src/K6502.c **** 
 712:../src/K6502.c ****       case 0x7D: // ADC Abs,X
 713:../src/K6502.c ****         ADC( A_ABSX ); CLK( 4 );
 714:../src/K6502.c ****         break;
 715:../src/K6502.c **** 
 716:../src/K6502.c ****       case 0x7E: // ROR Abs,X
 717:../src/K6502.c ****         ROR( AA_ABSX ); CLK( 7 );
 718:../src/K6502.c ****         break;
 719:../src/K6502.c **** 
 720:../src/K6502.c ****       case 0x81: // STA (Zpg,X)
 721:../src/K6502.c ****         STA( AA_IX ); CLK( 6 );
 722:../src/K6502.c ****         break;
 723:../src/K6502.c ****       
 724:../src/K6502.c ****       case 0x84: // STY Zpg
 725:../src/K6502.c ****         STY( AA_ZP ); CLK( 3 );
 726:../src/K6502.c ****         break;
 727:../src/K6502.c **** 
 728:../src/K6502.c ****       case 0x85: // STA Zpg
 729:../src/K6502.c ****         STA( AA_ZP ); CLK( 3 );
 730:../src/K6502.c ****         break;
 731:../src/K6502.c **** 
 732:../src/K6502.c ****       case 0x86: // STX Zpg
 733:../src/K6502.c ****         STX( AA_ZP ); CLK( 3 );
 734:../src/K6502.c ****         break;
 735:../src/K6502.c **** 
 736:../src/K6502.c ****       case 0x88: // DEY
 737:../src/K6502.c ****         --Y; TEST( Y ); CLK( 2 );
 738:../src/K6502.c ****         break;
 739:../src/K6502.c **** 
 740:../src/K6502.c ****       case 0x8A: // TXA
 741:../src/K6502.c ****         A = X; TEST( A ); CLK( 2 );
 742:../src/K6502.c ****         break;
 743:../src/K6502.c **** 
 744:../src/K6502.c ****       case 0x8C: // STY Abs
 745:../src/K6502.c ****         STY( AA_ABS ); CLK( 4 );
 746:../src/K6502.c ****         break;
 747:../src/K6502.c **** 
 748:../src/K6502.c ****       case 0x8D: // STA Abs
 749:../src/K6502.c ****         STA( AA_ABS ); CLK( 4 );
 750:../src/K6502.c ****         break;
 751:../src/K6502.c **** 
 752:../src/K6502.c ****       case 0x8E: // STX Abs
 753:../src/K6502.c ****         STX( AA_ABS ); CLK( 4 );
 754:../src/K6502.c ****         break;
 755:../src/K6502.c **** 
 756:../src/K6502.c ****       case 0x90: // BCC
 757:../src/K6502.c ****         BRA( !( F & FLAG_C ) );
 758:../src/K6502.c ****         break;
 759:../src/K6502.c **** 
 760:../src/K6502.c ****       case 0x91: // STA (Zpg),Y
 761:../src/K6502.c ****         STA( AA_IY ); CLK( 6 );
 762:../src/K6502.c ****         break;
 763:../src/K6502.c **** 
 764:../src/K6502.c ****       case 0x94: // STY Zpg,X
 765:../src/K6502.c ****         STY( AA_ZPX ); CLK( 4 );
 766:../src/K6502.c ****         break;
 767:../src/K6502.c **** 
 768:../src/K6502.c ****       case 0x95: // STA Zpg,X
 769:../src/K6502.c ****         STA( AA_ZPX ); CLK( 4 );
 770:../src/K6502.c ****         break;
 771:../src/K6502.c **** 
 772:../src/K6502.c ****       case 0x96: // STX Zpg,Y
 773:../src/K6502.c ****         STX( AA_ZPY ); CLK( 4 );
 774:../src/K6502.c ****         break;
 775:../src/K6502.c **** 
 776:../src/K6502.c ****       case 0x98: // TYA
 777:../src/K6502.c ****         A = Y; TEST( A ); CLK( 2 );
 778:../src/K6502.c ****         break;
 779:../src/K6502.c **** 
 780:../src/K6502.c ****       case 0x99: // STA Abs,Y
 781:../src/K6502.c ****         STA( AA_ABSY ); CLK( 5 );
 782:../src/K6502.c ****         break;
 783:../src/K6502.c **** 
 784:../src/K6502.c ****       case 0x9A: // TXS
 785:../src/K6502.c ****         SP = X; CLK( 2 );
 786:../src/K6502.c ****         break;
 787:../src/K6502.c **** 
 788:../src/K6502.c ****       case 0x9D: // STA Abs,X
 789:../src/K6502.c ****         STA( AA_ABSX ); CLK( 5 );
 790:../src/K6502.c ****         break;
 791:../src/K6502.c **** 
 792:../src/K6502.c ****       case 0xA0: // LDY #Oper
 793:../src/K6502.c ****         LDY( A_IMM ); CLK( 2 );
 794:../src/K6502.c ****         break;
 795:../src/K6502.c **** 
 796:../src/K6502.c ****       case 0xA1: // LDA (Zpg,X)
 797:../src/K6502.c ****         LDA( A_IX ); CLK( 6 );
 798:../src/K6502.c ****         break;
 799:../src/K6502.c **** 
 800:../src/K6502.c ****       case 0xA2: // LDX #Oper
 801:../src/K6502.c ****         LDX( A_IMM ); CLK( 2 );
 802:../src/K6502.c ****         break;
 803:../src/K6502.c **** 
 804:../src/K6502.c ****       case 0xA4: // LDY Zpg
 805:../src/K6502.c ****         LDY( A_ZP ); CLK( 3 );
 806:../src/K6502.c ****         break;
 807:../src/K6502.c **** 
 808:../src/K6502.c ****       case 0xA5: // LDA Zpg
 809:../src/K6502.c ****         LDA( A_ZP ); CLK( 3 );
 810:../src/K6502.c ****         break;
 811:../src/K6502.c **** 
 812:../src/K6502.c ****       case 0xA6: // LDX Zpg
 813:../src/K6502.c ****         LDX( A_ZP ); CLK( 3 );
 814:../src/K6502.c ****         break;
 815:../src/K6502.c **** 
 816:../src/K6502.c ****       case 0xA8: // TAY
 817:../src/K6502.c ****         Y = A; TEST( A ); CLK( 2 );
 818:../src/K6502.c ****         break;
 819:../src/K6502.c **** 
 820:../src/K6502.c ****       case 0xA9: // LDA #Oper
 821:../src/K6502.c ****         LDA( A_IMM ); CLK( 2 );
 822:../src/K6502.c ****         break;
 823:../src/K6502.c **** 
 824:../src/K6502.c ****       case 0xAA: // TAX
 825:../src/K6502.c ****         X = A; TEST( A ); CLK( 2 );
 826:../src/K6502.c ****         break;
 827:../src/K6502.c **** 
 828:../src/K6502.c ****       case 0xAC: // LDY Abs
 829:../src/K6502.c ****         LDY( A_ABS ); CLK( 4 );
 830:../src/K6502.c ****         break;
 831:../src/K6502.c **** 
 832:../src/K6502.c ****       case 0xAD: // LDA Abs
 833:../src/K6502.c ****         LDA( A_ABS ); CLK( 4 );
 834:../src/K6502.c ****         break;
 835:../src/K6502.c **** 
 836:../src/K6502.c ****       case 0xAE: // LDX Abs
 837:../src/K6502.c ****         LDX( A_ABS ); CLK( 4 );
 838:../src/K6502.c ****         break;
 839:../src/K6502.c **** 
 840:../src/K6502.c ****       case 0xB0: // BCS
 841:../src/K6502.c ****         BRA( F & FLAG_C );
 842:../src/K6502.c ****         break;
 843:../src/K6502.c **** 
 844:../src/K6502.c ****       case 0xB1: // LDA (Zpg),Y
 845:../src/K6502.c ****         LDA( A_IY ); CLK( 5 );
 846:../src/K6502.c ****         break;
 847:../src/K6502.c **** 
 848:../src/K6502.c ****       case 0xB4: // LDY Zpg,X
 849:../src/K6502.c ****         LDY( A_ZPX ); CLK( 4 );
 850:../src/K6502.c ****         break;
 851:../src/K6502.c **** 
 852:../src/K6502.c ****       case 0xB5: // LDA Zpg,X
 853:../src/K6502.c ****         LDA( A_ZPX ); CLK( 4 );
 854:../src/K6502.c ****         break;
 855:../src/K6502.c **** 
 856:../src/K6502.c ****       case 0xB6: // LDX Zpg,Y
 857:../src/K6502.c ****         LDX( A_ZPY ); CLK( 4 );
 858:../src/K6502.c ****         break;
 859:../src/K6502.c **** 
 860:../src/K6502.c ****       case 0xB8: // CLV
 861:../src/K6502.c ****         RSTF( FLAG_V ); CLK( 2 );
 862:../src/K6502.c ****         break;
 863:../src/K6502.c **** 
 864:../src/K6502.c ****       case 0xB9: // LDA Abs,Y
 865:../src/K6502.c ****         LDA( A_ABSY ); CLK( 4 );
 866:../src/K6502.c ****         break;
 867:../src/K6502.c **** 
 868:../src/K6502.c ****       case 0xBA: // TSX
 869:../src/K6502.c ****         X = SP; TEST( X ); CLK( 2 );
 870:../src/K6502.c ****         break;
 871:../src/K6502.c **** 
 872:../src/K6502.c ****       case 0xBC: // LDY Abs,X
 873:../src/K6502.c ****         LDY( A_ABSX ); CLK( 4 );
 874:../src/K6502.c ****         break;
 875:../src/K6502.c **** 
 876:../src/K6502.c ****       case 0xBD: // LDA Abs,X
 877:../src/K6502.c ****         LDA( A_ABSX ); CLK( 4 );
 878:../src/K6502.c ****         break;
 879:../src/K6502.c **** 
 880:../src/K6502.c ****       case 0xBE: // LDX Abs,Y
 881:../src/K6502.c ****         LDX( A_ABSY ); CLK( 4 );
 882:../src/K6502.c ****         break;
 883:../src/K6502.c **** 
 884:../src/K6502.c ****       case 0xC0: // CPY #Oper
 885:../src/K6502.c ****         CPY( A_IMM ); CLK( 2 );
 886:../src/K6502.c ****         break;
 887:../src/K6502.c **** 
 888:../src/K6502.c ****       case 0xC1: // CMP (Zpg,X)
 889:../src/K6502.c ****         CMP( A_IX ); CLK( 6 );
 890:../src/K6502.c ****         break;
 891:../src/K6502.c **** 
 892:../src/K6502.c ****       case 0xC4: // CPY Zpg
 893:../src/K6502.c ****         CPY( A_ZP ); CLK( 3 );
 894:../src/K6502.c ****         break;
 895:../src/K6502.c **** 
 896:../src/K6502.c ****       case 0xC5: // CMP Zpg
 897:../src/K6502.c ****         CMP( A_ZP ); CLK( 3 );
 898:../src/K6502.c ****         break;
 899:../src/K6502.c **** 
 900:../src/K6502.c ****       case 0xC6: // DEC Zpg
 901:../src/K6502.c ****         DEC( AA_ZP ); CLK( 5 );
 902:../src/K6502.c ****         break;
 903:../src/K6502.c **** 
 904:../src/K6502.c ****       case 0xC8: // INY
 905:../src/K6502.c ****         ++Y; TEST( Y ); CLK( 2 );
 906:../src/K6502.c ****         break;
 907:../src/K6502.c **** 
 908:../src/K6502.c ****       case 0xC9: // CMP #Oper
 909:../src/K6502.c ****         CMP( A_IMM ); CLK( 2 );
 910:../src/K6502.c ****         break;
 911:../src/K6502.c **** 
 912:../src/K6502.c ****       case 0xCA: // DEX
 913:../src/K6502.c ****         --X; TEST( X ); CLK( 2 );
 914:../src/K6502.c ****         break;
 915:../src/K6502.c **** 
 916:../src/K6502.c ****       case 0xCC: // CPY Abs
 917:../src/K6502.c ****         CPY( A_ABS ); CLK( 4 );
 918:../src/K6502.c ****         break;
 919:../src/K6502.c **** 
 920:../src/K6502.c ****       case 0xCD: // CMP Abs
 921:../src/K6502.c ****         CMP( A_ABS ); CLK( 4 );
 922:../src/K6502.c ****         break;
 923:../src/K6502.c **** 
 924:../src/K6502.c ****       case 0xCE: // DEC Abs
 925:../src/K6502.c ****         DEC( AA_ABS ); CLK( 6 );
 926:../src/K6502.c ****         break;
 927:../src/K6502.c **** 
 928:../src/K6502.c ****       case 0xD0: // BNE
 929:../src/K6502.c ****         BRA( !( F & FLAG_Z ) );
 930:../src/K6502.c ****         break;
 931:../src/K6502.c **** 
 932:../src/K6502.c ****       case 0xD1: // CMP (Zpg),Y
 933:../src/K6502.c ****         CMP( A_IY ); CLK( 5 );
 934:../src/K6502.c ****         break;
 935:../src/K6502.c **** 
 936:../src/K6502.c ****       case 0xD5: // CMP Zpg,X
 937:../src/K6502.c ****         CMP( A_ZPX ); CLK( 4 );
 938:../src/K6502.c ****         break;
 939:../src/K6502.c **** 
 940:../src/K6502.c ****       case 0xD6: // DEC Zpg,X
 941:../src/K6502.c ****         DEC( AA_ZPX ); CLK( 6 );
 942:../src/K6502.c ****         break;
 943:../src/K6502.c **** 
 944:../src/K6502.c ****       case 0xD8: // CLD
 945:../src/K6502.c ****         RSTF( FLAG_D ); CLK( 2 );
 946:../src/K6502.c ****         break;
 947:../src/K6502.c **** 
 948:../src/K6502.c ****       case 0xD9: // CMP Abs,Y
 949:../src/K6502.c ****         CMP( A_ABSY ); CLK( 4 );
 950:../src/K6502.c ****         break;
 951:../src/K6502.c **** 
 952:../src/K6502.c ****       case 0xDD: // CMP Abs,X
 953:../src/K6502.c ****         CMP( A_ABSX ); CLK( 4 );
 954:../src/K6502.c ****         break;
 955:../src/K6502.c **** 
 956:../src/K6502.c ****       case 0xDE: // DEC Abs,X
 957:../src/K6502.c ****         DEC( AA_ABSX ); CLK( 7 );
 958:../src/K6502.c ****         break;
 959:../src/K6502.c **** 
 960:../src/K6502.c ****       case 0xE0: // CPX #Oper
 961:../src/K6502.c ****         CPX( A_IMM ); CLK( 2 );
 962:../src/K6502.c ****         break;
 963:../src/K6502.c **** 
 964:../src/K6502.c ****       case 0xE1: // SBC (Zpg,X)
 965:../src/K6502.c ****         SBC( A_IX ); CLK( 6 );
 966:../src/K6502.c ****         break;
 967:../src/K6502.c **** 
 968:../src/K6502.c ****       case 0xE4: // CPX Zpg
 969:../src/K6502.c ****         CPX( A_ZP ); CLK( 3 );
 970:../src/K6502.c ****         break;
 971:../src/K6502.c **** 
 972:../src/K6502.c ****       case 0xE5: // SBC Zpg
 973:../src/K6502.c ****         SBC( A_ZP ); CLK( 3 );
 974:../src/K6502.c ****         break;
 975:../src/K6502.c **** 
 976:../src/K6502.c ****       case 0xE6: // INC Zpg
 977:../src/K6502.c ****         INC( AA_ZP ); CLK( 5 );
 978:../src/K6502.c ****         break;
 979:../src/K6502.c **** 
 980:../src/K6502.c ****       case 0xE8: // INX
 981:../src/K6502.c ****         ++X; TEST( X ); CLK( 2 );
 982:../src/K6502.c ****         break;
 983:../src/K6502.c **** 
 984:../src/K6502.c ****       case 0xE9: // SBC #Oper
 985:../src/K6502.c ****         SBC( A_IMM ); CLK( 2 );
 986:../src/K6502.c ****         break;
 987:../src/K6502.c **** 
 988:../src/K6502.c ****       case 0xEA: // NOP
 989:../src/K6502.c ****         CLK( 2 );
 990:../src/K6502.c ****         break;
 991:../src/K6502.c **** 
 992:../src/K6502.c ****       case 0xEC: // CPX Abs
 993:../src/K6502.c ****         CPX( A_ABS ); CLK( 4 );
 994:../src/K6502.c ****         break;
 995:../src/K6502.c **** 
 996:../src/K6502.c ****       case 0xED: // SBC Abs
 997:../src/K6502.c ****         SBC( A_ABS ); CLK( 4 );
 998:../src/K6502.c ****         break;
 999:../src/K6502.c **** 
1000:../src/K6502.c ****       case 0xEE: // INC Abs
1001:../src/K6502.c ****         INC( AA_ABS ); CLK( 6 );
1002:../src/K6502.c ****         break;
1003:../src/K6502.c **** 
1004:../src/K6502.c ****       case 0xF0: // BEQ
1005:../src/K6502.c ****         BRA( F & FLAG_Z );
1006:../src/K6502.c ****         break;
1007:../src/K6502.c **** 
1008:../src/K6502.c ****       case 0xF1: // SBC (Zpg),Y
1009:../src/K6502.c ****         SBC( A_IY ); CLK( 5 );
1010:../src/K6502.c ****         break;
1011:../src/K6502.c **** 
1012:../src/K6502.c ****       case 0xF5: // SBC Zpg,X
1013:../src/K6502.c ****         SBC( A_ZPX ); CLK( 4 );
1014:../src/K6502.c ****         break;
1015:../src/K6502.c **** 
1016:../src/K6502.c ****       case 0xF6: // INC Zpg,X
1017:../src/K6502.c ****         INC( AA_ZPX ); CLK( 6 );
1018:../src/K6502.c ****         break;
1019:../src/K6502.c **** 
1020:../src/K6502.c ****       case 0xF8: // SED
1021:../src/K6502.c ****         SETF( FLAG_D ); CLK( 2 );
1022:../src/K6502.c ****         break;
1023:../src/K6502.c **** 
1024:../src/K6502.c ****       case 0xF9: // SBC Abs,Y
1025:../src/K6502.c ****         SBC( A_ABSY ); CLK( 4 );
1026:../src/K6502.c ****         break;
1027:../src/K6502.c **** 
1028:../src/K6502.c ****       case 0xFD: // SBC Abs,X
1029:../src/K6502.c ****         SBC( A_ABSX ); CLK( 4 );
1030:../src/K6502.c ****         break;
1031:../src/K6502.c **** 
1032:../src/K6502.c ****       case 0xFE: // INC Abs,X
1033:../src/K6502.c ****         INC( AA_ABSX ); CLK( 7 );
1034:../src/K6502.c ****         break;
1035:../src/K6502.c **** 
1036:../src/K6502.c ****       /*-----------------------------------------------------------*/
1037:../src/K6502.c ****       /*  Unlisted Instructions ( thanks to virtualnes )           */
1038:../src/K6502.c ****       /*-----------------------------------------------------------*/
1039:../src/K6502.c **** 
1040:../src/K6502.c **** 			case	0x1A: // NOP (Unofficial)
1041:../src/K6502.c **** 			case	0x3A: // NOP (Unofficial)
1042:../src/K6502.c **** 			case	0x5A: // NOP (Unofficial)
1043:../src/K6502.c **** 			case	0x7A: // NOP (Unofficial)
1044:../src/K6502.c **** 			case	0xDA: // NOP (Unofficial)
1045:../src/K6502.c **** 			case	0xFA: // NOP (Unofficial)
1046:../src/K6502.c **** 				CLK( 2 );
1047:../src/K6502.c **** 				break;
1048:../src/K6502.c **** 
1049:../src/K6502.c **** 			case	0x80: // DOP (CYCLES 2)
1050:../src/K6502.c **** 			case	0x82: // DOP (CYCLES 2)
1051:../src/K6502.c **** 			case	0x89: // DOP (CYCLES 2)
1052:../src/K6502.c **** 			case	0xC2: // DOP (CYCLES 2)
1053:../src/K6502.c **** 			case	0xE2: // DOP (CYCLES 2)
1054:../src/K6502.c **** 				PC++;
1055:../src/K6502.c **** 				CLK( 2 );
1056:../src/K6502.c **** 				break;
1057:../src/K6502.c **** 
1058:../src/K6502.c **** 			case	0x04: // DOP (CYCLES 3)
1059:../src/K6502.c **** 			case	0x44: // DOP (CYCLES 3)
1060:../src/K6502.c **** 			case	0x64: // DOP (CYCLES 3)
1061:../src/K6502.c **** 				PC++;
1062:../src/K6502.c **** 				CLK( 3 );
1063:../src/K6502.c **** 				break;
1064:../src/K6502.c **** 
1065:../src/K6502.c **** 			case	0x14: // DOP (CYCLES 4)
1066:../src/K6502.c **** 			case	0x34: // DOP (CYCLES 4)
1067:../src/K6502.c **** 			case	0x54: // DOP (CYCLES 4)
1068:../src/K6502.c **** 			case	0x74: // DOP (CYCLES 4)
1069:../src/K6502.c **** 			case	0xD4: // DOP (CYCLES 4)
1070:../src/K6502.c **** 			case	0xF4: // DOP (CYCLES 4)
1071:../src/K6502.c ****         PC++; 
1072:../src/K6502.c ****         CLK( 4 );
1073:../src/K6502.c ****         break;
1074:../src/K6502.c **** 
1075:../src/K6502.c **** 			case	0x0C: // TOP
1076:../src/K6502.c **** 			case	0x1C: // TOP
1077:../src/K6502.c **** 			case	0x3C: // TOP
1078:../src/K6502.c **** 			case	0x5C: // TOP
1079:../src/K6502.c **** 			case	0x7C: // TOP
1080:../src/K6502.c **** 			case	0xDC: // TOP
1081:../src/K6502.c **** 			case	0xFC: // TOP
1082:../src/K6502.c **** 				PC+=2;
1083:../src/K6502.c **** 				CLK( 4 );
1084:../src/K6502.c **** 				break;
1085:../src/K6502.c **** 
1086:../src/K6502.c ****       default:   // Unknown Instruction
1087:../src/K6502.c ****         CLK( 2 );
1088:../src/K6502.c **** #if 0
1089:../src/K6502.c ****         InfoNES_MessageBox( "0x%02x is unknown instruction.\n", byCode ) ;
1090:../src/K6502.c **** #endif
1091:../src/K6502.c ****         break;
1092:../src/K6502.c ****         
1093:../src/K6502.c ****     }  /* end of switch ( byCode ) */
1094:../src/K6502.c **** 
1095:../src/K6502.c ****   }  /* end of while ... */
1096:../src/K6502.c **** 
1097:../src/K6502.c ****   // Correct the number of the clocks
1098:../src/K6502.c ****   g_wPassedClocks -= wClocks;
1099:../src/K6502.c **** }
1100:../src/K6502.c **** 
1101:../src/K6502.c **** // Addressing Op.
1102:../src/K6502.c **** // Data
1103:../src/K6502.c **** // Absolute,X
1104:../src/K6502.c **** static inline BYTE K6502_ReadAbsX(){ WORD wA0, wA1; wA0 = AA_ABS; wA1 = wA0 + X; CLK( ( wA0 & 0x010
 740              		.loc 2 1104 0
 741              		.cfi_startproc
 742 0000 4111     		addi	sp,sp,-16
 743              		.cfi_def_cfa_offset 16
 744 0002 B7070000 		lui	a5,%hi(.LANCHOR0)
 745 0006 26C2     		sw	s1,4(sp)
 746              		.cfi_offset 9, -12
 747 0008 93840700 		addi	s1,a5,%lo(.LANCHOR0)
 748 000c 83D60400 		lhu	a3,0(s1)
 749              	.LBB138:
 750              	.LBB139:
  73:../src/K6502_rw.h ****   {
 751              		.loc 1 73 0
 752 0010 7977     		li	a4,-8192
 753              	.LBE139:
 754              	.LBE138:
 755              		.loc 2 1104 0
 756 0012 06C6     		sw	ra,12(sp)
 757 0014 13851600 		addi	a0,a3,1
 758 0018 13160501 		slli	a2,a0,16
 759 001c 4182     		srli	a2,a2,16
 760 001e 22C4     		sw	s0,8(sp)
 761              		.cfi_offset 1, -4
 762              		.cfi_offset 8, -8
 763              	.LBB158:
 764              	.LBB143:
  73:../src/K6502_rw.h ****   {
 765              		.loc 1 73 0
 766 0020 9965     		li	a1,24576
 767              	.LBE143:
 768              	.LBE158:
 769              		.loc 2 1104 0
 770 0022 2390C400 		sh	a2,0(s1)
 771              	.LVL60:
 772              	.LBB159:
 773              	.LBB144:
  73:../src/K6502_rw.h ****   {
 774              		.loc 1 73 0
 775 0026 758F     		and	a4,a3,a4
 776 0028 6307B724 		beq	a4,a1,.L71
 777 002c 63F2E50E 		bleu	a4,a1,.L148
 778 0030 A967     		li	a5,40960
 779 0032 630DF722 		beq	a4,a5,.L76
 780 0036 63F2E71E 		bleu	a4,a5,.L149
 781 003a B167     		li	a5,49152
 782 003c 630AF714 		beq	a4,a5,.L79
 783 0040 B967     		li	a5,57344
 784 0042 631EF70C 		bne	a4,a5,.L70
 196:../src/K6502_rw.h ****   }
 785              		.loc 1 196 0
 786 0046 B7070000 		lui	a5,%hi(ROMBANK3)
 787 004a 83A70700 		lw	a5,%lo(ROMBANK3)(a5)
 788              	.L145:
 190:../src/K6502_rw.h **** 
 789              		.loc 1 190 0
 790 004e 0965     		li	a0,8192
 791 0050 7D15     		addi	a0,a0,-1
 792 0052 E98E     		and	a3,a3,a0
 793              	.LVL61:
 794 0054 BE96     		add	a3,a5,a3
 795 0056 03C40600 		lbu	s0,0(a3)
 796              	.L81:
 797              	.LBE144:
 798              	.LBE159:
 799              		.loc 2 1104 0
 800 005a 13071600 		addi	a4,a2,1
 801 005e 2390E400 		sh	a4,0(s1)
 802              	.LBB160:
 803              	.LBB161:
  73:../src/K6502_rw.h ****   {
 804              		.loc 1 73 0
 805 0062 7977     		li	a4,-8192
 806              	.LBE161:
 807              	.LBE160:
 808              		.loc 2 1104 0
 809 0064 4204     		slli	s0,s0,16
 810              	.LBB180:
 811              	.LBB165:
  73:../src/K6502_rw.h ****   {
 812              		.loc 1 73 0
 813 0066 718F     		and	a4,a2,a4
 814 0068 9965     		li	a1,24576
 815              	.LBE165:
 816              	.LBE180:
 817              		.loc 2 1104 0
 818 006a 4184     		srai	s0,s0,16
 819              	.LVL62:
 820              	.LBB181:
 821              	.LBB166:
  73:../src/K6502_rw.h ****   {
 822              		.loc 1 73 0
 823 006c 6306B70C 		beq	a4,a1,.L92
 824              	.L155:
 825 0070 63FAE516 		bleu	a4,a1,.L150
 826 0074 A967     		li	a5,40960
 827 0076 6302F71C 		beq	a4,a5,.L97
 828 007a 63F8E718 		bleu	a4,a5,.L151
 829 007e B167     		li	a5,49152
 830 0080 6309F732 		beq	a4,a5,.L100
 831 0084 B967     		li	a5,57344
 832 0086 6319F720 		bne	a4,a5,.L91
 196:../src/K6502_rw.h ****   }
 833              		.loc 1 196 0
 834 008a B7070000 		lui	a5,%hi(ROMBANK3)
 835 008e 83A70700 		lw	a5,%lo(ROMBANK3)(a5)
 836              	.L146:
 837 0092 0965     		li	a0,8192
 838 0094 7D15     		addi	a0,a0,-1
 839 0096 718D     		and	a0,a2,a0
 840 0098 3E95     		add	a0,a5,a0
 841 009a 03050500 		lb	a0,0(a0)
 842 009e 93178500 		slli	a5,a0,8
 843              	.L102:
 844              	.LBE166:
 845              	.LBE181:
 846              		.loc 2 1104 0
 847 00a2 37070000 		lui	a4,%hi(.LANCHOR1)
 848 00a6 03450700 		lbu	a0,%lo(.LANCHOR1)(a4)
 849 00aa C18F     		or	a5,s0,a5
 850 00ac C207     		slli	a5,a5,16
 851 00ae C183     		srli	a5,a5,16
 852              	.LVL63:
 853 00b0 3E95     		add	a0,a5,a0
 854 00b2 4205     		slli	a0,a0,16
 855 00b4 37070000 		lui	a4,%hi(.LANCHOR2)
 856 00b8 13070700 		addi	a4,a4,%lo(.LANCHOR2)
 857 00bc 4181     		srli	a0,a0,16
 858              	.LVL64:
 859 00be 83560700 		lhu	a3,0(a4)
 860 00c2 A98F     		xor	a5,a5,a0
 861              	.LVL65:
 862 00c4 A183     		srli	a5,a5,8
 863 00c6 858B     		andi	a5,a5,1
 864 00c8 B697     		add	a5,a5,a3
 865 00ca 2310F700 		sh	a5,0(a4)
 866              	.LVL66:
 867              	.LBB182:
 868              	.LBB183:
  73:../src/K6502_rw.h ****   {
 869              		.loc 1 73 0
 870 00ce F977     		li	a5,-8192
 871 00d0 E98F     		and	a5,a0,a5
 872 00d2 1967     		li	a4,24576
 873 00d4 638AE72A 		beq	a5,a4,.L112
 874 00d8 637BF70C 		bleu	a5,a4,.L152
 875 00dc 2967     		li	a4,40960
 876 00de 6382E718 		beq	a5,a4,.L117
 877 00e2 6374F714 		bleu	a5,a4,.L153
 878 00e6 3167     		li	a4,49152
 879 00e8 6380E72C 		beq	a5,a4,.L120
 880 00ec 3967     		li	a4,57344
 881 00ee 6397E70C 		bne	a5,a4,.L111
 196:../src/K6502_rw.h ****   }
 882              		.loc 1 196 0
 883 00f2 B7070000 		lui	a5,%hi(ROMBANK3)
 884 00f6 03A70700 		lw	a4,%lo(ROMBANK3)(a5)
 885              	.L147:
 190:../src/K6502_rw.h **** 
 886              		.loc 1 190 0
 887 00fa 8967     		li	a5,8192
 888 00fc FD17     		addi	a5,a5,-1
 889 00fe 7D8D     		and	a0,a0,a5
 890              	.LVL67:
 891 0100 3A95     		add	a0,a4,a0
 892 0102 03450500 		lbu	a0,0(a0)
 893              	.L143:
 894              	.LBE183:
 895              	.LBE182:
 896              		.loc 2 1104 0
 897 0106 B240     		lw	ra,12(sp)
 898              		.cfi_remember_state
 899              		.cfi_restore 1
 900 0108 2244     		lw	s0,8(sp)
 901              		.cfi_restore 8
 902 010a 9244     		lw	s1,4(sp)
 903              		.cfi_restore 9
 904 010c 4101     		addi	sp,sp,16
 905              		.cfi_def_cfa_offset 0
 906 010e 8280     		jr	ra
 907              	.LVL68:
 908              	.L148:
 909              		.cfi_restore_state
 910              	.LBB203:
 911              	.LBB145:
  73:../src/K6502_rw.h ****   {
 912              		.loc 1 73 0
 913 0110 8967     		li	a5,8192
 914 0112 6309F712 		beq	a4,a5,.L73
 915 0116 9167     		li	a5,16384
 916 0118 6303F704 		beq	a4,a5,.L74
 917 011c 3DCF     		beqz	a4,.L154
 918              	.L70:
 919              	.LBE145:
 920              	.LBE203:
 921              		.loc 2 1104 0
 922 011e 13071600 		addi	a4,a2,1
 923              	.LBB204:
 924              	.LBB146:
 199:../src/K6502_rw.h ****                             address is returned. */
 925              		.loc 1 199 0
 926 0122 13D48600 		srli	s0,a3,8
 927              	.LVL69:
 928              	.LBE146:
 929              	.LBE204:
 930              		.loc 2 1104 0
 931 0126 2390E400 		sh	a4,0(s1)
 932              	.LBB205:
 933              	.LBB167:
  73:../src/K6502_rw.h ****   {
 934              		.loc 1 73 0
 935 012a 7977     		li	a4,-8192
 936              	.LBE167:
 937              	.LBE205:
 938              		.loc 2 1104 0
 939 012c 4204     		slli	s0,s0,16
 940              	.LBB206:
 941              	.LBB168:
  73:../src/K6502_rw.h ****   {
 942              		.loc 1 73 0
 943 012e 718F     		and	a4,a2,a4
 944 0130 9965     		li	a1,24576
 945              	.LBE168:
 946              	.LBE206:
 947              		.loc 2 1104 0
 948 0132 4184     		srai	s0,s0,16
 949              	.LBB207:
 950              	.LBB169:
  73:../src/K6502_rw.h ****   {
 951              		.loc 1 73 0
 952 0134 E31EB7F2 		bne	a4,a1,.L155
 953              	.L92:
 179:../src/K6502_rw.h ****       {
 954              		.loc 1 179 0
 955 0138 B7070000 		lui	a5,%hi(ROM_SRAM)
 956 013c 83C70700 		lbu	a5,%lo(ROM_SRAM)(a5)
 957 0140 0965     		li	a0,8192
 958 0142 7D15     		addi	a0,a0,-1
 959 0144 718D     		and	a0,a2,a0
 960 0146 63830728 		beqz	a5,.L110
 181:../src/K6502_rw.h ****       } else {    /* SRAM BANK */
 961              		.loc 1 181 0
 962 014a 37060000 		lui	a2,%hi(SRAM)
 963 014e 13060600 		addi	a2,a2,%lo(SRAM)
 964 0152 3295     		add	a0,a0,a2
 965 0154 03050500 		lb	a0,0(a0)
 966 0158 93178500 		slli	a5,a0,8
 967 015c 99B7     		j	.L102
 968              	.LVL70:
 969              	.L74:
 970              	.LBE169:
 971              	.LBE207:
 972              	.LBB208:
 973              	.LBB147:
 128:../src/K6502_rw.h ****       {
 974              		.loc 1 128 0
 975 015e 93074701 		addi	a5,a4,20
 976 0162 638FF64E 		beq	a3,a5,.L131
 133:../src/K6502_rw.h ****       {
 977              		.loc 1 133 0
 978 0166 93075701 		addi	a5,a4,21
 979 016a 6384F648 		beq	a3,a5,.L132
 155:../src/K6502_rw.h ****       {
 980              		.loc 1 155 0
 981 016e 93076701 		addi	a5,a4,22
 982 0172 6380F618 		beq	a3,a5,.L156
 163:../src/K6502_rw.h ****       {
 983              		.loc 1 163 0
 984 0176 5D07     		addi	a4,a4,23
 985 0178 638AE654 		beq	a3,a4,.L157
 173:../src/K6502_rw.h ****       }
 986              		.loc 1 173 0
 987 017c B7070000 		lui	a5,%hi(MapperReadApu)
 988 0180 83A70700 		lw	a5,%lo(MapperReadApu)(a5)
 989 0184 3685     		mv	a0,a3
 990 0186 8297     		jalr	a5
 991              	.LVL71:
 992 0188 2A84     		mv	s0,a0
 993 018a 03D60400 		lhu	a2,0(s1)
 994 018e F1B5     		j	.L81
 995              	.LVL72:
 996              	.L79:
 193:../src/K6502_rw.h **** 
 997              		.loc 1 193 0
 998 0190 B7070000 		lui	a5,%hi(ROMBANK2)
 999 0194 83A70700 		lw	a5,%lo(ROMBANK2)(a5)
 1000 0198 5DBD     		j	.L145
 1001              	.L154:
  76:../src/K6502_rw.h **** 
 1002              		.loc 1 76 0
 1003 019a 37050000 		lui	a0,%hi(RAM)
 1004 019e 93F6F67F 		andi	a3,a3,2047
 1005              	.LVL73:
 1006 01a2 13050500 		addi	a0,a0,%lo(RAM)
 1007 01a6 AA96     		add	a3,a3,a0
 1008 01a8 03C40600 		lbu	s0,0(a3)
 1009 01ac 7DB5     		j	.L81
 1010              	.LVL74:
 1011              	.L152:
 1012              	.LBE147:
 1013              	.LBE208:
 1014              	.LBB209:
 1015              	.LBB187:
  73:../src/K6502_rw.h ****   {
 1016              		.loc 1 73 0
 1017 01ae 0967     		li	a4,8192
 1018 01b0 6382E712 		beq	a5,a4,.L114
 1019 01b4 1167     		li	a4,16384
 1020 01b6 6387E70E 		beq	a5,a4,.L115
 1021 01ba 99C7     		beqz	a5,.L158
 1022              	.L111:
 1023              	.LBE187:
 1024              	.LBE209:
 1025              		.loc 2 1104 0
 1026 01bc B240     		lw	ra,12(sp)
 1027              		.cfi_remember_state
 1028              		.cfi_restore 1
 1029 01be 2244     		lw	s0,8(sp)
 1030              		.cfi_restore 8
 1031 01c0 9244     		lw	s1,4(sp)
 1032              		.cfi_restore 9
 1033              	.LBB210:
 1034              	.LBB188:
 199:../src/K6502_rw.h ****                             address is returned. */
 1035              		.loc 1 199 0
 1036 01c2 2181     		srli	a0,a0,8
 1037              	.LVL75:
 1038              	.LBE188:
 1039              	.LBE210:
 1040              		.loc 2 1104 0
 1041 01c4 4101     		addi	sp,sp,16
 1042              		.cfi_def_cfa_offset 0
 1043 01c6 8280     		jr	ra
 1044              	.LVL76:
 1045              	.L158:
 1046              		.cfi_restore_state
 1047 01c8 B240     		lw	ra,12(sp)
 1048              		.cfi_remember_state
 1049              		.cfi_restore 1
 1050 01ca 2244     		lw	s0,8(sp)
 1051              		.cfi_restore 8
 1052              	.LBB211:
 1053              	.LBB189:
  76:../src/K6502_rw.h **** 
 1054              		.loc 1 76 0
 1055 01cc B7070000 		lui	a5,%hi(RAM)
 1056 01d0 1375F57F 		andi	a0,a0,2047
 1057              	.LVL77:
 1058 01d4 93870700 		addi	a5,a5,%lo(RAM)
 1059 01d8 3E95     		add	a0,a0,a5
 1060 01da 03450500 		lbu	a0,0(a0)
 1061              	.LBE189:
 1062              	.LBE211:
 1063              		.loc 2 1104 0
 1064 01de 9244     		lw	s1,4(sp)
 1065              		.cfi_restore 9
 1066 01e0 4101     		addi	sp,sp,16
 1067              		.cfi_def_cfa_offset 0
 1068 01e2 8280     		jr	ra
 1069              	.L150:
 1070              		.cfi_restore_state
 1071              	.LBB212:
 1072              	.LBB170:
  73:../src/K6502_rw.h ****   {
 1073              		.loc 1 73 0
 1074 01e4 8967     		li	a5,8192
 1075 01e6 630FF716 		beq	a4,a5,.L94
 1076 01ea 9167     		li	a5,16384
 1077 01ec 6300F714 		beq	a4,a5,.L95
 1078 01f0 45E7     		bnez	a4,.L91
  76:../src/K6502_rw.h **** 
 1079              		.loc 1 76 0
 1080 01f2 1375F67F 		andi	a0,a2,2047
 1081 01f6 37060000 		lui	a2,%hi(RAM)
 1082 01fa 13060600 		addi	a2,a2,%lo(RAM)
 1083 01fe 3295     		add	a0,a0,a2
 1084 0200 03050500 		lb	a0,0(a0)
 1085 0204 93178500 		slli	a5,a0,8
 1086 0208 69BD     		j	.L102
 1087              	.L151:
  73:../src/K6502_rw.h ****   {
 1088              		.loc 1 73 0
 1089 020a A167     		li	a5,32768
 1090 020c 6316F708 		bne	a4,a5,.L91
 187:../src/K6502_rw.h **** 
 1091              		.loc 1 187 0
 1092 0210 B7070000 		lui	a5,%hi(ROMBANK0)
 1093 0214 83A70700 		lw	a5,%lo(ROMBANK0)(a5)
 1094 0218 ADBD     		j	.L146
 1095              	.LVL78:
 1096              	.L149:
 1097              	.LBE170:
 1098              	.LBE212:
 1099              	.LBB213:
 1100              	.LBB148:
  73:../src/K6502_rw.h ****   {
 1101              		.loc 1 73 0
 1102 021a A167     		li	a5,32768
 1103 021c E311F7F0 		bne	a4,a5,.L70
 187:../src/K6502_rw.h **** 
 1104              		.loc 1 187 0
 1105 0220 B7070000 		lui	a5,%hi(ROMBANK0)
 1106 0224 83A70700 		lw	a5,%lo(ROMBANK0)(a5)
 1107 0228 1DB5     		j	.L145
 1108              	.LVL79:
 1109              	.L153:
 1110              	.LBE148:
 1111              	.LBE213:
 1112              	.LBB214:
 1113              	.LBB190:
  73:../src/K6502_rw.h ****   {
 1114              		.loc 1 73 0
 1115 022a 2167     		li	a4,32768
 1116 022c E398E7F8 		bne	a5,a4,.L111
 187:../src/K6502_rw.h **** 
 1117              		.loc 1 187 0
 1118 0230 B7070000 		lui	a5,%hi(ROMBANK0)
 1119 0234 03A70700 		lw	a4,%lo(ROMBANK0)(a5)
 1120 0238 C9B5     		j	.L147
 1121              	.LVL80:
 1122              	.L97:
 1123              	.LBE190:
 1124              	.LBE214:
 1125              	.LBB215:
 1126              	.LBB171:
 190:../src/K6502_rw.h **** 
 1127              		.loc 1 190 0
 1128 023a B7070000 		lui	a5,%hi(ROMBANK1)
 1129 023e 83A70700 		lw	a5,%lo(ROMBANK1)(a5)
 1130 0242 81BD     		j	.L146
 1131              	.LVL81:
 1132              	.L73:
 1133 0244 9D8A     		andi	a3,a3,7
 1134              	.LVL82:
 1135              	.LBE171:
 1136              	.LBE215:
 1137              	.LBB216:
 1138              	.LBB149:
  79:../src/K6502_rw.h ****       {
 1139              		.loc 1 79 0
 1140 0246 9D47     		li	a5,7
 1141 0248 6384F636 		beq	a3,a5,.L159
  95:../src/K6502_rw.h ****       {
 1142              		.loc 1 95 0
 1143 024c 9147     		li	a5,4
 1144 024e 6386F63A 		beq	a3,a5,.L160
 100:../src/K6502_rw.h ****       {
 1145              		.loc 1 100 0
 1146 0252 8947     		li	a5,2
 1147 0254 6380F624 		beq	a3,a5,.L161
 123:../src/K6502_rw.h ****       }
 1148              		.loc 1 123 0
 1149 0258 B7070000 		lui	a5,%hi(PPU_R7)
 1150 025c 03C40700 		lbu	s0,%lo(PPU_R7)(a5)
 1151 0260 EDBB     		j	.L81
 1152              	.LVL83:
 1153              	.L117:
 1154              	.LBE149:
 1155              	.LBE216:
 1156              	.LBB217:
 1157              	.LBB191:
 190:../src/K6502_rw.h **** 
 1158              		.loc 1 190 0
 1159 0262 B7070000 		lui	a5,%hi(ROMBANK1)
 1160 0266 03A70700 		lw	a4,%lo(ROMBANK1)(a5)
 1161 026a 41BD     		j	.L147
 1162              	.LVL84:
 1163              	.L76:
 1164              	.LBE191:
 1165              	.LBE217:
 1166              	.LBB218:
 1167              	.LBB150:
 1168 026c B7070000 		lui	a5,%hi(ROMBANK1)
 1169 0270 83A70700 		lw	a5,%lo(ROMBANK1)(a5)
 1170 0274 E9BB     		j	.L145
 1171              	.L71:
 179:../src/K6502_rw.h ****       {
 1172              		.loc 1 179 0
 1173 0276 B7070000 		lui	a5,%hi(ROM_SRAM)
 1174 027a 83C70700 		lbu	a5,%lo(ROM_SRAM)(a5)
 1175 027e 0965     		li	a0,8192
 1176 0280 7D15     		addi	a0,a0,-1
 1177 0282 758D     		and	a0,a3,a0
 1178 0284 638C0712 		beqz	a5,.L90
 181:../src/K6502_rw.h ****       } else {    /* SRAM BANK */
 1179              		.loc 1 181 0
 1180 0288 B7060000 		lui	a3,%hi(SRAM)
 1181              	.LVL85:
 1182 028c 93860600 		addi	a3,a3,%lo(SRAM)
 1183 0290 3695     		add	a0,a0,a3
 1184 0292 03440500 		lbu	s0,0(a0)
 1185 0296 D1B3     		j	.L81
 1186              	.L91:
 1187 0298 13150601 		slli	a0,a2,16
 1188 029c 4185     		srai	a0,a0,16
 1189 029e 937705F0 		andi	a5,a0,-256
 1190 02a2 01B5     		j	.L102
 1191              	.LVL86:
 1192              	.L115:
 1193              	.LBE150:
 1194              	.LBE218:
 1195              	.LBB219:
 1196              	.LBB192:
 128:../src/K6502_rw.h ****       {
 1197              		.loc 1 128 0
 1198 02a4 13874701 		addi	a4,a5,20
 1199 02a8 630AE53A 		beq	a0,a4,.L139
 133:../src/K6502_rw.h ****       {
 1200              		.loc 1 133 0
 1201 02ac 13875701 		addi	a4,a5,21
 1202 02b0 6303E534 		beq	a0,a4,.L140
 155:../src/K6502_rw.h ****       {
 1203              		.loc 1 155 0
 1204 02b4 13876701 		addi	a4,a5,22
 1205 02b8 6306E516 		beq	a0,a4,.L162
 163:../src/K6502_rw.h ****       {
 1206              		.loc 1 163 0
 1207 02bc DD07     		addi	a5,a5,23
 1208 02be 6307F53A 		beq	a0,a5,.L163
 1209              	.LBE192:
 1210              	.LBE219:
 1211              		.loc 2 1104 0
 1212 02c2 2244     		lw	s0,8(sp)
 1213              		.cfi_remember_state
 1214              		.cfi_restore 8
 1215              	.LBB220:
 1216              	.LBB193:
 173:../src/K6502_rw.h ****       }
 1217              		.loc 1 173 0
 1218 02c4 B7070000 		lui	a5,%hi(MapperReadApu)
 1219              	.LBE193:
 1220              	.LBE220:
 1221              		.loc 2 1104 0
 1222 02c8 B240     		lw	ra,12(sp)
 1223              		.cfi_restore 1
 1224 02ca 9244     		lw	s1,4(sp)
 1225              		.cfi_restore 9
 1226              	.LBB221:
 1227              	.LBB194:
 173:../src/K6502_rw.h ****       }
 1228              		.loc 1 173 0
 1229 02cc 03A30700 		lw	t1,%lo(MapperReadApu)(a5)
 1230              	.LBE194:
 1231              	.LBE221:
 1232              		.loc 2 1104 0
 1233 02d0 4101     		addi	sp,sp,16
 1234              		.cfi_def_cfa_offset 0
 1235              	.LBB222:
 1236              	.LBB195:
 173:../src/K6502_rw.h ****       }
 1237              		.loc 1 173 0
 1238 02d2 0283     		jr	t1
 1239              	.LVL87:
 1240              	.L114:
 1241              		.cfi_restore_state
 1242 02d4 1D89     		andi	a0,a0,7
 1243              	.LVL88:
  79:../src/K6502_rw.h ****       {
 1244              		.loc 1 79 0
 1245 02d6 9D47     		li	a5,7
 1246 02d8 630BF528 		beq	a0,a5,.L164
  95:../src/K6502_rw.h ****       {
 1247              		.loc 1 95 0
 1248 02dc 9147     		li	a5,4
 1249 02de 630FF534 		beq	a0,a5,.L165
 100:../src/K6502_rw.h ****       {
 1250              		.loc 1 100 0
 1251 02e2 8947     		li	a5,2
 1252 02e4 6306F516 		beq	a0,a5,.L166
 123:../src/K6502_rw.h ****       }
 1253              		.loc 1 123 0
 1254 02e8 B7070000 		lui	a5,%hi(PPU_R7)
 1255 02ec 03C50700 		lbu	a0,%lo(PPU_R7)(a5)
 1256 02f0 19BD     		j	.L143
 1257              	.LVL89:
 1258              	.L156:
 1259              	.LBE195:
 1260              	.LBE222:
 1261              	.LBB223:
 1262              	.LBB151:
 158:../src/K6502_rw.h ****         PAD1_Bit = ( PAD1_Bit == 23 ) ? 0 : ( PAD1_Bit + 1 );
 1263              		.loc 1 158 0
 1264 02f2 B7050000 		lui	a1,%hi(PAD1_Bit)
 1265 02f6 B7070000 		lui	a5,%hi(PAD1_Latch)
 1266 02fa 03A70500 		lw	a4,%lo(PAD1_Bit)(a1)
 1267 02fe 83A70700 		lw	a5,%lo(PAD1_Latch)(a5)
 159:../src/K6502_rw.h ****         return byRet;
 1268              		.loc 1 159 0
 1269 0302 5D48     		li	a6,23
 1270 0304 0145     		li	a0,0
 158:../src/K6502_rw.h ****         PAD1_Bit = ( PAD1_Bit == 23 ) ? 0 : ( PAD1_Bit + 1 );
 1271              		.loc 1 158 0
 1272 0306 B3D7E700 		srl	a5,a5,a4
 1273 030a 858B     		andi	a5,a5,1
 1274 030c 93E70704 		ori	a5,a5,64
 1275 0310 E207     		slli	a5,a5,24
 1276 0312 E187     		srai	a5,a5,24
 1277              	.LVL90:
 159:../src/K6502_rw.h ****         return byRet;
 1278              		.loc 1 159 0
 1279 0314 63040701 		beq	a4,a6,.L87
 1280 0318 13051700 		addi	a0,a4,1
 1281              	.L87:
 1282 031c 13940701 		slli	s0,a5,16
 1283 0320 23A0A500 		sw	a0,%lo(PAD1_Bit)(a1)
 1284 0324 4184     		srai	s0,s0,16
 1285              	.LVL91:
 1286              	.L85:
 1287              	.LBE151:
 1288              	.LBE223:
 1289              		.loc 2 1104 0
 1290 0326 8906     		addi	a3,a3,2
 1291 0328 2390D400 		sh	a3,0(s1)
 1292              	.LVL92:
 1293              	.L95:
 1294              	.LBB224:
 1295              	.LBB172:
 128:../src/K6502_rw.h ****       {
 1296              		.loc 1 128 0
 1297 032c 1167     		li	a4,16384
 1298 032e 93074701 		addi	a5,a4,20
 1299 0332 6309F632 		beq	a2,a5,.L135
 133:../src/K6502_rw.h ****       {
 1300              		.loc 1 133 0
 1301 0336 93065701 		addi	a3,a4,21
 1302 033a 8147     		li	a5,0
 1303 033c E303D6D6 		beq	a2,a3,.L102
 155:../src/K6502_rw.h ****       {
 1304              		.loc 1 155 0
 1305 0340 93076701 		addi	a5,a4,22
 1306 0344 6306F60A 		beq	a2,a5,.L167
 163:../src/K6502_rw.h ****       {
 1307              		.loc 1 163 0
 1308 0348 5D07     		addi	a4,a4,23
 1309 034a 6307E634 		beq	a2,a4,.L168
 173:../src/K6502_rw.h ****       }
 1310              		.loc 1 173 0
 1311 034e B7070000 		lui	a5,%hi(MapperReadApu)
 1312 0352 83A70700 		lw	a5,%lo(MapperReadApu)(a5)
 1313 0356 3285     		mv	a0,a2
 1314 0358 8297     		jalr	a5
 1315              	.LVL93:
 1316 035a 2205     		slli	a0,a0,8
 1317 035c 93170501 		slli	a5,a0,16
 1318 0360 C187     		srai	a5,a5,16
 1319 0362 81B3     		j	.L102
 1320              	.L94:
 1321 0364 13757600 		andi	a0,a2,7
  79:../src/K6502_rw.h ****       {
 1322              		.loc 1 79 0
 1323 0368 9D47     		li	a5,7
 1324 036a 630DF51A 		beq	a0,a5,.L169
  95:../src/K6502_rw.h ****       {
 1325              		.loc 1 95 0
 1326 036e 9147     		li	a5,4
 1327 0370 6305F52A 		beq	a0,a5,.L170
 100:../src/K6502_rw.h ****       {
 1328              		.loc 1 100 0
 1329 0374 8947     		li	a5,2
 1330 0376 6301F516 		beq	a0,a5,.L171
 123:../src/K6502_rw.h ****       }
 1331              		.loc 1 123 0
 1332 037a B7070000 		lui	a5,%hi(PPU_R7)
 1333 037e 03870700 		lb	a4,%lo(PPU_R7)(a5)
 1334 0382 93178700 		slli	a5,a4,8
 1335 0386 31BB     		j	.L102
 1336              	.LVL94:
 1337              	.L112:
 1338              	.LBE172:
 1339              	.LBE224:
 1340              	.LBB225:
 1341              	.LBB196:
 179:../src/K6502_rw.h ****       {
 1342              		.loc 1 179 0
 1343 0388 B7070000 		lui	a5,%hi(ROM_SRAM)
 1344 038c 03C70700 		lbu	a4,%lo(ROM_SRAM)(a5)
 1345 0390 8967     		li	a5,8192
 1346 0392 FD17     		addi	a5,a5,-1
 1347 0394 7D8D     		and	a0,a0,a5
 1348              	.LVL95:
 1349 0396 29C7     		beqz	a4,.L130
 181:../src/K6502_rw.h ****       } else {    /* SRAM BANK */
 1350              		.loc 1 181 0
 1351 0398 B7070000 		lui	a5,%hi(SRAM)
 1352 039c 93870700 		addi	a5,a5,%lo(SRAM)
 1353 03a0 3E95     		add	a0,a0,a5
 1354 03a2 03450500 		lbu	a0,0(a0)
 1355 03a6 85B3     		j	.L143
 1356              	.LVL96:
 1357              	.L120:
 193:../src/K6502_rw.h **** 
 1358              		.loc 1 193 0
 1359 03a8 B7070000 		lui	a5,%hi(ROMBANK2)
 1360 03ac 03A70700 		lw	a4,%lo(ROMBANK2)(a5)
 1361 03b0 A9B3     		j	.L147
 1362              	.LVL97:
 1363              	.L100:
 1364              	.LBE196:
 1365              	.LBE225:
 1366              	.LBB226:
 1367              	.LBB173:
 1368 03b2 B7070000 		lui	a5,%hi(ROMBANK2)
 1369 03b6 83A70700 		lw	a5,%lo(ROMBANK2)(a5)
 1370 03ba E1B9     		j	.L146
 1371              	.LVL98:
 1372              	.L90:
 1373              	.LBE173:
 1374              	.LBE226:
 1375              	.LBB227:
 1376              	.LBB152:
 183:../src/K6502_rw.h ****       }
 1377              		.loc 1 183 0
 1378 03bc B7070000 		lui	a5,%hi(SRAMBANK)
 1379 03c0 83A60700 		lw	a3,%lo(SRAMBANK)(a5)
 1380              	.LVL99:
 1381 03c4 3695     		add	a0,a3,a0
 1382 03c6 03440500 		lbu	s0,0(a0)
 1383 03ca 41B9     		j	.L81
 1384              	.L110:
 1385              	.LBE152:
 1386              	.LBE227:
 1387              	.LBB228:
 1388              	.LBB174:
 1389 03cc B7070000 		lui	a5,%hi(SRAMBANK)
 1390 03d0 03A60700 		lw	a2,%lo(SRAMBANK)(a5)
 1391 03d4 3295     		add	a0,a2,a0
 1392 03d6 03050500 		lb	a0,0(a0)
 1393 03da 93178500 		slli	a5,a0,8
 1394 03de D1B1     		j	.L102
 1395              	.L130:
 1396              	.LBE174:
 1397              	.LBE228:
 1398              	.LBB229:
 1399              	.LBB197:
 1400 03e0 B7070000 		lui	a5,%hi(SRAMBANK)
 1401 03e4 83A70700 		lw	a5,%lo(SRAMBANK)(a5)
 1402 03e8 3E95     		add	a0,a5,a0
 1403 03ea 03450500 		lbu	a0,0(a0)
 1404 03ee 21BB     		j	.L143
 1405              	.LVL100:
 1406              	.L167:
 1407              	.LBE197:
 1408              	.LBE229:
 1409              	.LBB230:
 1410              	.LBB175:
 158:../src/K6502_rw.h ****         PAD1_Bit = ( PAD1_Bit == 23 ) ? 0 : ( PAD1_Bit + 1 );
 1411              		.loc 1 158 0
 1412 03f0 B7050000 		lui	a1,%hi(PAD1_Bit)
 1413 03f4 37070000 		lui	a4,%hi(PAD1_Latch)
 1414 03f8 83A70500 		lw	a5,%lo(PAD1_Bit)(a1)
 1415 03fc 03270700 		lw	a4,%lo(PAD1_Latch)(a4)
 159:../src/K6502_rw.h ****         return byRet;
 1416              		.loc 1 159 0
 1417 0400 5D46     		li	a2,23
 1418              	.LVL101:
 1419 0402 8146     		li	a3,0
 158:../src/K6502_rw.h ****         PAD1_Bit = ( PAD1_Bit == 23 ) ? 0 : ( PAD1_Bit + 1 );
 1420              		.loc 1 158 0
 1421 0404 3357F700 		srl	a4,a4,a5
 1422 0408 058B     		andi	a4,a4,1
 1423 040a 13670704 		ori	a4,a4,64
 1424 040e 6207     		slli	a4,a4,24
 1425 0410 6187     		srai	a4,a4,24
 1426              	.LVL102:
 159:../src/K6502_rw.h ****         return byRet;
 1427              		.loc 1 159 0
 1428 0412 6384C700 		beq	a5,a2,.L107
 1429 0416 93861700 		addi	a3,a5,1
 1430              	.L107:
 1431 041a 23A0D500 		sw	a3,%lo(PAD1_Bit)(a1)
 1432 041e 93178700 		slli	a5,a4,8
 1433 0422 41B1     		j	.L102
 1434              	.LVL103:
 1435              	.L162:
 1436              	.LBE175:
 1437              	.LBE230:
 1438              	.LBB231:
 1439              	.LBB198:
 158:../src/K6502_rw.h ****         PAD1_Bit = ( PAD1_Bit == 23 ) ? 0 : ( PAD1_Bit + 1 );
 1440              		.loc 1 158 0
 1441 0424 37070000 		lui	a4,%hi(PAD1_Latch)
 1442 0428 B7050000 		lui	a1,%hi(PAD1_Bit)
 1443 042c 03250700 		lw	a0,%lo(PAD1_Latch)(a4)
 1444              	.LVL104:
 1445 0430 83A70500 		lw	a5,%lo(PAD1_Bit)(a1)
 159:../src/K6502_rw.h ****         return byRet;
 1446              		.loc 1 159 0
 1447 0434 DD46     		li	a3,23
 1448 0436 0147     		li	a4,0
 158:../src/K6502_rw.h ****         PAD1_Bit = ( PAD1_Bit == 23 ) ? 0 : ( PAD1_Bit + 1 );
 1449              		.loc 1 158 0
 1450 0438 3355F500 		srl	a0,a0,a5
 1451 043c 0589     		andi	a0,a0,1
 1452 043e 13650504 		ori	a0,a0,64
 1453              	.LVL105:
 159:../src/K6502_rw.h ****         return byRet;
 1454              		.loc 1 159 0
 1455 0442 6384D700 		beq	a5,a3,.L127
 1456 0446 13871700 		addi	a4,a5,1
 1457              	.L127:
 1458 044a 23A0E500 		sw	a4,%lo(PAD1_Bit)(a1)
 1459 044e 65B9     		j	.L143
 1460              	.LVL106:
 1461              	.L166:
 114:../src/K6502_rw.h ****         {
 1462              		.loc 1 114 0
 1463 0450 B7070000 		lui	a5,%hi(PPU_Scanline)
 1464 0454 03D70700 		lhu	a4,%lo(PPU_Scanline)(a5)
 111:../src/K6502_rw.h **** 
 1465              		.loc 1 111 0
 1466 0458 B7070000 		lui	a5,%hi(PPU_Latch_Flag)
 1467 045c 23800700 		sb	zero,%lo(PPU_Latch_Flag)(a5)
 103:../src/K6502_rw.h **** 
 1468              		.loc 1 103 0
 1469 0460 B7060000 		lui	a3,%hi(PPU_R2)
 114:../src/K6502_rw.h ****         {
 1470              		.loc 1 114 0
 1471 0464 9307200F 		li	a5,242
 103:../src/K6502_rw.h **** 
 1472              		.loc 1 103 0
 1473 0468 03C50600 		lbu	a0,%lo(PPU_R2)(a3)
 1474              	.LVL107:
 114:../src/K6502_rw.h ****         {
 1475              		.loc 1 114 0
 1476 046c E3FDE7C8 		bleu	a4,a5,.L143
 1477 0470 37070000 		lui	a4,%hi(PPU_R0)
 1478 0474 83470700 		lbu	a5,%lo(PPU_R0)(a4)
 1479 0478 93968701 		slli	a3,a5,24
 1480 047c E186     		srai	a3,a3,24
 1481 047e E3C406C8 		bltz	a3,.L143
 116:../src/K6502_rw.h ****           PPU_NameTableBank = NAME_TABLE0;
 1482              		.loc 1 116 0
 1483 0482 F19B     		andi	a5,a5,-4
 1484 0484 2300F700 		sb	a5,%lo(PPU_R0)(a4)
 117:../src/K6502_rw.h ****         }
 1485              		.loc 1 117 0
 1486 0488 B7070000 		lui	a5,%hi(PPU_NameTableBank)
 1487 048c 2147     		li	a4,8
 1488 048e 2380E700 		sb	a4,%lo(PPU_NameTableBank)(a5)
 1489 0492 95B9     		j	.L143
 1490              	.LVL108:
 1491              	.L161:
 1492              	.LBE198:
 1493              	.LBE231:
 1494              	.LBB232:
 1495              	.LBB153:
 114:../src/K6502_rw.h ****         {
 1496              		.loc 1 114 0
 1497 0494 B7070000 		lui	a5,%hi(PPU_Scanline)
 1498 0498 83D60700 		lhu	a3,%lo(PPU_Scanline)(a5)
 111:../src/K6502_rw.h **** 
 1499              		.loc 1 111 0
 1500 049c B7070000 		lui	a5,%hi(PPU_Latch_Flag)
 1501 04a0 23800700 		sb	zero,%lo(PPU_Latch_Flag)(a5)
 114:../src/K6502_rw.h ****         {
 1502              		.loc 1 114 0
 1503 04a4 1307200F 		li	a4,242
 103:../src/K6502_rw.h **** 
 1504              		.loc 1 103 0
 1505 04a8 B7070000 		lui	a5,%hi(PPU_R2)
 1506 04ac 03C40700 		lbu	s0,%lo(PPU_R2)(a5)
 1507              	.LVL109:
 114:../src/K6502_rw.h ****         {
 1508              		.loc 1 114 0
 1509 04b0 E375D7BA 		bleu	a3,a4,.L81
 1510 04b4 B7060000 		lui	a3,%hi(PPU_R0)
 1511 04b8 03C70600 		lbu	a4,%lo(PPU_R0)(a3)
 1512 04bc 93158701 		slli	a1,a4,24
 1513 04c0 E185     		srai	a1,a1,24
 1514 04c2 E3CC05B8 		bltz	a1,.L81
 116:../src/K6502_rw.h ****           PPU_NameTableBank = NAME_TABLE0;
 1515              		.loc 1 116 0
 1516 04c6 719B     		andi	a4,a4,-4
 1517 04c8 2380E600 		sb	a4,%lo(PPU_R0)(a3)
 117:../src/K6502_rw.h ****         }
 1518              		.loc 1 117 0
 1519 04cc 37070000 		lui	a4,%hi(PPU_NameTableBank)
 1520 04d0 A146     		li	a3,8
 1521 04d2 2300D700 		sb	a3,%lo(PPU_NameTableBank)(a4)
 1522 04d6 51B6     		j	.L81
 1523              	.LVL110:
 1524              	.L171:
 1525              	.LBE153:
 1526              	.LBE232:
 1527              	.LBB233:
 1528              	.LBB176:
 103:../src/K6502_rw.h **** 
 1529              		.loc 1 103 0
 1530 04d8 B7070000 		lui	a5,%hi(PPU_R2)
 1531 04dc 03C70700 		lbu	a4,%lo(PPU_R2)(a5)
 1532              	.LVL111:
 114:../src/K6502_rw.h ****         {
 1533              		.loc 1 114 0
 1534 04e0 B7070000 		lui	a5,%hi(PPU_Scanline)
 1535 04e4 03D60700 		lhu	a2,%lo(PPU_Scanline)(a5)
 1536 04e8 2207     		slli	a4,a4,8
 1537              	.LVL112:
 111:../src/K6502_rw.h **** 
 1538              		.loc 1 111 0
 1539 04ea B7070000 		lui	a5,%hi(PPU_Latch_Flag)
 1540 04ee 23800700 		sb	zero,%lo(PPU_Latch_Flag)(a5)
 114:../src/K6502_rw.h ****         {
 1541              		.loc 1 114 0
 1542 04f2 9306200F 		li	a3,242
 1543 04f6 93170701 		slli	a5,a4,16
 1544 04fa C187     		srai	a5,a5,16
 1545 04fc E3F3C6BA 		bleu	a2,a3,.L102
 1546 0500 B7060000 		lui	a3,%hi(PPU_R0)
 1547 0504 03C70600 		lbu	a4,%lo(PPU_R0)(a3)
 1548 0508 13168701 		slli	a2,a4,24
 1549 050c 6186     		srai	a2,a2,24
 1550 050e E34A06B8 		bltz	a2,.L102
 116:../src/K6502_rw.h ****           PPU_NameTableBank = NAME_TABLE0;
 1551              		.loc 1 116 0
 1552 0512 719B     		andi	a4,a4,-4
 1553 0514 2380E600 		sb	a4,%lo(PPU_R0)(a3)
 117:../src/K6502_rw.h ****         }
 1554              		.loc 1 117 0
 1555 0518 37070000 		lui	a4,%hi(PPU_NameTableBank)
 1556 051c A146     		li	a3,8
 1557 051e 2300D700 		sb	a3,%lo(PPU_NameTableBank)(a4)
 1558 0522 41B6     		j	.L102
 1559              	.LVL113:
 1560              	.L169:
 1561              	.LBB162:
  81:../src/K6502_rw.h **** 
 1562              		.loc 1 81 0
 1563 0524 37050000 		lui	a0,%hi(PPU_Addr)
 1564 0528 83570500 		lhu	a5,%lo(PPU_Addr)(a0)
 1565              	.LVL114:
  90:../src/K6502_rw.h **** 
 1566              		.loc 1 90 0
 1567 052c B7060000 		lui	a3,%hi(PPUBANK)
 1568 0530 93860600 		addi	a3,a3,%lo(PPUBANK)
 1569 0534 13D78700 		srli	a4,a5,8
 1570 0538 1377C703 		andi	a4,a4,60
  87:../src/K6502_rw.h **** 
 1571              		.loc 1 87 0
 1572 053c 37060000 		lui	a2,%hi(PPU_Increment)
  90:../src/K6502_rw.h **** 
 1573              		.loc 1 90 0
 1574 0540 3697     		add	a4,a4,a3
  87:../src/K6502_rw.h **** 
 1575              		.loc 1 87 0
 1576 0542 03560600 		lhu	a2,%lo(PPU_Increment)(a2)
  90:../src/K6502_rw.h **** 
 1577              		.loc 1 90 0
 1578 0546 1443     		lw	a3,0(a4)
  84:../src/K6502_rw.h **** 
 1579              		.loc 1 84 0
 1580 0548 B7050000 		lui	a1,%hi(PPU_R7)
  87:../src/K6502_rw.h **** 
 1581              		.loc 1 87 0
 1582 054c 3E96     		add	a2,a5,a2
  84:../src/K6502_rw.h **** 
 1583              		.loc 1 84 0
 1584 054e 03C70500 		lbu	a4,%lo(PPU_R7)(a1)
 1585              	.LVL115:
  90:../src/K6502_rw.h **** 
 1586              		.loc 1 90 0
 1587 0552 93F7F73F 		andi	a5,a5,1023
 1588              	.LVL116:
 1589 0556 B697     		add	a5,a3,a5
  87:../src/K6502_rw.h **** 
 1590              		.loc 1 87 0
 1591 0558 2310C500 		sh	a2,%lo(PPU_Addr)(a0)
 1592              	.LVL117:
  90:../src/K6502_rw.h **** 
 1593              		.loc 1 90 0
 1594 055c 83C60700 		lbu	a3,0(a5)
 1595 0560 2207     		slli	a4,a4,8
 1596              	.LVL118:
 1597 0562 93170701 		slli	a5,a4,16
 1598 0566 C187     		srai	a5,a5,16
 1599 0568 2380D500 		sb	a3,%lo(PPU_R7)(a1)
 1600              	.LVL119:
 1601 056c 1DBE     		j	.L102
 1602              	.L164:
 1603              	.LBE162:
 1604              	.LBE176:
 1605              	.LBE233:
 1606              	.LBB234:
 1607              	.LBB199:
 1608              	.LBB184:
  81:../src/K6502_rw.h **** 
 1609              		.loc 1 81 0
 1610 056e B7050000 		lui	a1,%hi(PPU_Addr)
 1611 0572 83D70500 		lhu	a5,%lo(PPU_Addr)(a1)
 1612              	.LVL120:
  90:../src/K6502_rw.h **** 
 1613              		.loc 1 90 0
 1614 0576 37060000 		lui	a2,%hi(PPUBANK)
  87:../src/K6502_rw.h **** 
 1615              		.loc 1 87 0
 1616 057a B7060000 		lui	a3,%hi(PPU_Increment)
  90:../src/K6502_rw.h **** 
 1617              		.loc 1 90 0
 1618 057e 13D78700 		srli	a4,a5,8
 1619 0582 1377C703 		andi	a4,a4,60
 1620 0586 13060600 		addi	a2,a2,%lo(PPUBANK)
  87:../src/K6502_rw.h **** 
 1621              		.loc 1 87 0
 1622 058a 83D60600 		lhu	a3,%lo(PPU_Increment)(a3)
  90:../src/K6502_rw.h **** 
 1623              		.loc 1 90 0
 1624 058e 3297     		add	a4,a4,a2
 1625 0590 1843     		lw	a4,0(a4)
  87:../src/K6502_rw.h **** 
 1626              		.loc 1 87 0
 1627 0592 BE96     		add	a3,a5,a3
  90:../src/K6502_rw.h **** 
 1628              		.loc 1 90 0
 1629 0594 93F7F73F 		andi	a5,a5,1023
 1630              	.LVL121:
 1631 0598 BA97     		add	a5,a4,a5
  87:../src/K6502_rw.h **** 
 1632              		.loc 1 87 0
 1633 059a 2390D500 		sh	a3,%lo(PPU_Addr)(a1)
 1634              	.LVL122:
  90:../src/K6502_rw.h **** 
 1635              		.loc 1 90 0
 1636 059e 03C70700 		lbu	a4,0(a5)
  84:../src/K6502_rw.h **** 
 1637              		.loc 1 84 0
 1638 05a2 B7070000 		lui	a5,%hi(PPU_R7)
 1639 05a6 03C50700 		lbu	a0,%lo(PPU_R7)(a5)
 1640              	.LVL123:
  90:../src/K6502_rw.h **** 
 1641              		.loc 1 90 0
 1642 05aa 2380E700 		sb	a4,%lo(PPU_R7)(a5)
 1643 05ae A1BE     		j	.L143
 1644              	.LVL124:
 1645              	.L159:
 1646              	.LBE184:
 1647              	.LBE199:
 1648              	.LBE234:
 1649              	.LBB235:
 1650              	.LBB154:
 1651              	.LBB140:
  81:../src/K6502_rw.h **** 
 1652              		.loc 1 81 0
 1653 05b0 37050000 		lui	a0,%hi(PPU_Addr)
 1654              	.LVL125:
 1655 05b4 83570500 		lhu	a5,%lo(PPU_Addr)(a0)
 1656              	.LVL126:
  90:../src/K6502_rw.h **** 
 1657              		.loc 1 90 0
 1658 05b8 B7050000 		lui	a1,%hi(PPUBANK)
  87:../src/K6502_rw.h **** 
 1659              		.loc 1 87 0
 1660 05bc B7060000 		lui	a3,%hi(PPU_Increment)
  90:../src/K6502_rw.h **** 
 1661              		.loc 1 90 0
 1662 05c0 13D78700 		srli	a4,a5,8
 1663 05c4 1377C703 		andi	a4,a4,60
 1664 05c8 93850500 		addi	a1,a1,%lo(PPUBANK)
  87:../src/K6502_rw.h **** 
 1665              		.loc 1 87 0
 1666 05cc 83D60600 		lhu	a3,%lo(PPU_Increment)(a3)
  90:../src/K6502_rw.h **** 
 1667              		.loc 1 90 0
 1668 05d0 2E97     		add	a4,a4,a1
 1669 05d2 1843     		lw	a4,0(a4)
  87:../src/K6502_rw.h **** 
 1670              		.loc 1 87 0
 1671 05d4 BE96     		add	a3,a5,a3
  90:../src/K6502_rw.h **** 
 1672              		.loc 1 90 0
 1673 05d6 93F7F73F 		andi	a5,a5,1023
 1674              	.LVL127:
 1675 05da BA97     		add	a5,a4,a5
  87:../src/K6502_rw.h **** 
 1676              		.loc 1 87 0
 1677 05dc 2310D500 		sh	a3,%lo(PPU_Addr)(a0)
 1678              	.LVL128:
  90:../src/K6502_rw.h **** 
 1679              		.loc 1 90 0
 1680 05e0 83C60700 		lbu	a3,0(a5)
  84:../src/K6502_rw.h **** 
 1681              		.loc 1 84 0
 1682 05e4 37070000 		lui	a4,%hi(PPU_R7)
 1683 05e8 03440700 		lbu	s0,%lo(PPU_R7)(a4)
 1684              	.LVL129:
  90:../src/K6502_rw.h **** 
 1685              		.loc 1 90 0
 1686 05ec 2300D700 		sb	a3,%lo(PPU_R7)(a4)
 1687 05f0 ADB4     		j	.L81
 1688              	.LVL130:
 1689              	.L132:
 1690              	.LBE140:
 133:../src/K6502_rw.h ****       {
 1691              		.loc 1 133 0
 1692 05f2 0144     		li	s0,0
 1693 05f4 0DBB     		j	.L85
 1694              	.LVL131:
 1695              	.L140:
 1696              	.LBE154:
 1697              	.LBE235:
 1698              	.LBB236:
 1699              	.LBB200:
 152:../src/K6502_rw.h ****       }
 1700              		.loc 1 152 0
 1701 05f6 0145     		li	a0,0
 1702              	.LVL132:
 1703              	.LBE200:
 1704              	.LBE236:
 1705              		.loc 2 1104 0
 1706 05f8 39B6     		j	.L143
 1707              	.LVL133:
 1708              	.L160:
 1709              	.LBB237:
 1710              	.LBB155:
  97:../src/K6502_rw.h ****       }
 1711              		.loc 1 97 0
 1712 05fa B7060000 		lui	a3,%hi(PPU_R3)
 1713 05fe 83C70600 		lbu	a5,%lo(PPU_R3)(a3)
 1714 0602 37070000 		lui	a4,%hi(SPRRAM)
 1715 0606 13070700 		addi	a4,a4,%lo(SPRRAM)
 1716 060a 93851700 		addi	a1,a5,1
 1717 060e BA97     		add	a5,a5,a4
 1718 0610 2380B600 		sb	a1,%lo(PPU_R3)(a3)
 1719 0614 03C40700 		lbu	s0,0(a5)
 1720 0618 89B4     		j	.L81
 1721              	.LVL134:
 1722              	.L170:
 1723              	.LBE155:
 1724              	.LBE237:
 1725              	.LBB238:
 1726              	.LBB177:
 1727 061a 37060000 		lui	a2,%hi(PPU_R3)
 1728 061e 83460600 		lbu	a3,%lo(PPU_R3)(a2)
 1729 0622 B7070000 		lui	a5,%hi(SPRRAM)
 1730 0626 93870700 		addi	a5,a5,%lo(SPRRAM)
 1731 062a B697     		add	a5,a3,a5
 1732 062c 03870700 		lb	a4,0(a5)
 1733 0630 8506     		addi	a3,a3,1
 1734 0632 2300D600 		sb	a3,%lo(PPU_R3)(a2)
 1735 0636 93178700 		slli	a5,a4,8
 1736 063a A5B4     		j	.L102
 1737              	.L165:
 1738              	.LBE177:
 1739              	.LBE238:
 1740              	.LBB239:
 1741              	.LBB201:
 1742 063c B7060000 		lui	a3,%hi(PPU_R3)
 1743 0640 83C70600 		lbu	a5,%lo(PPU_R3)(a3)
 1744 0644 37070000 		lui	a4,%hi(SPRRAM)
 1745 0648 13070700 		addi	a4,a4,%lo(SPRRAM)
 1746 064c 13861700 		addi	a2,a5,1
 1747 0650 BA97     		add	a5,a5,a4
 1748 0652 2380C600 		sb	a2,%lo(PPU_R3)(a3)
 1749 0656 03C50700 		lbu	a0,0(a5)
 1750 065a 75B4     		j	.L143
 1751              	.LVL135:
 1752              	.L139:
 130:../src/K6502_rw.h ****       }
 1753              		.loc 1 130 0
 1754 065c 5145     		li	a0,20
 1755              	.LVL136:
 1756 065e 65B4     		j	.L143
 1757              	.LVL137:
 1758              	.L131:
 1759              	.LBE201:
 1760              	.LBE239:
 1761              	.LBB240:
 1762              	.LBB156:
 128:../src/K6502_rw.h ****       {
 1763              		.loc 1 128 0
 1764 0660 5144     		li	s0,20
 1765 0662 D1B1     		j	.L85
 1766              	.LVL138:
 1767              	.L135:
 1768              	.LBE156:
 1769              	.LBE240:
 1770              	.LBB241:
 1771              	.LBB178:
 1772 0664 0567     		li	a4,4096
 1773 0666 93070740 		addi	a5,a4,1024
 1774 066a 25BC     		j	.L102
 1775              	.LVL139:
 1776              	.L163:
 1777              	.LBE178:
 1778              	.LBE241:
 1779              	.LBB242:
 1780              	.LBB202:
 1781              	.LBB185:
 1782              	.LBB186:
 166:../src/K6502_rw.h ****         PAD2_Bit = ( PAD2_Bit == 23 ) ? 0 : ( PAD2_Bit + 1 );
 1783              		.loc 1 166 0
 1784 066c 37070000 		lui	a4,%hi(PAD2_Latch)
 1785 0670 B7050000 		lui	a1,%hi(PAD2_Bit)
 1786 0674 03250700 		lw	a0,%lo(PAD2_Latch)(a4)
 1787              	.LVL140:
 1788 0678 83A70500 		lw	a5,%lo(PAD2_Bit)(a1)
 167:../src/K6502_rw.h ****         return byRet;
 1789              		.loc 1 167 0
 1790 067c DD46     		li	a3,23
 1791 067e 0147     		li	a4,0
 166:../src/K6502_rw.h ****         PAD2_Bit = ( PAD2_Bit == 23 ) ? 0 : ( PAD2_Bit + 1 );
 1792              		.loc 1 166 0
 1793 0680 3355F500 		srl	a0,a0,a5
 1794 0684 0589     		andi	a0,a0,1
 1795 0686 13650504 		ori	a0,a0,64
 1796              	.LVL141:
 167:../src/K6502_rw.h ****         return byRet;
 1797              		.loc 1 167 0
 1798 068a 6384D700 		beq	a5,a3,.L129
 1799 068e 13871700 		addi	a4,a5,1
 1800              	.L129:
 1801 0692 23A0E500 		sw	a4,%lo(PAD2_Bit)(a1)
 1802              	.LVL142:
 1803 0696 85BC     		j	.L143
 1804              	.LVL143:
 1805              	.L168:
 1806              	.LBE186:
 1807              	.LBE185:
 1808              	.LBE202:
 1809              	.LBE242:
 1810              	.LBB243:
 1811              	.LBB179:
 1812              	.LBB163:
 1813              	.LBB164:
 166:../src/K6502_rw.h ****         PAD2_Bit = ( PAD2_Bit == 23 ) ? 0 : ( PAD2_Bit + 1 );
 1814              		.loc 1 166 0
 1815 0698 B7050000 		lui	a1,%hi(PAD2_Bit)
 1816 069c 37070000 		lui	a4,%hi(PAD2_Latch)
 1817 06a0 83A70500 		lw	a5,%lo(PAD2_Bit)(a1)
 1818 06a4 03270700 		lw	a4,%lo(PAD2_Latch)(a4)
 167:../src/K6502_rw.h ****         return byRet;
 1819              		.loc 1 167 0
 1820 06a8 5D46     		li	a2,23
 1821              	.LVL144:
 1822 06aa 8146     		li	a3,0
 166:../src/K6502_rw.h ****         PAD2_Bit = ( PAD2_Bit == 23 ) ? 0 : ( PAD2_Bit + 1 );
 1823              		.loc 1 166 0
 1824 06ac 3357F700 		srl	a4,a4,a5
 1825 06b0 058B     		andi	a4,a4,1
 1826 06b2 13670704 		ori	a4,a4,64
 1827 06b6 6207     		slli	a4,a4,24
 1828 06b8 6187     		srai	a4,a4,24
 1829              	.LVL145:
 167:../src/K6502_rw.h ****         return byRet;
 1830              		.loc 1 167 0
 1831 06ba 6384C700 		beq	a5,a2,.L109
 1832 06be 93861700 		addi	a3,a5,1
 1833              	.L109:
 1834 06c2 23A0D500 		sw	a3,%lo(PAD2_Bit)(a1)
 1835              	.LVL146:
 1836 06c6 93178700 		slli	a5,a4,8
 1837 06ca E1BA     		j	.L102
 1838              	.LVL147:
 1839              	.L157:
 1840              	.LBE164:
 1841              	.LBE163:
 1842              	.LBE179:
 1843              	.LBE243:
 1844              	.LBB244:
 1845              	.LBB157:
 1846              	.LBB141:
 1847              	.LBB142:
 166:../src/K6502_rw.h ****         PAD2_Bit = ( PAD2_Bit == 23 ) ? 0 : ( PAD2_Bit + 1 );
 1848              		.loc 1 166 0
 1849 06cc B7050000 		lui	a1,%hi(PAD2_Bit)
 1850 06d0 B7070000 		lui	a5,%hi(PAD2_Latch)
 1851 06d4 03A70500 		lw	a4,%lo(PAD2_Bit)(a1)
 1852 06d8 83A70700 		lw	a5,%lo(PAD2_Latch)(a5)
 167:../src/K6502_rw.h ****         return byRet;
 1853              		.loc 1 167 0
 1854 06dc 5D48     		li	a6,23
 1855 06de 0145     		li	a0,0
 166:../src/K6502_rw.h ****         PAD2_Bit = ( PAD2_Bit == 23 ) ? 0 : ( PAD2_Bit + 1 );
 1856              		.loc 1 166 0
 1857 06e0 B3D7E700 		srl	a5,a5,a4
 1858 06e4 858B     		andi	a5,a5,1
 1859 06e6 93E70704 		ori	a5,a5,64
 1860 06ea E207     		slli	a5,a5,24
 1861 06ec E187     		srai	a5,a5,24
 1862              	.LVL148:
 167:../src/K6502_rw.h ****         return byRet;
 1863              		.loc 1 167 0
 1864 06ee 63040701 		beq	a4,a6,.L89
 1865 06f2 13051700 		addi	a0,a4,1
 1866              	.L89:
 1867 06f6 13940701 		slli	s0,a5,16
 1868 06fa 23A0A500 		sw	a0,%lo(PAD2_Bit)(a1)
 1869              	.LVL149:
 1870 06fe 4184     		srai	s0,s0,16
 1871 0700 1DB1     		j	.L85
 1872              	.LBE142:
 1873              	.LBE141:
 1874              	.LBE157:
 1875              	.LBE244:
 1876              		.cfi_endproc
 1877              	.LFE4:
 1879              		.section	.text.K6502_ReadAbsY,"ax",@progbits
 1880              		.align	1
 1882              	K6502_ReadAbsY:
 1883              	.LFB5:
1105:../src/K6502.c **** // Absolute,Y
1106:../src/K6502.c **** static inline BYTE K6502_ReadAbsY(){ WORD wA0, wA1; wA0 = AA_ABS; wA1 = wA0 + Y; CLK( ( wA0 & 0x010
 1884              		.loc 2 1106 0
 1885              		.cfi_startproc
 1886 0000 4111     		addi	sp,sp,-16
 1887              		.cfi_def_cfa_offset 16
 1888 0002 B7070000 		lui	a5,%hi(.LANCHOR0)
 1889 0006 26C2     		sw	s1,4(sp)
 1890              		.cfi_offset 9, -12
 1891 0008 93840700 		addi	s1,a5,%lo(.LANCHOR0)
 1892 000c 83D60400 		lhu	a3,0(s1)
 1893              	.LBB263:
 1894              	.LBB264:
  73:../src/K6502_rw.h ****   {
 1895              		.loc 1 73 0
 1896 0010 7977     		li	a4,-8192
 1897              	.LBE264:
 1898              	.LBE263:
 1899              		.loc 2 1106 0
 1900 0012 06C6     		sw	ra,12(sp)
 1901 0014 13851600 		addi	a0,a3,1
 1902 0018 13160501 		slli	a2,a0,16
 1903 001c 4182     		srli	a2,a2,16
 1904 001e 22C4     		sw	s0,8(sp)
 1905              		.cfi_offset 1, -4
 1906              		.cfi_offset 8, -8
 1907              	.LBB283:
 1908              	.LBB268:
  73:../src/K6502_rw.h ****   {
 1909              		.loc 1 73 0
 1910 0020 9965     		li	a1,24576
 1911              	.LBE268:
 1912              	.LBE283:
 1913              		.loc 2 1106 0
 1914 0022 2390C400 		sh	a2,0(s1)
 1915              	.LVL150:
 1916              	.LBB284:
 1917              	.LBB269:
  73:../src/K6502_rw.h ****   {
 1918              		.loc 1 73 0
 1919 0026 758F     		and	a4,a3,a4
 1920 0028 6307B724 		beq	a4,a1,.L174
 1921 002c 63F2E50E 		bleu	a4,a1,.L251
 1922 0030 A967     		li	a5,40960
 1923 0032 630DF722 		beq	a4,a5,.L179
 1924 0036 63F2E71E 		bleu	a4,a5,.L252
 1925 003a B167     		li	a5,49152
 1926 003c 630AF714 		beq	a4,a5,.L182
 1927 0040 B967     		li	a5,57344
 1928 0042 631EF70C 		bne	a4,a5,.L173
 196:../src/K6502_rw.h ****   }
 1929              		.loc 1 196 0
 1930 0046 B7070000 		lui	a5,%hi(ROMBANK3)
 1931 004a 83A70700 		lw	a5,%lo(ROMBANK3)(a5)
 1932              	.L248:
 190:../src/K6502_rw.h **** 
 1933              		.loc 1 190 0
 1934 004e 0965     		li	a0,8192
 1935 0050 7D15     		addi	a0,a0,-1
 1936 0052 E98E     		and	a3,a3,a0
 1937              	.LVL151:
 1938 0054 BE96     		add	a3,a5,a3
 1939 0056 03C40600 		lbu	s0,0(a3)
 1940              	.L184:
 1941              	.LBE269:
 1942              	.LBE284:
 1943              		.loc 2 1106 0
 1944 005a 13071600 		addi	a4,a2,1
 1945 005e 2390E400 		sh	a4,0(s1)
 1946              	.LBB285:
 1947              	.LBB286:
  73:../src/K6502_rw.h ****   {
 1948              		.loc 1 73 0
 1949 0062 7977     		li	a4,-8192
 1950              	.LBE286:
 1951              	.LBE285:
 1952              		.loc 2 1106 0
 1953 0064 4204     		slli	s0,s0,16
 1954              	.LBB305:
 1955              	.LBB290:
  73:../src/K6502_rw.h ****   {
 1956              		.loc 1 73 0
 1957 0066 718F     		and	a4,a2,a4
 1958 0068 9965     		li	a1,24576
 1959              	.LBE290:
 1960              	.LBE305:
 1961              		.loc 2 1106 0
 1962 006a 4184     		srai	s0,s0,16
 1963              	.LVL152:
 1964              	.LBB306:
 1965              	.LBB291:
  73:../src/K6502_rw.h ****   {
 1966              		.loc 1 73 0
 1967 006c 6306B70C 		beq	a4,a1,.L195
 1968              	.L258:
 1969 0070 63FAE516 		bleu	a4,a1,.L253
 1970 0074 A967     		li	a5,40960
 1971 0076 6302F71C 		beq	a4,a5,.L200
 1972 007a 63F8E718 		bleu	a4,a5,.L254
 1973 007e B167     		li	a5,49152
 1974 0080 6309F732 		beq	a4,a5,.L203
 1975 0084 B967     		li	a5,57344
 1976 0086 6319F720 		bne	a4,a5,.L194
 196:../src/K6502_rw.h ****   }
 1977              		.loc 1 196 0
 1978 008a B7070000 		lui	a5,%hi(ROMBANK3)
 1979 008e 83A70700 		lw	a5,%lo(ROMBANK3)(a5)
 1980              	.L249:
 1981 0092 0965     		li	a0,8192
 1982 0094 7D15     		addi	a0,a0,-1
 1983 0096 718D     		and	a0,a2,a0
 1984 0098 3E95     		add	a0,a5,a0
 1985 009a 03050500 		lb	a0,0(a0)
 1986 009e 93178500 		slli	a5,a0,8
 1987              	.L205:
 1988              	.LBE291:
 1989              	.LBE306:
 1990              		.loc 2 1106 0
 1991 00a2 37070000 		lui	a4,%hi(.LANCHOR3)
 1992 00a6 03450700 		lbu	a0,%lo(.LANCHOR3)(a4)
 1993 00aa C18F     		or	a5,s0,a5
 1994 00ac C207     		slli	a5,a5,16
 1995 00ae C183     		srli	a5,a5,16
 1996              	.LVL153:
 1997 00b0 3E95     		add	a0,a5,a0
 1998 00b2 4205     		slli	a0,a0,16
 1999 00b4 37070000 		lui	a4,%hi(.LANCHOR2)
 2000 00b8 13070700 		addi	a4,a4,%lo(.LANCHOR2)
 2001 00bc 4181     		srli	a0,a0,16
 2002              	.LVL154:
 2003 00be 83560700 		lhu	a3,0(a4)
 2004 00c2 A98F     		xor	a5,a5,a0
 2005              	.LVL155:
 2006 00c4 A183     		srli	a5,a5,8
 2007 00c6 858B     		andi	a5,a5,1
 2008 00c8 B697     		add	a5,a5,a3
 2009 00ca 2310F700 		sh	a5,0(a4)
 2010              	.LVL156:
 2011              	.LBB307:
 2012              	.LBB308:
  73:../src/K6502_rw.h ****   {
 2013              		.loc 1 73 0
 2014 00ce F977     		li	a5,-8192
 2015 00d0 E98F     		and	a5,a0,a5
 2016 00d2 1967     		li	a4,24576
 2017 00d4 638AE72A 		beq	a5,a4,.L215
 2018 00d8 637BF70C 		bleu	a5,a4,.L255
 2019 00dc 2967     		li	a4,40960
 2020 00de 6382E718 		beq	a5,a4,.L220
 2021 00e2 6374F714 		bleu	a5,a4,.L256
 2022 00e6 3167     		li	a4,49152
 2023 00e8 6380E72C 		beq	a5,a4,.L223
 2024 00ec 3967     		li	a4,57344
 2025 00ee 6397E70C 		bne	a5,a4,.L214
 196:../src/K6502_rw.h ****   }
 2026              		.loc 1 196 0
 2027 00f2 B7070000 		lui	a5,%hi(ROMBANK3)
 2028 00f6 03A70700 		lw	a4,%lo(ROMBANK3)(a5)
 2029              	.L250:
 190:../src/K6502_rw.h **** 
 2030              		.loc 1 190 0
 2031 00fa 8967     		li	a5,8192
 2032 00fc FD17     		addi	a5,a5,-1
 2033 00fe 7D8D     		and	a0,a0,a5
 2034              	.LVL157:
 2035 0100 3A95     		add	a0,a4,a0
 2036 0102 03450500 		lbu	a0,0(a0)
 2037              	.L246:
 2038              	.LBE308:
 2039              	.LBE307:
 2040              		.loc 2 1106 0
 2041 0106 B240     		lw	ra,12(sp)
 2042              		.cfi_remember_state
 2043              		.cfi_restore 1
 2044 0108 2244     		lw	s0,8(sp)
 2045              		.cfi_restore 8
 2046 010a 9244     		lw	s1,4(sp)
 2047              		.cfi_restore 9
 2048 010c 4101     		addi	sp,sp,16
 2049              		.cfi_def_cfa_offset 0
 2050 010e 8280     		jr	ra
 2051              	.LVL158:
 2052              	.L251:
 2053              		.cfi_restore_state
 2054              	.LBB328:
 2055              	.LBB270:
  73:../src/K6502_rw.h ****   {
 2056              		.loc 1 73 0
 2057 0110 8967     		li	a5,8192
 2058 0112 6309F712 		beq	a4,a5,.L176
 2059 0116 9167     		li	a5,16384
 2060 0118 6303F704 		beq	a4,a5,.L177
 2061 011c 3DCF     		beqz	a4,.L257
 2062              	.L173:
 2063              	.LBE270:
 2064              	.LBE328:
 2065              		.loc 2 1106 0
 2066 011e 13071600 		addi	a4,a2,1
 2067              	.LBB329:
 2068              	.LBB271:
 199:../src/K6502_rw.h ****                             address is returned. */
 2069              		.loc 1 199 0
 2070 0122 13D48600 		srli	s0,a3,8
 2071              	.LVL159:
 2072              	.LBE271:
 2073              	.LBE329:
 2074              		.loc 2 1106 0
 2075 0126 2390E400 		sh	a4,0(s1)
 2076              	.LBB330:
 2077              	.LBB292:
  73:../src/K6502_rw.h ****   {
 2078              		.loc 1 73 0
 2079 012a 7977     		li	a4,-8192
 2080              	.LBE292:
 2081              	.LBE330:
 2082              		.loc 2 1106 0
 2083 012c 4204     		slli	s0,s0,16
 2084              	.LBB331:
 2085              	.LBB293:
  73:../src/K6502_rw.h ****   {
 2086              		.loc 1 73 0
 2087 012e 718F     		and	a4,a2,a4
 2088 0130 9965     		li	a1,24576
 2089              	.LBE293:
 2090              	.LBE331:
 2091              		.loc 2 1106 0
 2092 0132 4184     		srai	s0,s0,16
 2093              	.LBB332:
 2094              	.LBB294:
  73:../src/K6502_rw.h ****   {
 2095              		.loc 1 73 0
 2096 0134 E31EB7F2 		bne	a4,a1,.L258
 2097              	.L195:
 179:../src/K6502_rw.h ****       {
 2098              		.loc 1 179 0
 2099 0138 B7070000 		lui	a5,%hi(ROM_SRAM)
 2100 013c 83C70700 		lbu	a5,%lo(ROM_SRAM)(a5)
 2101 0140 0965     		li	a0,8192
 2102 0142 7D15     		addi	a0,a0,-1
 2103 0144 718D     		and	a0,a2,a0
 2104 0146 63830728 		beqz	a5,.L213
 181:../src/K6502_rw.h ****       } else {    /* SRAM BANK */
 2105              		.loc 1 181 0
 2106 014a 37060000 		lui	a2,%hi(SRAM)
 2107 014e 13060600 		addi	a2,a2,%lo(SRAM)
 2108 0152 3295     		add	a0,a0,a2
 2109 0154 03050500 		lb	a0,0(a0)
 2110 0158 93178500 		slli	a5,a0,8
 2111 015c 99B7     		j	.L205
 2112              	.LVL160:
 2113              	.L177:
 2114              	.LBE294:
 2115              	.LBE332:
 2116              	.LBB333:
 2117              	.LBB272:
 128:../src/K6502_rw.h ****       {
 2118              		.loc 1 128 0
 2119 015e 93074701 		addi	a5,a4,20
 2120 0162 638FF64E 		beq	a3,a5,.L234
 133:../src/K6502_rw.h ****       {
 2121              		.loc 1 133 0
 2122 0166 93075701 		addi	a5,a4,21
 2123 016a 6384F648 		beq	a3,a5,.L235
 155:../src/K6502_rw.h ****       {
 2124              		.loc 1 155 0
 2125 016e 93076701 		addi	a5,a4,22
 2126 0172 6380F618 		beq	a3,a5,.L259
 163:../src/K6502_rw.h ****       {
 2127              		.loc 1 163 0
 2128 0176 5D07     		addi	a4,a4,23
 2129 0178 638AE654 		beq	a3,a4,.L260
 173:../src/K6502_rw.h ****       }
 2130              		.loc 1 173 0
 2131 017c B7070000 		lui	a5,%hi(MapperReadApu)
 2132 0180 83A70700 		lw	a5,%lo(MapperReadApu)(a5)
 2133 0184 3685     		mv	a0,a3
 2134 0186 8297     		jalr	a5
 2135              	.LVL161:
 2136 0188 2A84     		mv	s0,a0
 2137 018a 03D60400 		lhu	a2,0(s1)
 2138 018e F1B5     		j	.L184
 2139              	.LVL162:
 2140              	.L182:
 193:../src/K6502_rw.h **** 
 2141              		.loc 1 193 0
 2142 0190 B7070000 		lui	a5,%hi(ROMBANK2)
 2143 0194 83A70700 		lw	a5,%lo(ROMBANK2)(a5)
 2144 0198 5DBD     		j	.L248
 2145              	.L257:
  76:../src/K6502_rw.h **** 
 2146              		.loc 1 76 0
 2147 019a 37050000 		lui	a0,%hi(RAM)
 2148 019e 93F6F67F 		andi	a3,a3,2047
 2149              	.LVL163:
 2150 01a2 13050500 		addi	a0,a0,%lo(RAM)
 2151 01a6 AA96     		add	a3,a3,a0
 2152 01a8 03C40600 		lbu	s0,0(a3)
 2153 01ac 7DB5     		j	.L184
 2154              	.LVL164:
 2155              	.L255:
 2156              	.LBE272:
 2157              	.LBE333:
 2158              	.LBB334:
 2159              	.LBB312:
  73:../src/K6502_rw.h ****   {
 2160              		.loc 1 73 0
 2161 01ae 0967     		li	a4,8192
 2162 01b0 6382E712 		beq	a5,a4,.L217
 2163 01b4 1167     		li	a4,16384
 2164 01b6 6387E70E 		beq	a5,a4,.L218
 2165 01ba 99C7     		beqz	a5,.L261
 2166              	.L214:
 2167              	.LBE312:
 2168              	.LBE334:
 2169              		.loc 2 1106 0
 2170 01bc B240     		lw	ra,12(sp)
 2171              		.cfi_remember_state
 2172              		.cfi_restore 1
 2173 01be 2244     		lw	s0,8(sp)
 2174              		.cfi_restore 8
 2175 01c0 9244     		lw	s1,4(sp)
 2176              		.cfi_restore 9
 2177              	.LBB335:
 2178              	.LBB313:
 199:../src/K6502_rw.h ****                             address is returned. */
 2179              		.loc 1 199 0
 2180 01c2 2181     		srli	a0,a0,8
 2181              	.LVL165:
 2182              	.LBE313:
 2183              	.LBE335:
 2184              		.loc 2 1106 0
 2185 01c4 4101     		addi	sp,sp,16
 2186              		.cfi_def_cfa_offset 0
 2187 01c6 8280     		jr	ra
 2188              	.LVL166:
 2189              	.L261:
 2190              		.cfi_restore_state
 2191 01c8 B240     		lw	ra,12(sp)
 2192              		.cfi_remember_state
 2193              		.cfi_restore 1
 2194 01ca 2244     		lw	s0,8(sp)
 2195              		.cfi_restore 8
 2196              	.LBB336:
 2197              	.LBB314:
  76:../src/K6502_rw.h **** 
 2198              		.loc 1 76 0
 2199 01cc B7070000 		lui	a5,%hi(RAM)
 2200 01d0 1375F57F 		andi	a0,a0,2047
 2201              	.LVL167:
 2202 01d4 93870700 		addi	a5,a5,%lo(RAM)
 2203 01d8 3E95     		add	a0,a0,a5
 2204 01da 03450500 		lbu	a0,0(a0)
 2205              	.LBE314:
 2206              	.LBE336:
 2207              		.loc 2 1106 0
 2208 01de 9244     		lw	s1,4(sp)
 2209              		.cfi_restore 9
 2210 01e0 4101     		addi	sp,sp,16
 2211              		.cfi_def_cfa_offset 0
 2212 01e2 8280     		jr	ra
 2213              	.L253:
 2214              		.cfi_restore_state
 2215              	.LBB337:
 2216              	.LBB295:
  73:../src/K6502_rw.h ****   {
 2217              		.loc 1 73 0
 2218 01e4 8967     		li	a5,8192
 2219 01e6 630FF716 		beq	a4,a5,.L197
 2220 01ea 9167     		li	a5,16384
 2221 01ec 6300F714 		beq	a4,a5,.L198
 2222 01f0 45E7     		bnez	a4,.L194
  76:../src/K6502_rw.h **** 
 2223              		.loc 1 76 0
 2224 01f2 1375F67F 		andi	a0,a2,2047
 2225 01f6 37060000 		lui	a2,%hi(RAM)
 2226 01fa 13060600 		addi	a2,a2,%lo(RAM)
 2227 01fe 3295     		add	a0,a0,a2
 2228 0200 03050500 		lb	a0,0(a0)
 2229 0204 93178500 		slli	a5,a0,8
 2230 0208 69BD     		j	.L205
 2231              	.L254:
  73:../src/K6502_rw.h ****   {
 2232              		.loc 1 73 0
 2233 020a A167     		li	a5,32768
 2234 020c 6316F708 		bne	a4,a5,.L194
 187:../src/K6502_rw.h **** 
 2235              		.loc 1 187 0
 2236 0210 B7070000 		lui	a5,%hi(ROMBANK0)
 2237 0214 83A70700 		lw	a5,%lo(ROMBANK0)(a5)
 2238 0218 ADBD     		j	.L249
 2239              	.LVL168:
 2240              	.L252:
 2241              	.LBE295:
 2242              	.LBE337:
 2243              	.LBB338:
 2244              	.LBB273:
  73:../src/K6502_rw.h ****   {
 2245              		.loc 1 73 0
 2246 021a A167     		li	a5,32768
 2247 021c E311F7F0 		bne	a4,a5,.L173
 187:../src/K6502_rw.h **** 
 2248              		.loc 1 187 0
 2249 0220 B7070000 		lui	a5,%hi(ROMBANK0)
 2250 0224 83A70700 		lw	a5,%lo(ROMBANK0)(a5)
 2251 0228 1DB5     		j	.L248
 2252              	.LVL169:
 2253              	.L256:
 2254              	.LBE273:
 2255              	.LBE338:
 2256              	.LBB339:
 2257              	.LBB315:
  73:../src/K6502_rw.h ****   {
 2258              		.loc 1 73 0
 2259 022a 2167     		li	a4,32768
 2260 022c E398E7F8 		bne	a5,a4,.L214
 187:../src/K6502_rw.h **** 
 2261              		.loc 1 187 0
 2262 0230 B7070000 		lui	a5,%hi(ROMBANK0)
 2263 0234 03A70700 		lw	a4,%lo(ROMBANK0)(a5)
 2264 0238 C9B5     		j	.L250
 2265              	.LVL170:
 2266              	.L200:
 2267              	.LBE315:
 2268              	.LBE339:
 2269              	.LBB340:
 2270              	.LBB296:
 190:../src/K6502_rw.h **** 
 2271              		.loc 1 190 0
 2272 023a B7070000 		lui	a5,%hi(ROMBANK1)
 2273 023e 83A70700 		lw	a5,%lo(ROMBANK1)(a5)
 2274 0242 81BD     		j	.L249
 2275              	.LVL171:
 2276              	.L176:
 2277 0244 9D8A     		andi	a3,a3,7
 2278              	.LVL172:
 2279              	.LBE296:
 2280              	.LBE340:
 2281              	.LBB341:
 2282              	.LBB274:
  79:../src/K6502_rw.h ****       {
 2283              		.loc 1 79 0
 2284 0246 9D47     		li	a5,7
 2285 0248 6384F636 		beq	a3,a5,.L262
  95:../src/K6502_rw.h ****       {
 2286              		.loc 1 95 0
 2287 024c 9147     		li	a5,4
 2288 024e 6386F63A 		beq	a3,a5,.L263
 100:../src/K6502_rw.h ****       {
 2289              		.loc 1 100 0
 2290 0252 8947     		li	a5,2
 2291 0254 6380F624 		beq	a3,a5,.L264
 123:../src/K6502_rw.h ****       }
 2292              		.loc 1 123 0
 2293 0258 B7070000 		lui	a5,%hi(PPU_R7)
 2294 025c 03C40700 		lbu	s0,%lo(PPU_R7)(a5)
 2295 0260 EDBB     		j	.L184
 2296              	.LVL173:
 2297              	.L220:
 2298              	.LBE274:
 2299              	.LBE341:
 2300              	.LBB342:
 2301              	.LBB316:
 190:../src/K6502_rw.h **** 
 2302              		.loc 1 190 0
 2303 0262 B7070000 		lui	a5,%hi(ROMBANK1)
 2304 0266 03A70700 		lw	a4,%lo(ROMBANK1)(a5)
 2305 026a 41BD     		j	.L250
 2306              	.LVL174:
 2307              	.L179:
 2308              	.LBE316:
 2309              	.LBE342:
 2310              	.LBB343:
 2311              	.LBB275:
 2312 026c B7070000 		lui	a5,%hi(ROMBANK1)
 2313 0270 83A70700 		lw	a5,%lo(ROMBANK1)(a5)
 2314 0274 E9BB     		j	.L248
 2315              	.L174:
 179:../src/K6502_rw.h ****       {
 2316              		.loc 1 179 0
 2317 0276 B7070000 		lui	a5,%hi(ROM_SRAM)
 2318 027a 83C70700 		lbu	a5,%lo(ROM_SRAM)(a5)
 2319 027e 0965     		li	a0,8192
 2320 0280 7D15     		addi	a0,a0,-1
 2321 0282 758D     		and	a0,a3,a0
 2322 0284 638C0712 		beqz	a5,.L193
 181:../src/K6502_rw.h ****       } else {    /* SRAM BANK */
 2323              		.loc 1 181 0
 2324 0288 B7060000 		lui	a3,%hi(SRAM)
 2325              	.LVL175:
 2326 028c 93860600 		addi	a3,a3,%lo(SRAM)
 2327 0290 3695     		add	a0,a0,a3
 2328 0292 03440500 		lbu	s0,0(a0)
 2329 0296 D1B3     		j	.L184
 2330              	.L194:
 2331 0298 13150601 		slli	a0,a2,16
 2332 029c 4185     		srai	a0,a0,16
 2333 029e 937705F0 		andi	a5,a0,-256
 2334 02a2 01B5     		j	.L205
 2335              	.LVL176:
 2336              	.L218:
 2337              	.LBE275:
 2338              	.LBE343:
 2339              	.LBB344:
 2340              	.LBB317:
 128:../src/K6502_rw.h ****       {
 2341              		.loc 1 128 0
 2342 02a4 13874701 		addi	a4,a5,20
 2343 02a8 630AE53A 		beq	a0,a4,.L242
 133:../src/K6502_rw.h ****       {
 2344              		.loc 1 133 0
 2345 02ac 13875701 		addi	a4,a5,21
 2346 02b0 6303E534 		beq	a0,a4,.L243
 155:../src/K6502_rw.h ****       {
 2347              		.loc 1 155 0
 2348 02b4 13876701 		addi	a4,a5,22
 2349 02b8 6306E516 		beq	a0,a4,.L265
 163:../src/K6502_rw.h ****       {
 2350              		.loc 1 163 0
 2351 02bc DD07     		addi	a5,a5,23
 2352 02be 6307F53A 		beq	a0,a5,.L266
 2353              	.LBE317:
 2354              	.LBE344:
 2355              		.loc 2 1106 0
 2356 02c2 2244     		lw	s0,8(sp)
 2357              		.cfi_remember_state
 2358              		.cfi_restore 8
 2359              	.LBB345:
 2360              	.LBB318:
 173:../src/K6502_rw.h ****       }
 2361              		.loc 1 173 0
 2362 02c4 B7070000 		lui	a5,%hi(MapperReadApu)
 2363              	.LBE318:
 2364              	.LBE345:
 2365              		.loc 2 1106 0
 2366 02c8 B240     		lw	ra,12(sp)
 2367              		.cfi_restore 1
 2368 02ca 9244     		lw	s1,4(sp)
 2369              		.cfi_restore 9
 2370              	.LBB346:
 2371              	.LBB319:
 173:../src/K6502_rw.h ****       }
 2372              		.loc 1 173 0
 2373 02cc 03A30700 		lw	t1,%lo(MapperReadApu)(a5)
 2374              	.LBE319:
 2375              	.LBE346:
 2376              		.loc 2 1106 0
 2377 02d0 4101     		addi	sp,sp,16
 2378              		.cfi_def_cfa_offset 0
 2379              	.LBB347:
 2380              	.LBB320:
 173:../src/K6502_rw.h ****       }
 2381              		.loc 1 173 0
 2382 02d2 0283     		jr	t1
 2383              	.LVL177:
 2384              	.L217:
 2385              		.cfi_restore_state
 2386 02d4 1D89     		andi	a0,a0,7
 2387              	.LVL178:
  79:../src/K6502_rw.h ****       {
 2388              		.loc 1 79 0
 2389 02d6 9D47     		li	a5,7
 2390 02d8 630BF528 		beq	a0,a5,.L267
  95:../src/K6502_rw.h ****       {
 2391              		.loc 1 95 0
 2392 02dc 9147     		li	a5,4
 2393 02de 630FF534 		beq	a0,a5,.L268
 100:../src/K6502_rw.h ****       {
 2394              		.loc 1 100 0
 2395 02e2 8947     		li	a5,2
 2396 02e4 6306F516 		beq	a0,a5,.L269
 123:../src/K6502_rw.h ****       }
 2397              		.loc 1 123 0
 2398 02e8 B7070000 		lui	a5,%hi(PPU_R7)
 2399 02ec 03C50700 		lbu	a0,%lo(PPU_R7)(a5)
 2400 02f0 19BD     		j	.L246
 2401              	.LVL179:
 2402              	.L259:
 2403              	.LBE320:
 2404              	.LBE347:
 2405              	.LBB348:
 2406              	.LBB276:
 158:../src/K6502_rw.h ****         PAD1_Bit = ( PAD1_Bit == 23 ) ? 0 : ( PAD1_Bit + 1 );
 2407              		.loc 1 158 0
 2408 02f2 B7050000 		lui	a1,%hi(PAD1_Bit)
 2409 02f6 B7070000 		lui	a5,%hi(PAD1_Latch)
 2410 02fa 03A70500 		lw	a4,%lo(PAD1_Bit)(a1)
 2411 02fe 83A70700 		lw	a5,%lo(PAD1_Latch)(a5)
 159:../src/K6502_rw.h ****         return byRet;
 2412              		.loc 1 159 0
 2413 0302 5D48     		li	a6,23
 2414 0304 0145     		li	a0,0
 158:../src/K6502_rw.h ****         PAD1_Bit = ( PAD1_Bit == 23 ) ? 0 : ( PAD1_Bit + 1 );
 2415              		.loc 1 158 0
 2416 0306 B3D7E700 		srl	a5,a5,a4
 2417 030a 858B     		andi	a5,a5,1
 2418 030c 93E70704 		ori	a5,a5,64
 2419 0310 E207     		slli	a5,a5,24
 2420 0312 E187     		srai	a5,a5,24
 2421              	.LVL180:
 159:../src/K6502_rw.h ****         return byRet;
 2422              		.loc 1 159 0
 2423 0314 63040701 		beq	a4,a6,.L190
 2424 0318 13051700 		addi	a0,a4,1
 2425              	.L190:
 2426 031c 13940701 		slli	s0,a5,16
 2427 0320 23A0A500 		sw	a0,%lo(PAD1_Bit)(a1)
 2428 0324 4184     		srai	s0,s0,16
 2429              	.LVL181:
 2430              	.L188:
 2431              	.LBE276:
 2432              	.LBE348:
 2433              		.loc 2 1106 0
 2434 0326 8906     		addi	a3,a3,2
 2435 0328 2390D400 		sh	a3,0(s1)
 2436              	.LVL182:
 2437              	.L198:
 2438              	.LBB349:
 2439              	.LBB297:
 128:../src/K6502_rw.h ****       {
 2440              		.loc 1 128 0
 2441 032c 1167     		li	a4,16384
 2442 032e 93074701 		addi	a5,a4,20
 2443 0332 6309F632 		beq	a2,a5,.L238
 133:../src/K6502_rw.h ****       {
 2444              		.loc 1 133 0
 2445 0336 93065701 		addi	a3,a4,21
 2446 033a 8147     		li	a5,0
 2447 033c E303D6D6 		beq	a2,a3,.L205
 155:../src/K6502_rw.h ****       {
 2448              		.loc 1 155 0
 2449 0340 93076701 		addi	a5,a4,22
 2450 0344 6306F60A 		beq	a2,a5,.L270
 163:../src/K6502_rw.h ****       {
 2451              		.loc 1 163 0
 2452 0348 5D07     		addi	a4,a4,23
 2453 034a 6307E634 		beq	a2,a4,.L271
 173:../src/K6502_rw.h ****       }
 2454              		.loc 1 173 0
 2455 034e B7070000 		lui	a5,%hi(MapperReadApu)
 2456 0352 83A70700 		lw	a5,%lo(MapperReadApu)(a5)
 2457 0356 3285     		mv	a0,a2
 2458 0358 8297     		jalr	a5
 2459              	.LVL183:
 2460 035a 2205     		slli	a0,a0,8
 2461 035c 93170501 		slli	a5,a0,16
 2462 0360 C187     		srai	a5,a5,16
 2463 0362 81B3     		j	.L205
 2464              	.L197:
 2465 0364 13757600 		andi	a0,a2,7
  79:../src/K6502_rw.h ****       {
 2466              		.loc 1 79 0
 2467 0368 9D47     		li	a5,7
 2468 036a 630DF51A 		beq	a0,a5,.L272
  95:../src/K6502_rw.h ****       {
 2469              		.loc 1 95 0
 2470 036e 9147     		li	a5,4
 2471 0370 6305F52A 		beq	a0,a5,.L273
 100:../src/K6502_rw.h ****       {
 2472              		.loc 1 100 0
 2473 0374 8947     		li	a5,2
 2474 0376 6301F516 		beq	a0,a5,.L274
 123:../src/K6502_rw.h ****       }
 2475              		.loc 1 123 0
 2476 037a B7070000 		lui	a5,%hi(PPU_R7)
 2477 037e 03870700 		lb	a4,%lo(PPU_R7)(a5)
 2478 0382 93178700 		slli	a5,a4,8
 2479 0386 31BB     		j	.L205
 2480              	.LVL184:
 2481              	.L215:
 2482              	.LBE297:
 2483              	.LBE349:
 2484              	.LBB350:
 2485              	.LBB321:
 179:../src/K6502_rw.h ****       {
 2486              		.loc 1 179 0
 2487 0388 B7070000 		lui	a5,%hi(ROM_SRAM)
 2488 038c 03C70700 		lbu	a4,%lo(ROM_SRAM)(a5)
 2489 0390 8967     		li	a5,8192
 2490 0392 FD17     		addi	a5,a5,-1
 2491 0394 7D8D     		and	a0,a0,a5
 2492              	.LVL185:
 2493 0396 29C7     		beqz	a4,.L233
 181:../src/K6502_rw.h ****       } else {    /* SRAM BANK */
 2494              		.loc 1 181 0
 2495 0398 B7070000 		lui	a5,%hi(SRAM)
 2496 039c 93870700 		addi	a5,a5,%lo(SRAM)
 2497 03a0 3E95     		add	a0,a0,a5
 2498 03a2 03450500 		lbu	a0,0(a0)
 2499 03a6 85B3     		j	.L246
 2500              	.LVL186:
 2501              	.L223:
 193:../src/K6502_rw.h **** 
 2502              		.loc 1 193 0
 2503 03a8 B7070000 		lui	a5,%hi(ROMBANK2)
 2504 03ac 03A70700 		lw	a4,%lo(ROMBANK2)(a5)
 2505 03b0 A9B3     		j	.L250
 2506              	.LVL187:
 2507              	.L203:
 2508              	.LBE321:
 2509              	.LBE350:
 2510              	.LBB351:
 2511              	.LBB298:
 2512 03b2 B7070000 		lui	a5,%hi(ROMBANK2)
 2513 03b6 83A70700 		lw	a5,%lo(ROMBANK2)(a5)
 2514 03ba E1B9     		j	.L249
 2515              	.LVL188:
 2516              	.L193:
 2517              	.LBE298:
 2518              	.LBE351:
 2519              	.LBB352:
 2520              	.LBB277:
 183:../src/K6502_rw.h ****       }
 2521              		.loc 1 183 0
 2522 03bc B7070000 		lui	a5,%hi(SRAMBANK)
 2523 03c0 83A60700 		lw	a3,%lo(SRAMBANK)(a5)
 2524              	.LVL189:
 2525 03c4 3695     		add	a0,a3,a0
 2526 03c6 03440500 		lbu	s0,0(a0)
 2527 03ca 41B9     		j	.L184
 2528              	.L213:
 2529              	.LBE277:
 2530              	.LBE352:
 2531              	.LBB353:
 2532              	.LBB299:
 2533 03cc B7070000 		lui	a5,%hi(SRAMBANK)
 2534 03d0 03A60700 		lw	a2,%lo(SRAMBANK)(a5)
 2535 03d4 3295     		add	a0,a2,a0
 2536 03d6 03050500 		lb	a0,0(a0)
 2537 03da 93178500 		slli	a5,a0,8
 2538 03de D1B1     		j	.L205
 2539              	.L233:
 2540              	.LBE299:
 2541              	.LBE353:
 2542              	.LBB354:
 2543              	.LBB322:
 2544 03e0 B7070000 		lui	a5,%hi(SRAMBANK)
 2545 03e4 83A70700 		lw	a5,%lo(SRAMBANK)(a5)
 2546 03e8 3E95     		add	a0,a5,a0
 2547 03ea 03450500 		lbu	a0,0(a0)
 2548 03ee 21BB     		j	.L246
 2549              	.LVL190:
 2550              	.L270:
 2551              	.LBE322:
 2552              	.LBE354:
 2553              	.LBB355:
 2554              	.LBB300:
 158:../src/K6502_rw.h ****         PAD1_Bit = ( PAD1_Bit == 23 ) ? 0 : ( PAD1_Bit + 1 );
 2555              		.loc 1 158 0
 2556 03f0 B7050000 		lui	a1,%hi(PAD1_Bit)
 2557 03f4 37070000 		lui	a4,%hi(PAD1_Latch)
 2558 03f8 83A70500 		lw	a5,%lo(PAD1_Bit)(a1)
 2559 03fc 03270700 		lw	a4,%lo(PAD1_Latch)(a4)
 159:../src/K6502_rw.h ****         return byRet;
 2560              		.loc 1 159 0
 2561 0400 5D46     		li	a2,23
 2562              	.LVL191:
 2563 0402 8146     		li	a3,0
 158:../src/K6502_rw.h ****         PAD1_Bit = ( PAD1_Bit == 23 ) ? 0 : ( PAD1_Bit + 1 );
 2564              		.loc 1 158 0
 2565 0404 3357F700 		srl	a4,a4,a5
 2566 0408 058B     		andi	a4,a4,1
 2567 040a 13670704 		ori	a4,a4,64
 2568 040e 6207     		slli	a4,a4,24
 2569 0410 6187     		srai	a4,a4,24
 2570              	.LVL192:
 159:../src/K6502_rw.h ****         return byRet;
 2571              		.loc 1 159 0
 2572 0412 6384C700 		beq	a5,a2,.L210
 2573 0416 93861700 		addi	a3,a5,1
 2574              	.L210:
 2575 041a 23A0D500 		sw	a3,%lo(PAD1_Bit)(a1)
 2576 041e 93178700 		slli	a5,a4,8
 2577 0422 41B1     		j	.L205
 2578              	.LVL193:
 2579              	.L265:
 2580              	.LBE300:
 2581              	.LBE355:
 2582              	.LBB356:
 2583              	.LBB323:
 158:../src/K6502_rw.h ****         PAD1_Bit = ( PAD1_Bit == 23 ) ? 0 : ( PAD1_Bit + 1 );
 2584              		.loc 1 158 0
 2585 0424 37070000 		lui	a4,%hi(PAD1_Latch)
 2586 0428 B7050000 		lui	a1,%hi(PAD1_Bit)
 2587 042c 03250700 		lw	a0,%lo(PAD1_Latch)(a4)
 2588              	.LVL194:
 2589 0430 83A70500 		lw	a5,%lo(PAD1_Bit)(a1)
 159:../src/K6502_rw.h ****         return byRet;
 2590              		.loc 1 159 0
 2591 0434 DD46     		li	a3,23
 2592 0436 0147     		li	a4,0
 158:../src/K6502_rw.h ****         PAD1_Bit = ( PAD1_Bit == 23 ) ? 0 : ( PAD1_Bit + 1 );
 2593              		.loc 1 158 0
 2594 0438 3355F500 		srl	a0,a0,a5
 2595 043c 0589     		andi	a0,a0,1
 2596 043e 13650504 		ori	a0,a0,64
 2597              	.LVL195:
 159:../src/K6502_rw.h ****         return byRet;
 2598              		.loc 1 159 0
 2599 0442 6384D700 		beq	a5,a3,.L230
 2600 0446 13871700 		addi	a4,a5,1
 2601              	.L230:
 2602 044a 23A0E500 		sw	a4,%lo(PAD1_Bit)(a1)
 2603 044e 65B9     		j	.L246
 2604              	.LVL196:
 2605              	.L269:
 114:../src/K6502_rw.h ****         {
 2606              		.loc 1 114 0
 2607 0450 B7070000 		lui	a5,%hi(PPU_Scanline)
 2608 0454 03D70700 		lhu	a4,%lo(PPU_Scanline)(a5)
 111:../src/K6502_rw.h **** 
 2609              		.loc 1 111 0
 2610 0458 B7070000 		lui	a5,%hi(PPU_Latch_Flag)
 2611 045c 23800700 		sb	zero,%lo(PPU_Latch_Flag)(a5)
 103:../src/K6502_rw.h **** 
 2612              		.loc 1 103 0
 2613 0460 B7060000 		lui	a3,%hi(PPU_R2)
 114:../src/K6502_rw.h ****         {
 2614              		.loc 1 114 0
 2615 0464 9307200F 		li	a5,242
 103:../src/K6502_rw.h **** 
 2616              		.loc 1 103 0
 2617 0468 03C50600 		lbu	a0,%lo(PPU_R2)(a3)
 2618              	.LVL197:
 114:../src/K6502_rw.h ****         {
 2619              		.loc 1 114 0
 2620 046c E3FDE7C8 		bleu	a4,a5,.L246
 2621 0470 37070000 		lui	a4,%hi(PPU_R0)
 2622 0474 83470700 		lbu	a5,%lo(PPU_R0)(a4)
 2623 0478 93968701 		slli	a3,a5,24
 2624 047c E186     		srai	a3,a3,24
 2625 047e E3C406C8 		bltz	a3,.L246
 116:../src/K6502_rw.h ****           PPU_NameTableBank = NAME_TABLE0;
 2626              		.loc 1 116 0
 2627 0482 F19B     		andi	a5,a5,-4
 2628 0484 2300F700 		sb	a5,%lo(PPU_R0)(a4)
 117:../src/K6502_rw.h ****         }
 2629              		.loc 1 117 0
 2630 0488 B7070000 		lui	a5,%hi(PPU_NameTableBank)
 2631 048c 2147     		li	a4,8
 2632 048e 2380E700 		sb	a4,%lo(PPU_NameTableBank)(a5)
 2633 0492 95B9     		j	.L246
 2634              	.LVL198:
 2635              	.L264:
 2636              	.LBE323:
 2637              	.LBE356:
 2638              	.LBB357:
 2639              	.LBB278:
 114:../src/K6502_rw.h ****         {
 2640              		.loc 1 114 0
 2641 0494 B7070000 		lui	a5,%hi(PPU_Scanline)
 2642 0498 83D60700 		lhu	a3,%lo(PPU_Scanline)(a5)
 111:../src/K6502_rw.h **** 
 2643              		.loc 1 111 0
 2644 049c B7070000 		lui	a5,%hi(PPU_Latch_Flag)
 2645 04a0 23800700 		sb	zero,%lo(PPU_Latch_Flag)(a5)
 114:../src/K6502_rw.h ****         {
 2646              		.loc 1 114 0
 2647 04a4 1307200F 		li	a4,242
 103:../src/K6502_rw.h **** 
 2648              		.loc 1 103 0
 2649 04a8 B7070000 		lui	a5,%hi(PPU_R2)
 2650 04ac 03C40700 		lbu	s0,%lo(PPU_R2)(a5)
 2651              	.LVL199:
 114:../src/K6502_rw.h ****         {
 2652              		.loc 1 114 0
 2653 04b0 E375D7BA 		bleu	a3,a4,.L184
 2654 04b4 B7060000 		lui	a3,%hi(PPU_R0)
 2655 04b8 03C70600 		lbu	a4,%lo(PPU_R0)(a3)
 2656 04bc 93158701 		slli	a1,a4,24
 2657 04c0 E185     		srai	a1,a1,24
 2658 04c2 E3CC05B8 		bltz	a1,.L184
 116:../src/K6502_rw.h ****           PPU_NameTableBank = NAME_TABLE0;
 2659              		.loc 1 116 0
 2660 04c6 719B     		andi	a4,a4,-4
 2661 04c8 2380E600 		sb	a4,%lo(PPU_R0)(a3)
 117:../src/K6502_rw.h ****         }
 2662              		.loc 1 117 0
 2663 04cc 37070000 		lui	a4,%hi(PPU_NameTableBank)
 2664 04d0 A146     		li	a3,8
 2665 04d2 2300D700 		sb	a3,%lo(PPU_NameTableBank)(a4)
 2666 04d6 51B6     		j	.L184
 2667              	.LVL200:
 2668              	.L274:
 2669              	.LBE278:
 2670              	.LBE357:
 2671              	.LBB358:
 2672              	.LBB301:
 103:../src/K6502_rw.h **** 
 2673              		.loc 1 103 0
 2674 04d8 B7070000 		lui	a5,%hi(PPU_R2)
 2675 04dc 03C70700 		lbu	a4,%lo(PPU_R2)(a5)
 2676              	.LVL201:
 114:../src/K6502_rw.h ****         {
 2677              		.loc 1 114 0
 2678 04e0 B7070000 		lui	a5,%hi(PPU_Scanline)
 2679 04e4 03D60700 		lhu	a2,%lo(PPU_Scanline)(a5)
 2680 04e8 2207     		slli	a4,a4,8
 2681              	.LVL202:
 111:../src/K6502_rw.h **** 
 2682              		.loc 1 111 0
 2683 04ea B7070000 		lui	a5,%hi(PPU_Latch_Flag)
 2684 04ee 23800700 		sb	zero,%lo(PPU_Latch_Flag)(a5)
 114:../src/K6502_rw.h ****         {
 2685              		.loc 1 114 0
 2686 04f2 9306200F 		li	a3,242
 2687 04f6 93170701 		slli	a5,a4,16
 2688 04fa C187     		srai	a5,a5,16
 2689 04fc E3F3C6BA 		bleu	a2,a3,.L205
 2690 0500 B7060000 		lui	a3,%hi(PPU_R0)
 2691 0504 03C70600 		lbu	a4,%lo(PPU_R0)(a3)
 2692 0508 13168701 		slli	a2,a4,24
 2693 050c 6186     		srai	a2,a2,24
 2694 050e E34A06B8 		bltz	a2,.L205
 116:../src/K6502_rw.h ****           PPU_NameTableBank = NAME_TABLE0;
 2695              		.loc 1 116 0
 2696 0512 719B     		andi	a4,a4,-4
 2697 0514 2380E600 		sb	a4,%lo(PPU_R0)(a3)
 117:../src/K6502_rw.h ****         }
 2698              		.loc 1 117 0
 2699 0518 37070000 		lui	a4,%hi(PPU_NameTableBank)
 2700 051c A146     		li	a3,8
 2701 051e 2300D700 		sb	a3,%lo(PPU_NameTableBank)(a4)
 2702 0522 41B6     		j	.L205
 2703              	.LVL203:
 2704              	.L272:
 2705              	.LBB287:
  81:../src/K6502_rw.h **** 
 2706              		.loc 1 81 0
 2707 0524 37050000 		lui	a0,%hi(PPU_Addr)
 2708 0528 83570500 		lhu	a5,%lo(PPU_Addr)(a0)
 2709              	.LVL204:
  90:../src/K6502_rw.h **** 
 2710              		.loc 1 90 0
 2711 052c B7060000 		lui	a3,%hi(PPUBANK)
 2712 0530 93860600 		addi	a3,a3,%lo(PPUBANK)
 2713 0534 13D78700 		srli	a4,a5,8
 2714 0538 1377C703 		andi	a4,a4,60
  87:../src/K6502_rw.h **** 
 2715              		.loc 1 87 0
 2716 053c 37060000 		lui	a2,%hi(PPU_Increment)
  90:../src/K6502_rw.h **** 
 2717              		.loc 1 90 0
 2718 0540 3697     		add	a4,a4,a3
  87:../src/K6502_rw.h **** 
 2719              		.loc 1 87 0
 2720 0542 03560600 		lhu	a2,%lo(PPU_Increment)(a2)
  90:../src/K6502_rw.h **** 
 2721              		.loc 1 90 0
 2722 0546 1443     		lw	a3,0(a4)
  84:../src/K6502_rw.h **** 
 2723              		.loc 1 84 0
 2724 0548 B7050000 		lui	a1,%hi(PPU_R7)
  87:../src/K6502_rw.h **** 
 2725              		.loc 1 87 0
 2726 054c 3E96     		add	a2,a5,a2
  84:../src/K6502_rw.h **** 
 2727              		.loc 1 84 0
 2728 054e 03C70500 		lbu	a4,%lo(PPU_R7)(a1)
 2729              	.LVL205:
  90:../src/K6502_rw.h **** 
 2730              		.loc 1 90 0
 2731 0552 93F7F73F 		andi	a5,a5,1023
 2732              	.LVL206:
 2733 0556 B697     		add	a5,a3,a5
  87:../src/K6502_rw.h **** 
 2734              		.loc 1 87 0
 2735 0558 2310C500 		sh	a2,%lo(PPU_Addr)(a0)
 2736              	.LVL207:
  90:../src/K6502_rw.h **** 
 2737              		.loc 1 90 0
 2738 055c 83C60700 		lbu	a3,0(a5)
 2739 0560 2207     		slli	a4,a4,8
 2740              	.LVL208:
 2741 0562 93170701 		slli	a5,a4,16
 2742 0566 C187     		srai	a5,a5,16
 2743 0568 2380D500 		sb	a3,%lo(PPU_R7)(a1)
 2744              	.LVL209:
 2745 056c 1DBE     		j	.L205
 2746              	.L267:
 2747              	.LBE287:
 2748              	.LBE301:
 2749              	.LBE358:
 2750              	.LBB359:
 2751              	.LBB324:
 2752              	.LBB309:
  81:../src/K6502_rw.h **** 
 2753              		.loc 1 81 0
 2754 056e B7050000 		lui	a1,%hi(PPU_Addr)
 2755 0572 83D70500 		lhu	a5,%lo(PPU_Addr)(a1)
 2756              	.LVL210:
  90:../src/K6502_rw.h **** 
 2757              		.loc 1 90 0
 2758 0576 37060000 		lui	a2,%hi(PPUBANK)
  87:../src/K6502_rw.h **** 
 2759              		.loc 1 87 0
 2760 057a B7060000 		lui	a3,%hi(PPU_Increment)
  90:../src/K6502_rw.h **** 
 2761              		.loc 1 90 0
 2762 057e 13D78700 		srli	a4,a5,8
 2763 0582 1377C703 		andi	a4,a4,60
 2764 0586 13060600 		addi	a2,a2,%lo(PPUBANK)
  87:../src/K6502_rw.h **** 
 2765              		.loc 1 87 0
 2766 058a 83D60600 		lhu	a3,%lo(PPU_Increment)(a3)
  90:../src/K6502_rw.h **** 
 2767              		.loc 1 90 0
 2768 058e 3297     		add	a4,a4,a2
 2769 0590 1843     		lw	a4,0(a4)
  87:../src/K6502_rw.h **** 
 2770              		.loc 1 87 0
 2771 0592 BE96     		add	a3,a5,a3
  90:../src/K6502_rw.h **** 
 2772              		.loc 1 90 0
 2773 0594 93F7F73F 		andi	a5,a5,1023
 2774              	.LVL211:
 2775 0598 BA97     		add	a5,a4,a5
  87:../src/K6502_rw.h **** 
 2776              		.loc 1 87 0
 2777 059a 2390D500 		sh	a3,%lo(PPU_Addr)(a1)
 2778              	.LVL212:
  90:../src/K6502_rw.h **** 
 2779              		.loc 1 90 0
 2780 059e 03C70700 		lbu	a4,0(a5)
  84:../src/K6502_rw.h **** 
 2781              		.loc 1 84 0
 2782 05a2 B7070000 		lui	a5,%hi(PPU_R7)
 2783 05a6 03C50700 		lbu	a0,%lo(PPU_R7)(a5)
 2784              	.LVL213:
  90:../src/K6502_rw.h **** 
 2785              		.loc 1 90 0
 2786 05aa 2380E700 		sb	a4,%lo(PPU_R7)(a5)
 2787 05ae A1BE     		j	.L246
 2788              	.LVL214:
 2789              	.L262:
 2790              	.LBE309:
 2791              	.LBE324:
 2792              	.LBE359:
 2793              	.LBB360:
 2794              	.LBB279:
 2795              	.LBB265:
  81:../src/K6502_rw.h **** 
 2796              		.loc 1 81 0
 2797 05b0 37050000 		lui	a0,%hi(PPU_Addr)
 2798              	.LVL215:
 2799 05b4 83570500 		lhu	a5,%lo(PPU_Addr)(a0)
 2800              	.LVL216:
  90:../src/K6502_rw.h **** 
 2801              		.loc 1 90 0
 2802 05b8 B7050000 		lui	a1,%hi(PPUBANK)
  87:../src/K6502_rw.h **** 
 2803              		.loc 1 87 0
 2804 05bc B7060000 		lui	a3,%hi(PPU_Increment)
  90:../src/K6502_rw.h **** 
 2805              		.loc 1 90 0
 2806 05c0 13D78700 		srli	a4,a5,8
 2807 05c4 1377C703 		andi	a4,a4,60
 2808 05c8 93850500 		addi	a1,a1,%lo(PPUBANK)
  87:../src/K6502_rw.h **** 
 2809              		.loc 1 87 0
 2810 05cc 83D60600 		lhu	a3,%lo(PPU_Increment)(a3)
  90:../src/K6502_rw.h **** 
 2811              		.loc 1 90 0
 2812 05d0 2E97     		add	a4,a4,a1
 2813 05d2 1843     		lw	a4,0(a4)
  87:../src/K6502_rw.h **** 
 2814              		.loc 1 87 0
 2815 05d4 BE96     		add	a3,a5,a3
  90:../src/K6502_rw.h **** 
 2816              		.loc 1 90 0
 2817 05d6 93F7F73F 		andi	a5,a5,1023
 2818              	.LVL217:
 2819 05da BA97     		add	a5,a4,a5
  87:../src/K6502_rw.h **** 
 2820              		.loc 1 87 0
 2821 05dc 2310D500 		sh	a3,%lo(PPU_Addr)(a0)
 2822              	.LVL218:
  90:../src/K6502_rw.h **** 
 2823              		.loc 1 90 0
 2824 05e0 83C60700 		lbu	a3,0(a5)
  84:../src/K6502_rw.h **** 
 2825              		.loc 1 84 0
 2826 05e4 37070000 		lui	a4,%hi(PPU_R7)
 2827 05e8 03440700 		lbu	s0,%lo(PPU_R7)(a4)
 2828              	.LVL219:
  90:../src/K6502_rw.h **** 
 2829              		.loc 1 90 0
 2830 05ec 2300D700 		sb	a3,%lo(PPU_R7)(a4)
 2831 05f0 ADB4     		j	.L184
 2832              	.LVL220:
 2833              	.L235:
 2834              	.LBE265:
 133:../src/K6502_rw.h ****       {
 2835              		.loc 1 133 0
 2836 05f2 0144     		li	s0,0
 2837 05f4 0DBB     		j	.L188
 2838              	.LVL221:
 2839              	.L243:
 2840              	.LBE279:
 2841              	.LBE360:
 2842              	.LBB361:
 2843              	.LBB325:
 152:../src/K6502_rw.h ****       }
 2844              		.loc 1 152 0
 2845 05f6 0145     		li	a0,0
 2846              	.LVL222:
 2847              	.LBE325:
 2848              	.LBE361:
 2849              		.loc 2 1106 0
 2850 05f8 39B6     		j	.L246
 2851              	.LVL223:
 2852              	.L263:
 2853              	.LBB362:
 2854              	.LBB280:
  97:../src/K6502_rw.h ****       }
 2855              		.loc 1 97 0
 2856 05fa B7060000 		lui	a3,%hi(PPU_R3)
 2857 05fe 83C70600 		lbu	a5,%lo(PPU_R3)(a3)
 2858 0602 37070000 		lui	a4,%hi(SPRRAM)
 2859 0606 13070700 		addi	a4,a4,%lo(SPRRAM)
 2860 060a 93851700 		addi	a1,a5,1
 2861 060e BA97     		add	a5,a5,a4
 2862 0610 2380B600 		sb	a1,%lo(PPU_R3)(a3)
 2863 0614 03C40700 		lbu	s0,0(a5)
 2864 0618 89B4     		j	.L184
 2865              	.LVL224:
 2866              	.L273:
 2867              	.LBE280:
 2868              	.LBE362:
 2869              	.LBB363:
 2870              	.LBB302:
 2871 061a 37060000 		lui	a2,%hi(PPU_R3)
 2872 061e 83460600 		lbu	a3,%lo(PPU_R3)(a2)
 2873 0622 B7070000 		lui	a5,%hi(SPRRAM)
 2874 0626 93870700 		addi	a5,a5,%lo(SPRRAM)
 2875 062a B697     		add	a5,a3,a5
 2876 062c 03870700 		lb	a4,0(a5)
 2877 0630 8506     		addi	a3,a3,1
 2878 0632 2300D600 		sb	a3,%lo(PPU_R3)(a2)
 2879 0636 93178700 		slli	a5,a4,8
 2880 063a A5B4     		j	.L205
 2881              	.L268:
 2882              	.LBE302:
 2883              	.LBE363:
 2884              	.LBB364:
 2885              	.LBB326:
 2886 063c B7060000 		lui	a3,%hi(PPU_R3)
 2887 0640 83C70600 		lbu	a5,%lo(PPU_R3)(a3)
 2888 0644 37070000 		lui	a4,%hi(SPRRAM)
 2889 0648 13070700 		addi	a4,a4,%lo(SPRRAM)
 2890 064c 13861700 		addi	a2,a5,1
 2891 0650 BA97     		add	a5,a5,a4
 2892 0652 2380C600 		sb	a2,%lo(PPU_R3)(a3)
 2893 0656 03C50700 		lbu	a0,0(a5)
 2894 065a 75B4     		j	.L246
 2895              	.LVL225:
 2896              	.L242:
 130:../src/K6502_rw.h ****       }
 2897              		.loc 1 130 0
 2898 065c 5145     		li	a0,20
 2899              	.LVL226:
 2900 065e 65B4     		j	.L246
 2901              	.LVL227:
 2902              	.L234:
 2903              	.LBE326:
 2904              	.LBE364:
 2905              	.LBB365:
 2906              	.LBB281:
 128:../src/K6502_rw.h ****       {
 2907              		.loc 1 128 0
 2908 0660 5144     		li	s0,20
 2909 0662 D1B1     		j	.L188
 2910              	.LVL228:
 2911              	.L238:
 2912              	.LBE281:
 2913              	.LBE365:
 2914              	.LBB366:
 2915              	.LBB303:
 2916 0664 0567     		li	a4,4096
 2917 0666 93070740 		addi	a5,a4,1024
 2918 066a 25BC     		j	.L205
 2919              	.LVL229:
 2920              	.L266:
 2921              	.LBE303:
 2922              	.LBE366:
 2923              	.LBB367:
 2924              	.LBB327:
 2925              	.LBB310:
 2926              	.LBB311:
 166:../src/K6502_rw.h ****         PAD2_Bit = ( PAD2_Bit == 23 ) ? 0 : ( PAD2_Bit + 1 );
 2927              		.loc 1 166 0
 2928 066c 37070000 		lui	a4,%hi(PAD2_Latch)
 2929 0670 B7050000 		lui	a1,%hi(PAD2_Bit)
 2930 0674 03250700 		lw	a0,%lo(PAD2_Latch)(a4)
 2931              	.LVL230:
 2932 0678 83A70500 		lw	a5,%lo(PAD2_Bit)(a1)
 167:../src/K6502_rw.h ****         return byRet;
 2933              		.loc 1 167 0
 2934 067c DD46     		li	a3,23
 2935 067e 0147     		li	a4,0
 166:../src/K6502_rw.h ****         PAD2_Bit = ( PAD2_Bit == 23 ) ? 0 : ( PAD2_Bit + 1 );
 2936              		.loc 1 166 0
 2937 0680 3355F500 		srl	a0,a0,a5
 2938 0684 0589     		andi	a0,a0,1
 2939 0686 13650504 		ori	a0,a0,64
 2940              	.LVL231:
 167:../src/K6502_rw.h ****         return byRet;
 2941              		.loc 1 167 0
 2942 068a 6384D700 		beq	a5,a3,.L232
 2943 068e 13871700 		addi	a4,a5,1
 2944              	.L232:
 2945 0692 23A0E500 		sw	a4,%lo(PAD2_Bit)(a1)
 2946              	.LVL232:
 2947 0696 85BC     		j	.L246
 2948              	.LVL233:
 2949              	.L271:
 2950              	.LBE311:
 2951              	.LBE310:
 2952              	.LBE327:
 2953              	.LBE367:
 2954              	.LBB368:
 2955              	.LBB304:
 2956              	.LBB288:
 2957              	.LBB289:
 166:../src/K6502_rw.h ****         PAD2_Bit = ( PAD2_Bit == 23 ) ? 0 : ( PAD2_Bit + 1 );
 2958              		.loc 1 166 0
 2959 0698 B7050000 		lui	a1,%hi(PAD2_Bit)
 2960 069c 37070000 		lui	a4,%hi(PAD2_Latch)
 2961 06a0 83A70500 		lw	a5,%lo(PAD2_Bit)(a1)
 2962 06a4 03270700 		lw	a4,%lo(PAD2_Latch)(a4)
 167:../src/K6502_rw.h ****         return byRet;
 2963              		.loc 1 167 0
 2964 06a8 5D46     		li	a2,23
 2965              	.LVL234:
 2966 06aa 8146     		li	a3,0
 166:../src/K6502_rw.h ****         PAD2_Bit = ( PAD2_Bit == 23 ) ? 0 : ( PAD2_Bit + 1 );
 2967              		.loc 1 166 0
 2968 06ac 3357F700 		srl	a4,a4,a5
 2969 06b0 058B     		andi	a4,a4,1
 2970 06b2 13670704 		ori	a4,a4,64
 2971 06b6 6207     		slli	a4,a4,24
 2972 06b8 6187     		srai	a4,a4,24
 2973              	.LVL235:
 167:../src/K6502_rw.h ****         return byRet;
 2974              		.loc 1 167 0
 2975 06ba 6384C700 		beq	a5,a2,.L212
 2976 06be 93861700 		addi	a3,a5,1
 2977              	.L212:
 2978 06c2 23A0D500 		sw	a3,%lo(PAD2_Bit)(a1)
 2979              	.LVL236:
 2980 06c6 93178700 		slli	a5,a4,8
 2981 06ca E1BA     		j	.L205
 2982              	.LVL237:
 2983              	.L260:
 2984              	.LBE289:
 2985              	.LBE288:
 2986              	.LBE304:
 2987              	.LBE368:
 2988              	.LBB369:
 2989              	.LBB282:
 2990              	.LBB266:
 2991              	.LBB267:
 166:../src/K6502_rw.h ****         PAD2_Bit = ( PAD2_Bit == 23 ) ? 0 : ( PAD2_Bit + 1 );
 2992              		.loc 1 166 0
 2993 06cc B7050000 		lui	a1,%hi(PAD2_Bit)
 2994 06d0 B7070000 		lui	a5,%hi(PAD2_Latch)
 2995 06d4 03A70500 		lw	a4,%lo(PAD2_Bit)(a1)
 2996 06d8 83A70700 		lw	a5,%lo(PAD2_Latch)(a5)
 167:../src/K6502_rw.h ****         return byRet;
 2997              		.loc 1 167 0
 2998 06dc 5D48     		li	a6,23
 2999 06de 0145     		li	a0,0
 166:../src/K6502_rw.h ****         PAD2_Bit = ( PAD2_Bit == 23 ) ? 0 : ( PAD2_Bit + 1 );
 3000              		.loc 1 166 0
 3001 06e0 B3D7E700 		srl	a5,a5,a4
 3002 06e4 858B     		andi	a5,a5,1
 3003 06e6 93E70704 		ori	a5,a5,64
 3004 06ea E207     		slli	a5,a5,24
 3005 06ec E187     		srai	a5,a5,24
 3006              	.LVL238:
 167:../src/K6502_rw.h ****         return byRet;
 3007              		.loc 1 167 0
 3008 06ee 63040701 		beq	a4,a6,.L192
 3009 06f2 13051700 		addi	a0,a4,1
 3010              	.L192:
 3011 06f6 13940701 		slli	s0,a5,16
 3012 06fa 23A0A500 		sw	a0,%lo(PAD2_Bit)(a1)
 3013              	.LVL239:
 3014 06fe 4184     		srai	s0,s0,16
 3015 0700 1DB1     		j	.L188
 3016              	.LBE267:
 3017              	.LBE266:
 3018              	.LBE282:
 3019              	.LBE369:
 3020              		.cfi_endproc
 3021              	.LFE5:
 3023              		.section	.text.K6502_Read,"ax",@progbits
 3024              		.align	1
 3026              	K6502_Read:
 3027              	.LFB8:
  52:../src/K6502_rw.h **** /*
 3028              		.loc 1 52 0
 3029              		.cfi_startproc
 3030              	.LVL240:
  73:../src/K6502_rw.h ****   {
 3031              		.loc 1 73 0
 3032 0000 F977     		li	a5,-8192
 3033 0002 E98F     		and	a5,a0,a5
 3034 0004 9966     		li	a3,24576
  52:../src/K6502_rw.h **** /*
 3035              		.loc 1 52 0
 3036 0006 2A87     		mv	a4,a0
  73:../src/K6502_rw.h ****   {
 3037              		.loc 1 73 0
 3038 0008 6386D70E 		beq	a5,a3,.L277
 3039 000c 63F8F602 		bleu	a5,a3,.L301
 3040 0010 A966     		li	a3,40960
 3041 0012 6386D70C 		beq	a5,a3,.L282
 3042 0016 63FCF606 		bleu	a5,a3,.L302
 3043 001a B166     		li	a3,49152
 3044 001c 638ED704 		beq	a5,a3,.L285
 3045 0020 B966     		li	a3,57344
 3046 0022 6394D702 		bne	a5,a3,.L276
 196:../src/K6502_rw.h ****   }
 3047              		.loc 1 196 0
 3048 0026 B7070000 		lui	a5,%hi(ROMBANK3)
 3049 002a 83A70700 		lw	a5,%lo(ROMBANK3)(a5)
 190:../src/K6502_rw.h **** 
 3050              		.loc 1 190 0
 3051 002e 0965     		li	a0,8192
 3052              	.LVL241:
 3053 0030 7D15     		addi	a0,a0,-1
 3054 0032 698F     		and	a4,a4,a0
 3055 0034 3E97     		add	a4,a5,a4
 3056 0036 03450700 		lbu	a0,0(a4)
 3057 003a 8280     		ret
 3058              	.LVL242:
 3059              	.L301:
  73:../src/K6502_rw.h ****   {
 3060              		.loc 1 73 0
 3061 003c 8966     		li	a3,8192
 3062 003e 6386D706 		beq	a5,a3,.L279
 3063 0042 9166     		li	a3,16384
 3064 0044 6386D700 		beq	a5,a3,.L280
 3065 0048 C9C3     		beqz	a5,.L303
 3066              	.L276:
 199:../src/K6502_rw.h ****                             address is returned. */
 3067              		.loc 1 199 0
 3068 004a 13558700 		srli	a0,a4,8
 3069              	.LVL243:
 3070 004e 8280     		ret
 3071              	.LVL244:
 3072              	.L280:
 128:../src/K6502_rw.h ****       {
 3073              		.loc 1 128 0
 3074 0050 93864701 		addi	a3,a5,20
 3075 0054 6303D51A 		beq	a0,a3,.L296
 133:../src/K6502_rw.h ****       {
 3076              		.loc 1 133 0
 3077 0058 93865701 		addi	a3,a5,21
 3078 005c 630CD512 		beq	a0,a3,.L297
 155:../src/K6502_rw.h ****       {
 3079              		.loc 1 155 0
 3080 0060 93866701 		addi	a3,a5,22
 3081 0064 6300D50C 		beq	a0,a3,.L304
 163:../src/K6502_rw.h ****       {
 3082              		.loc 1 163 0
 3083 0068 DD07     		addi	a5,a5,23
 3084 006a 630AF518 		beq	a0,a5,.L305
 173:../src/K6502_rw.h ****       }
 3085              		.loc 1 173 0
 3086 006e B7070000 		lui	a5,%hi(MapperReadApu)
 3087 0072 03A30700 		lw	t1,%lo(MapperReadApu)(a5)
 3088 0076 0283     		jr	t1
 3089              	.LVL245:
 3090              	.L285:
 193:../src/K6502_rw.h **** 
 3091              		.loc 1 193 0
 3092 0078 B7070000 		lui	a5,%hi(ROMBANK2)
 3093 007c 83A70700 		lw	a5,%lo(ROMBANK2)(a5)
 190:../src/K6502_rw.h **** 
 3094              		.loc 1 190 0
 3095 0080 0965     		li	a0,8192
 3096              	.LVL246:
 3097 0082 7D15     		addi	a0,a0,-1
 3098 0084 698F     		and	a4,a4,a0
 3099 0086 3E97     		add	a4,a5,a4
 3100 0088 03450700 		lbu	a0,0(a4)
 3101 008c 8280     		ret
 3102              	.LVL247:
 3103              	.L302:
  73:../src/K6502_rw.h ****   {
 3104              		.loc 1 73 0
 3105 008e A166     		li	a3,32768
 3106 0090 E39DD7FA 		bne	a5,a3,.L276
 187:../src/K6502_rw.h **** 
 3107              		.loc 1 187 0
 3108 0094 B7070000 		lui	a5,%hi(ROMBANK0)
 3109 0098 83A70700 		lw	a5,%lo(ROMBANK0)(a5)
 190:../src/K6502_rw.h **** 
 3110              		.loc 1 190 0
 3111 009c 0965     		li	a0,8192
 3112              	.LVL248:
 3113 009e 7D15     		addi	a0,a0,-1
 3114 00a0 698F     		and	a4,a4,a0
 3115 00a2 3E97     		add	a4,a5,a4
 3116 00a4 03450700 		lbu	a0,0(a4)
 3117 00a8 8280     		ret
 3118              	.LVL249:
 3119              	.L279:
 3120 00aa 13777500 		andi	a4,a0,7
  79:../src/K6502_rw.h ****       {
 3121              		.loc 1 79 0
 3122 00ae 9D47     		li	a5,7
 3123 00b0 6304F70E 		beq	a4,a5,.L306
  95:../src/K6502_rw.h ****       {
 3124              		.loc 1 95 0
 3125 00b4 9147     		li	a5,4
 3126 00b6 6302F712 		beq	a4,a5,.L307
 100:../src/K6502_rw.h ****       {
 3127              		.loc 1 100 0
 3128 00ba 8947     		li	a5,2
 3129 00bc 630AF708 		beq	a4,a5,.L308
 123:../src/K6502_rw.h ****       }
 3130              		.loc 1 123 0
 3131 00c0 B7070000 		lui	a5,%hi(PPU_R7)
 3132 00c4 03C50700 		lbu	a0,%lo(PPU_R7)(a5)
 3133              	.LVL250:
 3134 00c8 8280     		ret
 3135              	.LVL251:
 3136              	.L303:
  76:../src/K6502_rw.h **** 
 3137              		.loc 1 76 0
 3138 00ca B7070000 		lui	a5,%hi(RAM)
 3139 00ce 1377F57F 		andi	a4,a0,2047
 3140 00d2 93870700 		addi	a5,a5,%lo(RAM)
 3141 00d6 3E97     		add	a4,a4,a5
 3142 00d8 03450700 		lbu	a0,0(a4)
 3143              	.LVL252:
 3144 00dc 8280     		ret
 3145              	.LVL253:
 3146              	.L282:
 190:../src/K6502_rw.h **** 
 3147              		.loc 1 190 0
 3148 00de B7070000 		lui	a5,%hi(ROMBANK1)
 3149 00e2 83A70700 		lw	a5,%lo(ROMBANK1)(a5)
 3150 00e6 0965     		li	a0,8192
 3151              	.LVL254:
 3152 00e8 7D15     		addi	a0,a0,-1
 3153 00ea 698F     		and	a4,a4,a0
 3154 00ec 3E97     		add	a4,a5,a4
 3155 00ee 03450700 		lbu	a0,0(a4)
 3156 00f2 8280     		ret
 3157              	.LVL255:
 3158              	.L277:
 179:../src/K6502_rw.h ****       {
 3159              		.loc 1 179 0
 3160 00f4 B7070000 		lui	a5,%hi(ROM_SRAM)
 3161 00f8 83C70700 		lbu	a5,%lo(ROM_SRAM)(a5)
 3162 00fc 0965     		li	a0,8192
 3163              	.LVL256:
 3164 00fe 7D15     		addi	a0,a0,-1
 3165 0100 798D     		and	a0,a4,a0
 3166 0102 89CB     		beqz	a5,.L295
 181:../src/K6502_rw.h ****       } else {    /* SRAM BANK */
 3167              		.loc 1 181 0
 3168 0104 37070000 		lui	a4,%hi(SRAM)
 3169 0108 13070700 		addi	a4,a4,%lo(SRAM)
 3170 010c 3A95     		add	a0,a0,a4
 3171 010e 03450500 		lbu	a0,0(a0)
 3172 0112 8280     		ret
 3173              	.L295:
 183:../src/K6502_rw.h ****       }
 3174              		.loc 1 183 0
 3175 0114 B7070000 		lui	a5,%hi(SRAMBANK)
 3176 0118 03A70700 		lw	a4,%lo(SRAMBANK)(a5)
 3177 011c 3A95     		add	a0,a4,a0
 3178 011e 03450500 		lbu	a0,0(a0)
 3179 0122 8280     		ret
 3180              	.LVL257:
 3181              	.L304:
 158:../src/K6502_rw.h ****         PAD1_Bit = ( PAD1_Bit == 23 ) ? 0 : ( PAD1_Bit + 1 );
 3182              		.loc 1 158 0
 3183 0124 B7060000 		lui	a3,%hi(PAD1_Bit)
 3184 0128 37070000 		lui	a4,%hi(PAD1_Latch)
 3185 012c 83A70600 		lw	a5,%lo(PAD1_Bit)(a3)
 3186 0130 03270700 		lw	a4,%lo(PAD1_Latch)(a4)
 159:../src/K6502_rw.h ****         return byRet;
 3187              		.loc 1 159 0
 3188 0134 DD45     		li	a1,23
 3189 0136 0146     		li	a2,0
 158:../src/K6502_rw.h ****         PAD1_Bit = ( PAD1_Bit == 23 ) ? 0 : ( PAD1_Bit + 1 );
 3190              		.loc 1 158 0
 3191 0138 3357F700 		srl	a4,a4,a5
 3192 013c 058B     		andi	a4,a4,1
 3193 013e 13650704 		ori	a0,a4,64
 3194              	.LVL258:
 159:../src/K6502_rw.h ****         return byRet;
 3195              		.loc 1 159 0
 3196 0142 6384B700 		beq	a5,a1,.L292
 159:../src/K6502_rw.h ****         return byRet;
 3197              		.loc 1 159 0 is_stmt 0 discriminator 1
 3198 0146 13861700 		addi	a2,a5,1
 3199              	.L292:
 159:../src/K6502_rw.h ****         return byRet;
 3200              		.loc 1 159 0 discriminator 4
 3201 014a 23A0C600 		sw	a2,%lo(PAD1_Bit)(a3)
 160:../src/K6502_rw.h ****       }
 3202              		.loc 1 160 0 is_stmt 1 discriminator 4
 3203 014e 8280     		ret
 3204              	.LVL259:
 3205              	.L308:
 114:../src/K6502_rw.h ****         {
 3206              		.loc 1 114 0
 3207 0150 B7070000 		lui	a5,%hi(PPU_Scanline)
 3208 0154 03D70700 		lhu	a4,%lo(PPU_Scanline)(a5)
 111:../src/K6502_rw.h **** 
 3209              		.loc 1 111 0
 3210 0158 B7070000 		lui	a5,%hi(PPU_Latch_Flag)
 3211 015c 23800700 		sb	zero,%lo(PPU_Latch_Flag)(a5)
 103:../src/K6502_rw.h **** 
 3212              		.loc 1 103 0
 3213 0160 B7060000 		lui	a3,%hi(PPU_R2)
 114:../src/K6502_rw.h ****         {
 3214              		.loc 1 114 0
 3215 0164 9307200F 		li	a5,242
 103:../src/K6502_rw.h **** 
 3216              		.loc 1 103 0
 3217 0168 03C50600 		lbu	a0,%lo(PPU_R2)(a3)
 3218              	.LVL260:
 114:../src/K6502_rw.h ****         {
 3219              		.loc 1 114 0
 3220 016c 63F5E702 		bleu	a4,a5,.L287
 114:../src/K6502_rw.h ****         {
 3221              		.loc 1 114 0 is_stmt 0 discriminator 1
 3222 0170 37070000 		lui	a4,%hi(PPU_R0)
 3223 0174 83470700 		lbu	a5,%lo(PPU_R0)(a4)
 3224 0178 93968701 		slli	a3,a5,24
 3225 017c E186     		srai	a3,a3,24
 3226 017e 63CC0600 		bltz	a3,.L287
 116:../src/K6502_rw.h ****           PPU_NameTableBank = NAME_TABLE0;
 3227              		.loc 1 116 0 is_stmt 1
 3228 0182 F19B     		andi	a5,a5,-4
 3229 0184 2300F700 		sb	a5,%lo(PPU_R0)(a4)
 117:../src/K6502_rw.h ****         }
 3230              		.loc 1 117 0
 3231 0188 B7070000 		lui	a5,%hi(PPU_NameTableBank)
 3232 018c 2147     		li	a4,8
 3233 018e 2380E700 		sb	a4,%lo(PPU_NameTableBank)(a5)
 3234 0192 8280     		ret
 3235              	.LVL261:
 3236              	.L297:
 152:../src/K6502_rw.h ****       }
 3237              		.loc 1 152 0
 3238 0194 0145     		li	a0,0
 3239              	.LVL262:
 3240              	.L287:
 201:../src/K6502_rw.h **** 
 3241              		.loc 1 201 0
 3242 0196 8280     		ret
 3243              	.LVL263:
 3244              	.L306:
 3245              	.LBB375:
  81:../src/K6502_rw.h **** 
 3246              		.loc 1 81 0
 3247 0198 B7050000 		lui	a1,%hi(PPU_Addr)
 3248 019c 83D70500 		lhu	a5,%lo(PPU_Addr)(a1)
 3249              	.LVL264:
  90:../src/K6502_rw.h **** 
 3250              		.loc 1 90 0
 3251 01a0 37060000 		lui	a2,%hi(PPUBANK)
 3252 01a4 13060600 		addi	a2,a2,%lo(PPUBANK)
 3253 01a8 13D78700 		srli	a4,a5,8
 3254 01ac 1377C703 		andi	a4,a4,60
  87:../src/K6502_rw.h **** 
 3255              		.loc 1 87 0
 3256 01b0 B7060000 		lui	a3,%hi(PPU_Increment)
 3257 01b4 83D60600 		lhu	a3,%lo(PPU_Increment)(a3)
  90:../src/K6502_rw.h **** 
 3258              		.loc 1 90 0
 3259 01b8 3297     		add	a4,a4,a2
 3260 01ba 1843     		lw	a4,0(a4)
  87:../src/K6502_rw.h **** 
 3261              		.loc 1 87 0
 3262 01bc BE96     		add	a3,a5,a3
  90:../src/K6502_rw.h **** 
 3263              		.loc 1 90 0
 3264 01be 93F7F73F 		andi	a5,a5,1023
 3265              	.LVL265:
  87:../src/K6502_rw.h **** 
 3266              		.loc 1 87 0
 3267 01c2 2390D500 		sh	a3,%lo(PPU_Addr)(a1)
 3268              	.LVL266:
  90:../src/K6502_rw.h **** 
 3269              		.loc 1 90 0
 3270 01c6 BA97     		add	a5,a4,a5
 3271 01c8 03C70700 		lbu	a4,0(a5)
  84:../src/K6502_rw.h **** 
 3272              		.loc 1 84 0
 3273 01cc B7070000 		lui	a5,%hi(PPU_R7)
 3274 01d0 03C50700 		lbu	a0,%lo(PPU_R7)(a5)
 3275              	.LVL267:
  90:../src/K6502_rw.h **** 
 3276              		.loc 1 90 0
 3277 01d4 2380E700 		sb	a4,%lo(PPU_R7)(a5)
  92:../src/K6502_rw.h ****       }
 3278              		.loc 1 92 0
 3279 01d8 8280     		ret
 3280              	.LVL268:
 3281              	.L307:
 3282              	.LBE375:
  97:../src/K6502_rw.h ****       }
 3283              		.loc 1 97 0
 3284 01da B7060000 		lui	a3,%hi(PPU_R3)
 3285 01de 83C70600 		lbu	a5,%lo(PPU_R3)(a3)
 3286 01e2 37070000 		lui	a4,%hi(SPRRAM)
 3287 01e6 13070700 		addi	a4,a4,%lo(SPRRAM)
 3288 01ea 13861700 		addi	a2,a5,1
 3289 01ee BA97     		add	a5,a5,a4
 3290 01f0 2380C600 		sb	a2,%lo(PPU_R3)(a3)
 3291 01f4 03C50700 		lbu	a0,0(a5)
 3292              	.LVL269:
 3293 01f8 8280     		ret
 3294              	.LVL270:
 3295              	.L296:
 130:../src/K6502_rw.h ****       }
 3296              		.loc 1 130 0
 3297 01fa 5145     		li	a0,20
 3298              	.LVL271:
 3299 01fc 8280     		ret
 3300              	.LVL272:
 3301              	.L305:
 3302              	.LBB376:
 3303              	.LBB377:
 166:../src/K6502_rw.h ****         PAD2_Bit = ( PAD2_Bit == 23 ) ? 0 : ( PAD2_Bit + 1 );
 3304              		.loc 1 166 0
 3305 01fe B7060000 		lui	a3,%hi(PAD2_Bit)
 3306 0202 37070000 		lui	a4,%hi(PAD2_Latch)
 3307 0206 83A70600 		lw	a5,%lo(PAD2_Bit)(a3)
 3308 020a 03270700 		lw	a4,%lo(PAD2_Latch)(a4)
 167:../src/K6502_rw.h ****         return byRet;
 3309              		.loc 1 167 0
 3310 020e DD45     		li	a1,23
 3311 0210 0146     		li	a2,0
 166:../src/K6502_rw.h ****         PAD2_Bit = ( PAD2_Bit == 23 ) ? 0 : ( PAD2_Bit + 1 );
 3312              		.loc 1 166 0
 3313 0212 3357F700 		srl	a4,a4,a5
 3314 0216 058B     		andi	a4,a4,1
 3315 0218 13650704 		ori	a0,a4,64
 3316              	.LVL273:
 167:../src/K6502_rw.h ****         return byRet;
 3317              		.loc 1 167 0
 3318 021c 6384B700 		beq	a5,a1,.L294
 3319 0220 13861700 		addi	a2,a5,1
 3320              	.L294:
 3321 0224 23A0C600 		sw	a2,%lo(PAD2_Bit)(a3)
 3322              	.LVL274:
 3323 0228 8280     		ret
 3324              	.LBE377:
 3325              	.LBE376:
 3326              		.cfi_endproc
 3327              	.LFE8:
 3329              		.section	.text.K6502_Init,"ax",@progbits
 3330              		.align	1
 3331              		.globl	K6502_Init
 3333              	K6502_Init:
 3334              	.LFB0:
 200:../src/K6502.c **** /*
 3335              		.loc 2 200 0
 3336              		.cfi_startproc
 211:../src/K6502.c ****   IRQ_Wiring = IRQ_State = 1;
 3337              		.loc 2 211 0
 3338 0000 8547     		li	a5,1
 3339 0002 37070000 		lui	a4,%hi(.LANCHOR4)
 3340 0006 2300F700 		sb	a5,%lo(.LANCHOR4)(a4)
 3341 000a 37070000 		lui	a4,%hi(.LANCHOR5)
 3342 000e 2300F700 		sb	a5,%lo(.LANCHOR5)(a4)
 212:../src/K6502.c **** 
 3343              		.loc 2 212 0
 3344 0012 37070000 		lui	a4,%hi(.LANCHOR6)
 3345 0016 2300F700 		sb	a5,%lo(.LANCHOR6)(a4)
 3346 001a 37070000 		lui	a4,%hi(.LANCHOR7)
 3347 001e 2300F700 		sb	a5,%lo(.LANCHOR7)(a4)
 3348              	.LVL275:
 3349 0022 37060000 		lui	a2,%hi(.LANCHOR8)
 3350 0026 8147     		li	a5,0
 3351 0028 13060600 		addi	a2,a2,%lo(.LANCHOR8)
 221:../src/K6502.c ****       g_byTestTable[ idx ] = FLAG_N;
 3352              		.loc 2 221 0
 3353 002c 93968701 		slli	a3,a5,24
 227:../src/K6502.c **** 
 3354              		.loc 2 227 0
 3355 0030 9305F00F 		li	a1,255
 222:../src/K6502.c ****     else
 3356              		.loc 2 222 0
 3357 0034 130800F8 		li	a6,-128
 219:../src/K6502.c ****     else
 3358              		.loc 2 219 0
 3359 0038 0945     		li	a0,2
 3360              	.LVL276:
 221:../src/K6502.c ****       g_byTestTable[ idx ] = FLAG_N;
 3361              		.loc 2 221 0
 3362 003a E186     		srai	a3,a3,24
 224:../src/K6502.c **** 
 3363              		.loc 2 224 0
 3364 003c 3307F600 		add	a4,a2,a5
 218:../src/K6502.c ****       g_byTestTable[ 0 ] = FLAG_Z;
 3365              		.loc 2 218 0
 3366 0040 85C3     		beqz	a5,.L345
 3367              	.L311:
 221:../src/K6502.c ****       g_byTestTable[ idx ] = FLAG_N;
 3368              		.loc 2 221 0
 3369 0042 63C90626 		bltz	a3,.L346
 224:../src/K6502.c **** 
 3370              		.loc 2 224 0
 3371 0046 23000700 		sb	zero,0(a4)
 3372              	.L314:
 3373              	.LVL277:
 227:../src/K6502.c **** 
 3374              		.loc 2 227 0
 3375 004a 638EB700 		beq	a5,a1,.L347
 3376              	.LVL278:
 3377              	.L312:
 3378 004e 8507     		addi	a5,a5,1
 3379 0050 93F7F70F 		andi	a5,a5,0xff
 3380              	.LVL279:
 221:../src/K6502.c ****       g_byTestTable[ idx ] = FLAG_N;
 3381              		.loc 2 221 0
 3382 0054 93968701 		slli	a3,a5,24
 3383 0058 E186     		srai	a3,a3,24
 224:../src/K6502.c **** 
 3384              		.loc 2 224 0
 3385 005a 3307F600 		add	a4,a2,a5
 218:../src/K6502.c ****       g_byTestTable[ 0 ] = FLAG_Z;
 3386              		.loc 2 218 0
 3387 005e F5F3     		bnez	a5,.L311
 3388              	.L345:
 3389              	.LVL280:
 219:../src/K6502.c ****     else
 3390              		.loc 2 219 0
 3391 0060 2300A600 		sb	a0,0(a2)
 3392              	.LVL281:
 3393 0064 EDB7     		j	.L312
 3394              	.LVL282:
 3395              	.L347:
 233:../src/K6502.c ****     g_ASLTable[ idx ].byFlag = 0;
 3396              		.loc 2 233 0
 3397 0066 B7050000 		lui	a1,%hi(.LANCHOR9)
 3398 006a 93850500 		addi	a1,a1,%lo(.LANCHOR9)
 3399 006e 0147     		li	a4,0
 3400 0070 0146     		li	a2,0
 240:../src/K6502.c ****     else
 3401              		.loc 2 240 0
 3402 0072 93161600 		slli	a3,a2,1
 242:../src/K6502.c ****       g_ASLTable[ idx ].byFlag |= FLAG_N;
 3403              		.loc 2 242 0
 3404 0076 13158701 		slli	a0,a4,24
 233:../src/K6502.c ****     g_ASLTable[ idx ].byFlag = 0;
 3405              		.loc 2 233 0
 3406 007a 23900500 		sh	zero,0(a1)
 3407 007e 8547     		li	a5,1
 237:../src/K6502.c **** 
 3408              		.loc 2 237 0
 3409 0080 8548     		li	a7,1
 240:../src/K6502.c ****     else
 3410              		.loc 2 240 0
 3411 0082 AE96     		add	a3,a1,a3
 242:../src/K6502.c ****       g_ASLTable[ idx ].byFlag |= FLAG_N;
 3412              		.loc 2 242 0
 3413 0084 6185     		srai	a0,a0,24
 239:../src/K6502.c ****       g_ASLTable[ idx ].byFlag |= FLAG_Z;
 3414              		.loc 2 239 0
 3415 0086 21E7     		bnez	a4,.L317
 3416              	.LVL283:
 3417              	.L350:
 240:../src/K6502.c ****     else
 3418              		.loc 2 240 0
 3419 0088 03C61600 		lbu	a2,1(a3)
 3420 008c 13662600 		ori	a2,a2,2
 3421 0090 A380C600 		sb	a2,1(a3)
 3422              	.L318:
 3423              	.LVL284:
 233:../src/K6502.c ****     g_ASLTable[ idx ].byFlag = 0;
 3424              		.loc 2 233 0
 3425 0094 93961700 		slli	a3,a5,1
 3426 0098 0907     		addi	a4,a4,2
 236:../src/K6502.c ****       g_ASLTable[ idx ].byFlag = FLAG_C;
 3427              		.loc 2 236 0
 3428 009a 13988701 		slli	a6,a5,24
 233:../src/K6502.c ****     g_ASLTable[ idx ].byFlag = 0;
 3429              		.loc 2 233 0
 3430 009e AE96     		add	a3,a1,a3
 3431 00a0 1377F70F 		andi	a4,a4,0xff
 236:../src/K6502.c ****       g_ASLTable[ idx ].byFlag = FLAG_C;
 3432              		.loc 2 236 0
 3433 00a4 13588841 		srai	a6,a6,24
 3434 00a8 13851700 		addi	a0,a5,1
 246:../src/K6502.c **** 
 3435              		.loc 2 246 0
 3436 00ac A1CB     		beqz	a5,.L348
 3437              	.L319:
 234:../src/K6502.c **** 
 3438              		.loc 2 234 0
 3439 00ae A3800600 		sb	zero,1(a3)
 233:../src/K6502.c ****     g_ASLTable[ idx ].byFlag = 0;
 3440              		.loc 2 233 0
 3441 00b2 2380E600 		sb	a4,0(a3)
 3442 00b6 3E86     		mv	a2,a5
 236:../src/K6502.c ****       g_ASLTable[ idx ].byFlag = FLAG_C;
 3443              		.loc 2 236 0
 3444 00b8 63480820 		bltz	a6,.L349
 3445 00bc 9377F50F 		andi	a5,a0,0xff
 3446              	.LVL285:
 3447              	.L359:
 240:../src/K6502.c ****     else
 3448              		.loc 2 240 0
 3449 00c0 93161600 		slli	a3,a2,1
 242:../src/K6502.c ****       g_ASLTable[ idx ].byFlag |= FLAG_N;
 3450              		.loc 2 242 0
 3451 00c4 13158701 		slli	a0,a4,24
 240:../src/K6502.c ****     else
 3452              		.loc 2 240 0
 3453 00c8 AE96     		add	a3,a1,a3
 242:../src/K6502.c ****       g_ASLTable[ idx ].byFlag |= FLAG_N;
 3454              		.loc 2 242 0
 3455 00ca 6185     		srai	a0,a0,24
 239:../src/K6502.c ****       g_ASLTable[ idx ].byFlag |= FLAG_Z;
 3456              		.loc 2 239 0
 3457 00cc 55DF     		beqz	a4,.L350
 3458              	.L317:
 242:../src/K6502.c ****       g_ASLTable[ idx ].byFlag |= FLAG_N;
 3459              		.loc 2 242 0
 3460 00ce E35305FC 		bgez	a0,.L318
 243:../src/K6502.c **** 
 3461              		.loc 2 243 0
 3462 00d2 0606     		slli	a2,a2,1
 3463 00d4 2E96     		add	a2,a1,a2
 3464 00d6 83461600 		lbu	a3,1(a2)
 233:../src/K6502.c ****     g_ASLTable[ idx ].byFlag = 0;
 3465              		.loc 2 233 0
 3466 00da 0907     		addi	a4,a4,2
 236:../src/K6502.c ****       g_ASLTable[ idx ].byFlag = FLAG_C;
 3467              		.loc 2 236 0
 3468 00dc 13988701 		slli	a6,a5,24
 243:../src/K6502.c **** 
 3469              		.loc 2 243 0
 3470 00e0 93E606F8 		ori	a3,a3,-128
 3471 00e4 A300D600 		sb	a3,1(a2)
 3472              	.LVL286:
 233:../src/K6502.c ****     g_ASLTable[ idx ].byFlag = 0;
 3473              		.loc 2 233 0
 3474 00e8 93961700 		slli	a3,a5,1
 3475 00ec AE96     		add	a3,a1,a3
 3476 00ee 1377F70F 		andi	a4,a4,0xff
 236:../src/K6502.c ****       g_ASLTable[ idx ].byFlag = FLAG_C;
 3477              		.loc 2 236 0
 3478 00f2 13588841 		srai	a6,a6,24
 3479 00f6 13851700 		addi	a0,a5,1
 246:../src/K6502.c **** 
 3480              		.loc 2 246 0
 3481 00fa D5FB     		bnez	a5,.L319
 3482              	.L348:
 3483              	.LVL287:
 252:../src/K6502.c ****     g_LSRTable[ idx ].byFlag = 0;
 3484              		.loc 2 252 0
 3485 00fc B7050000 		lui	a1,%hi(.LANCHOR10)
 3486 0100 93850500 		addi	a1,a1,%lo(.LANCHOR10)
 3487 0104 23900500 		sh	zero,0(a1)
 3488 0108 0547     		li	a4,1
 3489 010a 8146     		li	a3,0
 256:../src/K6502.c **** 
 3490              		.loc 2 256 0
 3491 010c 0548     		li	a6,1
 3492 010e 31A0     		j	.L338
 3493              	.LVL288:
 3494              	.L352:
 253:../src/K6502.c **** 
 3495              		.loc 2 253 0
 3496 0110 A3000600 		sb	zero,1(a2)
 3497              	.L322:
 3498 0114 0507     		addi	a4,a4,1
 3499              	.LVL289:
 3500 0116 1377F70F 		andi	a4,a4,0xff
 3501              	.L338:
 3502              	.LVL290:
 259:../src/K6502.c **** 
 3503              		.loc 2 259 0
 3504 011a 8606     		slli	a3,a3,1
 252:../src/K6502.c ****     g_LSRTable[ idx ].byFlag = 0;
 3505              		.loc 2 252 0
 3506 011c 13161700 		slli	a2,a4,1
 259:../src/K6502.c **** 
 3507              		.loc 2 259 0
 3508 0120 AE96     		add	a3,a1,a3
 252:../src/K6502.c ****     g_LSRTable[ idx ].byFlag = 0;
 3509              		.loc 2 252 0
 3510 0122 2E96     		add	a2,a1,a2
 255:../src/K6502.c ****       g_LSRTable[ idx ].byFlag = FLAG_C;
 3511              		.loc 2 255 0
 3512 0124 13751700 		andi	a0,a4,1
 258:../src/K6502.c ****       g_LSRTable[ idx ].byFlag |= FLAG_Z;
 3513              		.loc 2 258 0
 3514 0128 99E7     		bnez	a5,.L323
 259:../src/K6502.c **** 
 3515              		.loc 2 259 0
 3516 012a 83C71600 		lbu	a5,1(a3)
 3517 012e 93E72700 		ori	a5,a5,2
 3518 0132 A380F600 		sb	a5,1(a3)
 3519              	.L323:
 252:../src/K6502.c ****     g_LSRTable[ idx ].byFlag = 0;
 3520              		.loc 2 252 0
 3521 0136 93571700 		srli	a5,a4,1
 262:../src/K6502.c **** 
 3522              		.loc 2 262 0
 3523 013a 01CB     		beqz	a4,.L351
 252:../src/K6502.c ****     g_LSRTable[ idx ].byFlag = 0;
 3524              		.loc 2 252 0
 3525 013c 2300F600 		sb	a5,0(a2)
 3526 0140 BA86     		mv	a3,a4
 255:../src/K6502.c ****       g_LSRTable[ idx ].byFlag = FLAG_C;
 3527              		.loc 2 255 0
 3528 0142 79D5     		beqz	a0,.L352
 256:../src/K6502.c **** 
 3529              		.loc 2 256 0
 3530 0144 A3000601 		sb	a6,1(a2)
 3531 0148 F1B7     		j	.L322
 3532              	.L351:
 3533 014a B70E0000 		lui	t4,%hi(.LANCHOR11)
 3534 014e 93880E00 		addi	a7,t4,%lo(.LANCHOR11)
 262:../src/K6502.c **** 
 3535              		.loc 2 262 0
 3536 0152 8145     		li	a1,0
 3537 0154 938E0E00 		addi	t4,t4,%lo(.LANCHOR11)
 271:../src/K6502.c **** 
 3538              		.loc 2 271 0
 3539 0158 054F     		li	t5,1
 274:../src/K6502.c **** 
 3540              		.loc 2 274 0
 3541 015a 854F     		li	t6,1
 3542              	.LVL291:
 3543              	.L330:
 270:../src/K6502.c ****       g_ROLTable[ idx2 ][ idx ].byFlag = 0;
 3544              		.loc 2 270 0
 3545 015c 0146     		li	a2,0
 280:../src/K6502.c **** 
 3546              		.loc 2 280 0
 3547 015e 13988500 		slli	a6,a1,8
 3548 0162 13F5F50F 		andi	a0,a1,0xff
 3549              	.LVL292:
 270:../src/K6502.c ****       g_ROLTable[ idx2 ][ idx ].byFlag = 0;
 3550              		.loc 2 270 0
 3551 0166 139E8501 		slli	t3,a1,24
 277:../src/K6502.c ****       else
 3552              		.loc 2 277 0
 3553 016a B307C800 		add	a5,a6,a2
 270:../src/K6502.c ****       g_ROLTable[ idx2 ][ idx ].byFlag = 0;
 3554              		.loc 2 270 0
 3555 016e 135E8E41 		srai	t3,t3,24
 277:../src/K6502.c ****       else
 3556              		.loc 2 277 0
 3557 0172 8607     		slli	a5,a5,1
 270:../src/K6502.c ****       g_ROLTable[ idx2 ][ idx ].byFlag = 0;
 3558              		.loc 2 270 0
 3559 0174 2380AE00 		sb	a0,0(t4)
 271:../src/K6502.c **** 
 3560              		.loc 2 271 0
 3561 0178 A3800E00 		sb	zero,1(t4)
 270:../src/K6502.c ****       g_ROLTable[ idx2 ][ idx ].byFlag = 0;
 3562              		.loc 2 270 0
 3563 017c 7287     		mv	a4,t3
 271:../src/K6502.c **** 
 3564              		.loc 2 271 0
 3565 017e 8546     		li	a3,1
 277:../src/K6502.c ****       else
 3566              		.loc 2 277 0
 3567 0180 C697     		add	a5,a7,a5
 276:../src/K6502.c ****         g_ROLTable[ idx2 ][ idx ].byFlag |= FLAG_Z;
 3568              		.loc 2 276 0
 3569 0182 21E9     		bnez	a0,.L327
 3570              	.LVL293:
 3571              	.L355:
 277:../src/K6502.c ****       else
 3572              		.loc 2 277 0
 3573 0184 03C71700 		lbu	a4,1(a5)
 3574 0188 13672700 		ori	a4,a4,2
 3575 018c A380E700 		sb	a4,1(a5)
 3576              	.L328:
 3577              	.LVL294:
 270:../src/K6502.c ****       g_ROLTable[ idx2 ][ idx ].byFlag = 0;
 3578              		.loc 2 270 0
 3579 0190 13971600 		slli	a4,a3,1
 3580 0194 3367EE00 		or	a4,t3,a4
 3581 0198 B307D800 		add	a5,a6,a3
 3582 019c 6207     		slli	a4,a4,24
 3583 019e 6187     		srai	a4,a4,24
 3584 01a0 8607     		slli	a5,a5,1
 273:../src/K6502.c ****         g_ROLTable[ idx2 ][ idx ].byFlag = FLAG_C;
 3585              		.loc 2 273 0
 3586 01a2 93928601 		slli	t0,a3,24
 270:../src/K6502.c ****       g_ROLTable[ idx2 ][ idx ].byFlag = 0;
 3587              		.loc 2 270 0
 3588 01a6 C697     		add	a5,a7,a5
 3589 01a8 1375F70F 		andi	a0,a4,0xff
 273:../src/K6502.c ****         g_ROLTable[ idx2 ][ idx ].byFlag = FLAG_C;
 3590              		.loc 2 273 0
 3591 01ac 93D28241 		srai	t0,t0,24
 3592 01b0 13831600 		addi	t1,a3,1
 283:../src/K6502.c ****   }
 3593              		.loc 2 283 0
 3594 01b4 9DCA     		beqz	a3,.L353
 271:../src/K6502.c **** 
 3595              		.loc 2 271 0
 3596 01b6 A3800700 		sb	zero,1(a5)
 270:../src/K6502.c ****       g_ROLTable[ idx2 ][ idx ].byFlag = 0;
 3597              		.loc 2 270 0
 3598 01ba 2380A700 		sb	a0,0(a5)
 3599 01be 3686     		mv	a2,a3
 273:../src/K6502.c ****         g_ROLTable[ idx2 ][ idx ].byFlag = FLAG_C;
 3600              		.loc 2 273 0
 3601 01c0 63CF020E 		bltz	t0,.L354
 3602 01c4 9376F30F 		andi	a3,t1,0xff
 3603              	.LVL295:
 3604              	.L358:
 277:../src/K6502.c ****       else
 3605              		.loc 2 277 0
 3606 01c8 B307C800 		add	a5,a6,a2
 3607 01cc 8607     		slli	a5,a5,1
 3608 01ce C697     		add	a5,a7,a5
 276:../src/K6502.c ****         g_ROLTable[ idx2 ][ idx ].byFlag |= FLAG_Z;
 3609              		.loc 2 276 0
 3610 01d0 55D9     		beqz	a0,.L355
 3611              	.L327:
 279:../src/K6502.c ****         g_ROLTable[ idx2 ][ idx ].byFlag |= FLAG_N;
 3612              		.loc 2 279 0
 3613 01d2 E35F07FA 		bgez	a4,.L328
 280:../src/K6502.c **** 
 3614              		.loc 2 280 0
 3615 01d6 4296     		add	a2,a6,a2
 3616 01d8 0606     		slli	a2,a2,1
 3617 01da 4696     		add	a2,a7,a2
 3618 01dc 83471600 		lbu	a5,1(a2)
 3619 01e0 93E707F8 		ori	a5,a5,-128
 3620 01e4 A300F600 		sb	a5,1(a2)
 3621 01e8 65B7     		j	.L328
 3622              	.LVL296:
 3623              	.L353:
 3624 01ea 938E0E20 		addi	t4,t4,512
 265:../src/K6502.c ****   {
 3625              		.loc 2 265 0 discriminator 2
 3626 01ee 639FE50B 		bne	a1,t5,.L340
 3627 01f2 B70E0000 		lui	t4,%hi(.LANCHOR12)
 3628 01f6 93880E00 		addi	a7,t4,%lo(.LANCHOR12)
 265:../src/K6502.c ****   {
 3629              		.loc 2 265 0 is_stmt 0
 3630 01fa 014F     		li	t5,0
 3631 01fc 938E0E00 		addi	t4,t4,%lo(.LANCHOR12)
 3632 0200 814F     		li	t6,0
 293:../src/K6502.c **** 
 3633              		.loc 2 293 0 is_stmt 1
 3634 0202 8542     		li	t0,1
 296:../src/K6502.c **** 
 3635              		.loc 2 296 0
 3636 0204 054E     		li	t3,1
 3637              	.LVL297:
 3638              	.L337:
 292:../src/K6502.c ****       g_RORTable[ idx2 ][ idx ].byFlag = 0;
 3639              		.loc 2 292 0
 3640 0206 13138F01 		slli	t1,t5,24
 3641 020a 13538341 		srai	t1,t1,24
 3642 020e 2380EE01 		sb	t5,0(t4)
 293:../src/K6502.c **** 
 3643              		.loc 2 293 0
 3644 0212 A3800E00 		sb	zero,1(t4)
 292:../src/K6502.c ****       g_RORTable[ idx2 ][ idx ].byFlag = 0;
 3645              		.loc 2 292 0
 3646 0216 7A85     		mv	a0,t5
 3647 0218 9A86     		mv	a3,t1
 293:../src/K6502.c **** 
 3648              		.loc 2 293 0
 3649 021a 0547     		li	a4,1
 292:../src/K6502.c ****       g_RORTable[ idx2 ][ idx ].byFlag = 0;
 3650              		.loc 2 292 0
 3651 021c 0146     		li	a2,0
 302:../src/K6502.c **** 
 3652              		.loc 2 302 0
 3653 021e 13988F00 		slli	a6,t6,8
 3654 0222 35A8     		j	.L331
 3655              	.LVL298:
 3656              	.L357:
 299:../src/K6502.c ****       else
 3657              		.loc 2 299 0
 3658 0224 83C61700 		lbu	a3,1(a5)
 3659 0228 93E62600 		ori	a3,a3,2
 3660 022c A380D700 		sb	a3,1(a5)
 3661              	.L335:
 3662              	.LVL299:
 292:../src/K6502.c ****       g_RORTable[ idx2 ][ idx ].byFlag = 0;
 3663              		.loc 2 292 0
 3664 0230 93561700 		srli	a3,a4,1
 3665 0234 B307E800 		add	a5,a6,a4
 3666 0238 B366D300 		or	a3,t1,a3
 3667 023c 8607     		slli	a5,a5,1
 3668 023e C697     		add	a5,a7,a5
 3669 0240 13F5F60F 		andi	a0,a3,0xff
 295:../src/K6502.c ****         g_RORTable[ idx2 ][ idx ].byFlag = FLAG_C;
 3670              		.loc 2 295 0
 3671 0244 93731700 		andi	t2,a4,1
 305:../src/K6502.c ****   }
 3672              		.loc 2 305 0
 3673 0248 21CB     		beqz	a4,.L356
 3674              	.L336:
 292:../src/K6502.c ****       g_RORTable[ idx2 ][ idx ].byFlag = 0;
 3675              		.loc 2 292 0
 3676 024a 2380A700 		sb	a0,0(a5)
 3677 024e 3A86     		mv	a2,a4
 295:../src/K6502.c ****         g_RORTable[ idx2 ][ idx ].byFlag = FLAG_C;
 3678              		.loc 2 295 0
 3679 0250 639B0304 		bnez	t2,.L332
 293:../src/K6502.c **** 
 3680              		.loc 2 293 0
 3681 0254 A3800700 		sb	zero,1(a5)
 3682              	.L333:
 3683 0258 0507     		addi	a4,a4,1
 3684              	.LVL300:
 3685 025a 1377F70F 		andi	a4,a4,0xff
 3686              	.L331:
 299:../src/K6502.c ****       else
 3687              		.loc 2 299 0
 3688 025e B307C800 		add	a5,a6,a2
 3689 0262 8607     		slli	a5,a5,1
 3690 0264 C697     		add	a5,a7,a5
 298:../src/K6502.c ****         g_RORTable[ idx2 ][ idx ].byFlag |= FLAG_Z;
 3691              		.loc 2 298 0
 3692 0266 5DDD     		beqz	a0,.L357
 301:../src/K6502.c ****         g_RORTable[ idx2 ][ idx ].byFlag |= FLAG_N;
 3693              		.loc 2 301 0
 3694 0268 E3D406FC 		bgez	a3,.L335
 302:../src/K6502.c **** 
 3695              		.loc 2 302 0
 3696 026c 4296     		add	a2,a6,a2
 3697 026e 0606     		slli	a2,a2,1
 3698 0270 4696     		add	a2,a7,a2
 3699 0272 83471600 		lbu	a5,1(a2)
 292:../src/K6502.c ****       g_RORTable[ idx2 ][ idx ].byFlag = 0;
 3700              		.loc 2 292 0
 3701 0276 93561700 		srli	a3,a4,1
 3702 027a B366D300 		or	a3,t1,a3
 302:../src/K6502.c **** 
 3703              		.loc 2 302 0
 3704 027e 93E707F8 		ori	a5,a5,-128
 3705 0282 A300F600 		sb	a5,1(a2)
 3706              	.LVL301:
 292:../src/K6502.c ****       g_RORTable[ idx2 ][ idx ].byFlag = 0;
 3707              		.loc 2 292 0
 3708 0286 B307E800 		add	a5,a6,a4
 3709 028a 8607     		slli	a5,a5,1
 3710 028c C697     		add	a5,a7,a5
 3711 028e 13F5F60F 		andi	a0,a3,0xff
 295:../src/K6502.c ****         g_RORTable[ idx2 ][ idx ].byFlag = FLAG_C;
 3712              		.loc 2 295 0
 3713 0292 93731700 		andi	t2,a4,1
 305:../src/K6502.c ****   }
 3714              		.loc 2 305 0
 3715 0296 55FB     		bnez	a4,.L336
 3716              	.L356:
 3717              	.LVL302:
 3718 0298 134F0F08 		xori	t5,t5,128
 3719 029c 938E0E20 		addi	t4,t4,512
 287:../src/K6502.c ****   {
 3720              		.loc 2 287 0 discriminator 2
 3721 02a0 63985F00 		bne	t6,t0,.L341
 3722 02a4 8280     		ret
 3723              	.LVL303:
 3724              	.L332:
 296:../src/K6502.c **** 
 3725              		.loc 2 296 0
 3726 02a6 A380C701 		sb	t3,1(a5)
 3727 02aa 7DB7     		j	.L333
 3728              	.LVL304:
 3729              	.L340:
 3730 02ac 8545     		li	a1,1
 3731              	.LVL305:
 3732 02ae 7DB5     		j	.L330
 3733              	.LVL306:
 3734              	.L341:
 3735 02b0 AE8F     		mv	t6,a1
 3736              	.LVL307:
 3737 02b2 91BF     		j	.L337
 3738              	.LVL308:
 3739              	.L346:
 222:../src/K6502.c ****     else
 3740              		.loc 2 222 0
 3741 02b4 3307F600 		add	a4,a2,a5
 3742 02b8 23000701 		sb	a6,0(a4)
 3743 02bc 79B3     		j	.L314
 3744              	.LVL309:
 3745              	.L354:
 274:../src/K6502.c **** 
 3746              		.loc 2 274 0
 3747 02be A380F701 		sb	t6,1(a5)
 3748 02c2 9376F30F 		andi	a3,t1,0xff
 3749              	.LVL310:
 3750 02c6 09B7     		j	.L358
 3751              	.LVL311:
 3752              	.L349:
 237:../src/K6502.c **** 
 3753              		.loc 2 237 0
 3754 02c8 A3801601 		sb	a7,1(a3)
 3755 02cc 9377F50F 		andi	a5,a0,0xff
 3756              	.LVL312:
 3757 02d0 C5BB     		j	.L359
 3758              		.cfi_endproc
 3759              	.LFE0:
 3761              		.section	.text.K6502_Reset,"ax",@progbits
 3762              		.align	1
 3763              		.globl	K6502_Reset
 3765              	K6502_Reset:
 3766              	.LFB1:
 315:../src/K6502.c **** /*
 3767              		.loc 2 315 0
 3768              		.cfi_startproc
 3769              	.LVL313:
 3770              	.LBB389:
 3771              	.LBB390:
 3772              	.LBB391:
 3773              	.LBB392:
 196:../src/K6502_rw.h ****   }
 3774              		.loc 1 196 0
 3775 0000 B7070000 		lui	a5,%hi(ROMBANK3)
 3776 0004 03A70700 		lw	a4,%lo(ROMBANK3)(a5)
 3777              	.LVL314:
 3778              	.LBE392:
 3779              	.LBE391:
 3780              	.LBB393:
 3781              	.LBB394:
 3782 0008 8967     		li	a5,8192
 3783 000a 3E97     		add	a4,a4,a5
 3784              	.LBE394:
 3785              	.LBE393:
 502:../src/K6502_rw.h **** 
 503:../src/K6502_rw.h **** // Reading/Writing operation (WORD version)
 504:../src/K6502_rw.h **** static inline WORD K6502_ReadW( WORD wAddr ){ return K6502_Read( wAddr ) | (WORD)K6502_Read( wAddr 
 3786              		.loc 1 504 0
 3787 000c 8347D7FF 		lbu	a5,-3(a4)
 3788 0010 0346C7FF 		lbu	a2,-4(a4)
 3789              	.LBE390:
 3790              	.LBE389:
 328:../src/K6502.c ****   IRQ_State = IRQ_Wiring;
 3791              		.loc 2 328 0
 3792 0014 37070000 		lui	a4,%hi(.LANCHOR5)
 3793              	.LBB396:
 3794              	.LBB395:
 3795              		.loc 1 504 0
 3796 0018 A207     		slli	a5,a5,8
 3797 001a D18F     		or	a5,a5,a2
 3798              	.LBE395:
 3799              	.LBE396:
 322:../src/K6502.c ****   SP = 0xFF;
 3800              		.loc 2 322 0
 3801 001c 37060000 		lui	a2,%hi(.LANCHOR0)
 3802 0020 2310F600 		sh	a5,%lo(.LANCHOR0)(a2)
 323:../src/K6502.c ****   A = X = Y = 0;
 3803              		.loc 2 323 0
 3804 0024 B7070000 		lui	a5,%hi(.LANCHOR13)
 3805 0028 7D56     		li	a2,-1
 3806 002a 2380C700 		sb	a2,%lo(.LANCHOR13)(a5)
 324:../src/K6502.c ****   F = FLAG_Z | FLAG_R | FLAG_I;
 3807              		.loc 2 324 0
 3808 002e B7070000 		lui	a5,%hi(.LANCHOR3)
 3809 0032 23800700 		sb	zero,%lo(.LANCHOR3)(a5)
 3810 0036 B7070000 		lui	a5,%hi(.LANCHOR1)
 328:../src/K6502.c ****   IRQ_State = IRQ_Wiring;
 3811              		.loc 2 328 0
 3812 003a 83460700 		lbu	a3,%lo(.LANCHOR5)(a4)
 324:../src/K6502.c ****   F = FLAG_Z | FLAG_R | FLAG_I;
 3813              		.loc 2 324 0
 3814 003e 23800700 		sb	zero,%lo(.LANCHOR1)(a5)
 329:../src/K6502.c **** 
 3815              		.loc 2 329 0
 3816 0042 37070000 		lui	a4,%hi(.LANCHOR7)
 324:../src/K6502.c ****   F = FLAG_Z | FLAG_R | FLAG_I;
 3817              		.loc 2 324 0
 3818 0046 B7070000 		lui	a5,%hi(.LANCHOR14)
 329:../src/K6502.c **** 
 3819              		.loc 2 329 0
 3820 004a 03470700 		lbu	a4,%lo(.LANCHOR7)(a4)
 324:../src/K6502.c ****   F = FLAG_Z | FLAG_R | FLAG_I;
 3821              		.loc 2 324 0
 3822 004e 23800700 		sb	zero,%lo(.LANCHOR14)(a5)
 325:../src/K6502.c **** 
 3823              		.loc 2 325 0
 3824 0052 13066002 		li	a2,38
 3825 0056 B7070000 		lui	a5,%hi(.LANCHOR15)
 3826 005a 2380C700 		sb	a2,%lo(.LANCHOR15)(a5)
 328:../src/K6502.c ****   IRQ_State = IRQ_Wiring;
 3827              		.loc 2 328 0
 3828 005e B7070000 		lui	a5,%hi(.LANCHOR4)
 3829 0062 2380D700 		sb	a3,%lo(.LANCHOR4)(a5)
 329:../src/K6502.c **** 
 3830              		.loc 2 329 0
 3831 0066 B7070000 		lui	a5,%hi(.LANCHOR6)
 3832 006a 2380E700 		sb	a4,%lo(.LANCHOR6)(a5)
 332:../src/K6502.c **** }
 3833              		.loc 2 332 0
 3834 006e B7070000 		lui	a5,%hi(.LANCHOR2)
 3835 0072 23900700 		sh	zero,%lo(.LANCHOR2)(a5)
 333:../src/K6502.c **** 
 3836              		.loc 2 333 0
 3837 0076 8280     		ret
 3838              		.cfi_endproc
 3839              	.LFE1:
 3841              		.section	.text.K6502_Set_Int_Wiring,"ax",@progbits
 3842              		.align	1
 3843              		.globl	K6502_Set_Int_Wiring
 3845              	K6502_Set_Int_Wiring:
 3846              	.LFB2:
 341:../src/K6502.c **** /*
 3847              		.loc 2 341 0
 3848              		.cfi_startproc
 3849              	.LVL315:
 347:../src/K6502.c ****   IRQ_Wiring = byIRQ_Wiring;
 3850              		.loc 2 347 0
 3851 0000 B7070000 		lui	a5,%hi(.LANCHOR5)
 3852 0004 2380A700 		sb	a0,%lo(.LANCHOR5)(a5)
 348:../src/K6502.c **** }
 3853              		.loc 2 348 0
 3854 0008 B7070000 		lui	a5,%hi(.LANCHOR7)
 3855 000c 2380B700 		sb	a1,%lo(.LANCHOR7)(a5)
 349:../src/K6502.c **** 
 3856              		.loc 2 349 0
 3857 0010 8280     		ret
 3858              		.cfi_endproc
 3859              	.LFE2:
 3861              		.section	.text.K6502_Step,"ax",@progbits
 3862              		.align	1
 3863              		.globl	K6502_Step
 3865              	K6502_Step:
 3866              	.LFB3:
 358:../src/K6502.c **** /*
 3867              		.loc 2 358 0
 3868              		.cfi_startproc
 3869              	.LVL316:
 3870 0000 7971     		addi	sp,sp,-48
 3871              		.cfi_def_cfa_offset 48
 375:../src/K6502.c ****   {
 3872              		.loc 2 375 0
 3873 0002 B7060000 		lui	a3,%hi(.LANCHOR4)
 358:../src/K6502.c **** /*
 3874              		.loc 2 358 0
 3875 0006 22D4     		sw	s0,40(sp)
 3876 0008 5AC8     		sw	s6,16(sp)
 375:../src/K6502.c ****   {
 3877              		.loc 2 375 0
 3878 000a B7070000 		lui	a5,%hi(.LANCHOR5)
 358:../src/K6502.c **** /*
 3879              		.loc 2 358 0
 3880 000e 06D6     		sw	ra,44(sp)
 3881 0010 26D2     		sw	s1,36(sp)
 3882 0012 4AD0     		sw	s2,32(sp)
 3883 0014 4ECE     		sw	s3,28(sp)
 3884 0016 52CC     		sw	s4,24(sp)
 3885 0018 56CA     		sw	s5,20(sp)
 3886 001a 5EC6     		sw	s7,12(sp)
 3887 001c 62C4     		sw	s8,8(sp)
 3888 001e 66C2     		sw	s9,4(sp)
 3889              		.cfi_offset 8, -8
 3890              		.cfi_offset 22, -32
 3891              		.cfi_offset 1, -4
 3892              		.cfi_offset 9, -12
 3893              		.cfi_offset 18, -16
 3894              		.cfi_offset 19, -20
 3895              		.cfi_offset 20, -24
 3896              		.cfi_offset 21, -28
 3897              		.cfi_offset 23, -36
 3898              		.cfi_offset 24, -40
 3899              		.cfi_offset 25, -44
 375:../src/K6502.c ****   {
 3900              		.loc 2 375 0
 3901 0020 93860600 		addi	a3,a3,%lo(.LANCHOR4)
 3902 0024 03C80700 		lbu	a6,%lo(.LANCHOR5)(a5)
 3903 0028 03C70600 		lbu	a4,0(a3)
 3904 002c 370B0000 		lui	s6,%hi(.LANCHOR2)
 3905 0030 130B0B00 		addi	s6,s6,%lo(.LANCHOR2)
 358:../src/K6502.c **** /*
 3906              		.loc 2 358 0
 3907 0034 2A84     		mv	s0,a0
 3908 0036 83570B00 		lhu	a5,0(s6)
 375:../src/K6502.c ****   {
 3909              		.loc 2 375 0
 3910 003a 63130719 		bne	a4,a6,.L991
 390:../src/K6502.c ****   {
 3911              		.loc 2 390 0
 3912 003e 37070000 		lui	a4,%hi(.LANCHOR6)
 3913 0042 B7060000 		lui	a3,%hi(.LANCHOR7)
 3914 0046 13070700 		addi	a4,a4,%lo(.LANCHOR6)
 3915 004a 03C60600 		lbu	a2,%lo(.LANCHOR7)(a3)
 3916 004e 83460700 		lbu	a3,0(a4)
 3917 0052 638BC600 		beq	a3,a2,.L365
 394:../src/K6502.c ****     {
 3918              		.loc 2 394 0
 3919 0056 B7040000 		lui	s1,%hi(.LANCHOR15)
 3920 005a 93840400 		addi	s1,s1,%lo(.LANCHOR15)
 3921 005e 83C60400 		lbu	a3,0(s1)
 3922 0062 918A     		andi	a3,a3,4
 3923 0064 63870634 		beqz	a3,.L992
 3924              	.L365:
 416:../src/K6502.c ****     {
 3925              		.loc 2 416 0
 3926 0068 B7040000 		lui	s1,%hi(.L390)
1033:../src/K6502.c ****         break;
 3927              		.loc 2 1033 0
 3928 006c 37090000 		lui	s2,%hi(.LANCHOR8)
 3929              	.LBB724:
 3930              	.LBB725:
  43:../src/K6502_rw.h **** }
 3931              		.loc 1 43 0
 3932 0070 B7090000 		lui	s3,%hi(RAM)
 3933              	.LBE725:
 3934              	.LBE724:
 3935              	.LBB734:
 3936              	.LBB735:
 3937              	.LBB736:
 3938              	.LBB737:
 181:../src/K6502_rw.h ****       } else {    /* SRAM BANK */
 3939              		.loc 1 181 0
 3940 0074 370A0000 		lui	s4,%hi(SRAM)
 3941              	.LBE737:
 3942              	.LBE736:
 3943              	.LBE735:
 3944              	.LBE734:
 416:../src/K6502.c ****     {
 3945              		.loc 2 416 0
 3946 0078 93840400 		addi	s1,s1,%lo(.L390)
1033:../src/K6502.c ****         break;
 3947              		.loc 2 1033 0
 3948 007c 13090900 		addi	s2,s2,%lo(.LANCHOR8)
 3949              	.LBB866:
 3950              	.LBB726:
  43:../src/K6502_rw.h **** }
 3951              		.loc 1 43 0
 3952 0080 93890900 		addi	s3,s3,%lo(RAM)
 3953              	.LBE726:
 3954              	.LBE866:
 3955              	.LBB867:
 3956              	.LBB834:
 3957              	.LBB765:
 3958              	.LBB743:
 181:../src/K6502_rw.h ****       } else {    /* SRAM BANK */
 3959              		.loc 1 181 0
 3960 0084 130A0A00 		addi	s4,s4,%lo(SRAM)
 3961              	.LVL317:
 3962              	.L364:
 3963              	.LBE743:
 3964              	.LBE765:
 3965              	.LBE834:
 3966              	.LBE867:
 410:../src/K6502.c ****   {
 3967              		.loc 2 410 0
 3968 0088 63FF8706 		bleu	s0,a5,.L993
 413:../src/K6502.c **** 
 3969              		.loc 2 413 0
 3970 008c B70A0000 		lui	s5,%hi(.LANCHOR0)
 3971 0090 938A0A00 		addi	s5,s5,%lo(.LANCHOR0)
 3972 0094 03D50A00 		lhu	a0,0(s5)
 3973              	.LBB868:
 3974              	.LBB869:
  73:../src/K6502_rw.h ****   {
 3975              		.loc 1 73 0
 3976 0098 9966     		li	a3,24576
 3977              	.LBE869:
 3978              	.LBE868:
 413:../src/K6502.c **** 
 3979              		.loc 2 413 0
 3980 009a 13071500 		addi	a4,a0,1
 3981 009e 2390EA00 		sh	a4,0(s5)
 3982              	.LVL318:
 3983              	.LBB880:
 3984              	.LBB873:
  73:../src/K6502_rw.h ****   {
 3985              		.loc 1 73 0
 3986 00a2 7977     		li	a4,-8192
 3987 00a4 698F     		and	a4,a0,a4
 3988 00a6 6309D70E 		beq	a4,a3,.L367
 3989 00aa 63FFE602 		bleu	a4,a3,.L994
 3990 00ae A967     		li	a5,40960
 3991 00b0 6304F708 		beq	a4,a5,.L372
 3992 00b4 63FAE706 		bleu	a4,a5,.L995
 3993 00b8 B167     		li	a5,49152
 3994 00ba 6303F70A 		beq	a4,a5,.L375
 3995 00be B967     		li	a5,57344
 3996 00c0 631BF702 		bne	a4,a5,.L366
 196:../src/K6502_rw.h ****   }
 3997              		.loc 1 196 0
 3998 00c4 B7070000 		lui	a5,%hi(ROMBANK3)
 3999 00c8 03A70700 		lw	a4,%lo(ROMBANK3)(a5)
 4000              	.L973:
 193:../src/K6502_rw.h **** 
 4001              		.loc 1 193 0
 4002 00cc 8967     		li	a5,8192
 4003 00ce FD17     		addi	a5,a5,-1
 4004 00d0 7D8D     		and	a0,a0,a5
 4005              	.LVL319:
 4006 00d2 3A95     		add	a0,a4,a0
 4007 00d4 03450500 		lbu	a0,0(a0)
 4008              	.L377:
 4009              	.LBE873:
 4010              	.LBE880:
 416:../src/K6502.c ****     {
 4011              		.loc 2 416 0
 4012 00d8 9307E00F 		li	a5,254
 4013 00dc 63EBA738 		bgtu	a0,a5,.L388
 4014 00e0 0A05     		slli	a0,a0,2
 4015 00e2 2695     		add	a0,a0,s1
 4016 00e4 1C41     		lw	a5,0(a0)
 4017 00e6 8287     		jr	a5
 4018              		.section	.rodata.K6502_Step,"a",@progbits
 4019              		.align	2
 4020              		.align	2
 4021              	.L390:
 4022 0000 00000000 		.word	.L389
 4023 0004 00000000 		.word	.L391
 4024 0008 00000000 		.word	.L388
