   1              		.file	"main.c"
   2              		.option nopic
   3              		.text
   4              	.Ltext0:
   5              		.cfi_sections	.debug_frame
   6              		.section	.text.ps2_test,"ax",@progbits
   7              		.align	1
   8              		.globl	ps2_test
  10              	ps2_test:
  11              	.LFB1:
  12              		.file 1 "../src/main.c"
   1:../src/main.c **** #include <stdint.h>
   2:../src/main.c **** #include <stdlib.h>
   3:../src/main.c **** #include "sys.h"
   4:../src/main.c **** 
   5:../src/main.c **** int uart_data = 0;
   6:../src/main.c **** int delaycnt = 0;
   7:../src/main.c **** 
   8:../src/main.c **** /********************************************************************
   9:../src/main.c ****  ** 函数名称：led_blink
  10:../src/main.c ****  ** 函数功能：led blin测试（采用计数器的方式）
  11:../src/main.c ****  ** 输入参数：无
  12:../src/main.c ****  ** 输出参数：无
  13:../src/main.c ****  ** 返回参数：无
  14:../src/main.c ****  ********************************************************************/
  15:../src/main.c **** 
  16:../src/main.c **** void ps2_test(){
  13              		.loc 1 16 0
  14              		.cfi_startproc
  17:../src/main.c **** 	int getps2 = *ps2ctrl_point;
  15              		.loc 1 17 0
  16 0000 A167     		li	a5,32768
  17 0002 83A50710 		lw	a1,256(a5)
  18              	.LVL0:
  18:../src/main.c **** 	printk("getps2 = %d\n",getps2);
  19              		.loc 1 18 0
  20 0006 37050000 		lui	a0,%hi(.LC0)
  21 000a 13050500 		addi	a0,a0,%lo(.LC0)
  22 000e 17030000 		tail	printk
  22      67000300 
  23              	.LVL1:
  24              		.cfi_endproc
  25              	.LFE1:
  27              		.section	.text.draw_point_test,"ax",@progbits
  28              		.align	1
  29              		.globl	draw_point_test
  31              	draw_point_test:
  32              	.LFB2:
  19:../src/main.c **** }
  20:../src/main.c **** 
  21:../src/main.c **** 
  22:../src/main.c **** void draw_point_test(int x,int y){
  33              		.loc 1 22 0
  34              		.cfi_startproc
  35              	.LVL2:
  23:../src/main.c **** 	u32 addr_temp;
  24:../src/main.c **** 	u32 data_temp;
  25:../src/main.c **** 	addr_temp = 40*y + x;
  36              		.loc 1 25 0
  37 0000 93972500 		slli	a5,a1,2
  38 0004 BE95     		add	a1,a5,a1
  39              	.LVL3:
  40 0006 8E05     		slli	a1,a1,3
  41 0008 AA95     		add	a1,a1,a0
  42              	.LVL4:
  26:../src/main.c **** 	ram_address = addr_temp;
  43              		.loc 1 26 0
  44 000a 2167     		li	a4,32768
  27:../src/main.c **** 	ram_data_address = 0b00010011+(0b1<<31);
  45              		.loc 1 27 0
  46 000c B7070080 		li	a5,-2147483648
  26:../src/main.c **** 	ram_address = addr_temp;
  47              		.loc 1 26 0
  48 0010 2CD3     		sw	a1,96(a4)
  49              		.loc 1 27 0
  50 0012 CD07     		addi	a5,a5,19
  28:../src/main.c **** 	data_temp = 0b00010011+(0b1<<31);
  29:../src/main.c **** 	printk("we_valid:%d",data_temp>>31);
  51              		.loc 1 29 0
  52 0014 37050000 		lui	a0,%hi(.LC1)
  53              	.LVL5:
  27:../src/main.c **** 	ram_data_address = 0b00010011+(0b1<<31);
  54              		.loc 1 27 0
  55 0018 3CDB     		sw	a5,112(a4)
  56              	.LVL6:
  57              		.loc 1 29 0
  58 001a 8545     		li	a1,1
  59              	.LVL7:
  60 001c 13050500 		addi	a0,a0,%lo(.LC1)
  61 0020 17030000 		tail	printk
  61      67000300 
  62              	.LVL8:
  63              		.cfi_endproc
  64              	.LFE2:
  66              		.section	.text.rgb_test,"ax",@progbits
  67              		.align	1
  68              		.globl	rgb_test
  70              	rgb_test:
  71              	.LFB3:
  30:../src/main.c **** }
  31:../src/main.c **** 
  32:../src/main.c **** void rgb_test(){
  72              		.loc 1 32 0
  73              		.cfi_startproc
  74              	.LVL9:
  75 0000 4111     		addi	sp,sp,-16
  76              		.cfi_def_cfa_offset 16
  33:../src/main.c **** 	u32 cut = 0;
  34:../src/main.c **** 	u32 addr = 0;
  35:../src/main.c **** 	u32 color = 0;
  36:../src/main.c **** 	u32 i;
  37:../src/main.c **** 	for(i = 0;i < 86400;i++){
  38:../src/main.c **** 		ram_address = i;
  77              		.loc 1 38 0
  78 0002 2167     		li	a4,32768
  37:../src/main.c **** 		ram_address = i;
  79              		.loc 1 37 0
  80 0004 D565     		li	a1,86016
  32:../src/main.c **** 	u32 cut = 0;
  81              		.loc 1 32 0
  82 0006 06C6     		sw	ra,12(sp)
  83              		.cfi_offset 1, -4
  37:../src/main.c **** 		ram_address = i;
  84              		.loc 1 37 0
  85 0008 8147     		li	a5,0
  39:../src/main.c **** 		ram_data_address = (0+(0b1<<31));
  86              		.loc 1 39 0
  87 000a 93060707 		addi	a3,a4,112
  88 000e 37080080 		li	a6,-2147483648
  89 0012 37050080 		li	a0,-2147483648
  37:../src/main.c **** 		ram_address = i;
  90              		.loc 1 37 0
  91 0016 93850518 		addi	a1,a1,384
  92              	.LVL10:
  93              	.L5:
  38:../src/main.c **** 		ram_data_address = (0+(0b1<<31));
  94              		.loc 1 38 0 discriminator 3
  95 001a 3CD3     		sw	a5,96(a4)
  96              		.loc 1 39 0 discriminator 3
  97 001c 88C2     		sw	a0,0(a3)
  37:../src/main.c **** 		ram_address = i;
  98              		.loc 1 37 0 discriminator 3
  99 001e 8507     		addi	a5,a5,1
 100              	.LVL11:
 101 0020 E39DB7FE 		bne	a5,a1,.L5
  40:../src/main.c **** 	}
  41:../src/main.c **** 	ram_address = 0;
 102              		.loc 1 41 0
 103 0024 23200706 		sw	zero,96(a4)
  42:../src/main.c **** 	ram_data_address = (5+(0b1<<31));
 104              		.loc 1 42 0
 105 0028 93075800 		addi	a5,a6,5
 106              	.LVL12:
 107 002c 9CC2     		sw	a5,0(a3)
  43:../src/main.c **** 	ram_address = 50;
 108              		.loc 1 43 0
 109 002e 93072003 		li	a5,50
 110 0032 3CD3     		sw	a5,96(a4)
  44:../src/main.c **** 	ram_data_address = (50+(0b1<<31));
 111              		.loc 1 44 0
 112 0034 93072803 		addi	a5,a6,50
 113 0038 9CC2     		sw	a5,0(a3)
  45:../src/main.c **** 	ram_address = 20000;
 114              		.loc 1 45 0
 115 003a 9567     		li	a5,20480
 116 003c 938707E2 		addi	a5,a5,-480
 117 0040 3CD3     		sw	a5,96(a4)
  46:../src/main.c **** 	ram_data_address = (150+(0b1<<31));
 118              		.loc 1 46 0
 119 0042 13086809 		addi	a6,a6,150
 120 0046 23A00601 		sw	a6,0(a3)
  47:../src/main.c **** 	hdmi_draw_point(20,50,1);
 121              		.loc 1 47 0
 122 004a 0546     		li	a2,1
 123 004c 93052003 		li	a1,50
 124 0050 5145     		li	a0,20
 125 0052 97000000 		call	hdmi_draw_point
 125      E7800000 
 126              	.LVL13:
  48:../src/main.c **** 	hdmi_draw_point(20,60,2);
 127              		.loc 1 48 0
 128 005a 0946     		li	a2,2
 129 005c 9305C003 		li	a1,60
 130 0060 5145     		li	a0,20
 131 0062 97000000 		call	hdmi_draw_point
 131      E7800000 
 132              	.LVL14:
  49:../src/main.c **** 	hdmi_draw_point(20,70,3);
 133              		.loc 1 49 0
 134 006a 0D46     		li	a2,3
 135 006c 93056004 		li	a1,70
 136 0070 5145     		li	a0,20
 137 0072 97000000 		call	hdmi_draw_point
 137      E7800000 
 138              	.LVL15:
  50:../src/main.c **** 	hdmi_draw_point(20,80,4);
  51:../src/main.c **** //	while(1){
  52:../src/main.c **** //		cut ++;
  53:../src/main.c **** //		if(cut == 100000){
  54:../src/main.c **** //			cut = 0;
  55:../src/main.c **** //			addr++;
  56:../src/main.c **** //			color++;
  57:../src/main.c **** //			if(color == 0xff) color = 0;
  58:../src/main.c **** //			printk("color:%x\n",(color+1)*(0xffff+1));
  59:../src/main.c **** //			ram_address = addr;
  60:../src/main.c **** //			ram_data_address = (color+(0b1<<31));
  61:../src/main.c **** //		}
  62:../src/main.c **** //	}
  63:../src/main.c **** }
 139              		.loc 1 63 0
 140 007a B240     		lw	ra,12(sp)
 141              		.cfi_restore 1
  50:../src/main.c **** 	hdmi_draw_point(20,80,4);
 142              		.loc 1 50 0
 143 007c 1146     		li	a2,4
 144              		.loc 1 63 0
  50:../src/main.c **** 	hdmi_draw_point(20,80,4);
 145              		.loc 1 50 0
 146 007e 93050005 		li	a1,80
 147 0082 5145     		li	a0,20
 148              		.loc 1 63 0
 149 0084 4101     		addi	sp,sp,16
 150              		.cfi_def_cfa_offset 0
  50:../src/main.c **** 	hdmi_draw_point(20,80,4);
 151              		.loc 1 50 0
 152 0086 17030000 		tail	hdmi_draw_point
 152      67000300 
 153              	.LVL16:
 154              		.cfi_endproc
 155              	.LFE3:
 157              		.section	.text.startup.main,"ax",@progbits
 158              		.align	1
 159              		.globl	main
 161              	main:
 162              	.LFB4:
  64:../src/main.c **** 
  65:../src/main.c **** int main(void)
  66:../src/main.c **** {
 163              		.loc 1 66 0
 164              		.cfi_startproc
 165 0000 4111     		addi	sp,sp,-16
 166              		.cfi_def_cfa_offset 16
  67:../src/main.c **** 	reg_uart_clkdiv = BAUND_9600;
 167              		.loc 1 67 0
 168 0002 8567     		li	a5,4096
  66:../src/main.c **** 	reg_uart_clkdiv = BAUND_9600;
 169              		.loc 1 66 0
 170 0004 06C6     		sw	ra,12(sp)
 171              		.cfi_offset 1, -4
 172              		.loc 1 67 0
 173 0006 2167     		li	a4,32768
 174 0008 93878745 		addi	a5,a5,1112
  68:../src/main.c **** 	printk("Hello Risc-V Pango 2019\n");
 175              		.loc 1 68 0
 176 000c 37050000 		lui	a0,%hi(.LC2)
  67:../src/main.c **** 	reg_uart_clkdiv = BAUND_9600;
 177              		.loc 1 67 0
 178 0010 1CC3     		sw	a5,0(a4)
 179              		.loc 1 68 0
 180 0012 13050500 		addi	a0,a0,%lo(.LC2)
 181 0016 97000000 		call	printk
 181      E7800000 
 182              	.LVL17:
  69:../src/main.c **** 	printk("test data = %d,%f,%s,0x = %x\n", 100,33.456,"2019",100);
 183              		.loc 1 69 0
 184 001e B7070000 		lui	a5,%hi(.LC4)
 185 0022 03A60700 		lw	a2,%lo(.LC4)(a5)
 186 0026 83A64700 		lw	a3,%lo(.LC4+4)(a5)
 187 002a 37070000 		lui	a4,%hi(.LC3)
 188 002e 37050000 		lui	a0,%hi(.LC5)
 189 0032 93074006 		li	a5,100
 190 0036 13070700 		addi	a4,a4,%lo(.LC3)
 191 003a 93054006 		li	a1,100
 192 003e 13050500 		addi	a0,a0,%lo(.LC5)
 193 0042 97000000 		call	printk
 193      E7800000 
 194              	.LVL18:
  70:../src/main.c **** 	printk("simple compute : 50*10 = %d,100/3 = %f,100%3 = %d\n", 50*10,(double)100/3,(int)100%3);
 195              		.loc 1 70 0
 196 004a B7070000 		lui	a5,%hi(.LC6)
 197 004e 03A60700 		lw	a2,%lo(.LC6)(a5)
 198 0052 83A64700 		lw	a3,%lo(.LC6+4)(a5)
 199 0056 37050000 		lui	a0,%hi(.LC7)
 200 005a 0547     		li	a4,1
 201 005c 9305401F 		li	a1,500
 202 0060 13050500 		addi	a0,a0,%lo(.LC7)
 203 0064 97000000 		call	printk
 203      E7800000 
 204              	.LVL19:
  71:../src/main.c **** 	printk("test\n");
 205              		.loc 1 71 0
 206 006c 37050000 		lui	a0,%hi(.LC8)
 207 0070 13050500 		addi	a0,a0,%lo(.LC8)
 208 0074 97000000 		call	printk
 208      E7800000 
 209              	.LVL20:
  72:../src/main.c **** 	GameStart();
 210              		.loc 1 72 0
 211 007c 97000000 		call	GameStart
 211      E7800000 
 212              	.LVL21:
  73:../src/main.c **** //loop:
  74:../src/main.c **** //	SnakeGameStart();
  75:../src/main.c **** //	while(getps2 != 0b00000010){
  76:../src/main.c **** //		getps2 = *ps2ctrl_point;
  77:../src/main.c **** //		if(getps2 == 0b00000010){
  78:../src/main.c **** //			for(cuty = 0;cuty<30;cuty++){
  79:../src/main.c **** //				for(cutx = 0;cutx<40;cutx++)
  80:../src/main.c **** //					clear_point(cutx,cuty);
  81:../src/main.c **** //			}
  82:../src/main.c **** //			break;
  83:../src/main.c **** //		}
  84:../src/main.c **** //	}//X
  85:../src/main.c **** //	getps2 = 0;
  86:../src/main.c **** //	goto loop;
  87:../src/main.c **** 	return 0;
  88:../src/main.c **** }
 213              		.loc 1 88 0
 214 0084 B240     		lw	ra,12(sp)
 215              		.cfi_restore 1
 216 0086 0145     		li	a0,0
 217 0088 4101     		addi	sp,sp,16
 218              		.cfi_def_cfa_offset 0
 219 008a 8280     		jr	ra
 220              		.cfi_endproc
 221              	.LFE4:
 223              		.globl	delaycnt
 224              		.globl	uart_data
 225              		.section	.rodata.draw_point_test.str1.4,"aMS",@progbits,1
 226              		.align	2
 227              	.LC1:
 228 0000 77655F76 		.string	"we_valid:%d"
 228      616C6964 
 228      3A256400 
 229              		.section	.rodata.main.cst8,"aM",@progbits,8
 230              		.align	3
 231              	.LC4:
 232 0000 EE7C3F35 		.word	893353198
 233 0004 5EBA4040 		.word	1077983838
 234              	.LC6:
 235 0008 ABAAAAAA 		.word	-1431655765
 236 000c AAAA4040 		.word	1077979818
 237              		.section	.rodata.main.str1.4,"aMS",@progbits,1
 238              		.align	2
 239              	.LC2:
 240 0000 48656C6C 		.string	"Hello Risc-V Pango 2019\n"
 240      6F205269 
 240      73632D56 
 240      2050616E 
 240      676F2032 
 241 0019 000000   		.zero	3
 242              	.LC3:
 243 001c 32303139 		.string	"2019"
 243      00
 244 0021 000000   		.zero	3
 245              	.LC5:
 246 0024 74657374 		.string	"test data = %d,%f,%s,0x = %x\n"
 246      20646174 
 246      61203D20 
 246      25642C25 
 246      662C2573 
 247 0042 0000     		.zero	2
 248              	.LC7:
 249 0044 73696D70 		.string	"simple compute : 50*10 = %d,100/3 = %f,100%3 = %d\n"
 249      6C652063 
 249      6F6D7075 
 249      7465203A 
 249      2035302A 
 250 0077 00       		.zero	1
 251              	.LC8:
 252 0078 74657374 		.string	"test\n"
 252      0A00
 253              		.section	.rodata.ps2_test.str1.4,"aMS",@progbits,1
 254              		.align	2
 255              	.LC0:
 256 0000 67657470 		.string	"getps2 = %d\n"
 256      7332203D 
 256      2025640A 
 256      00
 257              		.section	.sbss.delaycnt,"aw",@nobits
 258              		.align	2
 261              	delaycnt:
 262 0000 00000000 		.zero	4
 263              		.section	.sbss.uart_data,"aw",@nobits
 264              		.align	2
 267              	uart_data:
 268 0000 00000000 		.zero	4
 269              		.text
 270              	.Letext0:
 271              		.file 2 "d:\\hummingbird\\hbird-eclipse_2018_09\\gnu mcu eclipse\\risc-v embedded gcc\\7.2.0-4-201
 272              		.file 3 "d:\\hummingbird\\hbird-eclipse_2018_09\\gnu mcu eclipse\\risc-v embedded gcc\\7.2.0-4-201
 273              		.file 4 "d:\\hummingbird\\hbird-eclipse_2018_09\\gnu mcu eclipse\\risc-v embedded gcc\\7.2.0-4-201
 274              		.file 5 "d:\\hummingbird\\hbird-eclipse_2018_09\\gnu mcu eclipse\\risc-v embedded gcc\\7.2.0-4-201
 275              		.file 6 "d:\\hummingbird\\hbird-eclipse_2018_09\\gnu mcu eclipse\\risc-v embedded gcc\\7.2.0-4-201
 276              		.file 7 "d:\\hummingbird\\hbird-eclipse_2018_09\\gnu mcu eclipse\\risc-v embedded gcc\\7.2.0-4-201
 277              		.file 8 "d:\\hummingbird\\hbird-eclipse_2018_09\\gnu mcu eclipse\\risc-v embedded gcc\\7.2.0-4-201
 278              		.file 9 "../src/bitmap.h"
 279              		.file 10 "d:\\hummingbird\\hbird-eclipse_2018_09\\gnu mcu eclipse\\risc-v embedded gcc\\7.2.0-4-20
 280              		.file 11 "../src/uart.h"
 281              		.file 12 "../src/newsnake.h"
 282              		.file 13 "../src/hdmidraw.h"
DEFINED SYMBOLS
                            *ABS*:0000000000000000 main.c
C:\Users\rana\AppData\Local\Temp\ccHPHXRZ.s:10     .text.ps2_test:0000000000000000 ps2_test
C:\Users\rana\AppData\Local\Temp\ccHPHXRZ.s:14     .text.ps2_test:0000000000000000 .L0 
C:\Users\rana\AppData\Local\Temp\ccHPHXRZ.s:15     .text.ps2_test:0000000000000000 .L0 
C:\Users\rana\AppData\Local\Temp\ccHPHXRZ.s:16     .text.ps2_test:0000000000000000 .L0 
C:\Users\rana\AppData\Local\Temp\ccHPHXRZ.s:20     .text.ps2_test:0000000000000006 .L0 
C:\Users\rana\AppData\Local\Temp\ccHPHXRZ.s:24     .text.ps2_test:0000000000000016 .L0 
C:\Users\rana\AppData\Local\Temp\ccHPHXRZ.s:31     .text.draw_point_test:0000000000000000 draw_point_test
C:\Users\rana\AppData\Local\Temp\ccHPHXRZ.s:34     .text.draw_point_test:0000000000000000 .L0 
C:\Users\rana\AppData\Local\Temp\ccHPHXRZ.s:36     .text.draw_point_test:0000000000000000 .L0 
C:\Users\rana\AppData\Local\Temp\ccHPHXRZ.s:37     .text.draw_point_test:0000000000000000 .L0 
C:\Users\rana\AppData\Local\Temp\ccHPHXRZ.s:44     .text.draw_point_test:000000000000000a .L0 
C:\Users\rana\AppData\Local\Temp\ccHPHXRZ.s:46     .text.draw_point_test:000000000000000c .L0 
C:\Users\rana\AppData\Local\Temp\ccHPHXRZ.s:48     .text.draw_point_test:0000000000000010 .L0 
C:\Users\rana\AppData\Local\Temp\ccHPHXRZ.s:50     .text.draw_point_test:0000000000000012 .L0 
C:\Users\rana\AppData\Local\Temp\ccHPHXRZ.s:52     .text.draw_point_test:0000000000000014 .L0 
C:\Users\rana\AppData\Local\Temp\ccHPHXRZ.s:55     .text.draw_point_test:0000000000000018 .L0 
C:\Users\rana\AppData\Local\Temp\ccHPHXRZ.s:58     .text.draw_point_test:000000000000001a .L0 
C:\Users\rana\AppData\Local\Temp\ccHPHXRZ.s:63     .text.draw_point_test:0000000000000028 .L0 
C:\Users\rana\AppData\Local\Temp\ccHPHXRZ.s:70     .text.rgb_test:0000000000000000 rgb_test
C:\Users\rana\AppData\Local\Temp\ccHPHXRZ.s:73     .text.rgb_test:0000000000000000 .L0 
C:\Users\rana\AppData\Local\Temp\ccHPHXRZ.s:75     .text.rgb_test:0000000000000000 .L0 
C:\Users\rana\AppData\Local\Temp\ccHPHXRZ.s:76     .text.rgb_test:0000000000000002 .L0 
C:\Users\rana\AppData\Local\Temp\ccHPHXRZ.s:78     .text.rgb_test:0000000000000002 .L0 
C:\Users\rana\AppData\Local\Temp\ccHPHXRZ.s:80     .text.rgb_test:0000000000000004 .L0 
C:\Users\rana\AppData\Local\Temp\ccHPHXRZ.s:82     .text.rgb_test:0000000000000006 .L0 
C:\Users\rana\AppData\Local\Temp\ccHPHXRZ.s:83     .text.rgb_test:0000000000000008 .L0 
C:\Users\rana\AppData\Local\Temp\ccHPHXRZ.s:85     .text.rgb_test:0000000000000008 .L0 
C:\Users\rana\AppData\Local\Temp\ccHPHXRZ.s:87     .text.rgb_test:000000000000000a .L0 
C:\Users\rana\AppData\Local\Temp\ccHPHXRZ.s:91     .text.rgb_test:0000000000000016 .L0 
C:\Users\rana\AppData\Local\Temp\ccHPHXRZ.s:95     .text.rgb_test:000000000000001a .L0 
C:\Users\rana\AppData\Local\Temp\ccHPHXRZ.s:97     .text.rgb_test:000000000000001c .L0 
C:\Users\rana\AppData\Local\Temp\ccHPHXRZ.s:99     .text.rgb_test:000000000000001e .L0 
C:\Users\rana\AppData\Local\Temp\ccHPHXRZ.s:103    .text.rgb_test:0000000000000024 .L0 
C:\Users\rana\AppData\Local\Temp\ccHPHXRZ.s:105    .text.rgb_test:0000000000000028 .L0 
C:\Users\rana\AppData\Local\Temp\ccHPHXRZ.s:109    .text.rgb_test:000000000000002e .L0 
C:\Users\rana\AppData\Local\Temp\ccHPHXRZ.s:112    .text.rgb_test:0000000000000034 .L0 
C:\Users\rana\AppData\Local\Temp\ccHPHXRZ.s:115    .text.rgb_test:000000000000003a .L0 
C:\Users\rana\AppData\Local\Temp\ccHPHXRZ.s:119    .text.rgb_test:0000000000000042 .L0 
C:\Users\rana\AppData\Local\Temp\ccHPHXRZ.s:122    .text.rgb_test:000000000000004a .L0 
C:\Users\rana\AppData\Local\Temp\ccHPHXRZ.s:128    .text.rgb_test:000000000000005a .L0 
C:\Users\rana\AppData\Local\Temp\ccHPHXRZ.s:134    .text.rgb_test:000000000000006a .L0 
C:\Users\rana\AppData\Local\Temp\ccHPHXRZ.s:140    .text.rgb_test:000000000000007a .L0 
C:\Users\rana\AppData\Local\Temp\ccHPHXRZ.s:141    .text.rgb_test:000000000000007c .L0 
C:\Users\rana\AppData\Local\Temp\ccHPHXRZ.s:143    .text.rgb_test:000000000000007c .L0 
C:\Users\rana\AppData\Local\Temp\ccHPHXRZ.s:145    .text.rgb_test:000000000000007e .L0 
C:\Users\rana\AppData\Local\Temp\ccHPHXRZ.s:146    .text.rgb_test:000000000000007e .L0 
C:\Users\rana\AppData\Local\Temp\ccHPHXRZ.s:149    .text.rgb_test:0000000000000084 .L0 
C:\Users\rana\AppData\Local\Temp\ccHPHXRZ.s:150    .text.rgb_test:0000000000000086 .L0 
C:\Users\rana\AppData\Local\Temp\ccHPHXRZ.s:152    .text.rgb_test:0000000000000086 .L0 
C:\Users\rana\AppData\Local\Temp\ccHPHXRZ.s:154    .text.rgb_test:000000000000008e .L0 
C:\Users\rana\AppData\Local\Temp\ccHPHXRZ.s:161    .text.startup.main:0000000000000000 main
C:\Users\rana\AppData\Local\Temp\ccHPHXRZ.s:164    .text.startup.main:0000000000000000 .L0 
C:\Users\rana\AppData\Local\Temp\ccHPHXRZ.s:165    .text.startup.main:0000000000000000 .L0 
C:\Users\rana\AppData\Local\Temp\ccHPHXRZ.s:166    .text.startup.main:0000000000000002 .L0 
C:\Users\rana\AppData\Local\Temp\ccHPHXRZ.s:168    .text.startup.main:0000000000000002 .L0 
C:\Users\rana\AppData\Local\Temp\ccHPHXRZ.s:170    .text.startup.main:0000000000000004 .L0 
C:\Users\rana\AppData\Local\Temp\ccHPHXRZ.s:171    .text.startup.main:0000000000000006 .L0 
C:\Users\rana\AppData\Local\Temp\ccHPHXRZ.s:173    .text.startup.main:0000000000000006 .L0 
C:\Users\rana\AppData\Local\Temp\ccHPHXRZ.s:176    .text.startup.main:000000000000000c .L0 
C:\Users\rana\AppData\Local\Temp\ccHPHXRZ.s:178    .text.startup.main:0000000000000010 .L0 
C:\Users\rana\AppData\Local\Temp\ccHPHXRZ.s:180    .text.startup.main:0000000000000012 .L0 
C:\Users\rana\AppData\Local\Temp\ccHPHXRZ.s:184    .text.startup.main:000000000000001e .L0 
C:\Users\rana\AppData\Local\Temp\ccHPHXRZ.s:196    .text.startup.main:000000000000004a .L0 
C:\Users\rana\AppData\Local\Temp\ccHPHXRZ.s:206    .text.startup.main:000000000000006c .L0 
C:\Users\rana\AppData\Local\Temp\ccHPHXRZ.s:211    .text.startup.main:000000000000007c .L0 
C:\Users\rana\AppData\Local\Temp\ccHPHXRZ.s:214    .text.startup.main:0000000000000084 .L0 
C:\Users\rana\AppData\Local\Temp\ccHPHXRZ.s:215    .text.startup.main:0000000000000086 .L0 
C:\Users\rana\AppData\Local\Temp\ccHPHXRZ.s:218    .text.startup.main:000000000000008a .L0 
C:\Users\rana\AppData\Local\Temp\ccHPHXRZ.s:220    .text.startup.main:000000000000008c .L0 
C:\Users\rana\AppData\Local\Temp\ccHPHXRZ.s:261    .sbss.delaycnt:0000000000000000 delaycnt
C:\Users\rana\AppData\Local\Temp\ccHPHXRZ.s:267    .sbss.uart_data:0000000000000000 uart_data
C:\Users\rana\AppData\Local\Temp\ccHPHXRZ.s:27     .text.ps2_test:0000000000000016 .L0 
C:\Users\rana\AppData\Local\Temp\ccHPHXRZ.s:66     .text.draw_point_test:0000000000000028 .L0 
C:\Users\rana\AppData\Local\Temp\ccHPHXRZ.s:157    .text.rgb_test:000000000000008e .L0 
C:\Users\rana\AppData\Local\Temp\ccHPHXRZ.s:225    .text.startup.main:000000000000008c .L0 
                     .debug_frame:0000000000000000 .L0 
C:\Users\rana\AppData\Local\Temp\ccHPHXRZ.s:255    .rodata.ps2_test.str1.4:0000000000000000 .LC0
C:\Users\rana\AppData\Local\Temp\ccHPHXRZ.s:227    .rodata.draw_point_test.str1.4:0000000000000000 .LC1
C:\Users\rana\AppData\Local\Temp\ccHPHXRZ.s:93     .text.rgb_test:000000000000001a .L5
C:\Users\rana\AppData\Local\Temp\ccHPHXRZ.s:239    .rodata.main.str1.4:0000000000000000 .LC2
C:\Users\rana\AppData\Local\Temp\ccHPHXRZ.s:231    .rodata.main.cst8:0000000000000000 .LC4
C:\Users\rana\AppData\Local\Temp\ccHPHXRZ.s:242    .rodata.main.str1.4:000000000000001c .LC3
C:\Users\rana\AppData\Local\Temp\ccHPHXRZ.s:245    .rodata.main.str1.4:0000000000000024 .LC5
C:\Users\rana\AppData\Local\Temp\ccHPHXRZ.s:234    .rodata.main.cst8:0000000000000008 .LC6
C:\Users\rana\AppData\Local\Temp\ccHPHXRZ.s:248    .rodata.main.str1.4:0000000000000044 .LC7
C:\Users\rana\AppData\Local\Temp\ccHPHXRZ.s:251    .rodata.main.str1.4:0000000000000078 .LC8
C:\Users\rana\AppData\Local\Temp\ccHPHXRZ.s:3342   .debug_abbrev:0000000000000000 .Ldebug_abbrev0
C:\Users\rana\AppData\Local\Temp\ccHPHXRZ.s:4316   .debug_str:00000000000002dc .LASF144
C:\Users\rana\AppData\Local\Temp\ccHPHXRZ.s:4282   .debug_str:000000000000022b .LASF145
C:\Users\rana\AppData\Local\Temp\ccHPHXRZ.s:4180   .debug_str:000000000000000c .LASF146
C:\Users\rana\AppData\Local\Temp\ccHPHXRZ.s:4164   .debug_ranges:0000000000000000 .Ldebug_ranges0
C:\Users\rana\AppData\Local\Temp\ccHPHXRZ.s:4176   .debug_line:0000000000000000 .Ldebug_line0
C:\Users\rana\AppData\Local\Temp\ccHPHXRZ.s:4222   .debug_str:000000000000011f .LASF0
C:\Users\rana\AppData\Local\Temp\ccHPHXRZ.s:4358   .debug_str:000000000000043b .LASF1
C:\Users\rana\AppData\Local\Temp\ccHPHXRZ.s:4366   .debug_str:0000000000000467 .LASF2
C:\Users\rana\AppData\Local\Temp\ccHPHXRZ.s:4302   .debug_str:0000000000000290 .LASF3
C:\Users\rana\AppData\Local\Temp\ccHPHXRZ.s:4238   .debug_str:0000000000000164 .LASF4
C:\Users\rana\AppData\Local\Temp\ccHPHXRZ.s:4264   .debug_str:00000000000001dd .LASF9
C:\Users\rana\AppData\Local\Temp\ccHPHXRZ.s:4292   .debug_str:000000000000025d .LASF5
C:\Users\rana\AppData\Local\Temp\ccHPHXRZ.s:4220   .debug_str:0000000000000111 .LASF6
C:\Users\rana\AppData\Local\Temp\ccHPHXRZ.s:4200   .debug_str:0000000000000094 .LASF7
C:\Users\rana\AppData\Local\Temp\ccHPHXRZ.s:4284   .debug_str:0000000000000239 .LASF8
C:\Users\rana\AppData\Local\Temp\ccHPHXRZ.s:4404   .debug_str:0000000000000515 .LASF10
C:\Users\rana\AppData\Local\Temp\ccHPHXRZ.s:4334   .debug_str:00000000000003bc .LASF11
C:\Users\rana\AppData\Local\Temp\ccHPHXRZ.s:4354   .debug_str:000000000000041c .LASF12
C:\Users\rana\AppData\Local\Temp\ccHPHXRZ.s:4348   .debug_str:0000000000000405 .LASF13
C:\Users\rana\AppData\Local\Temp\ccHPHXRZ.s:4410   .debug_str:0000000000000530 .LASF14
C:\Users\rana\AppData\Local\Temp\ccHPHXRZ.s:4452   .debug_str:00000000000005ff .LASF15
C:\Users\rana\AppData\Local\Temp\ccHPHXRZ.s:4318   .debug_str:000000000000037e .LASF16
C:\Users\rana\AppData\Local\Temp\ccHPHXRZ.s:4314   .debug_str:00000000000002d6 .LASF17
C:\Users\rana\AppData\Local\Temp\ccHPHXRZ.s:4286   .debug_str:0000000000000246 .LASF18
C:\Users\rana\AppData\Local\Temp\ccHPHXRZ.s:4402   .debug_str:000000000000050d .LASF19
C:\Users\rana\AppData\Local\Temp\ccHPHXRZ.s:4426   .debug_str:0000000000000570 .LASF20
C:\Users\rana\AppData\Local\Temp\ccHPHXRZ.s:4376   .debug_str:000000000000048f .LASF21
C:\Users\rana\AppData\Local\Temp\ccHPHXRZ.s:4268   .debug_str:00000000000001ee .LASF22
C:\Users\rana\AppData\Local\Temp\ccHPHXRZ.s:4414   .debug_str:000000000000053f .LASF23
C:\Users\rana\AppData\Local\Temp\ccHPHXRZ.s:4432   .debug_str:0000000000000586 .LASF24
C:\Users\rana\AppData\Local\Temp\ccHPHXRZ.s:4272   .debug_str:00000000000001ff .LASF29
C:\Users\rana\AppData\Local\Temp\ccHPHXRZ.s:4422   .debug_str:000000000000055d .LASF25
C:\Users\rana\AppData\Local\Temp\ccHPHXRZ.s:4396   .debug_str:00000000000004f8 .LASF26
C:\Users\rana\AppData\Local\Temp\ccHPHXRZ.s:4266   .debug_str:00000000000001e8 .LASF27
C:\Users\rana\AppData\Local\Temp\ccHPHXRZ.s:4444   .debug_str:00000000000005da .LASF28
C:\Users\rana\AppData\Local\Temp\ccHPHXRZ.s:4280   .debug_str:0000000000000226 .LASF30
C:\Users\rana\AppData\Local\Temp\ccHPHXRZ.s:4216   .debug_str:00000000000000ff .LASF31
C:\Users\rana\AppData\Local\Temp\ccHPHXRZ.s:4416   .debug_str:0000000000000544 .LASF32
C:\Users\rana\AppData\Local\Temp\ccHPHXRZ.s:4228   .debug_str:0000000000000137 .LASF33
C:\Users\rana\AppData\Local\Temp\ccHPHXRZ.s:4478   .debug_str:000000000000066e .LASF34
C:\Users\rana\AppData\Local\Temp\ccHPHXRZ.s:4340   .debug_str:00000000000003df .LASF35
C:\Users\rana\AppData\Local\Temp\ccHPHXRZ.s:4330   .debug_str:00000000000003a9 .LASF36
C:\Users\rana\AppData\Local\Temp\ccHPHXRZ.s:4446   .debug_str:00000000000005df .LASF37
C:\Users\rana\AppData\Local\Temp\ccHPHXRZ.s:4368   .debug_str:0000000000000471 .LASF38
C:\Users\rana\AppData\Local\Temp\ccHPHXRZ.s:4464   .debug_str:0000000000000630 .LASF39
C:\Users\rana\AppData\Local\Temp\ccHPHXRZ.s:4232   .debug_str:0000000000000146 .LASF40
C:\Users\rana\AppData\Local\Temp\ccHPHXRZ.s:4260   .debug_str:00000000000001d0 .LASF41
C:\Users\rana\AppData\Local\Temp\ccHPHXRZ.s:4178   .debug_str:0000000000000000 .LASF42
C:\Users\rana\AppData\Local\Temp\ccHPHXRZ.s:4428   .debug_str:0000000000000578 .LASF43
C:\Users\rana\AppData\Local\Temp\ccHPHXRZ.s:4242   .debug_str:0000000000000174 .LASF44
C:\Users\rana\AppData\Local\Temp\ccHPHXRZ.s:4342   .debug_str:00000000000003e8 .LASF45
C:\Users\rana\AppData\Local\Temp\ccHPHXRZ.s:4388   .debug_str:00000000000004c8 .LASF46
C:\Users\rana\AppData\Local\Temp\ccHPHXRZ.s:4262   .debug_str:00000000000001d8 .LASF47
C:\Users\rana\AppData\Local\Temp\ccHPHXRZ.s:4370   .debug_str:000000000000047b .LASF48
C:\Users\rana\AppData\Local\Temp\ccHPHXRZ.s:4226   .debug_str:0000000000000131 .LASF49
C:\Users\rana\AppData\Local\Temp\ccHPHXRZ.s:4186   .debug_str:000000000000004b .LASF50
C:\Users\rana\AppData\Local\Temp\ccHPHXRZ.s:4378   .debug_str:000000000000049a .LASF51
C:\Users\rana\AppData\Local\Temp\ccHPHXRZ.s:4240   .debug_str:000000000000016d .LASF52
C:\Users\rana\AppData\Local\Temp\ccHPHXRZ.s:4294   .debug_str:000000000000026f .LASF53
C:\Users\rana\AppData\Local\Temp\ccHPHXRZ.s:4204   .debug_str:00000000000000ba .LASF54
C:\Users\rana\AppData\Local\Temp\ccHPHXRZ.s:4234   .debug_str:0000000000000154 .LASF55
C:\Users\rana\AppData\Local\Temp\ccHPHXRZ.s:4276   .debug_str:0000000000000216 .LASF56
C:\Users\rana\AppData\Local\Temp\ccHPHXRZ.s:4328   .debug_str:00000000000003a2 .LASF57
C:\Users\rana\AppData\Local\Temp\ccHPHXRZ.s:4406   .debug_str:000000000000051e .LASF58
C:\Users\rana\AppData\Local\Temp\ccHPHXRZ.s:4468   .debug_str:000000000000064a .LASF59
C:\Users\rana\AppData\Local\Temp\ccHPHXRZ.s:4224   .debug_str:000000000000012b .LASF60
C:\Users\rana\AppData\Local\Temp\ccHPHXRZ.s:4460   .debug_str:0000000000000622 .LASF61
C:\Users\rana\AppData\Local\Temp\ccHPHXRZ.s:4248   .debug_str:0000000000000191 .LASF62
C:\Users\rana\AppData\Local\Temp\ccHPHXRZ.s:4254   .debug_str:00000000000001a9 .LASF63
C:\Users\rana\AppData\Local\Temp\ccHPHXRZ.s:4194   .debug_str:000000000000006e .LASF64
C:\Users\rana\AppData\Local\Temp\ccHPHXRZ.s:4320   .debug_str:0000000000000385 .LASF65
C:\Users\rana\AppData\Local\Temp\ccHPHXRZ.s:4380   .debug_str:00000000000004a2 .LASF66
C:\Users\rana\AppData\Local\Temp\ccHPHXRZ.s:4324   .debug_str:0000000000000394 .LASF67
C:\Users\rana\AppData\Local\Temp\ccHPHXRZ.s:4398   .debug_str:0000000000000500 .LASF68
C:\Users\rana\AppData\Local\Temp\ccHPHXRZ.s:4412   .debug_str:0000000000000538 .LASF69
C:\Users\rana\AppData\Local\Temp\ccHPHXRZ.s:4244   .debug_str:000000000000017c .LASF70
C:\Users\rana\AppData\Local\Temp\ccHPHXRZ.s:4288   .debug_str:000000000000024d .LASF71
C:\Users\rana\AppData\Local\Temp\ccHPHXRZ.s:4270   .debug_str:00000000000001f7 .LASF72
C:\Users\rana\AppData\Local\Temp\ccHPHXRZ.s:4386   .debug_str:00000000000004c3 .LASF73
C:\Users\rana\AppData\Local\Temp\ccHPHXRZ.s:4190   .debug_str:0000000000000059 .LASF74
C:\Users\rana\AppData\Local\Temp\ccHPHXRZ.s:4394   .debug_str:00000000000004df .LASF75
C:\Users\rana\AppData\Local\Temp\ccHPHXRZ.s:4390   .debug_str:00000000000004cd .LASF76
C:\Users\rana\AppData\Local\Temp\ccHPHXRZ.s:4346   .debug_str:00000000000003fa .LASF77
C:\Users\rana\AppData\Local\Temp\ccHPHXRZ.s:4392   .debug_str:00000000000004d5 .LASF78
C:\Users\rana\AppData\Local\Temp\ccHPHXRZ.s:4312   .debug_str:00000000000002ce .LASF79
C:\Users\rana\AppData\Local\Temp\ccHPHXRZ.s:4278   .debug_str:000000000000021c .LASF80
C:\Users\rana\AppData\Local\Temp\ccHPHXRZ.s:4474   .debug_str:0000000000000664 .LASF81
C:\Users\rana\AppData\Local\Temp\ccHPHXRZ.s:4352   .debug_str:0000000000000412 .LASF82
C:\Users\rana\AppData\Local\Temp\ccHPHXRZ.s:4290   .debug_str:0000000000000255 .LASF83
C:\Users\rana\AppData\Local\Temp\ccHPHXRZ.s:4252   .debug_str:00000000000001a1 .LASF84
C:\Users\rana\AppData\Local\Temp\ccHPHXRZ.s:4362   .debug_str:0000000000000459 .LASF85
C:\Users\rana\AppData\Local\Temp\ccHPHXRZ.s:4304   .debug_str:00000000000002a3 .LASF86
C:\Users\rana\AppData\Local\Temp\ccHPHXRZ.s:4456   .debug_str:0000000000000612 .LASF87
C:\Users\rana\AppData\Local\Temp\ccHPHXRZ.s:4236   .debug_str:000000000000015c .LASF88
C:\Users\rana\AppData\Local\Temp\ccHPHXRZ.s:4230   .debug_str:0000000000000141 .LASF89
C:\Users\rana\AppData\Local\Temp\ccHPHXRZ.s:4374   .debug_str:0000000000000488 .LASF90
C:\Users\rana\AppData\Local\Temp\ccHPHXRZ.s:4448   .debug_str:00000000000005e9 .LASF91
C:\Users\rana\AppData\Local\Temp\ccHPHXRZ.s:4298   .debug_str:000000000000027f .LASF92
C:\Users\rana\AppData\Local\Temp\ccHPHXRZ.s:4372   .debug_str:0000000000000482 .LASF93
C:\Users\rana\AppData\Local\Temp\ccHPHXRZ.s:4188   .debug_str:0000000000000051 .LASF94
C:\Users\rana\AppData\Local\Temp\ccHPHXRZ.s:4400   .debug_str:0000000000000507 .LASF95
C:\Users\rana\AppData\Local\Temp\ccHPHXRZ.s:4420   .debug_str:0000000000000557 .LASF96
C:\Users\rana\AppData\Local\Temp\ccHPHXRZ.s:4430   .debug_str:0000000000000581 .LASF97
C:\Users\rana\AppData\Local\Temp\ccHPHXRZ.s:4442   .debug_str:00000000000005cd .LASF98
C:\Users\rana\AppData\Local\Temp\ccHPHXRZ.s:4424   .debug_str:0000000000000563 .LASF99
C:\Users\rana\AppData\Local\Temp\ccHPHXRZ.s:4310   .debug_str:00000000000002c1 .LASF100
C:\Users\rana\AppData\Local\Temp\ccHPHXRZ.s:4466   .debug_str:000000000000063b .LASF101
C:\Users\rana\AppData\Local\Temp\ccHPHXRZ.s:4274   .debug_str:0000000000000207 .LASF102
C:\Users\rana\AppData\Local\Temp\ccHPHXRZ.s:4382   .debug_str:00000000000004ab .LASF103
C:\Users\rana\AppData\Local\Temp\ccHPHXRZ.s:4470   .debug_str:0000000000000651 .LASF104
C:\Users\rana\AppData\Local\Temp\ccHPHXRZ.s:4384   .debug_str:00000000000004b6 .LASF105
C:\Users\rana\AppData\Local\Temp\ccHPHXRZ.s:4472   .debug_str:0000000000000656 .LASF106
C:\Users\rana\AppData\Local\Temp\ccHPHXRZ.s:4214   .debug_str:00000000000000f1 .LASF107
C:\Users\rana\AppData\Local\Temp\ccHPHXRZ.s:4454   .debug_str:0000000000000608 .LASF108
C:\Users\rana\AppData\Local\Temp\ccHPHXRZ.s:4308   .debug_str:00000000000002b5 .LASF109
C:\Users\rana\AppData\Local\Temp\ccHPHXRZ.s:4434   .debug_str:000000000000058e .LASF110
C:\Users\rana\AppData\Local\Temp\ccHPHXRZ.s:4258   .debug_str:00000000000001c2 .LASF111
C:\Users\rana\AppData\Local\Temp\ccHPHXRZ.s:4212   .debug_str:00000000000000e2 .LASF112
C:\Users\rana\AppData\Local\Temp\ccHPHXRZ.s:4256   .debug_str:00000000000001b1 .LASF113
C:\Users\rana\AppData\Local\Temp\ccHPHXRZ.s:4196   .debug_str:0000000000000074 .LASF114
C:\Users\rana\AppData\Local\Temp\ccHPHXRZ.s:4198   .debug_str:0000000000000083 .LASF115
C:\Users\rana\AppData\Local\Temp\ccHPHXRZ.s:4364   .debug_str:000000000000045e .LASF116
C:\Users\rana\AppData\Local\Temp\ccHPHXRZ.s:4336   .debug_str:00000000000003c8 .LASF117
C:\Users\rana\AppData\Local\Temp\ccHPHXRZ.s:4332   .debug_str:00000000000003b3 .LASF118
C:\Users\rana\AppData\Local\Temp\ccHPHXRZ.s:4462   .debug_str:0000000000000628 .LASF119
C:\Users\rana\AppData\Local\Temp\ccHPHXRZ.s:4208   .debug_str:00000000000000c8 .LASF147
C:\Users\rana\AppData\Local\Temp\ccHPHXRZ.s:4408   .debug_str:0000000000000524 .LASF120
C:\Users\rana\AppData\Local\Temp\ccHPHXRZ.s:4438   .debug_str:00000000000005ac .LASF121
C:\Users\rana\AppData\Local\Temp\ccHPHXRZ.s:4344   .debug_str:00000000000003f0 .LASF122
C:\Users\rana\AppData\Local\Temp\ccHPHXRZ.s:4356   .debug_str:000000000000042e .LASF123
C:\Users\rana\AppData\Local\Temp\ccHPHXRZ.s:4458   .debug_str:000000000000061c .LASF124
C:\Users\rana\AppData\Local\Temp\ccHPHXRZ.s:4250   .debug_str:000000000000019a .LASF125
C:\Users\rana\AppData\Local\Temp\ccHPHXRZ.s:4350   .debug_str:000000000000040c .LASF126
C:\Users\rana\AppData\Local\Temp\ccHPHXRZ.s:4436   .debug_str:000000000000059b .LASF148
C:\Users\rana\AppData\Local\Temp\ccHPHXRZ.s:4440   .debug_str:00000000000005bf .LASF127
C:\Users\rana\AppData\Local\Temp\ccHPHXRZ.s:4246   .debug_str:0000000000000183 .LASF128
C:\Users\rana\AppData\Local\Temp\ccHPHXRZ.s:4210   .debug_str:00000000000000d3 .LASF129
C:\Users\rana\AppData\Local\Temp\ccHPHXRZ.s:4202   .debug_str:00000000000000ab .LASF130
C:\Users\rana\AppData\Local\Temp\ccHPHXRZ.s:4450   .debug_str:00000000000005ef .LASF131
C:\Users\rana\AppData\Local\Temp\ccHPHXRZ.s:4300   .debug_str:0000000000000286 .LASF132
C:\Users\rana\AppData\Local\Temp\ccHPHXRZ.s:4218   .debug_str:0000000000000108 .LASF133
C:\Users\rana\AppData\Local\Temp\ccHPHXRZ.s:4476   .debug_str:0000000000000669 .LASF149
C:\Users\rana\AppData\Local\Temp\ccHPHXRZ.s:162    .text.startup.main:0000000000000000 .LFB4
C:\Users\rana\AppData\Local\Temp\ccHPHXRZ.s:221    .text.startup.main:000000000000008c .LFE4
C:\Users\rana\AppData\Local\Temp\ccHPHXRZ.s:182    .text.startup.main:000000000000001e .LVL17
C:\Users\rana\AppData\Local\Temp\ccHPHXRZ.s:194    .text.startup.main:000000000000004a .LVL18
C:\Users\rana\AppData\Local\Temp\ccHPHXRZ.s:204    .text.startup.main:000000000000006c .LVL19
C:\Users\rana\AppData\Local\Temp\ccHPHXRZ.s:209    .text.startup.main:000000000000007c .LVL20
C:\Users\rana\AppData\Local\Temp\ccHPHXRZ.s:212    .text.startup.main:0000000000000084 .LVL21
C:\Users\rana\AppData\Local\Temp\ccHPHXRZ.s:4322   .debug_str:000000000000038b .LASF138
C:\Users\rana\AppData\Local\Temp\ccHPHXRZ.s:71     .text.rgb_test:0000000000000000 .LFB3
C:\Users\rana\AppData\Local\Temp\ccHPHXRZ.s:155    .text.rgb_test:000000000000008e .LFE3
C:\Users\rana\AppData\Local\Temp\ccHPHXRZ.s:4206   .debug_str:00000000000000c3 .LASF134
C:\Users\rana\AppData\Local\Temp\ccHPHXRZ.s:4326   .debug_str:000000000000039c .LASF135
C:\Users\rana\AppData\Local\Temp\ccHPHXRZ.s:4072   .debug_loc:0000000000000000 .LLST4
C:\Users\rana\AppData\Local\Temp\ccHPHXRZ.s:126    .text.rgb_test:000000000000005a .LVL13
C:\Users\rana\AppData\Local\Temp\ccHPHXRZ.s:132    .text.rgb_test:000000000000006a .LVL14
C:\Users\rana\AppData\Local\Temp\ccHPHXRZ.s:138    .text.rgb_test:000000000000007a .LVL15
C:\Users\rana\AppData\Local\Temp\ccHPHXRZ.s:153    .text.rgb_test:000000000000008e .LVL16
C:\Users\rana\AppData\Local\Temp\ccHPHXRZ.s:4338   .debug_str:00000000000003cf .LASF150
C:\Users\rana\AppData\Local\Temp\ccHPHXRZ.s:32     .text.draw_point_test:0000000000000000 .LFB2
C:\Users\rana\AppData\Local\Temp\ccHPHXRZ.s:64     .text.draw_point_test:0000000000000028 .LFE2
C:\Users\rana\AppData\Local\Temp\ccHPHXRZ.s:4084   .debug_loc:000000000000001f .LLST1
C:\Users\rana\AppData\Local\Temp\ccHPHXRZ.s:4098   .debug_loc:0000000000000040 .LLST2
C:\Users\rana\AppData\Local\Temp\ccHPHXRZ.s:4192   .debug_str:0000000000000064 .LASF136
C:\Users\rana\AppData\Local\Temp\ccHPHXRZ.s:4112   .debug_loc:0000000000000061 .LLST3
C:\Users\rana\AppData\Local\Temp\ccHPHXRZ.s:4296   .debug_str:0000000000000275 .LASF137
C:\Users\rana\AppData\Local\Temp\ccHPHXRZ.s:62     .text.draw_point_test:0000000000000028 .LVL8
C:\Users\rana\AppData\Local\Temp\ccHPHXRZ.s:4306   .debug_str:00000000000002ac .LASF139
C:\Users\rana\AppData\Local\Temp\ccHPHXRZ.s:11     .text.ps2_test:0000000000000000 .LFB1
C:\Users\rana\AppData\Local\Temp\ccHPHXRZ.s:25     .text.ps2_test:0000000000000016 .LFE1
C:\Users\rana\AppData\Local\Temp\ccHPHXRZ.s:4184   .debug_str:0000000000000044 .LASF140
C:\Users\rana\AppData\Local\Temp\ccHPHXRZ.s:4138   .debug_loc:000000000000008e .LLST0
C:\Users\rana\AppData\Local\Temp\ccHPHXRZ.s:23     .text.ps2_test:0000000000000016 .LVL1
C:\Users\rana\AppData\Local\Temp\ccHPHXRZ.s:4182   .debug_str:000000000000003d .LASF141
C:\Users\rana\AppData\Local\Temp\ccHPHXRZ.s:4418   .debug_str:000000000000054d .LASF142
C:\Users\rana\AppData\Local\Temp\ccHPHXRZ.s:4360   .debug_str:0000000000000449 .LASF143
C:\Users\rana\AppData\Local\Temp\ccHPHXRZ.s:74     .text.rgb_test:0000000000000000 .LVL9
C:\Users\rana\AppData\Local\Temp\ccHPHXRZ.s:92     .text.rgb_test:000000000000001a .LVL10
C:\Users\rana\AppData\Local\Temp\ccHPHXRZ.s:106    .text.rgb_test:000000000000002c .LVL12
C:\Users\rana\AppData\Local\Temp\ccHPHXRZ.s:35     .text.draw_point_test:0000000000000000 .LVL2
C:\Users\rana\AppData\Local\Temp\ccHPHXRZ.s:53     .text.draw_point_test:0000000000000018 .LVL5
C:\Users\rana\AppData\Local\Temp\ccHPHXRZ.s:39     .text.draw_point_test:0000000000000006 .LVL3
C:\Users\rana\AppData\Local\Temp\ccHPHXRZ.s:42     .text.draw_point_test:000000000000000a .LVL4
C:\Users\rana\AppData\Local\Temp\ccHPHXRZ.s:59     .text.draw_point_test:000000000000001c .LVL7
C:\Users\rana\AppData\Local\Temp\ccHPHXRZ.s:18     .text.ps2_test:0000000000000006 .LVL0
C:\Users\rana\AppData\Local\Temp\ccHPHXRZ.s:284    .debug_info:0000000000000000 .Ldebug_info0

UNDEFINED SYMBOLS
printk
hdmi_draw_point
GameStart
