   1              		.file	"main.c"
   2              		.option nopic
   3              		.text
   4              	.Ltext0:
   5              		.cfi_sections	.debug_frame
   6              		.section	.text.delay,"ax",@progbits
   7              		.align	1
   8              		.globl	delay
  10              	delay:
  11              	.LFB1:
  12              		.file 1 "../src/main.c"
   1:../src/main.c **** #include <stdint.h>
   2:../src/main.c **** #include <stdlib.h>
   3:../src/main.c **** #include "sys.h"
   4:../src/main.c **** 
   5:../src/main.c **** int uart_data = 0;
   6:../src/main.c **** int delaycnt = 0;
   7:../src/main.c **** void delay(){
  13              		.loc 1 7 0
  14              		.cfi_startproc
  15              	.LVL0:
  16              		.loc 1 7 0
  17 0000 9307803E 		li	a5,1000
   8:../src/main.c **** 	u16 cnt=1000;
   9:../src/main.c **** 	while(cnt--){
  10:../src/main.c **** 		led_address=0;
  18              		.loc 1 10 0
  19 0004 4167     		li	a4,65536
  20              	.LVL1:
  21              	.L2:
  22 0006 FD17     		addi	a5,a5,-1
  23              	.LVL2:
  24 0008 C207     		slli	a5,a5,16
  25 000a 23200702 		sw	zero,32(a4)
  26 000e C183     		srli	a5,a5,16
   9:../src/main.c **** 		led_address=0;
  27              		.loc 1 9 0
  28 0010 FDFB     		bnez	a5,.L2
  11:../src/main.c **** 	}
  12:../src/main.c **** }
  29              		.loc 1 12 0
  30 0012 8280     		ret
  31              		.cfi_endproc
  32              	.LFE1:
  34              		.section	.text.startup.main,"ax",@progbits
  35              		.align	1
  36              		.globl	main
  38              	main:
  39              	.LFB2:
  13:../src/main.c **** int main(void)
  14:../src/main.c **** {
  40              		.loc 1 14 0
  41              		.cfi_startproc
  42 0000 7971     		addi	sp,sp,-48
  43              		.cfi_def_cfa_offset 48
  15:../src/main.c **** 	reg_uart_clkdiv = BAUND_9600;
  44              		.loc 1 15 0
  45 0002 8567     		li	a5,4096
  14:../src/main.c **** 	reg_uart_clkdiv = BAUND_9600;
  46              		.loc 1 14 0
  47 0004 06D6     		sw	ra,44(sp)
  48 0006 26D2     		sw	s1,36(sp)
  49 0008 4AD0     		sw	s2,32(sp)
  50 000a 4ECE     		sw	s3,28(sp)
  51 000c 52CC     		sw	s4,24(sp)
  52 000e 5AC8     		sw	s6,16(sp)
  53 0010 5EC6     		sw	s7,12(sp)
  54 0012 62C4     		sw	s8,8(sp)
  55 0014 66C2     		sw	s9,4(sp)
  56              		.loc 1 15 0
  57 0016 4167     		li	a4,65536
  58 0018 93878745 		addi	a5,a5,1112
  14:../src/main.c **** 	reg_uart_clkdiv = BAUND_9600;
  59              		.loc 1 14 0
  60 001c 22D4     		sw	s0,40(sp)
  61 001e 56CA     		sw	s5,20(sp)
  62              		.cfi_offset 1, -4
  63              		.cfi_offset 9, -12
  64              		.cfi_offset 18, -16
  65              		.cfi_offset 19, -20
  66              		.cfi_offset 20, -24
  67              		.cfi_offset 22, -32
  68              		.cfi_offset 23, -36
  69              		.cfi_offset 24, -40
  70              		.cfi_offset 25, -44
  71              		.cfi_offset 8, -8
  72              		.cfi_offset 21, -28
  16:../src/main.c **** 	printk("Hello Risc-V Pango 2019\n");
  73              		.loc 1 16 0
  74 0020 37050000 		lui	a0,%hi(.LC0)
  15:../src/main.c **** 	reg_uart_clkdiv = BAUND_9600;
  75              		.loc 1 15 0
  76 0024 1CC3     		sw	a5,0(a4)
  77              		.loc 1 16 0
  78 0026 13050500 		addi	a0,a0,%lo(.LC0)
  79 002a 97000000 		call	printk
  79      E7800000 
  80              	.LVL3:
  17:../src/main.c **** 	printk("test data = %d,%f,%s,0x = %x\n", 100,33.456,"2019",100);
  81              		.loc 1 17 0
  82 0032 B7070000 		lui	a5,%hi(.LC2)
  83 0036 03A60700 		lw	a2,%lo(.LC2)(a5)
  84 003a 83A64700 		lw	a3,%lo(.LC2+4)(a5)
  85 003e 37070000 		lui	a4,%hi(.LC1)
  86 0042 37050000 		lui	a0,%hi(.LC3)
  87 0046 93074006 		li	a5,100
  88 004a 13070700 		addi	a4,a4,%lo(.LC1)
  89 004e 93054006 		li	a1,100
  90 0052 13050500 		addi	a0,a0,%lo(.LC3)
  91 0056 97000000 		call	printk
  91      E7800000 
  92              	.LVL4:
  18:../src/main.c **** 	printk("simple compute : 50*10 = %d,100/3 = %f,100%3 = %d\n", 50*10,(double)100/3,(int)100%3);
  93              		.loc 1 18 0
  94 005e B7070000 		lui	a5,%hi(.LC4)
  95 0062 03A60700 		lw	a2,%lo(.LC4)(a5)
  96 0066 83A64700 		lw	a3,%lo(.LC4+4)(a5)
  97 006a 37050000 		lui	a0,%hi(.LC5)
  98 006e 0547     		li	a4,1
  99 0070 9305401F 		li	a1,500
 100 0074 13050500 		addi	a0,a0,%lo(.LC5)
 101 0078 97000000 		call	printk
 101      E7800000 
 102              	.LVL5:
  19:../src/main.c **** 	printk("test\n");
 103              		.loc 1 19 0
 104 0080 37050000 		lui	a0,%hi(.LC6)
 105 0084 13050500 		addi	a0,a0,%lo(.LC6)
 106 0088 97000000 		call	printk
 106      E7800000 
 107              	.LVL6:
  20:../src/main.c **** 	hdmi_draw_clear(255);
 108              		.loc 1 20 0
 109 0090 1305F00F 		li	a0,255
 110 0094 97000000 		call	hdmi_draw_clear
 110      E7800000 
 111              	.LVL7:
  21:../src/main.c **** 	hdmi_draw_string_back(60,120,"Snake Go!",ORANGE,255);
 112              		.loc 1 21 0
 113 009c B70C0000 		lui	s9,%hi(.LC7)
 114 00a0 1307F00F 		li	a4,255
 115 00a4 93065006 		li	a3,101
 116 00a8 13860C00 		addi	a2,s9,%lo(.LC7)
 117 00ac 93058007 		li	a1,120
 118 00b0 1305C003 		li	a0,60
 119 00b4 97000000 		call	hdmi_draw_string_back
 119      E7800000 
 120              	.LVL8:
  22:../src/main.c **** 	hdmi_draw_string_back(60,136,"Tetris Go!",ORANGE,255);
 121              		.loc 1 22 0
 122 00bc 370C0000 		lui	s8,%hi(.LC8)
 123 00c0 1307F00F 		li	a4,255
 124 00c4 93065006 		li	a3,101
 125 00c8 13060C00 		addi	a2,s8,%lo(.LC8)
 126 00cc 93058008 		li	a1,136
 127 00d0 1305C003 		li	a0,60
 128 00d4 97000000 		call	hdmi_draw_string_back
 128      E7800000 
 129              	.LVL9:
  23:../src/main.c **** 	hdmi_drawtriangle(49,120,PURPLE,255);
 130              		.loc 1 23 0
 131 00dc 9306F00F 		li	a3,255
 132 00e0 13069006 		li	a2,105
 133 00e4 93058007 		li	a1,120
 134 00e8 13051003 		li	a0,49
 135 00ec 97000000 		call	hdmi_drawtriangle
 135      E7800000 
 136              	.LVL10:
  24:../src/main.c **** 
  25:../src/main.c **** 	u8 Oldkey,Newkey =0;
  26:../src/main.c **** 	u16 Oldy,Newy =120;
  27:../src/main.c **** 	u8 choose_val=0;
 137              		.loc 1 27 0
 138 00f4 014A     		li	s4,0
  26:../src/main.c **** 	u8 choose_val=0;
 139              		.loc 1 26 0
 140 00f6 93048007 		li	s1,120
  25:../src/main.c **** 	u16 Oldy,Newy =120;
 141              		.loc 1 25 0
 142 00fa 8147     		li	a5,0
  28:../src/main.c **** 	while(1){
  29:../src/main.c **** 		Oldkey=Newkey;
  30:../src/main.c **** 		Newkey = *ps2ctrl_point;
 143              		.loc 1 30 0
 144 00fc C169     		li	s3,65536
  31:../src/main.c **** 		if(Newkey != Oldkey){
  32:../src/main.c **** 			if(Newkey == 0b00010000){//上
 145              		.loc 1 32 0
 146 00fe 414B     		li	s6,16
  33:../src/main.c **** 				if(choose_val!=0){
  34:../src/main.c **** 					Oldy = Newy;
  35:../src/main.c **** 					Newy = Newy-16;
  36:../src/main.c **** 					choose_val--;
  37:../src/main.c **** 					}
  38:../src/main.c **** 				}
  39:../src/main.c **** 				else if(Newkey == 0b00100000){
 147              		.loc 1 39 0
 148 0100 930B0002 		li	s7,32
  40:../src/main.c **** 					if(choose_val<1){//修改1来增加选择项
  41:../src/main.c **** 						Oldy = Newy;
  42:../src/main.c **** 						Newy = Newy+16;
  43:../src/main.c **** 						choose_val++;
  44:../src/main.c **** 					}
  45:../src/main.c **** 				}
  46:../src/main.c **** 				hdmi_drawtriangle(49,Newy,PURPLE,255);
  47:../src/main.c **** 				hdmi_drawtriangle(49,Oldy,255,255);
  48:../src/main.c **** 			}
  49:../src/main.c **** 		if(Newkey == 0b00000010){
 149              		.loc 1 49 0
 150 0104 0949     		li	s2,2
 151              	.LVL11:
 152              	.L6:
  30:../src/main.c **** 		if(Newkey != Oldkey){
 153              		.loc 1 30 0
 154 0106 03A40910 		lw	s0,256(s3)
 155 010a 1374F40F 		andi	s0,s0,0xff
 156              	.LVL12:
  31:../src/main.c **** 			if(Newkey == 0b00010000){//上
 157              		.loc 1 31 0
 158 010e 638C8702 		beq	a5,s0,.L7
  32:../src/main.c **** 				if(choose_val!=0){
 159              		.loc 1 32 0
 160 0112 63086409 		beq	s0,s6,.L17
  39:../src/main.c **** 					if(choose_val<1){//修改1来增加选择项
 161              		.loc 1 39 0
 162 0116 6300740B 		beq	s0,s7,.L18
 163              	.LVL13:
 164              	.L9:
  46:../src/main.c **** 				hdmi_drawtriangle(49,Oldy,255,255);
 165              		.loc 1 46 0
 166 011a 9306F00F 		li	a3,255
 167 011e 13069006 		li	a2,105
 168 0122 A685     		mv	a1,s1
 169 0124 13051003 		li	a0,49
 170 0128 97000000 		call	hdmi_drawtriangle
 170      E7800000 
 171              	.LVL14:
  47:../src/main.c **** 			}
 172              		.loc 1 47 0
 173 0130 9306F00F 		li	a3,255
 174 0134 1306F00F 		li	a2,255
 175 0138 D685     		mv	a1,s5
 176 013a 13051003 		li	a0,49
 177 013e 97000000 		call	hdmi_drawtriangle
 177      E7800000 
 178              	.LVL15:
 179              	.L7:
 180              		.loc 1 49 0
 181 0146 63042401 		beq	s0,s2,.L19
  14:../src/main.c **** 	reg_uart_clkdiv = BAUND_9600;
 182              		.loc 1 14 0
 183 014a A287     		mv	a5,s0
 184 014c 6DBF     		j	.L6
 185              	.L19:
  50:../src/main.c **** 			if(choose_val == 0){
 186              		.loc 1 50 0
 187 014e 630E0A06 		beqz	s4,.L20
  51:../src/main.c **** 				GameStart();
  52:../src/main.c **** 				hdmi_draw_clear(255);
  53:../src/main.c **** 				hdmi_draw_string_back(60,120,"Snake Go!",ORANGE,255);
  54:../src/main.c **** 				hdmi_draw_string_back(60,136,"Tetris Go!",ORANGE,255);
  55:../src/main.c **** 			}else if(choose_val == 1){
  56:../src/main.c **** 				Tetris();
 188              		.loc 1 56 0
 189 0152 97000000 		call	Tetris
 189      E7800000 
 190              	.LVL16:
 191              	.L16:
  57:../src/main.c **** 				hdmi_draw_clear(255);
 192              		.loc 1 57 0
 193 015a 1305F00F 		li	a0,255
 194 015e 97000000 		call	hdmi_draw_clear
 194      E7800000 
 195              	.LVL17:
  58:../src/main.c **** 				hdmi_draw_string_back(60,120,"Snake Go!",ORANGE,255);
 196              		.loc 1 58 0
 197 0166 13860C00 		addi	a2,s9,%lo(.LC7)
 198 016a 1307F00F 		li	a4,255
 199 016e 93065006 		li	a3,101
 200 0172 93058007 		li	a1,120
 201 0176 1305C003 		li	a0,60
 202 017a 97000000 		call	hdmi_draw_string_back
 202      E7800000 
 203              	.LVL18:
  59:../src/main.c **** 				hdmi_draw_string_back(60,136,"Tetris Go!",ORANGE,255);
 204              		.loc 1 59 0
 205 0182 1307F00F 		li	a4,255
 206 0186 93065006 		li	a3,101
 207 018a 13060C00 		addi	a2,s8,%lo(.LC8)
 208 018e 93058008 		li	a1,136
 209 0192 1305C003 		li	a0,60
 210 0196 97000000 		call	hdmi_draw_string_back
 210      E7800000 
 211              	.LVL19:
  14:../src/main.c **** 	reg_uart_clkdiv = BAUND_9600;
 212              		.loc 1 14 0
 213 019e A287     		mv	a5,s0
 214 01a0 9DB7     		j	.L6
 215              	.LVL20:
 216              	.L17:
  33:../src/main.c **** 					Oldy = Newy;
 217              		.loc 1 33 0
 218 01a2 E30C0AF6 		beqz	s4,.L9
 219              	.LVL21:
  35:../src/main.c **** 					choose_val--;
 220              		.loc 1 35 0
 221 01a6 938704FF 		addi	a5,s1,-16
 222              	.LVL22:
  34:../src/main.c **** 					Newy = Newy-16;
 223              		.loc 1 34 0
 224 01aa A68A     		mv	s5,s1
  35:../src/main.c **** 					choose_val--;
 225              		.loc 1 35 0
 226 01ac 93940701 		slli	s1,a5,16
 227              	.LVL23:
  36:../src/main.c **** 					}
 228              		.loc 1 36 0
 229 01b0 014A     		li	s4,0
  35:../src/main.c **** 					choose_val--;
 230              		.loc 1 35 0
 231 01b2 C180     		srli	s1,s1,16
 232 01b4 9DB7     		j	.L9
 233              	.LVL24:
 234              	.L18:
  40:../src/main.c **** 						Oldy = Newy;
 235              		.loc 1 40 0
 236 01b6 E3120AF6 		bnez	s4,.L9
 237              	.LVL25:
  42:../src/main.c **** 						choose_val++;
 238              		.loc 1 42 0
 239 01ba 93870401 		addi	a5,s1,16
 240              	.LVL26:
  41:../src/main.c **** 						Newy = Newy+16;
 241              		.loc 1 41 0
 242 01be A68A     		mv	s5,s1
  42:../src/main.c **** 						choose_val++;
 243              		.loc 1 42 0
 244 01c0 93940701 		slli	s1,a5,16
 245              	.LVL27:
  43:../src/main.c **** 					}
 246              		.loc 1 43 0
 247 01c4 054A     		li	s4,1
  42:../src/main.c **** 						choose_val++;
 248              		.loc 1 42 0
 249 01c6 C180     		srli	s1,s1,16
 250 01c8 89BF     		j	.L9
 251              	.LVL28:
 252              	.L20:
  51:../src/main.c **** 				hdmi_draw_clear(255);
 253              		.loc 1 51 0
 254 01ca 97000000 		call	GameStart
 254      E7800000 
 255              	.LVL29:
 256 01d2 61B7     		j	.L16
 257              		.cfi_endproc
 258              	.LFE2:
 260              		.globl	delaycnt
 261              		.globl	uart_data
 262              		.section	.rodata.main.cst8,"aM",@progbits,8
 263              		.align	3
 264              	.LC2:
 265 0000 EE7C3F35 		.word	893353198
 266 0004 5EBA4040 		.word	1077983838
 267              	.LC4:
 268 0008 ABAAAAAA 		.word	-1431655765
 269 000c AAAA4040 		.word	1077979818
 270              		.section	.rodata.main.str1.4,"aMS",@progbits,1
 271              		.align	2
 272              	.LC0:
 273 0000 48656C6C 		.string	"Hello Risc-V Pango 2019\n"
 273      6F205269 
 273      73632D56 
 273      2050616E 
 273      676F2032 
 274 0019 000000   		.zero	3
 275              	.LC1:
 276 001c 32303139 		.string	"2019"
 276      00
 277 0021 000000   		.zero	3
 278              	.LC3:
 279 0024 74657374 		.string	"test data = %d,%f,%s,0x = %x\n"
 279      20646174 
 279      61203D20 
 279      25642C25 
 279      662C2573 
 280 0042 0000     		.zero	2
 281              	.LC5:
 282 0044 73696D70 		.string	"simple compute : 50*10 = %d,100/3 = %f,100%3 = %d\n"
 282      6C652063 
 282      6F6D7075 
 282      7465203A 
 282      2035302A 
 283 0077 00       		.zero	1
 284              	.LC6:
 285 0078 74657374 		.string	"test\n"
 285      0A00
 286 007e 0000     		.zero	2
 287              	.LC7:
 288 0080 536E616B 		.string	"Snake Go!"
 288      6520476F 
 288      2100
 289 008a 0000     		.zero	2
 290              	.LC8:
 291 008c 54657472 		.string	"Tetris Go!"
 291      69732047 
 291      6F2100
 292              		.section	.sbss.delaycnt,"aw",@nobits
 293              		.align	2
 296              	delaycnt:
 297 0000 00000000 		.zero	4
 298              		.section	.sbss.uart_data,"aw",@nobits
 299              		.align	2
 302              	uart_data:
 303 0000 00000000 		.zero	4
 304              		.text
 305              	.Letext0:
 306              		.file 2 "d:\\hummingbird\\hbird-eclipse_2018_09\\gnu mcu eclipse\\risc-v embedded gcc\\7.2.0-4-201
 307              		.file 3 "d:\\hummingbird\\hbird-eclipse_2018_09\\gnu mcu eclipse\\risc-v embedded gcc\\7.2.0-4-201
 308              		.file 4 "d:\\hummingbird\\hbird-eclipse_2018_09\\gnu mcu eclipse\\risc-v embedded gcc\\7.2.0-4-201
 309              		.file 5 "d:\\hummingbird\\hbird-eclipse_2018_09\\gnu mcu eclipse\\risc-v embedded gcc\\7.2.0-4-201
 310              		.file 6 "d:\\hummingbird\\hbird-eclipse_2018_09\\gnu mcu eclipse\\risc-v embedded gcc\\7.2.0-4-201
 311              		.file 7 "d:\\hummingbird\\hbird-eclipse_2018_09\\gnu mcu eclipse\\risc-v embedded gcc\\7.2.0-4-201
 312              		.file 8 "d:\\hummingbird\\hbird-eclipse_2018_09\\gnu mcu eclipse\\risc-v embedded gcc\\7.2.0-4-201
 313              		.file 9 "../src/bitmap.h"
 314              		.file 10 "d:\\hummingbird\\hbird-eclipse_2018_09\\gnu mcu eclipse\\risc-v embedded gcc\\7.2.0-4-20
 315              		.file 11 "../src/hdmidraw.h"
 316              		.file 12 "../src/uart.h"
 317              		.file 13 "../src/Tetris.h"
 318              		.file 14 "../src/newsnake.h"