   1              		.file	"snake.c"
   2              		.option nopic
   3              		.text
   4              	.Ltext0:
   5              		.cfi_sections	.debug_frame
   6              		.section	.text.HDMI_DrawPoint.part.0,"ax",@progbits
   7              		.align	1
   9              	HDMI_DrawPoint.part.0:
  10              	.LFB12:
  11              		.file 1 "../src/snake.c"
   1:../src/snake.c **** /*
   2:../src/snake.c ****  * snake.c
   3:../src/snake.c ****  *
   4:../src/snake.c ****  *  Created on: 2023年11月1日
   5:../src/snake.c ****  *      Author: rana
   6:../src/snake.c ****  */
   7:../src/snake.c **** #include "snake.h"
   8:../src/snake.c **** 
   9:../src/snake.c **** void HDMI_DrawPoint(u8 x,u8 y,u8 c)
  12              		.loc 1 9 0
  13              		.cfi_startproc
  14              	.LVL0:
  15              	.LBB54:
  16              	.LBB55:
  10:../src/snake.c **** {
  11:../src/snake.c **** 	if(c)
  12:../src/snake.c **** 		delay(DELAY_CUT,x,y);
  13:../src/snake.c ****   else
  14:../src/snake.c **** 	  clear_point(x,y);
  15:../src/snake.c **** }
  16:../src/snake.c **** 
  17:../src/snake.c **** void draw_point(int x,int y){
  18:../src/snake.c **** 	int addr_temp;
  19:../src/snake.c **** 	addr_temp = 40*y + x;
  20:../src/snake.c **** 	ram_address = addr_temp;
  21:../src/snake.c **** 	ram_data_address = POINT;
  22:../src/snake.c **** }
  23:../src/snake.c **** 
  24:../src/snake.c **** void clear_point(int x,int y){
  25:../src/snake.c **** 	int addr_temp;
  26:../src/snake.c **** 	int cut_temp = 20;
  27:../src/snake.c **** 	addr_temp = 40*y + x;
  28:../src/snake.c **** 	while(cut_temp--){
  29:../src/snake.c **** 		ram_address = addr_temp;
  30:../src/snake.c **** 		ram_data_address = 0;
  31:../src/snake.c **** 	}
  32:../src/snake.c **** }
  33:../src/snake.c **** void delay(long d,char x,char y){
  34:../src/snake.c **** 	int addr_temp;
  35:../src/snake.c **** 	addr_temp = 40*y + x;
  17              		.loc 1 35 0
  18 0000 E205     		slli	a1,a1,24
  19              	.LVL1:
  20 0002 E185     		srai	a1,a1,24
  21 0004 13972500 		slli	a4,a1,2
  22 0008 2E97     		add	a4,a4,a1
  23 000a 6205     		slli	a0,a0,24
  24              	.LVL2:
  25 000c 0E07     		slli	a4,a4,3
  26 000e 6185     		srai	a0,a0,24
  36:../src/snake.c **** 	long count = d;
  37:../src/snake.c **** 	while(count--){
  38:../src/snake.c **** 		ram_address = addr_temp;
  27              		.loc 1 38 0
  28 0010 A166     		li	a3,32768
  35:../src/snake.c **** 	long count = d;
  29              		.loc 1 35 0
  30 0012 B7470F00 		li	a5,999424
  31 0016 2A97     		add	a4,a4,a0
  32 0018 93870724 		addi	a5,a5,576
  39:../src/snake.c **** 		ram_data_address = POINT;
  33              		.loc 1 39 0
  34 001c 93850607 		addi	a1,a3,112
  35 0020 4D46     		li	a2,19
  36              	.LVL3:
  37              	.L2:
  38:../src/snake.c **** 		ram_data_address = POINT;
  38              		.loc 1 38 0
  39 0022 B8D2     		sw	a4,96(a3)
  40              		.loc 1 39 0
  41 0024 90C1     		sw	a2,0(a1)
  42              	.LVL4:
  43 0026 FD17     		addi	a5,a5,-1
  44              	.LVL5:
  37:../src/snake.c **** 		ram_address = addr_temp;
  45              		.loc 1 37 0
  46 0028 EDFF     		bnez	a5,.L2
  47              	.LBE55:
  48              	.LBE54:
  15:../src/snake.c **** 
  49              		.loc 1 15 0
  50 002a 8280     		ret
  51              		.cfi_endproc
  52              	.LFE12:
  54              		.section	.text.Snake_Move,"ax",@progbits
  55              		.align	1
  57              	Snake_Move:
  58              	.LFB10:
  40:../src/snake.c **** 	}
  41:../src/snake.c **** }
  42:../src/snake.c **** //0:R,2:G,3:A,4:M,5:E,6:O,7:V
  43:../src/snake.c **** void draw_c(int x,int y,char c){
  44:../src/snake.c **** 	int addr_temp;
  45:../src/snake.c **** 	int data_temp;
  46:../src/snake.c **** 	addr_temp = 40*y + x;
  47:../src/snake.c **** 	data_temp = (c<<4) | (c<<1)+1;
  48:../src/snake.c **** 	ram_address = addr_temp;
  49:../src/snake.c **** 	ram_data_address = data_temp;
  50:../src/snake.c **** }
  51:../src/snake.c **** void draw_gameover(){
  52:../src/snake.c **** 	draw_c(12,15,2);
  53:../src/snake.c **** 	draw_c(14,15,3);
  54:../src/snake.c **** 	draw_c(16,15,4);
  55:../src/snake.c **** 	draw_c(18,15,5);
  56:../src/snake.c **** 	draw_c(20,15,6);
  57:../src/snake.c **** 	draw_c(22,15,7);
  58:../src/snake.c **** 	draw_c(24,15,5);
  59:../src/snake.c **** 	draw_c(26,15,0);
  60:../src/snake.c **** }
  61:../src/snake.c **** //保存节点坐标结果体
  62:../src/snake.c **** 
  63:../src/snake.c **** struct SNAKE
  64:../src/snake.c **** {
  65:../src/snake.c ****   u8 x;//节点x坐标
  66:../src/snake.c ****   u8 y;//节点y坐标
  67:../src/snake.c **** };
  68:../src/snake.c **** 
  69:../src/snake.c **** struct SNAKE snake_info[50];//蛇节点最多50个
  70:../src/snake.c **** static u8 node_cnt=0;//蛇身长度
  71:../src/snake.c **** 
  72:../src/snake.c **** static void HDMI_DrawSnakebody(struct SNAKE *buff,u8 cnt,u8 c)
  73:../src/snake.c **** {
  74:../src/snake.c ****     u8 i=0;
  75:../src/snake.c ****     for(i=0;i<cnt;i++)
  76:../src/snake.c ****     {
  77:../src/snake.c ****     	HDMI_DrawPoint(buff[i].x,buff[i].y,c);
  78:../src/snake.c ****     }
  79:../src/snake.c **** }
  80:../src/snake.c **** /**************判断实物位置***************
  81:../src/snake.c **** **
  82:../src/snake.c **** **判断新生成的实物x坐标是否落在蛇身上
  83:../src/snake.c **** **形参:u8 x --实物光标位置
  84:../src/snake.c **** **      cnt  --蛇身节点个数
  85:../src/snake.c **** **返回值：1 --落在蛇身上，0 -- 没有
  86:../src/snake.c **** *******************************************/
  87:../src/snake.c **** static u8 HDMI_GetSnakeFoodX(u8 x,u8 cnt)
  88:../src/snake.c **** {
  89:../src/snake.c ****   u8 i=0;
  90:../src/snake.c ****   for(i=0;i<cnt;i++)
  91:../src/snake.c ****   {
  92:../src/snake.c ****     if(x==snake_info[i].x)break;
  93:../src/snake.c ****   }
  94:../src/snake.c ****   if(i==cnt)return 0;
  95:../src/snake.c ****   else return 1;
  96:../src/snake.c **** }
  97:../src/snake.c **** /**************判断实物位置***************
  98:../src/snake.c **** **
  99:../src/snake.c **** **判断新生成的实物y坐标是否落在蛇身上
 100:../src/snake.c **** **形参:u8 y --实物光标位置
 101:../src/snake.c **** **      cnt  --蛇身节点个数
 102:../src/snake.c **** **返回值：1 --落在蛇身上，0 -- 没有
 103:../src/snake.c **** *******************************************/
 104:../src/snake.c **** static u8 HDMI_GetSnakeFoodY(u8 y,u8 cnt)
 105:../src/snake.c **** {
 106:../src/snake.c ****   u8 i=0;
 107:../src/snake.c ****   for(i=0;i<cnt;i++)
 108:../src/snake.c ****   {
 109:../src/snake.c ****     if(y==snake_info[i].y)break;
 110:../src/snake.c ****   }
 111:../src/snake.c ****   if(i==cnt)return 0;
 112:../src/snake.c ****   else return 1;
 113:../src/snake.c **** }
 114:../src/snake.c **** /*******************动态移动蛇身********************************/
 115:../src/snake.c **** static void Snake_Move(u8 x,u8 y)
 116:../src/snake.c **** {
  59              		.loc 1 116 0
  60              		.cfi_startproc
  61              	.LVL6:
 117:../src/snake.c ****   u8 i=0;
 118:../src/snake.c ****   draw_point(snake_info[node_cnt-1].x,snake_info[node_cnt-1].y);//显示蛇头节点
  62              		.loc 1 118 0
  63 0000 B7070000 		lui	a5,%hi(.LANCHOR0)
  64 0004 03C80700 		lbu	a6,%lo(.LANCHOR0)(a5)
 116:../src/snake.c ****   u8 i=0;
  65              		.loc 1 116 0
  66 0008 4111     		addi	sp,sp,-16
  67              		.cfi_def_cfa_offset 16
  68 000a 22C4     		sw	s0,8(sp)
  69              		.loc 1 118 0
  70 000c 7D18     		addi	a6,a6,-1
  71              	.LVL7:
  72              		.cfi_offset 8, -8
  73 000e 37040000 		lui	s0,%hi(.LANCHOR1)
  74 0012 13040400 		addi	s0,s0,%lo(.LANCHOR1)
  75 0016 93181800 		slli	a7,a6,1
  76              	.LVL8:
 116:../src/snake.c ****   u8 i=0;
  77              		.loc 1 116 0
  78 001a 06C6     		sw	ra,12(sp)
  79              	.LVL9:
  80              		.cfi_offset 1, -4
  81              		.loc 1 118 0
  82 001c B3071401 		add	a5,s0,a7
  83 0020 83C61700 		lbu	a3,1(a5)
  84 0024 03C60700 		lbu	a2,0(a5)
  85              	.LBB56:
  86              	.LBB57:
  20:../src/snake.c **** 	ram_data_address = POINT;
  87              		.loc 1 20 0
  88 0028 2167     		li	a4,32768
  19:../src/snake.c **** 	ram_address = addr_temp;
  89              		.loc 1 19 0
  90 002a 93972600 		slli	a5,a3,2
  91 002e B697     		add	a5,a5,a3
  92 0030 8E07     		slli	a5,a5,3
  93 0032 B297     		add	a5,a5,a2
  20:../src/snake.c **** 	ram_data_address = POINT;
  94              		.loc 1 20 0
  95 0034 3CD3     		sw	a5,96(a4)
  96              	.LVL10:
  21:../src/snake.c **** }
  97              		.loc 1 21 0
  98 0036 CD47     		li	a5,19
  99 0038 3CDB     		sw	a5,112(a4)
 100              	.LVL11:
 101              	.LBE57:
 102              	.LBE56:
 103              	.LBB58:
 104              	.LBB59:
  14:../src/snake.c **** }
 105              		.loc 1 14 0
 106 003a 83471400 		lbu	a5,1(s0)
 107              	.LVL12:
 108 003e 03470400 		lbu	a4,0(s0)
 109              	.LVL13:
 110              	.LBB60:
 111              	.LBB61:
  27:../src/snake.c **** 	while(cut_temp--){
 112              		.loc 1 27 0
 113 0042 93962700 		slli	a3,a5,2
 114 0046 BE96     		add	a3,a3,a5
 115 0048 8E06     		slli	a3,a3,3
 116 004a BA96     		add	a3,a3,a4
 117 004c D147     		li	a5,20
 118              	.LVL14:
  29:../src/snake.c **** 		ram_data_address = 0;
 119              		.loc 1 29 0
 120 004e 2167     		li	a4,32768
 121              	.LVL15:
 122              	.L6:
 123 0050 34D3     		sw	a3,96(a4)
  30:../src/snake.c **** 	}
 124              		.loc 1 30 0
 125 0052 23280706 		sw	zero,112(a4)
 126              	.LVL16:
 127 0056 FD17     		addi	a5,a5,-1
 128              	.LVL17:
  28:../src/snake.c **** 		ram_address = addr_temp;
 129              		.loc 1 28 0
 130 0058 E5FF     		bnez	a5,.L6
 131              	.LBE61:
 132              	.LBE60:
 133              	.LBE59:
 134              	.LBE58:
 119:../src/snake.c ****   HDMI_DrawPoint(snake_info[0].x,snake_info[0].y,0);//清除蛇尾
 120:../src/snake.c ****   for(i=0;i<node_cnt-1;i++)//节点往前偏移
 135              		.loc 1 120 0
 136 005a 63570003 		blez	a6,.L7
 137 005e 8146     		li	a3,0
 138              	.LVL18:
 139              	.L8:
 121:../src/snake.c ****   {
 122:../src/snake.c ****     snake_info[i].x= snake_info[i+1].x;
 140              		.loc 1 122 0 discriminator 3
 141 0060 13871700 		addi	a4,a5,1
 142 0064 0607     		slli	a4,a4,1
 143 0066 2297     		add	a4,s0,a4
 144 0068 03460700 		lbu	a2,0(a4)
 123:../src/snake.c ****     snake_info[i].y=snake_info[i+1].y;
 145              		.loc 1 123 0 discriminator 3
 146 006c 03471700 		lbu	a4,1(a4)
 122:../src/snake.c ****     snake_info[i].y=snake_info[i+1].y;
 147              		.loc 1 122 0 discriminator 3
 148 0070 8607     		slli	a5,a5,1
 149 0072 A297     		add	a5,s0,a5
 120:../src/snake.c ****   {
 150              		.loc 1 120 0 discriminator 3
 151 0074 8506     		addi	a3,a3,1
 152              	.LVL19:
 153 0076 93F6F60F 		andi	a3,a3,0xff
 154              	.LVL20:
 122:../src/snake.c ****     snake_info[i].y=snake_info[i+1].y;
 155              		.loc 1 122 0 discriminator 3
 156 007a 2380C700 		sb	a2,0(a5)
 157              		.loc 1 123 0 discriminator 3
 158 007e A380E700 		sb	a4,1(a5)
 120:../src/snake.c ****   {
 159              		.loc 1 120 0 discriminator 3
 160 0082 B687     		mv	a5,a3
 161 0084 E3CE06FD 		bgt	a6,a3,.L8
 162              	.LVL21:
 163              	.L7:
 124:../src/snake.c **** 
 125:../src/snake.c ****   }
 126:../src/snake.c ****   /*蛇头节点坐标*/
 127:../src/snake.c ****   snake_info[node_cnt-1].x=x;
 164              		.loc 1 127 0
 165 0088 A298     		add	a7,s0,a7
 128:../src/snake.c ****   snake_info[node_cnt-1].y=y;
 166              		.loc 1 128 0
 167 008a A380B800 		sb	a1,1(a7)
 168              	.LVL22:
 129:../src/snake.c ****   draw_point(snake_info[0].x,snake_info[0].y);//显示蛇头节点
 169              		.loc 1 129 0
 170 008e 03471400 		lbu	a4,1(s0)
 171              	.LVL23:
 127:../src/snake.c ****   snake_info[node_cnt-1].y=y;
 172              		.loc 1 127 0
 173 0092 2380A800 		sb	a0,0(a7)
 174              	.LVL24:
 175              		.loc 1 129 0
 176 0096 83460400 		lbu	a3,0(s0)
 177              	.LBB62:
 178              	.LBB63:
  19:../src/snake.c **** 	ram_address = addr_temp;
 179              		.loc 1 19 0
 180 009a 93172700 		slli	a5,a4,2
 181 009e BA97     		add	a5,a5,a4
 182 00a0 8E07     		slli	a5,a5,3
 183 00a2 B697     		add	a5,a5,a3
  20:../src/snake.c **** 	ram_data_address = POINT;
 184              		.loc 1 20 0
 185 00a4 2167     		li	a4,32768
 186              	.LVL25:
 187 00a6 3CD3     		sw	a5,96(a4)
 188              	.LVL26:
  21:../src/snake.c **** }
 189              		.loc 1 21 0
 190 00a8 CD47     		li	a5,19
 191 00aa 3CDB     		sw	a5,112(a4)
 192              	.LVL27:
 193              	.LBE63:
 194              	.LBE62:
 195              	.LBB64:
 196              	.LBB65:
 197 00ac 97000000 		call	HDMI_DrawPoint.part.0
 197      E7800000 
 198              	.LVL28:
 199              	.LBE65:
 200              	.LBE64:
 130:../src/snake.c ****   HDMI_DrawPoint(snake_info[node_cnt-1].x,snake_info[node_cnt-1].y,1);//显示蛇头节点
 131:../src/snake.c ****   printk("x0:%d,y0:%d",snake_info[0].x,snake_info[0].y);
 201              		.loc 1 131 0
 202 00b4 03461400 		lbu	a2,1(s0)
 203 00b8 83450400 		lbu	a1,0(s0)
 132:../src/snake.c **** //  HDMI_DrawSnakebody(snake_info,node_cnt,1);
 133:../src/snake.c **** }
 204              		.loc 1 133 0
 205 00bc 2244     		lw	s0,8(sp)
 206              		.cfi_restore 8
 207 00be B240     		lw	ra,12(sp)
 208              		.cfi_restore 1
 131:../src/snake.c **** //  HDMI_DrawSnakebody(snake_info,node_cnt,1);
 209              		.loc 1 131 0
 210 00c0 37050000 		lui	a0,%hi(.LC0)
 211              		.loc 1 133 0
 131:../src/snake.c **** //  HDMI_DrawSnakebody(snake_info,node_cnt,1);
 212              		.loc 1 131 0
 213 00c4 13050500 		addi	a0,a0,%lo(.LC0)
 214              		.loc 1 133 0
 215 00c8 4101     		addi	sp,sp,16
 216              		.cfi_def_cfa_offset 0
 131:../src/snake.c **** //  HDMI_DrawSnakebody(snake_info,node_cnt,1);
 217              		.loc 1 131 0
 218 00ca 17030000 		tail	printk
 218      67000300 
 219              	.LVL29:
 220              		.cfi_endproc
 221              	.LFE10:
 223              		.section	.text.HDMI_DrawPoint,"ax",@progbits
 224              		.align	1
 225              		.globl	HDMI_DrawPoint
 227              	HDMI_DrawPoint:
 228              	.LFB1:
  10:../src/snake.c **** 	if(c)
 229              		.loc 1 10 0
 230              		.cfi_startproc
 231              	.LVL30:
  11:../src/snake.c **** 		delay(DELAY_CUT,x,y);
 232              		.loc 1 11 0
 233 0000 09C6     		beqz	a2,.L13
 234 0002 17030000 		tail	HDMI_DrawPoint.part.0
 234      67000300 
 235              	.LVL31:
 236              	.L13:
 237              	.LBB68:
 238              	.LBB69:
  27:../src/snake.c **** 	while(cut_temp--){
 239              		.loc 1 27 0
 240 000a 93962500 		slli	a3,a1,2
 241 000e AE96     		add	a3,a3,a1
 242 0010 8E06     		slli	a3,a3,3
 243 0012 AA96     		add	a3,a3,a0
 244 0014 D147     		li	a5,20
  29:../src/snake.c **** 		ram_data_address = 0;
 245              		.loc 1 29 0
 246 0016 2167     		li	a4,32768
 247              	.LVL32:
 248              	.L14:
 249 0018 34D3     		sw	a3,96(a4)
  30:../src/snake.c **** 	}
 250              		.loc 1 30 0
 251 001a 23280706 		sw	zero,112(a4)
 252              	.LVL33:
 253 001e FD17     		addi	a5,a5,-1
 254              	.LVL34:
  28:../src/snake.c **** 		ram_address = addr_temp;
 255              		.loc 1 28 0
 256 0020 E5FF     		bnez	a5,.L14
 257              	.LBE69:
 258              	.LBE68:
  15:../src/snake.c **** 
 259              		.loc 1 15 0
 260 0022 8280     		ret
 261              		.cfi_endproc
 262              	.LFE1:
 264              		.section	.text.draw_point,"ax",@progbits
 265              		.align	1
 266              		.globl	draw_point
 268              	draw_point:
 269              	.LFB2:
  17:../src/snake.c **** 	int addr_temp;
 270              		.loc 1 17 0
 271              		.cfi_startproc
 272              	.LVL35:
  19:../src/snake.c **** 	ram_address = addr_temp;
 273              		.loc 1 19 0
 274 0000 93972500 		slli	a5,a1,2
 275 0004 BE95     		add	a1,a5,a1
 276              	.LVL36:
 277 0006 8E05     		slli	a1,a1,3
  20:../src/snake.c **** 	ram_data_address = POINT;
 278              		.loc 1 20 0
 279 0008 A167     		li	a5,32768
  19:../src/snake.c **** 	ram_address = addr_temp;
 280              		.loc 1 19 0
 281 000a AA95     		add	a1,a1,a0
  20:../src/snake.c **** 	ram_data_address = POINT;
 282              		.loc 1 20 0
 283 000c ACD3     		sw	a1,96(a5)
  21:../src/snake.c **** }
 284              		.loc 1 21 0
 285 000e 4D47     		li	a4,19
 286 0010 B8DB     		sw	a4,112(a5)
  22:../src/snake.c **** 
 287              		.loc 1 22 0
 288 0012 8280     		ret
 289              		.cfi_endproc
 290              	.LFE2:
 292              		.section	.text.clear_point,"ax",@progbits
 293              		.align	1
 294              		.globl	clear_point
 296              	clear_point:
 297              	.LFB3:
  24:../src/snake.c **** 	int addr_temp;
 298              		.loc 1 24 0
 299              		.cfi_startproc
 300              	.LVL37:
  27:../src/snake.c **** 	while(cut_temp--){
 301              		.loc 1 27 0
 302 0000 93972500 		slli	a5,a1,2
 303 0004 AE97     		add	a5,a5,a1
 304 0006 8E07     		slli	a5,a5,3
 305 0008 3E95     		add	a0,a5,a0
 306              	.LVL38:
  29:../src/snake.c **** 		ram_data_address = 0;
 307              		.loc 1 29 0
 308 000a 2167     		li	a4,32768
  27:../src/snake.c **** 	while(cut_temp--){
 309              		.loc 1 27 0
 310 000c D147     		li	a5,20
 311              	.LVL39:
 312              	.L18:
  29:../src/snake.c **** 		ram_data_address = 0;
 313              		.loc 1 29 0
 314 000e 28D3     		sw	a0,96(a4)
  30:../src/snake.c **** 	}
 315              		.loc 1 30 0
 316 0010 23280706 		sw	zero,112(a4)
 317              	.LVL40:
 318 0014 FD17     		addi	a5,a5,-1
 319              	.LVL41:
  28:../src/snake.c **** 		ram_address = addr_temp;
 320              		.loc 1 28 0
 321 0016 E5FF     		bnez	a5,.L18
  32:../src/snake.c **** void delay(long d,char x,char y){
 322              		.loc 1 32 0
 323 0018 8280     		ret
 324              		.cfi_endproc
 325              	.LFE3:
 327              		.section	.text.delay,"ax",@progbits
 328              		.align	1
 329              		.globl	delay
 331              	delay:
 332              	.LFB4:
  33:../src/snake.c **** 	int addr_temp;
 333              		.loc 1 33 0
 334              		.cfi_startproc
 335              	.LVL42:
  35:../src/snake.c **** 	long count = d;
 336              		.loc 1 35 0
 337 0000 93172600 		slli	a5,a2,2
 338 0004 3E96     		add	a2,a5,a2
 339              	.LVL43:
 340 0006 0E06     		slli	a2,a2,3
 341 0008 B295     		add	a1,a2,a1
 342              	.LVL44:
  37:../src/snake.c **** 		ram_address = addr_temp;
 343              		.loc 1 37 0
 344 000a 9307F5FF 		addi	a5,a0,-1
 345              	.LVL45:
 346 000e 19C9     		beqz	a0,.L20
  38:../src/snake.c **** 		ram_data_address = POINT;
 347              		.loc 1 38 0
 348 0010 2167     		li	a4,32768
  39:../src/snake.c **** 	}
 349              		.loc 1 39 0
 350 0012 13050707 		addi	a0,a4,112
 351              	.LVL46:
 352 0016 4D46     		li	a2,19
  37:../src/snake.c **** 		ram_address = addr_temp;
 353              		.loc 1 37 0
 354 0018 FD56     		li	a3,-1
 355              	.LVL47:
 356              	.L22:
  38:../src/snake.c **** 		ram_data_address = POINT;
 357              		.loc 1 38 0
 358 001a 2CD3     		sw	a1,96(a4)
  39:../src/snake.c **** 	}
 359              		.loc 1 39 0
 360 001c 10C1     		sw	a2,0(a0)
  37:../src/snake.c **** 		ram_address = addr_temp;
 361              		.loc 1 37 0
 362 001e FD17     		addi	a5,a5,-1
 363              	.LVL48:
 364 0020 E39DD7FE 		bne	a5,a3,.L22
 365              	.L20:
  41:../src/snake.c **** //0:R,2:G,3:A,4:M,5:E,6:O,7:V
 366              		.loc 1 41 0
 367 0024 8280     		ret
 368              		.cfi_endproc
 369              	.LFE4:
 371              		.section	.text.draw_c,"ax",@progbits
 372              		.align	1
 373              		.globl	draw_c
 375              	draw_c:
 376              	.LFB5:
  43:../src/snake.c **** 	int addr_temp;
 377              		.loc 1 43 0
 378              		.cfi_startproc
 379              	.LVL49:
  46:../src/snake.c **** 	data_temp = (c<<4) | (c<<1)+1;
 380              		.loc 1 46 0
 381 0000 93972500 		slli	a5,a1,2
 382              	.LVL50:
 383 0004 BE95     		add	a1,a5,a1
 384              	.LVL51:
 385 0006 8E05     		slli	a1,a1,3
  47:../src/snake.c **** 	ram_address = addr_temp;
 386              		.loc 1 47 0
 387 0008 93171600 		slli	a5,a2,1
  48:../src/snake.c **** 	ram_data_address = data_temp;
 388              		.loc 1 48 0
 389 000c 2167     		li	a4,32768
  46:../src/snake.c **** 	data_temp = (c<<4) | (c<<1)+1;
 390              		.loc 1 46 0
 391 000e AA95     		add	a1,a1,a0
  47:../src/snake.c **** 	ram_address = addr_temp;
 392              		.loc 1 47 0
 393 0010 8507     		addi	a5,a5,1
 394 0012 1206     		slli	a2,a2,4
 395              	.LVL52:
  48:../src/snake.c **** 	ram_data_address = data_temp;
 396              		.loc 1 48 0
 397 0014 2CD3     		sw	a1,96(a4)
  47:../src/snake.c **** 	ram_address = addr_temp;
 398              		.loc 1 47 0
 399 0016 D18F     		or	a5,a5,a2
 400              	.LVL53:
  49:../src/snake.c **** }
 401              		.loc 1 49 0
 402 0018 3CDB     		sw	a5,112(a4)
  50:../src/snake.c **** void draw_gameover(){
 403              		.loc 1 50 0
 404 001a 8280     		ret
 405              		.cfi_endproc
 406              	.LFE5:
 408              		.section	.text.draw_gameover,"ax",@progbits
 409              		.align	1
 410              		.globl	draw_gameover
 412              	draw_gameover:
 413              	.LFB6:
  51:../src/snake.c **** 	draw_c(12,15,2);
 414              		.loc 1 51 0
 415              		.cfi_startproc
 416              	.LVL54:
 417              	.LBB70:
 418              	.LBB71:
  48:../src/snake.c **** 	ram_data_address = data_temp;
 419              		.loc 1 48 0
 420 0000 A167     		li	a5,32768
 421 0002 13074026 		li	a4,612
 422 0006 B8D3     		sw	a4,96(a5)
  49:../src/snake.c **** }
 423              		.loc 1 49 0
 424 0008 13075002 		li	a4,37
 425 000c B8DB     		sw	a4,112(a5)
 426              	.LVL55:
 427              	.LBE71:
 428              	.LBE70:
 429              	.LBB72:
 430              	.LBB73:
  48:../src/snake.c **** 	ram_data_address = data_temp;
 431              		.loc 1 48 0
 432 000e 13076026 		li	a4,614
 433 0012 B8D3     		sw	a4,96(a5)
  49:../src/snake.c **** }
 434              		.loc 1 49 0
 435 0014 13077003 		li	a4,55
 436 0018 B8DB     		sw	a4,112(a5)
 437              	.LVL56:
 438              	.LBE73:
 439              	.LBE72:
 440              	.LBB74:
 441              	.LBB75:
  48:../src/snake.c **** 	ram_data_address = data_temp;
 442              		.loc 1 48 0
 443 001a 13078026 		li	a4,616
 444 001e B8D3     		sw	a4,96(a5)
  49:../src/snake.c **** }
 445              		.loc 1 49 0
 446 0020 13079004 		li	a4,73
 447 0024 B8DB     		sw	a4,112(a5)
 448              	.LVL57:
 449              	.LBE75:
 450              	.LBE74:
 451              	.LBB76:
 452              	.LBB77:
  48:../src/snake.c **** 	ram_data_address = data_temp;
 453              		.loc 1 48 0
 454 0026 1307A026 		li	a4,618
 455 002a B8D3     		sw	a4,96(a5)
  49:../src/snake.c **** }
 456              		.loc 1 49 0
 457 002c 1307B005 		li	a4,91
 458 0030 B8DB     		sw	a4,112(a5)
 459              	.LVL58:
 460              	.LBE77:
 461              	.LBE76:
 462              	.LBB78:
 463              	.LBB79:
  48:../src/snake.c **** 	ram_data_address = data_temp;
 464              		.loc 1 48 0
 465 0032 9306C026 		li	a3,620
 466 0036 B4D3     		sw	a3,96(a5)
  49:../src/snake.c **** }
 467              		.loc 1 49 0
 468 0038 9306D006 		li	a3,109
 469 003c B4DB     		sw	a3,112(a5)
 470              	.LVL59:
 471              	.LBE79:
 472              	.LBE78:
 473              	.LBB80:
 474              	.LBB81:
  48:../src/snake.c **** 	ram_data_address = data_temp;
 475              		.loc 1 48 0
 476 003e 9306E026 		li	a3,622
 477 0042 B4D3     		sw	a3,96(a5)
  49:../src/snake.c **** }
 478              		.loc 1 49 0
 479 0044 9306F007 		li	a3,127
 480 0048 B4DB     		sw	a3,112(a5)
 481              	.LVL60:
 482              	.LBE81:
 483              	.LBE80:
 484              	.LBB82:
 485              	.LBB83:
  48:../src/snake.c **** 	ram_data_address = data_temp;
 486              		.loc 1 48 0
 487 004a 93060027 		li	a3,624
 488 004e B4D3     		sw	a3,96(a5)
  49:../src/snake.c **** }
 489              		.loc 1 49 0
 490 0050 B8DB     		sw	a4,112(a5)
 491              	.LVL61:
 492              	.LBE83:
 493              	.LBE82:
 494              	.LBB84:
 495              	.LBB85:
  48:../src/snake.c **** 	ram_data_address = data_temp;
 496              		.loc 1 48 0
 497 0052 13072027 		li	a4,626
 498 0056 B8D3     		sw	a4,96(a5)
  49:../src/snake.c **** }
 499              		.loc 1 49 0
 500 0058 0547     		li	a4,1
 501 005a B8DB     		sw	a4,112(a5)
 502              	.LVL62:
 503              	.LBE85:
 504              	.LBE84:
  60:../src/snake.c **** //保存节点坐标结果体
 505              		.loc 1 60 0
 506 005c 8280     		ret
 507              		.cfi_endproc
 508              	.LFE6:
 510              		.section	.text.SnakeGameStart,"ax",@progbits
 511              		.align	1
 512              		.globl	SnakeGameStart
 514              	SnakeGameStart:
 515              	.LFB11:
 134:../src/snake.c **** /*******************控制方向,判断游戏是否结束********************/
 135:../src/snake.c **** u8 SnakeGameStart(void)
 136:../src/snake.c **** {
 516              		.loc 1 136 0
 517              		.cfi_startproc
 518              	.LVL63:
 519 0000 5D71     		addi	sp,sp,-80
 520              		.cfi_def_cfa_offset 80
 521 0002 CAC0     		sw	s2,64(sp)
 522              		.cfi_offset 18, -16
 137:../src/snake.c ****   u8 i=0;
 138:../src/snake.c ****   u8 x=15;
 139:../src/snake.c ****   u8 y=15;
 140:../src/snake.c ****   u8 food_x,food_y;
 141:../src/snake.c ****   u8 stat=8;
 142:../src/snake.c ****   char buff[20];
 143:../src/snake.c ****   //创建蛇身1
 144:../src/snake.c ****   snake_info[node_cnt].x=x;
 523              		.loc 1 144 0
 524 0004 37090000 		lui	s2,%hi(.LANCHOR0)
 525 0008 13090900 		addi	s2,s2,%lo(.LANCHOR0)
 526 000c 83470900 		lbu	a5,0(s2)
 136:../src/snake.c ****   u8 i=0;
 527              		.loc 1 136 0
 528 0010 A6C2     		sw	s1,68(sp)
 529 0012 4EDE     		sw	s3,60(sp)
 530              		.cfi_offset 9, -12
 531              		.cfi_offset 19, -20
 532              		.loc 1 144 0
 533 0014 B7040000 		lui	s1,%hi(.LANCHOR1)
 145:../src/snake.c ****   snake_info[node_cnt].y=y;
 146:../src/snake.c ****   node_cnt++;
 534              		.loc 1 146 0
 535 0018 93891700 		addi	s3,a5,1
 136:../src/snake.c ****   u8 i=0;
 536              		.loc 1 136 0
 537 001c A2C4     		sw	s0,72(sp)
 144:../src/snake.c ****   snake_info[node_cnt].y=y;
 538              		.loc 1 144 0
 539 001e 8566     		li	a3,4096
 540              		.cfi_offset 8, -8
 541 0020 13840400 		addi	s0,s1,%lo(.LANCHOR1)
 542 0024 13961700 		slli	a2,a5,1
 543              		.loc 1 146 0
 544 0028 93F9F90F 		andi	s3,s3,0xff
 147:../src/snake.c ****   //创建蛇身2
 148:../src/snake.c ****   snake_info[node_cnt].x=x+1;
 149:../src/snake.c ****   snake_info[node_cnt].y=y;
 150:../src/snake.c ****   //保存蛇头坐标
 151:../src/snake.c ****   x=snake_info[node_cnt].x;
 152:../src/snake.c ****   y=snake_info[node_cnt].y;
 153:../src/snake.c ****   node_cnt++;
 545              		.loc 1 153 0
 546 002c 8907     		addi	a5,a5,2
 136:../src/snake.c ****   u8 i=0;
 547              		.loc 1 136 0
 548 002e 86C6     		sw	ra,76(sp)
 549 0030 52DC     		sw	s4,56(sp)
 550 0032 56DA     		sw	s5,52(sp)
 551 0034 5AD8     		sw	s6,48(sp)
 552 0036 5ED6     		sw	s7,44(sp)
 553 0038 62D4     		sw	s8,40(sp)
 554 003a 66D2     		sw	s9,36(sp)
 555 003c 6AD0     		sw	s10,32(sp)
 556 003e 6ECE     		sw	s11,28(sp)
 557              		.cfi_offset 1, -4
 558              		.cfi_offset 20, -24
 559              		.cfi_offset 21, -28
 560              		.cfi_offset 22, -32
 561              		.cfi_offset 23, -36
 562              		.cfi_offset 24, -40
 563              		.cfi_offset 25, -44
 564              		.cfi_offset 26, -48
 565              		.cfi_offset 27, -52
 144:../src/snake.c ****   snake_info[node_cnt].y=y;
 566              		.loc 1 144 0
 567 0040 9385F6F0 		addi	a1,a3,-241
 568              		.loc 1 153 0
 569 0044 93F7F70F 		andi	a5,a5,0xff
 144:../src/snake.c ****   snake_info[node_cnt].y=y;
 570              		.loc 1 144 0
 571 0048 2296     		add	a2,s0,a2
 148:../src/snake.c ****   snake_info[node_cnt].y=y;
 572              		.loc 1 148 0
 573 004a 13971900 		slli	a4,s3,1
 144:../src/snake.c ****   snake_info[node_cnt].y=y;
 574              		.loc 1 144 0
 575 004e 2310B600 		sh	a1,0(a2)
 148:../src/snake.c ****   snake_info[node_cnt].y=y;
 576              		.loc 1 148 0
 577 0052 938606F1 		addi	a3,a3,-240
 578 0056 B305E400 		add	a1,s0,a4
 154:../src/snake.c ****   snake_info[node_cnt].y = y;
 155:../src/snake.c ****   snake_info[node_cnt].x = x;
 579              		.loc 1 155 0
 580 005a 13961700 		slli	a2,a5,1
 148:../src/snake.c ****   snake_info[node_cnt].y=y;
 581              		.loc 1 148 0
 582 005e 2390D500 		sh	a3,0(a1)
 583              	.LVL64:
 584              		.loc 1 155 0
 585 0062 2296     		add	a2,s0,a2
 153:../src/snake.c ****   snake_info[node_cnt].y = y;
 586              		.loc 1 153 0
 587 0064 2300F900 		sb	a5,0(s2)
 588              		.loc 1 155 0
 589 0068 2310D600 		sh	a3,0(a2)
 590              	.LVL65:
 591              	.LBB102:
 592              	.LBB103:
  75:../src/snake.c ****     {
 593              		.loc 1 75 0
 594 006c 8DC3     		beqz	a5,.L30
 595 006e 93092400 		addi	s3,s0,2
 596 0072 93840400 		addi	s1,s1,%lo(.LANCHOR1)
 597 0076 BA99     		add	s3,s3,a4
 598              	.LVL66:
 599              	.L31:
 600              	.LBB104:
 601              	.LBB105:
 602 0078 83C51400 		lbu	a1,1(s1)
 603 007c 03C50400 		lbu	a0,0(s1)
 604 0080 8904     		addi	s1,s1,2
 605              	.LVL67:
 606 0082 97000000 		call	HDMI_DrawPoint.part.0
 606      E7800000 
 607              	.LVL68:
 608              	.LBE105:
 609              	.LBE104:
 610 008a E39799FE 		bne	s3,s1,.L31
 611              	.L30:
 612              	.LVL69:
 613              	.LBE103:
 614              	.LBE102:
 156:../src/snake.c ****   HDMI_DrawSnakebody(snake_info,node_cnt,1);//绘制蛇身
 157:../src/snake.c ****   //生成实物坐标
 158:../src/snake.c ****   food_x=(rand()%40)+1;
 615              		.loc 1 158 0
 616 008e 97000000 		call	rand
 616      E7800000 
 617              	.LVL70:
 618 0096 AA84     		mv	s1,a0
 619              	.LVL71:
 159:../src/snake.c ****   food_y=(rand()%30)+1;
 620              		.loc 1 159 0
 621 0098 97000000 		call	rand
 621      E7800000 
 622              	.LVL72:
 623 00a0 7946     		li	a2,30
 158:../src/snake.c ****   food_y=(rand()%30)+1;
 624              		.loc 1 158 0
 625 00a2 93058002 		li	a1,40
 626              		.loc 1 159 0
 627 00a6 3366C502 		rem	a2,a0,a2
 160:../src/snake.c ****   printk("foodx:%d,foody:%d\n",food_x,food_y);
 628              		.loc 1 160 0
 629 00aa 37050000 		lui	a0,%hi(.LC1)
 630              	.LVL73:
 151:../src/snake.c ****   y=snake_info[node_cnt].y;
 631              		.loc 1 151 0
 632 00ae C147     		li	a5,16
 633              		.loc 1 160 0
 634 00b0 13050500 		addi	a0,a0,%lo(.LC1)
 151:../src/snake.c ****   y=snake_info[node_cnt].y;
 635              		.loc 1 151 0
 636 00b4 3EC6     		sw	a5,12(sp)
 141:../src/snake.c ****   char buff[20];
 637              		.loc 1 141 0
 638 00b6 214D     		li	s10,8
 161:../src/snake.c ****   food_x = 23;
 162:../src/snake.c ****   food_y = 15;
 639              		.loc 1 162 0
 640 00b8 3D4C     		li	s8,15
 161:../src/snake.c ****   food_x = 23;
 641              		.loc 1 161 0
 642 00ba DD4D     		li	s11,23
 152:../src/snake.c ****   node_cnt++;
 643              		.loc 1 152 0
 644 00bc BD4C     		li	s9,15
 645 00be 014A     		li	s4,0
 163:../src/snake.c ****   HDMI_DrawPoint(food_x,food_y,1);//绘制实物
 164:../src/snake.c ****   int getps2 = *ps2ctrl_point;//手柄键值接收
 165:../src/snake.c ****   u8 key_val = (getps2>>4);//取有效键值
 166:../src/snake.c ****   while(1)
 167:../src/snake.c ****   {
 168:../src/snake.c **** 	  snake_info[node_cnt].x=snake_info[node_cnt-1].x;
 169:../src/snake.c **** 	  snake_info[node_cnt].y=snake_info[node_cnt-1].y;
 170:../src/snake.c **** 	  if(stat&1<<0)
 171:../src/snake.c **** 		  snake_info[node_cnt].y=snake_info[node_cnt-1].y-1;
 172:../src/snake.c **** 	  else if(stat&1<<1)
 173:../src/snake.c **** 		  snake_info[node_cnt].y=snake_info[node_cnt-1].y+1;
 174:../src/snake.c **** 	  else if(stat&1<<2)
 175:../src/snake.c **** 		  snake_info[node_cnt].x=snake_info[node_cnt-1].x-1;
 176:../src/snake.c **** 	  else if(stat&1<<3)
 177:../src/snake.c **** 		  snake_info[node_cnt].x=snake_info[node_cnt-1].x+1;
 178:../src/snake.c ****     if(snake_info[node_cnt].x>39 || snake_info[node_cnt-1].y>=29 || snake_info[node_cnt-1].x<1 || s
 646              		.loc 1 178 0
 647 00c0 930A7002 		li	s5,39
 648 00c4 F14B     		li	s7,28
 649              	.LBB106:
 650              	.LBB107:
  20:../src/snake.c **** 	ram_data_address = POINT;
 651              		.loc 1 20 0
 652 00c6 216B     		li	s6,32768
 653              	.LBE107:
 654              	.LBE106:
 158:../src/snake.c ****   food_y=(rand()%30)+1;
 655              		.loc 1 158 0
 656 00c8 B3E5B402 		rem	a1,s1,a1
 159:../src/snake.c ****   printk("foodx:%d,foody:%d\n",food_x,food_y);
 657              		.loc 1 159 0
 658 00cc 0506     		addi	a2,a2,1
 160:../src/snake.c ****   food_x = 23;
 659              		.loc 1 160 0
 660 00ce 1376F60F 		andi	a2,a2,0xff
 158:../src/snake.c ****   food_y=(rand()%30)+1;
 661              		.loc 1 158 0
 662 00d2 8505     		addi	a1,a1,1
 160:../src/snake.c ****   food_x = 23;
 663              		.loc 1 160 0
 664 00d4 93F5F50F 		andi	a1,a1,0xff
 665 00d8 97000000 		call	printk
 665      E7800000 
 666              	.LVL74:
 667              	.LBB109:
 668              	.LBB110:
 669 00e0 BD45     		li	a1,15
 670 00e2 5D45     		li	a0,23
 671 00e4 97000000 		call	HDMI_DrawPoint.part.0
 671      E7800000 
 672              	.LVL75:
 673              	.LBE110:
 674              	.LBE109:
 164:../src/snake.c ****   u8 key_val = (getps2>>4);//取有效键值
 675              		.loc 1 164 0
 676 00ec A167     		li	a5,32768
 677 00ee 83A40710 		lw	s1,256(a5)
 678              	.LVL76:
 165:../src/snake.c ****   while(1)
 679              		.loc 1 165 0
 680 00f2 9184     		srai	s1,s1,4
 681              	.LVL77:
 682 00f4 93F4F40F 		andi	s1,s1,0xff
 683              	.LVL78:
 684              	.L32:
 168:../src/snake.c **** 	  snake_info[node_cnt].y=snake_info[node_cnt-1].y;
 685              		.loc 1 168 0
 686 00f8 83450900 		lbu	a1,0(s2)
 687 00fc 9379FA0F 		andi	s3,s4,0xff
 688 0100 9387F5FF 		addi	a5,a1,-1
 689 0104 8607     		slli	a5,a5,1
 690 0106 3307F400 		add	a4,s0,a5
 691 010a 03450700 		lbu	a0,0(a4)
 169:../src/snake.c **** 	  if(stat&1<<0)
 692              		.loc 1 169 0
 693 010e 03461700 		lbu	a2,1(a4)
 168:../src/snake.c **** 	  snake_info[node_cnt].y=snake_info[node_cnt-1].y;
 694              		.loc 1 168 0
 695 0112 139E1500 		slli	t3,a1,1
 696 0116 3303C401 		add	t1,s0,t3
 697 011a 2300A300 		sb	a0,0(t1)
 169:../src/snake.c **** 	  if(stat&1<<0)
 698              		.loc 1 169 0
 699 011e A300C300 		sb	a2,1(t1)
 170:../src/snake.c **** 		  snake_info[node_cnt].y=snake_info[node_cnt-1].y-1;
 700              		.loc 1 170 0
 701 0122 63850908 		beqz	s3,.L34
 171:../src/snake.c **** 	  else if(stat&1<<1)
 702              		.loc 1 171 0
 703 0126 03471700 		lbu	a4,1(a4)
 704 012a 7D17     		addi	a4,a4,-1
 705 012c A300E300 		sb	a4,1(t1)
 706              	.L35:
 707              		.loc 1 178 0
 708 0130 63E9AA08 		bgtu	a0,s5,.L38
 709              	.L100:
 710              		.loc 1 178 0 is_stmt 0 discriminator 1
 711 0134 A297     		add	a5,s0,a5
 712 0136 03C71700 		lbu	a4,1(a5)
 713 013a 63E4EB08 		bgtu	a4,s7,.L38
 714              		.loc 1 178 0 discriminator 2
 715 013e 83C70700 		lbu	a5,0(a5)
 716 0142 C1C3     		beqz	a5,.L38
 717              		.loc 1 178 0 discriminator 3
 718 0144 3DCF     		beqz	a4,.L38
 179:../src/snake.c ****     {
 180:../src/snake.c **** //      snprintf(buff,sizeof(buff),"Mark:%d",node_cnt-2);
 181:../src/snake.c **** //      HDMI_DisplayStr(36,8,8,16,buff);//字符串显示
 182:../src/snake.c **** //      HDMI_DisplayStr(10,28,12,24,"Game over");//字符串显示
 183:../src/snake.c ****     	draw_gameover();
 184:../src/snake.c ****     	printk("game over");
 185:../src/snake.c ****       node_cnt=0;//清空节点
 186:../src/snake.c ****       break;//游戏结束
 187:../src/snake.c ****     }
 188:../src/snake.c ****     if(snake_info[node_cnt].x==food_x && snake_info[node_cnt].y==food_y)//判断是否吃到食物
 719              		.loc 1 188 0 is_stmt 1
 720 0146 638CAD0A 		beq	s11,a0,.L98
 721              	.L40:
 189:../src/snake.c ****     {
 190:../src/snake.c **** //      if((stat&1<<0) || (stat&1<<1))//向上或向下时y+5
 191:../src/snake.c **** //      {
 192:../src/snake.c **** //        snake_info[node_cnt].x=food_x;
 193:../src/snake.c **** //        snake_info[node_cnt].y=food_y+1;
 194:../src/snake.c ****         if(stat&1<<0) y--;if(stat&1<<1) y++;
 195:../src/snake.c **** //      }
 196:../src/snake.c **** //      else //向左或向右时x+5
 197:../src/snake.c **** //      {
 198:../src/snake.c **** //        snake_info[node_cnt].x=food_x+1;
 199:../src/snake.c **** //        snake_info[node_cnt].y=food_y;
 200:../src/snake.c ****         if(stat&1<<3) x++;if(stat&1<<2) x--;
 201:../src/snake.c **** //      }
 202:../src/snake.c ****       node_cnt++;
 203:../src/snake.c **** //      HDMI_DrawSnakebody(snake_info,node_cnt,1);
 204:../src/snake.c ****       draw_point(snake_info[node_cnt-1].x,snake_info[node_cnt-1].y);//显示蛇头节点
 205:../src/snake.c ****       printk("node_cnt:%d",node_cnt);
 206:../src/snake.c ****       while(1)//保证重新生成的实物不再蛇身上
 207:../src/snake.c ****       {
 208:../src/snake.c ****     	food_x=(rand()%39)+1;
 209:../src/snake.c ****         if(HDMI_GetSnakeFoodX(food_x,node_cnt)==0)break;
 210:../src/snake.c ****       }
 211:../src/snake.c ****       while(1)
 212:../src/snake.c ****       {
 213:../src/snake.c ****     	food_y=(rand()%29)+1;
 214:../src/snake.c ****         if(HDMI_GetSnakeFoodY(food_y,node_cnt)==0)break;
 215:../src/snake.c ****       }
 216:../src/snake.c ****       HDMI_DrawPoint(food_x,food_y,1);//绘制实物
 217:../src/snake.c **** //      printk("foodx:%d,foody:%d\n",food_x,food_y);
 218:../src/snake.c ****     }
 219:../src/snake.c ****     getps2 = *ps2ctrl_point;
 722              		.loc 1 219 0
 723 014a 83270B10 		lw	a5,256(s6)
 724              	.LVL79:
 220:../src/snake.c ****     if((getps2>>4)!=0)
 725              		.loc 1 220 0
 726 014e 9187     		srai	a5,a5,4
 727              	.LVL80:
 728 0150 99C3     		beqz	a5,.L53
 221:../src/snake.c ****     	key_val = (getps2>>4);
 729              		.loc 1 221 0
 730 0152 93F4F70F 		andi	s1,a5,0xff
 731              	.LVL81:
 732              	.L53:
 222:../src/snake.c **** //    printk("x:%d,y:%d\n",snake_info[node_cnt-1].x,snake_info[node_cnt-1].y);
 223:../src/snake.c ****     printk("key_val:%x\n",key_val);
 733              		.loc 1 223 0
 734 0156 B7070000 		lui	a5,%hi(.LC4)
 735 015a 13850700 		addi	a0,a5,%lo(.LC4)
 736 015e A685     		mv	a1,s1
 737 0160 97000000 		call	printk
 737      E7800000 
 738              	.LVL82:
 224:../src/snake.c ****     switch(key_val)
 739              		.loc 1 224 0
 740 0168 8947     		li	a5,2
 741 016a 6384F41E 		beq	s1,a5,.L54
 742 016e 63FE9718 		bleu	s1,a5,.L99
 743 0172 9147     		li	a5,4
 744 0174 6383F420 		beq	s1,a5,.L57
 745 0178 A147     		li	a5,8
 746 017a E39FF4F6 		bne	s1,a5,.L32
 747              	.LVL83:
 225:../src/snake.c ****     {
 226:../src/snake.c ****       case 0b0001://上
 227:../src/snake.c ****       stat&=~(0x3<<2);//清除左右标志
 228:../src/snake.c ****       if(stat&1<<1){}//向下时不能直接向上
 229:../src/snake.c ****       else
 230:../src/snake.c ****       {
 231:../src/snake.c ****         stat|=1<<0;//向上
 232:../src/snake.c ****         y-=1;
 233:../src/snake.c ****         Snake_Move(x,y);
 234:../src/snake.c ****       }
 235:../src/snake.c ****       break;
 236:../src/snake.c ****       case 0b0010://下
 237:../src/snake.c ****       stat&=~(0x3<<2);//清除左右标志
 238:../src/snake.c ****       if(stat&1<<0){}//在向上时不能直接向下
 239:../src/snake.c ****       else
 240:../src/snake.c ****       {
 241:../src/snake.c ****         stat|=1<<1;//向下标志位
 242:../src/snake.c ****         y+=1;
 243:../src/snake.c ****         Snake_Move(x,y);
 244:../src/snake.c ****       }
 245:../src/snake.c ****       break;
 246:../src/snake.c ****       case 0b0100://左
 247:../src/snake.c ****       stat&=~(0x3<<0);//清除上下标志
 248:../src/snake.c ****       if(stat&1<<3){}//向右时不能直接向左
 249:../src/snake.c ****       else
 250:../src/snake.c ****       {
 251:../src/snake.c ****         stat|=1<<2;//向左
 252:../src/snake.c ****         x-=1;
 253:../src/snake.c ****         Snake_Move(x,y);
 254:../src/snake.c ****       }
 255:../src/snake.c ****       break;
 256:../src/snake.c ****       case 0b1000://右
 257:../src/snake.c ****       stat&=~(0x3<<0);//清除上下标志
 258:../src/snake.c ****       if(stat&1<<2){}//向左时不能直接向右
 748              		.loc 1 258 0
 749 017e 93774D00 		andi	a5,s10,4
 257:../src/snake.c ****       if(stat&1<<2){}//向左时不能直接向右
 750              		.loc 1 257 0
 751 0182 137DCD0F 		andi	s10,s10,252
 752              	.LVL84:
 753 0186 137A1D00 		andi	s4,s10,1
 754              		.loc 1 258 0
 755 018a BDF7     		bnez	a5,.L32
 259:../src/snake.c ****       else
 260:../src/snake.c ****       {
 261:../src/snake.c ****         stat|=1<<3;
 262:../src/snake.c ****         x+=1;
 756              		.loc 1 262 0
 757 018c B247     		lw	a5,12(sp)
 261:../src/snake.c ****         x+=1;
 758              		.loc 1 261 0
 759 018e 136D8D00 		ori	s10,s10,8
 760              	.LVL85:
 263:../src/snake.c ****         Snake_Move(x,y);
 761              		.loc 1 263 0
 762 0192 E685     		mv	a1,s9
 262:../src/snake.c ****         Snake_Move(x,y);
 763              		.loc 1 262 0
 764 0194 8507     		addi	a5,a5,1
 765 0196 93F7F70F 		andi	a5,a5,0xff
 766              	.LVL86:
 767              		.loc 1 263 0
 768 019a 3E85     		mv	a0,a5
 262:../src/snake.c ****         Snake_Move(x,y);
 769              		.loc 1 262 0
 770 019c 3EC6     		sw	a5,12(sp)
 771 019e 137A1D00 		andi	s4,s10,1
 772              		.loc 1 263 0
 773 01a2 97000000 		call	Snake_Move
 773      E7800000 
 774              	.LVL87:
 775 01aa B9B7     		j	.L32
 776              	.L34:
 172:../src/snake.c **** 		  snake_info[node_cnt].y=snake_info[node_cnt-1].y+1;
 777              		.loc 1 172 0
 778 01ac 13762D00 		andi	a2,s10,2
 779 01b0 63060618 		beqz	a2,.L36
 173:../src/snake.c **** 	  else if(stat&1<<2)
 780              		.loc 1 173 0
 781 01b4 03471700 		lbu	a4,1(a4)
 782 01b8 0507     		addi	a4,a4,1
 783 01ba A300E300 		sb	a4,1(t1)
 178:../src/snake.c ****     {
 784              		.loc 1 178 0
 785 01be E3FBAAF6 		bleu	a0,s5,.L100
 786              	.L38:
 183:../src/snake.c ****     	printk("game over");
 787              		.loc 1 183 0
 788 01c2 97000000 		call	draw_gameover
 788      E7800000 
 789              	.LVL88:
 184:../src/snake.c ****       node_cnt=0;//清空节点
 790              		.loc 1 184 0
 791 01ca 37050000 		lui	a0,%hi(.LC2)
 792 01ce 13050500 		addi	a0,a0,%lo(.LC2)
 793 01d2 97000000 		call	printk
 793      E7800000 
 794              	.LVL89:
 264:../src/snake.c ****       }
 265:../src/snake.c ****       break;
 266:../src/snake.c ****     }
 267:../src/snake.c **** //    Delay_Ms(300);
 268:../src/snake.c ****   }
 269:../src/snake.c ****   return 0;
 270:../src/snake.c **** }
 795              		.loc 1 270 0
 796 01da B640     		lw	ra,76(sp)
 797              		.cfi_remember_state
 798              		.cfi_restore 1
 799 01dc 2644     		lw	s0,72(sp)
 800              		.cfi_restore 8
 185:../src/snake.c ****       break;//游戏结束
 801              		.loc 1 185 0
 802 01de 23000900 		sb	zero,0(s2)
 803              		.loc 1 270 0
 804 01e2 9644     		lw	s1,68(sp)
 805              		.cfi_restore 9
 806              	.LVL90:
 807 01e4 0649     		lw	s2,64(sp)
 808              		.cfi_restore 18
 809 01e6 F259     		lw	s3,60(sp)
 810              		.cfi_restore 19
 811 01e8 625A     		lw	s4,56(sp)
 812              		.cfi_restore 20
 813 01ea D25A     		lw	s5,52(sp)
 814              		.cfi_restore 21
 815 01ec 425B     		lw	s6,48(sp)
 816              		.cfi_restore 22
 817 01ee B25B     		lw	s7,44(sp)
 818              		.cfi_restore 23
 819 01f0 225C     		lw	s8,40(sp)
 820              		.cfi_restore 24
 821              	.LVL91:
 822 01f2 925C     		lw	s9,36(sp)
 823              		.cfi_restore 25
 824              	.LVL92:
 825 01f4 025D     		lw	s10,32(sp)
 826              		.cfi_restore 26
 827              	.LVL93:
 828 01f6 F24D     		lw	s11,28(sp)
 829              		.cfi_restore 27
 830              	.LVL94:
 831 01f8 0145     		li	a0,0
 832 01fa 6161     		addi	sp,sp,80
 833              		.cfi_def_cfa_offset 0
 834              	.LVL95:
 835 01fc 8280     		jr	ra
 836              	.LVL96:
 837              	.L98:
 838              		.cfi_restore_state
 188:../src/snake.c ****     {
 839              		.loc 1 188 0 discriminator 1
 840 01fe B307C401 		add	a5,s0,t3
 841 0202 83C71700 		lbu	a5,1(a5)
 842 0206 E39287F5 		bne	a5,s8,.L40
 194:../src/snake.c **** //      }
 843              		.loc 1 194 0
 844 020a 63850900 		beqz	s3,.L41
 194:../src/snake.c **** //      }
 845              		.loc 1 194 0 is_stmt 0 discriminator 1
 846 020e FD1C     		addi	s9,s9,-1
 847              	.LVL97:
 848 0210 93FCFC0F 		andi	s9,s9,0xff
 849              	.LVL98:
 850              	.L41:
 194:../src/snake.c **** //      }
 851              		.loc 1 194 0 discriminator 3
 852 0214 93772D00 		andi	a5,s10,2
 853 0218 81C7     		beqz	a5,.L42
 194:../src/snake.c **** //      }
 854              		.loc 1 194 0 discriminator 4
 855 021a 850C     		addi	s9,s9,1
 856              	.LVL99:
 857 021c 93FCFC0F 		andi	s9,s9,0xff
 858              	.LVL100:
 859              	.L42:
 200:../src/snake.c **** //      }
 860              		.loc 1 200 0 is_stmt 1
 861 0220 93778D00 		andi	a5,s10,8
 862 0224 99C7     		beqz	a5,.L43
 200:../src/snake.c **** //      }
 863              		.loc 1 200 0 is_stmt 0 discriminator 1
 864 0226 B247     		lw	a5,12(sp)
 865 0228 138C1700 		addi	s8,a5,1
 866              	.LVL101:
 867 022c 9377FC0F 		andi	a5,s8,0xff
 868 0230 3EC6     		sw	a5,12(sp)
 869              	.LVL102:
 870              	.L43:
 200:../src/snake.c **** //      }
 871              		.loc 1 200 0 discriminator 3
 872 0232 93774D00 		andi	a5,s10,4
 873 0236 99C7     		beqz	a5,.L44
 200:../src/snake.c **** //      }
 874              		.loc 1 200 0 discriminator 4
 875 0238 B247     		lw	a5,12(sp)
 876 023a 138CF7FF 		addi	s8,a5,-1
 877 023e 9377FC0F 		andi	a5,s8,0xff
 878 0242 3EC6     		sw	a5,12(sp)
 879              	.LVL103:
 880              	.L44:
 202:../src/snake.c **** //      HDMI_DrawSnakebody(snake_info,node_cnt,1);
 881              		.loc 1 202 0 is_stmt 1
 882 0244 8505     		addi	a1,a1,1
 883 0246 93F5F50F 		andi	a1,a1,0xff
 204:../src/snake.c ****       printk("node_cnt:%d",node_cnt);
 884              		.loc 1 204 0
 885 024a 1387F5FF 		addi	a4,a1,-1
 886              	.LVL104:
 887 024e 0607     		slli	a4,a4,1
 888              	.LVL105:
 889 0250 2297     		add	a4,s0,a4
 890              	.LVL106:
 891 0252 83461700 		lbu	a3,1(a4)
 892 0256 03470700 		lbu	a4,0(a4)
 202:../src/snake.c **** //      HDMI_DrawSnakebody(snake_info,node_cnt,1);
 893              		.loc 1 202 0
 894 025a 2300B900 		sb	a1,0(s2)
 895              	.LBB111:
 896              	.LBB108:
  19:../src/snake.c **** 	ram_address = addr_temp;
 897              		.loc 1 19 0
 898 025e 93972600 		slli	a5,a3,2
 899 0262 B697     		add	a5,a5,a3
 900 0264 8E07     		slli	a5,a5,3
 901 0266 BA97     		add	a5,a5,a4
  20:../src/snake.c **** 	ram_data_address = POINT;
 902              		.loc 1 20 0
 903 0268 2320FB06 		sw	a5,96(s6)
 904              	.LVL107:
  21:../src/snake.c **** }
 905              		.loc 1 21 0
 906 026c CD47     		li	a5,19
 907 026e 2328FB06 		sw	a5,112(s6)
 908              	.LBE108:
 909              	.LBE111:
 205:../src/snake.c ****       while(1)//保证重新生成的实物不再蛇身上
 910              		.loc 1 205 0
 911 0272 B7070000 		lui	a5,%hi(.LC3)
 912 0276 13850700 		addi	a0,a5,%lo(.LC3)
 913 027a 97000000 		call	printk
 913      E7800000 
 914              	.LVL108:
 915              	.L84:
 208:../src/snake.c ****         if(HDMI_GetSnakeFoodX(food_x,node_cnt)==0)break;
 916              		.loc 1 208 0
 917 0282 97000000 		call	rand
 917      E7800000 
 918              	.LVL109:
 919 028a B3665503 		rem	a3,a0,s5
 209:../src/snake.c ****       }
 920              		.loc 1 209 0
 921 028e 83450900 		lbu	a1,0(s2)
 208:../src/snake.c ****         if(HDMI_GetSnakeFoodX(food_x,node_cnt)==0)break;
 922              		.loc 1 208 0
 923 0292 8506     		addi	a3,a3,1
 924 0294 93FDF60F 		andi	s11,a3,0xff
 925              	.LVL110:
 926              	.LBB112:
 927              	.LBB113:
  90:../src/snake.c ****   {
 928              		.loc 1 90 0
 929 0298 9DC1     		beqz	a1,.L85
  92:../src/snake.c ****   }
 930              		.loc 1 92 0
 931 029a 83470400 		lbu	a5,0(s0)
 932 029e E382B7FF 		beq	a5,s11,.L84
 933 02a2 13072400 		addi	a4,s0,2
  90:../src/snake.c ****   {
 934              		.loc 1 90 0
 935 02a6 8147     		li	a5,0
 936 02a8 29A0     		j	.L47
 937              	.LVL111:
 938              	.L48:
  92:../src/snake.c ****   }
 939              		.loc 1 92 0
 940 02aa 0346E7FF 		lbu	a2,-2(a4)
 941 02ae E30AB6FD 		beq	a2,s11,.L84
 942              	.LVL112:
 943              	.L47:
  90:../src/snake.c ****   {
 944              		.loc 1 90 0
 945 02b2 8507     		addi	a5,a5,1
 946              	.LVL113:
 947 02b4 93F7F70F 		andi	a5,a5,0xff
 948              	.LVL114:
 949 02b8 0907     		addi	a4,a4,2
 950 02ba E398F5FE 		bne	a1,a5,.L48
 951              	.LVL115:
 952              	.L85:
 953              	.LBE113:
 954              	.LBE112:
 213:../src/snake.c ****         if(HDMI_GetSnakeFoodY(food_y,node_cnt)==0)break;
 955              		.loc 1 213 0
 956 02be 97000000 		call	rand
 956      E7800000 
 957              	.LVL116:
 958 02c6 F547     		li	a5,29
 959 02c8 3368F502 		rem	a6,a0,a5
 214:../src/snake.c ****       }
 960              		.loc 1 214 0
 961 02cc 83450900 		lbu	a1,0(s2)
 213:../src/snake.c ****         if(HDMI_GetSnakeFoodY(food_y,node_cnt)==0)break;
 962              		.loc 1 213 0
 963 02d0 0508     		addi	a6,a6,1
 964 02d2 137CF80F 		andi	s8,a6,0xff
 965              	.LVL117:
 966              	.LBB114:
 967              	.LBB115:
 107:../src/snake.c ****   {
 968              		.loc 1 107 0
 969 02d6 9DC1     		beqz	a1,.L49
 109:../src/snake.c ****   }
 970              		.loc 1 109 0
 971 02d8 83471400 		lbu	a5,1(s0)
 972 02dc E38187FF 		beq	a5,s8,.L85
 973 02e0 13073400 		addi	a4,s0,3
 107:../src/snake.c ****   {
 974              		.loc 1 107 0
 975 02e4 8147     		li	a5,0
 976 02e6 29A0     		j	.L51
 977              	.LVL118:
 978              	.L52:
 109:../src/snake.c ****   }
 979              		.loc 1 109 0
 980 02e8 0346E7FF 		lbu	a2,-2(a4)
 981 02ec E30986FD 		beq	a2,s8,.L85
 982              	.LVL119:
 983              	.L51:
 107:../src/snake.c ****   {
 984              		.loc 1 107 0
 985 02f0 8507     		addi	a5,a5,1
 986              	.LVL120:
 987 02f2 93F7F70F 		andi	a5,a5,0xff
 988              	.LVL121:
 989 02f6 0907     		addi	a4,a4,2
 990 02f8 E398F5FE 		bne	a1,a5,.L52
 991              	.LVL122:
 992              	.L49:
 993              	.LBE115:
 994              	.LBE114:
 995              	.LBB116:
 996              	.LBB117:
 997 02fc E285     		mv	a1,s8
 998 02fe 6E85     		mv	a0,s11
 999 0300 97000000 		call	HDMI_DrawPoint.part.0
 999      E7800000 
 1000              	.LVL123:
 1001 0308 89B5     		j	.L40
 1002              	.LVL124:
 1003              	.L99:
 1004              	.LBE117:
 1005              	.LBE116:
 224:../src/snake.c ****     {
 1006              		.loc 1 224 0
 1007 030a 8547     		li	a5,1
 1008 030c E396F4DE 		bne	s1,a5,.L32
 1009              	.LVL125:
 228:../src/snake.c ****       else
 1010              		.loc 1 228 0
 1011 0310 93772D00 		andi	a5,s10,2
 227:../src/snake.c ****       if(stat&1<<1){}//向下时不能直接向上
 1012              		.loc 1 227 0
 1013 0314 137D3D0F 		andi	s10,s10,243
 1014              	.LVL126:
 1015 0318 137A1D00 		andi	s4,s10,1
 228:../src/snake.c ****       else
 1016              		.loc 1 228 0
 1017 031c E39E07DC 		bnez	a5,.L32
 232:../src/snake.c ****         Snake_Move(x,y);
 1018              		.loc 1 232 0
 1019 0320 FD1C     		addi	s9,s9,-1
 1020              	.LVL127:
 233:../src/snake.c ****       }
 1021              		.loc 1 233 0
 1022 0322 3245     		lw	a0,12(sp)
 232:../src/snake.c ****         Snake_Move(x,y);
 1023              		.loc 1 232 0
 1024 0324 93FCFC0F 		andi	s9,s9,0xff
 231:../src/snake.c ****         y-=1;
 1025              		.loc 1 231 0
 1026 0328 136D1D00 		ori	s10,s10,1
 1027              	.LVL128:
 233:../src/snake.c ****       }
 1028              		.loc 1 233 0
 1029 032c E685     		mv	a1,s9
 1030 032e 97000000 		call	Snake_Move
 1030      E7800000 
 1031              	.LVL129:
 1032 0336 137A1D00 		andi	s4,s10,1
 1033 033a 7DBB     		j	.L32
 1034              	.L36:
 174:../src/snake.c **** 		  snake_info[node_cnt].x=snake_info[node_cnt-1].x-1;
 1035              		.loc 1 174 0
 1036 033c 13764D00 		andi	a2,s10,4
 1037 0340 2DC6     		beqz	a2,.L37
 175:../src/snake.c **** 	  else if(stat&1<<3)
 1038              		.loc 1 175 0
 1039 0342 03450700 		lbu	a0,0(a4)
 1040 0346 7D15     		addi	a0,a0,-1
 1041 0348 1375F50F 		andi	a0,a0,0xff
 1042 034c 2300A300 		sb	a0,0(t1)
 1043 0350 C5B3     		j	.L35
 1044              	.L54:
 237:../src/snake.c ****       if(stat&1<<0){}//在向上时不能直接向下
 1045              		.loc 1 237 0
 1046 0352 137D3D0F 		andi	s10,s10,243
 1047              	.LVL130:
 1048 0356 137A1D00 		andi	s4,s10,1
 238:../src/snake.c ****       else
 1049              		.loc 1 238 0
 1050 035a E39F09D8 		bnez	s3,.L32
 242:../src/snake.c ****         Snake_Move(x,y);
 1051              		.loc 1 242 0
 1052 035e 850C     		addi	s9,s9,1
 1053              	.LVL131:
 243:../src/snake.c ****       }
 1054              		.loc 1 243 0
 1055 0360 3245     		lw	a0,12(sp)
 242:../src/snake.c ****         Snake_Move(x,y);
 1056              		.loc 1 242 0
 1057 0362 93FCFC0F 		andi	s9,s9,0xff
 241:../src/snake.c ****         y+=1;
 1058              		.loc 1 241 0
 1059 0366 136D2D00 		ori	s10,s10,2
 1060              	.LVL132:
 243:../src/snake.c ****       }
 1061              		.loc 1 243 0
 1062 036a E685     		mv	a1,s9
 1063 036c 97000000 		call	Snake_Move
 1063      E7800000 
 1064              	.LVL133:
 1065 0374 137A1D00 		andi	s4,s10,1
 1066 0378 41B3     		j	.L32
 1067              	.L57:
 1068              	.LVL134:
 248:../src/snake.c ****       else
 1069              		.loc 1 248 0
 1070 037a 93778D00 		andi	a5,s10,8
 247:../src/snake.c ****       if(stat&1<<3){}//向右时不能直接向左
 1071              		.loc 1 247 0
 1072 037e 137DCD0F 		andi	s10,s10,252
 1073              	.LVL135:
 1074 0382 137A1D00 		andi	s4,s10,1
 248:../src/snake.c ****       else
 1075              		.loc 1 248 0
 1076 0386 E39907D6 		bnez	a5,.L32
 252:../src/snake.c ****         Snake_Move(x,y);
 1077              		.loc 1 252 0
 1078 038a B247     		lw	a5,12(sp)
 251:../src/snake.c ****         x-=1;
 1079              		.loc 1 251 0
 1080 038c 136D4D00 		ori	s10,s10,4
 1081              	.LVL136:
 253:../src/snake.c ****       }
 1082              		.loc 1 253 0
 1083 0390 E685     		mv	a1,s9
 252:../src/snake.c ****         Snake_Move(x,y);
 1084              		.loc 1 252 0
 1085 0392 FD17     		addi	a5,a5,-1
 1086 0394 93F7F70F 		andi	a5,a5,0xff
 1087              	.LVL137:
 253:../src/snake.c ****       }
 1088              		.loc 1 253 0
 1089 0398 3E85     		mv	a0,a5
 252:../src/snake.c ****         Snake_Move(x,y);
 1090              		.loc 1 252 0
 1091 039a 3EC6     		sw	a5,12(sp)
 1092 039c 137A1D00 		andi	s4,s10,1
 253:../src/snake.c ****       }
 1093              		.loc 1 253 0
 1094 03a0 97000000 		call	Snake_Move
 1094      E7800000 
 1095              	.LVL138:
 1096 03a8 81BB     		j	.L32
 1097              	.L37:
 176:../src/snake.c **** 		  snake_info[node_cnt].x=snake_info[node_cnt-1].x+1;
 1098              		.loc 1 176 0
 1099 03aa 13768D00 		andi	a2,s10,8
 1100 03ae E30106D8 		beqz	a2,.L35
 177:../src/snake.c ****     if(snake_info[node_cnt].x>39 || snake_info[node_cnt-1].y>=29 || snake_info[node_cnt-1].x<1 || s
 1101              		.loc 1 177 0
 1102 03b2 03450700 		lbu	a0,0(a4)
 1103 03b6 0505     		addi	a0,a0,1
 1104 03b8 1375F50F 		andi	a0,a0,0xff
 1105 03bc 2300A300 		sb	a0,0(t1)
 1106 03c0 85BB     		j	.L35
 1107              		.cfi_endproc
 1108              	.LFE11:
 1110              		.globl	snake_info
 1111              		.section	.bss.snake_info,"aw",@nobits
 1112              		.align	2
 1113              		.set	.LANCHOR1,. + 0
 1116              	snake_info:
 1117 0000 00000000 		.zero	100
 1117      00000000 
 1117      00000000 
 1117      00000000 
 1117      00000000 
 1118              		.section	.rodata.SnakeGameStart.str1.4,"aMS",@progbits,1
 1119              		.align	2
 1120              	.LC1:
 1121 0000 666F6F64 		.string	"foodx:%d,foody:%d\n"
 1121      783A2564 
 1121      2C666F6F 
 1121      64793A25 
 1121      640A00
 1122 0013 00       		.zero	1
 1123              	.LC2:
 1124 0014 67616D65 		.string	"game over"
 1124      206F7665 
 1124      7200
 1125 001e 0000     		.zero	2
 1126              	.LC3:
 1127 0020 6E6F6465 		.string	"node_cnt:%d"
 1127      5F636E74 
 1127      3A256400 
 1128              	.LC4:
 1129 002c 6B65795F 		.string	"key_val:%x\n"
 1129      76616C3A 
 1129      25780A00 
 1130              		.section	.rodata.Snake_Move.str1.4,"aMS",@progbits,1
 1131              		.align	2
 1132              	.LC0:
 1133 0000 78303A25 		.string	"x0:%d,y0:%d"
 1133      642C7930 
 1133      3A256400 
 1134              		.section	.sbss.node_cnt,"aw",@nobits
 1135              		.set	.LANCHOR0,. + 0
 1138              	node_cnt:
 1139 0000 00       		.zero	1
 1140              		.text
 1141              	.Letext0:
 1142              		.file 2 "d:\\hummingbird\\hbird-eclipse_2018_09\\gnu mcu eclipse\\risc-v embedded gcc\\7.2.0-4-201
 1143              		.file 3 "d:\\hummingbird\\hbird-eclipse_2018_09\\gnu mcu eclipse\\risc-v embedded gcc\\7.2.0-4-201
 1144              		.file 4 "d:\\hummingbird\\hbird-eclipse_2018_09\\gnu mcu eclipse\\risc-v embedded gcc\\7.2.0-4-201
 1145              		.file 5 "d:\\hummingbird\\hbird-eclipse_2018_09\\gnu mcu eclipse\\risc-v embedded gcc\\7.2.0-4-201
 1146              		.file 6 "d:\\hummingbird\\hbird-eclipse_2018_09\\gnu mcu eclipse\\risc-v embedded gcc\\7.2.0-4-201
 1147              		.file 7 "d:\\hummingbird\\hbird-eclipse_2018_09\\gnu mcu eclipse\\risc-v embedded gcc\\7.2.0-4-201
 1148              		.file 8 "d:\\hummingbird\\hbird-eclipse_2018_09\\gnu mcu eclipse\\risc-v embedded gcc\\7.2.0-4-201
 1149              		.file 9 "../src/uart.h"
 1150              		.file 10 "../src/snake.h"
DEFINED SYMBOLS
                            *ABS*:0000000000000000 snake.c
C:\Users\rana\AppData\Local\Temp\ccA1VCOD.s:9      .text.HDMI_DrawPoint.part.0:0000000000000000 HDMI_DrawPoint.part.0
C:\Users\rana\AppData\Local\Temp\ccA1VCOD.s:13     .text.HDMI_DrawPoint.part.0:0000000000000000 .L0 
C:\Users\rana\AppData\Local\Temp\ccA1VCOD.s:17     .text.HDMI_DrawPoint.part.0:0000000000000000 .L0 
C:\Users\rana\AppData\Local\Temp\ccA1VCOD.s:18     .text.HDMI_DrawPoint.part.0:0000000000000000 .L0 
C:\Users\rana\AppData\Local\Temp\ccA1VCOD.s:28     .text.HDMI_DrawPoint.part.0:0000000000000010 .L0 
C:\Users\rana\AppData\Local\Temp\ccA1VCOD.s:30     .text.HDMI_DrawPoint.part.0:0000000000000012 .L0 
C:\Users\rana\AppData\Local\Temp\ccA1VCOD.s:34     .text.HDMI_DrawPoint.part.0:000000000000001c .L0 
C:\Users\rana\AppData\Local\Temp\ccA1VCOD.s:39     .text.HDMI_DrawPoint.part.0:0000000000000022 .L0 
C:\Users\rana\AppData\Local\Temp\ccA1VCOD.s:41     .text.HDMI_DrawPoint.part.0:0000000000000024 .L0 
C:\Users\rana\AppData\Local\Temp\ccA1VCOD.s:46     .text.HDMI_DrawPoint.part.0:0000000000000028 .L0 
C:\Users\rana\AppData\Local\Temp\ccA1VCOD.s:50     .text.HDMI_DrawPoint.part.0:000000000000002a .L0 
C:\Users\rana\AppData\Local\Temp\ccA1VCOD.s:51     .text.HDMI_DrawPoint.part.0:000000000000002c .L0 
C:\Users\rana\AppData\Local\Temp\ccA1VCOD.s:57     .text.Snake_Move:0000000000000000 Snake_Move
C:\Users\rana\AppData\Local\Temp\ccA1VCOD.s:60     .text.Snake_Move:0000000000000000 .L0 
C:\Users\rana\AppData\Local\Temp\ccA1VCOD.s:62     .text.Snake_Move:0000000000000000 .L0 
C:\Users\rana\AppData\Local\Temp\ccA1VCOD.s:63     .text.Snake_Move:0000000000000000 .L0 
C:\Users\rana\AppData\Local\Temp\ccA1VCOD.s:66     .text.Snake_Move:0000000000000008 .L0 
C:\Users\rana\AppData\Local\Temp\ccA1VCOD.s:67     .text.Snake_Move:000000000000000a .L0 
C:\Users\rana\AppData\Local\Temp\ccA1VCOD.s:70     .text.Snake_Move:000000000000000c .L0 
C:\Users\rana\AppData\Local\Temp\ccA1VCOD.s:72     .text.Snake_Move:000000000000000e .L0 
C:\Users\rana\AppData\Local\Temp\ccA1VCOD.s:78     .text.Snake_Move:000000000000001a .L0 
C:\Users\rana\AppData\Local\Temp\ccA1VCOD.s:80     .text.Snake_Move:000000000000001c .L0 
C:\Users\rana\AppData\Local\Temp\ccA1VCOD.s:82     .text.Snake_Move:000000000000001c .L0 
C:\Users\rana\AppData\Local\Temp\ccA1VCOD.s:88     .text.Snake_Move:0000000000000028 .L0 
C:\Users\rana\AppData\Local\Temp\ccA1VCOD.s:90     .text.Snake_Move:000000000000002a .L0 
C:\Users\rana\AppData\Local\Temp\ccA1VCOD.s:95     .text.Snake_Move:0000000000000034 .L0 
C:\Users\rana\AppData\Local\Temp\ccA1VCOD.s:98     .text.Snake_Move:0000000000000036 .L0 
C:\Users\rana\AppData\Local\Temp\ccA1VCOD.s:106    .text.Snake_Move:000000000000003a .L0 
C:\Users\rana\AppData\Local\Temp\ccA1VCOD.s:113    .text.Snake_Move:0000000000000042 .L0 
C:\Users\rana\AppData\Local\Temp\ccA1VCOD.s:120    .text.Snake_Move:000000000000004e .L0 
C:\Users\rana\AppData\Local\Temp\ccA1VCOD.s:125    .text.Snake_Move:0000000000000052 .L0 
C:\Users\rana\AppData\Local\Temp\ccA1VCOD.s:130    .text.Snake_Move:0000000000000058 .L0 
C:\Users\rana\AppData\Local\Temp\ccA1VCOD.s:136    .text.Snake_Move:000000000000005a .L0 
C:\Users\rana\AppData\Local\Temp\ccA1VCOD.s:141    .text.Snake_Move:0000000000000060 .L0 
C:\Users\rana\AppData\Local\Temp\ccA1VCOD.s:146    .text.Snake_Move:000000000000006c .L0 
C:\Users\rana\AppData\Local\Temp\ccA1VCOD.s:148    .text.Snake_Move:0000000000000070 .L0 
C:\Users\rana\AppData\Local\Temp\ccA1VCOD.s:151    .text.Snake_Move:0000000000000074 .L0 
C:\Users\rana\AppData\Local\Temp\ccA1VCOD.s:156    .text.Snake_Move:000000000000007a .L0 
C:\Users\rana\AppData\Local\Temp\ccA1VCOD.s:158    .text.Snake_Move:000000000000007e .L0 
C:\Users\rana\AppData\Local\Temp\ccA1VCOD.s:160    .text.Snake_Move:0000000000000082 .L0 
C:\Users\rana\AppData\Local\Temp\ccA1VCOD.s:165    .text.Snake_Move:0000000000000088 .L0 
C:\Users\rana\AppData\Local\Temp\ccA1VCOD.s:167    .text.Snake_Move:000000000000008a .L0 
C:\Users\rana\AppData\Local\Temp\ccA1VCOD.s:170    .text.Snake_Move:000000000000008e .L0 
C:\Users\rana\AppData\Local\Temp\ccA1VCOD.s:173    .text.Snake_Move:0000000000000092 .L0 
C:\Users\rana\AppData\Local\Temp\ccA1VCOD.s:176    .text.Snake_Move:0000000000000096 .L0 
C:\Users\rana\AppData\Local\Temp\ccA1VCOD.s:180    .text.Snake_Move:000000000000009a .L0 
C:\Users\rana\AppData\Local\Temp\ccA1VCOD.s:185    .text.Snake_Move:00000000000000a4 .L0 
C:\Users\rana\AppData\Local\Temp\ccA1VCOD.s:190    .text.Snake_Move:00000000000000a8 .L0 
C:\Users\rana\AppData\Local\Temp\ccA1VCOD.s:202    .text.Snake_Move:00000000000000b4 .L0 
C:\Users\rana\AppData\Local\Temp\ccA1VCOD.s:205    .text.Snake_Move:00000000000000bc .L0 
C:\Users\rana\AppData\Local\Temp\ccA1VCOD.s:206    .text.Snake_Move:00000000000000be .L0 
C:\Users\rana\AppData\Local\Temp\ccA1VCOD.s:208    .text.Snake_Move:00000000000000c0 .L0 
C:\Users\rana\AppData\Local\Temp\ccA1VCOD.s:210    .text.Snake_Move:00000000000000c0 .L0 
C:\Users\rana\AppData\Local\Temp\ccA1VCOD.s:212    .text.Snake_Move:00000000000000c4 .L0 
C:\Users\rana\AppData\Local\Temp\ccA1VCOD.s:213    .text.Snake_Move:00000000000000c4 .L0 
C:\Users\rana\AppData\Local\Temp\ccA1VCOD.s:215    .text.Snake_Move:00000000000000c8 .L0 
C:\Users\rana\AppData\Local\Temp\ccA1VCOD.s:216    .text.Snake_Move:00000000000000ca .L0 
C:\Users\rana\AppData\Local\Temp\ccA1VCOD.s:218    .text.Snake_Move:00000000000000ca .L0 
C:\Users\rana\AppData\Local\Temp\ccA1VCOD.s:220    .text.Snake_Move:00000000000000d2 .L0 
C:\Users\rana\AppData\Local\Temp\ccA1VCOD.s:227    .text.HDMI_DrawPoint:0000000000000000 HDMI_DrawPoint
C:\Users\rana\AppData\Local\Temp\ccA1VCOD.s:230    .text.HDMI_DrawPoint:0000000000000000 .L0 
C:\Users\rana\AppData\Local\Temp\ccA1VCOD.s:232    .text.HDMI_DrawPoint:0000000000000000 .L0 
C:\Users\rana\AppData\Local\Temp\ccA1VCOD.s:233    .text.HDMI_DrawPoint:0000000000000000 .L0 
C:\Users\rana\AppData\Local\Temp\ccA1VCOD.s:240    .text.HDMI_DrawPoint:000000000000000a .L0 
C:\Users\rana\AppData\Local\Temp\ccA1VCOD.s:246    .text.HDMI_DrawPoint:0000000000000016 .L0 
C:\Users\rana\AppData\Local\Temp\ccA1VCOD.s:251    .text.HDMI_DrawPoint:000000000000001a .L0 
C:\Users\rana\AppData\Local\Temp\ccA1VCOD.s:256    .text.HDMI_DrawPoint:0000000000000020 .L0 
C:\Users\rana\AppData\Local\Temp\ccA1VCOD.s:260    .text.HDMI_DrawPoint:0000000000000022 .L0 
C:\Users\rana\AppData\Local\Temp\ccA1VCOD.s:261    .text.HDMI_DrawPoint:0000000000000024 .L0 
C:\Users\rana\AppData\Local\Temp\ccA1VCOD.s:268    .text.draw_point:0000000000000000 draw_point
C:\Users\rana\AppData\Local\Temp\ccA1VCOD.s:271    .text.draw_point:0000000000000000 .L0 
C:\Users\rana\AppData\Local\Temp\ccA1VCOD.s:273    .text.draw_point:0000000000000000 .L0 
C:\Users\rana\AppData\Local\Temp\ccA1VCOD.s:274    .text.draw_point:0000000000000000 .L0 
C:\Users\rana\AppData\Local\Temp\ccA1VCOD.s:279    .text.draw_point:0000000000000008 .L0 
C:\Users\rana\AppData\Local\Temp\ccA1VCOD.s:281    .text.draw_point:000000000000000a .L0 
C:\Users\rana\AppData\Local\Temp\ccA1VCOD.s:283    .text.draw_point:000000000000000c .L0 
C:\Users\rana\AppData\Local\Temp\ccA1VCOD.s:285    .text.draw_point:000000000000000e .L0 
C:\Users\rana\AppData\Local\Temp\ccA1VCOD.s:288    .text.draw_point:0000000000000012 .L0 
C:\Users\rana\AppData\Local\Temp\ccA1VCOD.s:289    .text.draw_point:0000000000000014 .L0 
C:\Users\rana\AppData\Local\Temp\ccA1VCOD.s:296    .text.clear_point:0000000000000000 clear_point
C:\Users\rana\AppData\Local\Temp\ccA1VCOD.s:299    .text.clear_point:0000000000000000 .L0 
C:\Users\rana\AppData\Local\Temp\ccA1VCOD.s:301    .text.clear_point:0000000000000000 .L0 
C:\Users\rana\AppData\Local\Temp\ccA1VCOD.s:302    .text.clear_point:0000000000000000 .L0 
C:\Users\rana\AppData\Local\Temp\ccA1VCOD.s:308    .text.clear_point:000000000000000a .L0 
C:\Users\rana\AppData\Local\Temp\ccA1VCOD.s:310    .text.clear_point:000000000000000c .L0 
C:\Users\rana\AppData\Local\Temp\ccA1VCOD.s:314    .text.clear_point:000000000000000e .L0 
C:\Users\rana\AppData\Local\Temp\ccA1VCOD.s:316    .text.clear_point:0000000000000010 .L0 
C:\Users\rana\AppData\Local\Temp\ccA1VCOD.s:321    .text.clear_point:0000000000000016 .L0 
C:\Users\rana\AppData\Local\Temp\ccA1VCOD.s:323    .text.clear_point:0000000000000018 .L0 
C:\Users\rana\AppData\Local\Temp\ccA1VCOD.s:324    .text.clear_point:000000000000001a .L0 
C:\Users\rana\AppData\Local\Temp\ccA1VCOD.s:331    .text.delay:0000000000000000 delay
C:\Users\rana\AppData\Local\Temp\ccA1VCOD.s:334    .text.delay:0000000000000000 .L0 
C:\Users\rana\AppData\Local\Temp\ccA1VCOD.s:336    .text.delay:0000000000000000 .L0 
C:\Users\rana\AppData\Local\Temp\ccA1VCOD.s:337    .text.delay:0000000000000000 .L0 
C:\Users\rana\AppData\Local\Temp\ccA1VCOD.s:344    .text.delay:000000000000000a .L0 
C:\Users\rana\AppData\Local\Temp\ccA1VCOD.s:348    .text.delay:0000000000000010 .L0 
C:\Users\rana\AppData\Local\Temp\ccA1VCOD.s:350    .text.delay:0000000000000012 .L0 
C:\Users\rana\AppData\Local\Temp\ccA1VCOD.s:354    .text.delay:0000000000000018 .L0 
C:\Users\rana\AppData\Local\Temp\ccA1VCOD.s:358    .text.delay:000000000000001a .L0 
C:\Users\rana\AppData\Local\Temp\ccA1VCOD.s:360    .text.delay:000000000000001c .L0 
C:\Users\rana\AppData\Local\Temp\ccA1VCOD.s:362    .text.delay:000000000000001e .L0 
C:\Users\rana\AppData\Local\Temp\ccA1VCOD.s:367    .text.delay:0000000000000024 .L0 
C:\Users\rana\AppData\Local\Temp\ccA1VCOD.s:368    .text.delay:0000000000000026 .L0 
C:\Users\rana\AppData\Local\Temp\ccA1VCOD.s:375    .text.draw_c:0000000000000000 draw_c
C:\Users\rana\AppData\Local\Temp\ccA1VCOD.s:378    .text.draw_c:0000000000000000 .L0 
C:\Users\rana\AppData\Local\Temp\ccA1VCOD.s:380    .text.draw_c:0000000000000000 .L0 
C:\Users\rana\AppData\Local\Temp\ccA1VCOD.s:381    .text.draw_c:0000000000000000 .L0 
C:\Users\rana\AppData\Local\Temp\ccA1VCOD.s:387    .text.draw_c:0000000000000008 .L0 
C:\Users\rana\AppData\Local\Temp\ccA1VCOD.s:389    .text.draw_c:000000000000000c .L0 
C:\Users\rana\AppData\Local\Temp\ccA1VCOD.s:391    .text.draw_c:000000000000000e .L0 
C:\Users\rana\AppData\Local\Temp\ccA1VCOD.s:393    .text.draw_c:0000000000000010 .L0 
C:\Users\rana\AppData\Local\Temp\ccA1VCOD.s:397    .text.draw_c:0000000000000014 .L0 
C:\Users\rana\AppData\Local\Temp\ccA1VCOD.s:399    .text.draw_c:0000000000000016 .L0 
C:\Users\rana\AppData\Local\Temp\ccA1VCOD.s:402    .text.draw_c:0000000000000018 .L0 
C:\Users\rana\AppData\Local\Temp\ccA1VCOD.s:404    .text.draw_c:000000000000001a .L0 
C:\Users\rana\AppData\Local\Temp\ccA1VCOD.s:405    .text.draw_c:000000000000001c .L0 
C:\Users\rana\AppData\Local\Temp\ccA1VCOD.s:412    .text.draw_gameover:0000000000000000 draw_gameover
C:\Users\rana\AppData\Local\Temp\ccA1VCOD.s:415    .text.draw_gameover:0000000000000000 .L0 
C:\Users\rana\AppData\Local\Temp\ccA1VCOD.s:419    .text.draw_gameover:0000000000000000 .L0 
C:\Users\rana\AppData\Local\Temp\ccA1VCOD.s:420    .text.draw_gameover:0000000000000000 .L0 
C:\Users\rana\AppData\Local\Temp\ccA1VCOD.s:424    .text.draw_gameover:0000000000000008 .L0 
C:\Users\rana\AppData\Local\Temp\ccA1VCOD.s:432    .text.draw_gameover:000000000000000e .L0 
C:\Users\rana\AppData\Local\Temp\ccA1VCOD.s:435    .text.draw_gameover:0000000000000014 .L0 
C:\Users\rana\AppData\Local\Temp\ccA1VCOD.s:443    .text.draw_gameover:000000000000001a .L0 
C:\Users\rana\AppData\Local\Temp\ccA1VCOD.s:446    .text.draw_gameover:0000000000000020 .L0 
C:\Users\rana\AppData\Local\Temp\ccA1VCOD.s:454    .text.draw_gameover:0000000000000026 .L0 
C:\Users\rana\AppData\Local\Temp\ccA1VCOD.s:457    .text.draw_gameover:000000000000002c .L0 
C:\Users\rana\AppData\Local\Temp\ccA1VCOD.s:465    .text.draw_gameover:0000000000000032 .L0 
C:\Users\rana\AppData\Local\Temp\ccA1VCOD.s:468    .text.draw_gameover:0000000000000038 .L0 
C:\Users\rana\AppData\Local\Temp\ccA1VCOD.s:476    .text.draw_gameover:000000000000003e .L0 
C:\Users\rana\AppData\Local\Temp\ccA1VCOD.s:479    .text.draw_gameover:0000000000000044 .L0 
C:\Users\rana\AppData\Local\Temp\ccA1VCOD.s:487    .text.draw_gameover:000000000000004a .L0 
C:\Users\rana\AppData\Local\Temp\ccA1VCOD.s:490    .text.draw_gameover:0000000000000050 .L0 
C:\Users\rana\AppData\Local\Temp\ccA1VCOD.s:497    .text.draw_gameover:0000000000000052 .L0 
C:\Users\rana\AppData\Local\Temp\ccA1VCOD.s:500    .text.draw_gameover:0000000000000058 .L0 
C:\Users\rana\AppData\Local\Temp\ccA1VCOD.s:506    .text.draw_gameover:000000000000005c .L0 
C:\Users\rana\AppData\Local\Temp\ccA1VCOD.s:507    .text.draw_gameover:000000000000005e .L0 
C:\Users\rana\AppData\Local\Temp\ccA1VCOD.s:514    .text.SnakeGameStart:0000000000000000 SnakeGameStart
C:\Users\rana\AppData\Local\Temp\ccA1VCOD.s:517    .text.SnakeGameStart:0000000000000000 .L0 
C:\Users\rana\AppData\Local\Temp\ccA1VCOD.s:519    .text.SnakeGameStart:0000000000000000 .L0 
C:\Users\rana\AppData\Local\Temp\ccA1VCOD.s:520    .text.SnakeGameStart:0000000000000002 .L0 
C:\Users\rana\AppData\Local\Temp\ccA1VCOD.s:522    .text.SnakeGameStart:0000000000000004 .L0 
C:\Users\rana\AppData\Local\Temp\ccA1VCOD.s:524    .text.SnakeGameStart:0000000000000004 .L0 
C:\Users\rana\AppData\Local\Temp\ccA1VCOD.s:528    .text.SnakeGameStart:0000000000000010 .L0 
C:\Users\rana\AppData\Local\Temp\ccA1VCOD.s:530    .text.SnakeGameStart:0000000000000014 .L0 
C:\Users\rana\AppData\Local\Temp\ccA1VCOD.s:531    .text.SnakeGameStart:0000000000000014 .L0 
C:\Users\rana\AppData\Local\Temp\ccA1VCOD.s:533    .text.SnakeGameStart:0000000000000014 .L0 
C:\Users\rana\AppData\Local\Temp\ccA1VCOD.s:535    .text.SnakeGameStart:0000000000000018 .L0 
C:\Users\rana\AppData\Local\Temp\ccA1VCOD.s:537    .text.SnakeGameStart:000000000000001c .L0 
C:\Users\rana\AppData\Local\Temp\ccA1VCOD.s:539    .text.SnakeGameStart:000000000000001e .L0 
C:\Users\rana\AppData\Local\Temp\ccA1VCOD.s:540    .text.SnakeGameStart:0000000000000020 .L0 
C:\Users\rana\AppData\Local\Temp\ccA1VCOD.s:544    .text.SnakeGameStart:0000000000000028 .L0 
C:\Users\rana\AppData\Local\Temp\ccA1VCOD.s:546    .text.SnakeGameStart:000000000000002c .L0 
C:\Users\rana\AppData\Local\Temp\ccA1VCOD.s:548    .text.SnakeGameStart:000000000000002e .L0 
C:\Users\rana\AppData\Local\Temp\ccA1VCOD.s:557    .text.SnakeGameStart:0000000000000040 .L0 
C:\Users\rana\AppData\Local\Temp\ccA1VCOD.s:558    .text.SnakeGameStart:0000000000000040 .L0 
C:\Users\rana\AppData\Local\Temp\ccA1VCOD.s:559    .text.SnakeGameStart:0000000000000040 .L0 
C:\Users\rana\AppData\Local\Temp\ccA1VCOD.s:560    .text.SnakeGameStart:0000000000000040 .L0 
C:\Users\rana\AppData\Local\Temp\ccA1VCOD.s:561    .text.SnakeGameStart:0000000000000040 .L0 
C:\Users\rana\AppData\Local\Temp\ccA1VCOD.s:562    .text.SnakeGameStart:0000000000000040 .L0 
C:\Users\rana\AppData\Local\Temp\ccA1VCOD.s:563    .text.SnakeGameStart:0000000000000040 .L0 
C:\Users\rana\AppData\Local\Temp\ccA1VCOD.s:564    .text.SnakeGameStart:0000000000000040 .L0 
C:\Users\rana\AppData\Local\Temp\ccA1VCOD.s:565    .text.SnakeGameStart:0000000000000040 .L0 
C:\Users\rana\AppData\Local\Temp\ccA1VCOD.s:567    .text.SnakeGameStart:0000000000000040 .L0 
C:\Users\rana\AppData\Local\Temp\ccA1VCOD.s:569    .text.SnakeGameStart:0000000000000044 .L0 
C:\Users\rana\AppData\Local\Temp\ccA1VCOD.s:571    .text.SnakeGameStart:0000000000000048 .L0 
C:\Users\rana\AppData\Local\Temp\ccA1VCOD.s:573    .text.SnakeGameStart:000000000000004a .L0 
C:\Users\rana\AppData\Local\Temp\ccA1VCOD.s:575    .text.SnakeGameStart:000000000000004e .L0 
C:\Users\rana\AppData\Local\Temp\ccA1VCOD.s:577    .text.SnakeGameStart:0000000000000052 .L0 
C:\Users\rana\AppData\Local\Temp\ccA1VCOD.s:580    .text.SnakeGameStart:000000000000005a .L0 
C:\Users\rana\AppData\Local\Temp\ccA1VCOD.s:582    .text.SnakeGameStart:000000000000005e .L0 
C:\Users\rana\AppData\Local\Temp\ccA1VCOD.s:585    .text.SnakeGameStart:0000000000000062 .L0 
C:\Users\rana\AppData\Local\Temp\ccA1VCOD.s:587    .text.SnakeGameStart:0000000000000064 .L0 
C:\Users\rana\AppData\Local\Temp\ccA1VCOD.s:589    .text.SnakeGameStart:0000000000000068 .L0 
C:\Users\rana\AppData\Local\Temp\ccA1VCOD.s:594    .text.SnakeGameStart:000000000000006c .L0 
C:\Users\rana\AppData\Local\Temp\ccA1VCOD.s:616    .text.SnakeGameStart:000000000000008e .L0 
C:\Users\rana\AppData\Local\Temp\ccA1VCOD.s:621    .text.SnakeGameStart:0000000000000098 .L0 
C:\Users\rana\AppData\Local\Temp\ccA1VCOD.s:625    .text.SnakeGameStart:00000000000000a2 .L0 
C:\Users\rana\AppData\Local\Temp\ccA1VCOD.s:627    .text.SnakeGameStart:00000000000000a6 .L0 
C:\Users\rana\AppData\Local\Temp\ccA1VCOD.s:629    .text.SnakeGameStart:00000000000000aa .L0 
C:\Users\rana\AppData\Local\Temp\ccA1VCOD.s:632    .text.SnakeGameStart:00000000000000ae .L0 
C:\Users\rana\AppData\Local\Temp\ccA1VCOD.s:634    .text.SnakeGameStart:00000000000000b0 .L0 
C:\Users\rana\AppData\Local\Temp\ccA1VCOD.s:636    .text.SnakeGameStart:00000000000000b4 .L0 
C:\Users\rana\AppData\Local\Temp\ccA1VCOD.s:638    .text.SnakeGameStart:00000000000000b6 .L0 
C:\Users\rana\AppData\Local\Temp\ccA1VCOD.s:640    .text.SnakeGameStart:00000000000000b8 .L0 
C:\Users\rana\AppData\Local\Temp\ccA1VCOD.s:642    .text.SnakeGameStart:00000000000000ba .L0 
C:\Users\rana\AppData\Local\Temp\ccA1VCOD.s:644    .text.SnakeGameStart:00000000000000bc .L0 
C:\Users\rana\AppData\Local\Temp\ccA1VCOD.s:647    .text.SnakeGameStart:00000000000000c0 .L0 
C:\Users\rana\AppData\Local\Temp\ccA1VCOD.s:652    .text.SnakeGameStart:00000000000000c6 .L0 
C:\Users\rana\AppData\Local\Temp\ccA1VCOD.s:656    .text.SnakeGameStart:00000000000000c8 .L0 
C:\Users\rana\AppData\Local\Temp\ccA1VCOD.s:658    .text.SnakeGameStart:00000000000000cc .L0 
C:\Users\rana\AppData\Local\Temp\ccA1VCOD.s:660    .text.SnakeGameStart:00000000000000ce .L0 
C:\Users\rana\AppData\Local\Temp\ccA1VCOD.s:662    .text.SnakeGameStart:00000000000000d2 .L0 
C:\Users\rana\AppData\Local\Temp\ccA1VCOD.s:664    .text.SnakeGameStart:00000000000000d4 .L0 
C:\Users\rana\AppData\Local\Temp\ccA1VCOD.s:676    .text.SnakeGameStart:00000000000000ec .L0 
C:\Users\rana\AppData\Local\Temp\ccA1VCOD.s:680    .text.SnakeGameStart:00000000000000f2 .L0 
C:\Users\rana\AppData\Local\Temp\ccA1VCOD.s:686    .text.SnakeGameStart:00000000000000f8 .L0 
C:\Users\rana\AppData\Local\Temp\ccA1VCOD.s:693    .text.SnakeGameStart:000000000000010e .L0 
C:\Users\rana\AppData\Local\Temp\ccA1VCOD.s:695    .text.SnakeGameStart:0000000000000112 .L0 
C:\Users\rana\AppData\Local\Temp\ccA1VCOD.s:699    .text.SnakeGameStart:000000000000011e .L0 
C:\Users\rana\AppData\Local\Temp\ccA1VCOD.s:701    .text.SnakeGameStart:0000000000000122 .L0 
C:\Users\rana\AppData\Local\Temp\ccA1VCOD.s:703    .text.SnakeGameStart:0000000000000126 .L0 
C:\Users\rana\AppData\Local\Temp\ccA1VCOD.s:708    .text.SnakeGameStart:0000000000000130 .L0 
C:\Users\rana\AppData\Local\Temp\ccA1VCOD.s:711    .text.SnakeGameStart:0000000000000134 .L0 
C:\Users\rana\AppData\Local\Temp\ccA1VCOD.s:715    .text.SnakeGameStart:000000000000013e .L0 
C:\Users\rana\AppData\Local\Temp\ccA1VCOD.s:718    .text.SnakeGameStart:0000000000000144 .L0 
C:\Users\rana\AppData\Local\Temp\ccA1VCOD.s:720    .text.SnakeGameStart:0000000000000146 .L0 
C:\Users\rana\AppData\Local\Temp\ccA1VCOD.s:723    .text.SnakeGameStart:000000000000014a .L0 
C:\Users\rana\AppData\Local\Temp\ccA1VCOD.s:726    .text.SnakeGameStart:000000000000014e .L0 
C:\Users\rana\AppData\Local\Temp\ccA1VCOD.s:730    .text.SnakeGameStart:0000000000000152 .L0 
C:\Users\rana\AppData\Local\Temp\ccA1VCOD.s:734    .text.SnakeGameStart:0000000000000156 .L0 
C:\Users\rana\AppData\Local\Temp\ccA1VCOD.s:740    .text.SnakeGameStart:0000000000000168 .L0 
C:\Users\rana\AppData\Local\Temp\ccA1VCOD.s:749    .text.SnakeGameStart:000000000000017e .L0 
C:\Users\rana\AppData\Local\Temp\ccA1VCOD.s:751    .text.SnakeGameStart:0000000000000182 .L0 
C:\Users\rana\AppData\Local\Temp\ccA1VCOD.s:755    .text.SnakeGameStart:000000000000018a .L0 
C:\Users\rana\AppData\Local\Temp\ccA1VCOD.s:757    .text.SnakeGameStart:000000000000018c .L0 
C:\Users\rana\AppData\Local\Temp\ccA1VCOD.s:759    .text.SnakeGameStart:000000000000018e .L0 
C:\Users\rana\AppData\Local\Temp\ccA1VCOD.s:762    .text.SnakeGameStart:0000000000000192 .L0 
C:\Users\rana\AppData\Local\Temp\ccA1VCOD.s:764    .text.SnakeGameStart:0000000000000194 .L0 
C:\Users\rana\AppData\Local\Temp\ccA1VCOD.s:768    .text.SnakeGameStart:000000000000019a .L0 
C:\Users\rana\AppData\Local\Temp\ccA1VCOD.s:770    .text.SnakeGameStart:000000000000019c .L0 
C:\Users\rana\AppData\Local\Temp\ccA1VCOD.s:773    .text.SnakeGameStart:00000000000001a2 .L0 
C:\Users\rana\AppData\Local\Temp\ccA1VCOD.s:778    .text.SnakeGameStart:00000000000001ac .L0 
C:\Users\rana\AppData\Local\Temp\ccA1VCOD.s:781    .text.SnakeGameStart:00000000000001b4 .L0 
C:\Users\rana\AppData\Local\Temp\ccA1VCOD.s:785    .text.SnakeGameStart:00000000000001be .L0 
C:\Users\rana\AppData\Local\Temp\ccA1VCOD.s:788    .text.SnakeGameStart:00000000000001c2 .L0 
C:\Users\rana\AppData\Local\Temp\ccA1VCOD.s:791    .text.SnakeGameStart:00000000000001ca .L0 
C:\Users\rana\AppData\Local\Temp\ccA1VCOD.s:796    .text.SnakeGameStart:00000000000001da .L0 
C:\Users\rana\AppData\Local\Temp\ccA1VCOD.s:797    .text.SnakeGameStart:00000000000001dc .L0 
C:\Users\rana\AppData\Local\Temp\ccA1VCOD.s:798    .text.SnakeGameStart:00000000000001dc .L0 
C:\Users\rana\AppData\Local\Temp\ccA1VCOD.s:800    .text.SnakeGameStart:00000000000001de .L0 
C:\Users\rana\AppData\Local\Temp\ccA1VCOD.s:802    .text.SnakeGameStart:00000000000001de .L0 
C:\Users\rana\AppData\Local\Temp\ccA1VCOD.s:804    .text.SnakeGameStart:00000000000001e2 .L0 
C:\Users\rana\AppData\Local\Temp\ccA1VCOD.s:805    .text.SnakeGameStart:00000000000001e4 .L0 
C:\Users\rana\AppData\Local\Temp\ccA1VCOD.s:808    .text.SnakeGameStart:00000000000001e6 .L0 
C:\Users\rana\AppData\Local\Temp\ccA1VCOD.s:810    .text.SnakeGameStart:00000000000001e8 .L0 
C:\Users\rana\AppData\Local\Temp\ccA1VCOD.s:812    .text.SnakeGameStart:00000000000001ea .L0 
C:\Users\rana\AppData\Local\Temp\ccA1VCOD.s:814    .text.SnakeGameStart:00000000000001ec .L0 
C:\Users\rana\AppData\Local\Temp\ccA1VCOD.s:816    .text.SnakeGameStart:00000000000001ee .L0 
C:\Users\rana\AppData\Local\Temp\ccA1VCOD.s:818    .text.SnakeGameStart:00000000000001f0 .L0 
C:\Users\rana\AppData\Local\Temp\ccA1VCOD.s:820    .text.SnakeGameStart:00000000000001f2 .L0 
C:\Users\rana\AppData\Local\Temp\ccA1VCOD.s:823    .text.SnakeGameStart:00000000000001f4 .L0 
C:\Users\rana\AppData\Local\Temp\ccA1VCOD.s:826    .text.SnakeGameStart:00000000000001f6 .L0 
C:\Users\rana\AppData\Local\Temp\ccA1VCOD.s:829    .text.SnakeGameStart:00000000000001f8 .L0 
C:\Users\rana\AppData\Local\Temp\ccA1VCOD.s:833    .text.SnakeGameStart:00000000000001fc .L0 
C:\Users\rana\AppData\Local\Temp\ccA1VCOD.s:838    .text.SnakeGameStart:00000000000001fe .L0 
C:\Users\rana\AppData\Local\Temp\ccA1VCOD.s:840    .text.SnakeGameStart:00000000000001fe .L0 
C:\Users\rana\AppData\Local\Temp\ccA1VCOD.s:844    .text.SnakeGameStart:000000000000020a .L0 
C:\Users\rana\AppData\Local\Temp\ccA1VCOD.s:846    .text.SnakeGameStart:000000000000020e .L0 
C:\Users\rana\AppData\Local\Temp\ccA1VCOD.s:852    .text.SnakeGameStart:0000000000000214 .L0 
C:\Users\rana\AppData\Local\Temp\ccA1VCOD.s:855    .text.SnakeGameStart:000000000000021a .L0 
C:\Users\rana\AppData\Local\Temp\ccA1VCOD.s:861    .text.SnakeGameStart:0000000000000220 .L0 
C:\Users\rana\AppData\Local\Temp\ccA1VCOD.s:864    .text.SnakeGameStart:0000000000000226 .L0 
C:\Users\rana\AppData\Local\Temp\ccA1VCOD.s:872    .text.SnakeGameStart:0000000000000232 .L0 
C:\Users\rana\AppData\Local\Temp\ccA1VCOD.s:875    .text.SnakeGameStart:0000000000000238 .L0 
C:\Users\rana\AppData\Local\Temp\ccA1VCOD.s:882    .text.SnakeGameStart:0000000000000244 .L0 
C:\Users\rana\AppData\Local\Temp\ccA1VCOD.s:885    .text.SnakeGameStart:000000000000024a .L0 
C:\Users\rana\AppData\Local\Temp\ccA1VCOD.s:894    .text.SnakeGameStart:000000000000025a .L0 
C:\Users\rana\AppData\Local\Temp\ccA1VCOD.s:898    .text.SnakeGameStart:000000000000025e .L0 
C:\Users\rana\AppData\Local\Temp\ccA1VCOD.s:903    .text.SnakeGameStart:0000000000000268 .L0 
C:\Users\rana\AppData\Local\Temp\ccA1VCOD.s:906    .text.SnakeGameStart:000000000000026c .L0 
C:\Users\rana\AppData\Local\Temp\ccA1VCOD.s:911    .text.SnakeGameStart:0000000000000272 .L0 
C:\Users\rana\AppData\Local\Temp\ccA1VCOD.s:917    .text.SnakeGameStart:0000000000000282 .L0 
C:\Users\rana\AppData\Local\Temp\ccA1VCOD.s:921    .text.SnakeGameStart:000000000000028e .L0 
C:\Users\rana\AppData\Local\Temp\ccA1VCOD.s:923    .text.SnakeGameStart:0000000000000292 .L0 
C:\Users\rana\AppData\Local\Temp\ccA1VCOD.s:929    .text.SnakeGameStart:0000000000000298 .L0 
C:\Users\rana\AppData\Local\Temp\ccA1VCOD.s:931    .text.SnakeGameStart:000000000000029a .L0 
C:\Users\rana\AppData\Local\Temp\ccA1VCOD.s:935    .text.SnakeGameStart:00000000000002a6 .L0 
C:\Users\rana\AppData\Local\Temp\ccA1VCOD.s:940    .text.SnakeGameStart:00000000000002aa .L0 
C:\Users\rana\AppData\Local\Temp\ccA1VCOD.s:945    .text.SnakeGameStart:00000000000002b2 .L0 
C:\Users\rana\AppData\Local\Temp\ccA1VCOD.s:956    .text.SnakeGameStart:00000000000002be .L0 
C:\Users\rana\AppData\Local\Temp\ccA1VCOD.s:961    .text.SnakeGameStart:00000000000002cc .L0 
C:\Users\rana\AppData\Local\Temp\ccA1VCOD.s:963    .text.SnakeGameStart:00000000000002d0 .L0 
C:\Users\rana\AppData\Local\Temp\ccA1VCOD.s:969    .text.SnakeGameStart:00000000000002d6 .L0 
C:\Users\rana\AppData\Local\Temp\ccA1VCOD.s:971    .text.SnakeGameStart:00000000000002d8 .L0 
C:\Users\rana\AppData\Local\Temp\ccA1VCOD.s:975    .text.SnakeGameStart:00000000000002e4 .L0 
C:\Users\rana\AppData\Local\Temp\ccA1VCOD.s:980    .text.SnakeGameStart:00000000000002e8 .L0 
C:\Users\rana\AppData\Local\Temp\ccA1VCOD.s:985    .text.SnakeGameStart:00000000000002f0 .L0 
C:\Users\rana\AppData\Local\Temp\ccA1VCOD.s:1007   .text.SnakeGameStart:000000000000030a .L0 
C:\Users\rana\AppData\Local\Temp\ccA1VCOD.s:1011   .text.SnakeGameStart:0000000000000310 .L0 
C:\Users\rana\AppData\Local\Temp\ccA1VCOD.s:1013   .text.SnakeGameStart:0000000000000314 .L0 
C:\Users\rana\AppData\Local\Temp\ccA1VCOD.s:1017   .text.SnakeGameStart:000000000000031c .L0 
C:\Users\rana\AppData\Local\Temp\ccA1VCOD.s:1019   .text.SnakeGameStart:0000000000000320 .L0 
C:\Users\rana\AppData\Local\Temp\ccA1VCOD.s:1022   .text.SnakeGameStart:0000000000000322 .L0 
C:\Users\rana\AppData\Local\Temp\ccA1VCOD.s:1024   .text.SnakeGameStart:0000000000000324 .L0 
C:\Users\rana\AppData\Local\Temp\ccA1VCOD.s:1026   .text.SnakeGameStart:0000000000000328 .L0 
C:\Users\rana\AppData\Local\Temp\ccA1VCOD.s:1029   .text.SnakeGameStart:000000000000032c .L0 
C:\Users\rana\AppData\Local\Temp\ccA1VCOD.s:1036   .text.SnakeGameStart:000000000000033c .L0 
C:\Users\rana\AppData\Local\Temp\ccA1VCOD.s:1039   .text.SnakeGameStart:0000000000000342 .L0 
C:\Users\rana\AppData\Local\Temp\ccA1VCOD.s:1046   .text.SnakeGameStart:0000000000000352 .L0 
C:\Users\rana\AppData\Local\Temp\ccA1VCOD.s:1050   .text.SnakeGameStart:000000000000035a .L0 
C:\Users\rana\AppData\Local\Temp\ccA1VCOD.s:1052   .text.SnakeGameStart:000000000000035e .L0 
C:\Users\rana\AppData\Local\Temp\ccA1VCOD.s:1055   .text.SnakeGameStart:0000000000000360 .L0 
C:\Users\rana\AppData\Local\Temp\ccA1VCOD.s:1057   .text.SnakeGameStart:0000000000000362 .L0 
C:\Users\rana\AppData\Local\Temp\ccA1VCOD.s:1059   .text.SnakeGameStart:0000000000000366 .L0 
C:\Users\rana\AppData\Local\Temp\ccA1VCOD.s:1062   .text.SnakeGameStart:000000000000036a .L0 
C:\Users\rana\AppData\Local\Temp\ccA1VCOD.s:1070   .text.SnakeGameStart:000000000000037a .L0 
C:\Users\rana\AppData\Local\Temp\ccA1VCOD.s:1072   .text.SnakeGameStart:000000000000037e .L0 
C:\Users\rana\AppData\Local\Temp\ccA1VCOD.s:1076   .text.SnakeGameStart:0000000000000386 .L0 
C:\Users\rana\AppData\Local\Temp\ccA1VCOD.s:1078   .text.SnakeGameStart:000000000000038a .L0 
C:\Users\rana\AppData\Local\Temp\ccA1VCOD.s:1080   .text.SnakeGameStart:000000000000038c .L0 
C:\Users\rana\AppData\Local\Temp\ccA1VCOD.s:1083   .text.SnakeGameStart:0000000000000390 .L0 
C:\Users\rana\AppData\Local\Temp\ccA1VCOD.s:1085   .text.SnakeGameStart:0000000000000392 .L0 
C:\Users\rana\AppData\Local\Temp\ccA1VCOD.s:1089   .text.SnakeGameStart:0000000000000398 .L0 
C:\Users\rana\AppData\Local\Temp\ccA1VCOD.s:1091   .text.SnakeGameStart:000000000000039a .L0 
C:\Users\rana\AppData\Local\Temp\ccA1VCOD.s:1094   .text.SnakeGameStart:00000000000003a0 .L0 
C:\Users\rana\AppData\Local\Temp\ccA1VCOD.s:1099   .text.SnakeGameStart:00000000000003aa .L0 
C:\Users\rana\AppData\Local\Temp\ccA1VCOD.s:1102   .text.SnakeGameStart:00000000000003b2 .L0 
C:\Users\rana\AppData\Local\Temp\ccA1VCOD.s:1107   .text.SnakeGameStart:00000000000003c2 .L0 
C:\Users\rana\AppData\Local\Temp\ccA1VCOD.s:1116   .bss.snake_info:0000000000000000 snake_info
C:\Users\rana\AppData\Local\Temp\ccA1VCOD.s:1113   .bss.snake_info:0000000000000000 .LANCHOR1
C:\Users\rana\AppData\Local\Temp\ccA1VCOD.s:1135   .sbss.node_cnt:0000000000000000 .LANCHOR0
C:\Users\rana\AppData\Local\Temp\ccA1VCOD.s:1138   .sbss.node_cnt:0000000000000000 node_cnt
C:\Users\rana\AppData\Local\Temp\ccA1VCOD.s:54     .text.HDMI_DrawPoint.part.0:000000000000002c .L0 
C:\Users\rana\AppData\Local\Temp\ccA1VCOD.s:223    .text.Snake_Move:00000000000000d2 .L0 
C:\Users\rana\AppData\Local\Temp\ccA1VCOD.s:264    .text.HDMI_DrawPoint:0000000000000024 .L0 
C:\Users\rana\AppData\Local\Temp\ccA1VCOD.s:292    .text.draw_point:0000000000000014 .L0 
C:\Users\rana\AppData\Local\Temp\ccA1VCOD.s:327    .text.clear_point:000000000000001a .L0 
C:\Users\rana\AppData\Local\Temp\ccA1VCOD.s:371    .text.delay:0000000000000026 .L0 
C:\Users\rana\AppData\Local\Temp\ccA1VCOD.s:408    .text.draw_c:000000000000001c .L0 
C:\Users\rana\AppData\Local\Temp\ccA1VCOD.s:510    .text.draw_gameover:000000000000005e .L0 
C:\Users\rana\AppData\Local\Temp\ccA1VCOD.s:1111   .text.SnakeGameStart:00000000000003c2 .L0 
                     .debug_frame:0000000000000000 .L0 
C:\Users\rana\AppData\Local\Temp\ccA1VCOD.s:37     .text.HDMI_DrawPoint.part.0:0000000000000022 .L2
C:\Users\rana\AppData\Local\Temp\ccA1VCOD.s:1132   .rodata.Snake_Move.str1.4:0000000000000000 .LC0
C:\Users\rana\AppData\Local\Temp\ccA1VCOD.s:122    .text.Snake_Move:0000000000000050 .L6
C:\Users\rana\AppData\Local\Temp\ccA1VCOD.s:163    .text.Snake_Move:0000000000000088 .L7
C:\Users\rana\AppData\Local\Temp\ccA1VCOD.s:139    .text.Snake_Move:0000000000000060 .L8
C:\Users\rana\AppData\Local\Temp\ccA1VCOD.s:236    .text.HDMI_DrawPoint:000000000000000a .L13
C:\Users\rana\AppData\Local\Temp\ccA1VCOD.s:248    .text.HDMI_DrawPoint:0000000000000018 .L14
C:\Users\rana\AppData\Local\Temp\ccA1VCOD.s:312    .text.clear_point:000000000000000e .L18
C:\Users\rana\AppData\Local\Temp\ccA1VCOD.s:365    .text.delay:0000000000000024 .L20
C:\Users\rana\AppData\Local\Temp\ccA1VCOD.s:356    .text.delay:000000000000001a .L22
C:\Users\rana\AppData\Local\Temp\ccA1VCOD.s:1120   .rodata.SnakeGameStart.str1.4:0000000000000000 .LC1
C:\Users\rana\AppData\Local\Temp\ccA1VCOD.s:1128   .rodata.SnakeGameStart.str1.4:000000000000002c .LC4
C:\Users\rana\AppData\Local\Temp\ccA1VCOD.s:1123   .rodata.SnakeGameStart.str1.4:0000000000000014 .LC2
C:\Users\rana\AppData\Local\Temp\ccA1VCOD.s:1126   .rodata.SnakeGameStart.str1.4:0000000000000020 .LC3
C:\Users\rana\AppData\Local\Temp\ccA1VCOD.s:611    .text.SnakeGameStart:000000000000008e .L30
C:\Users\rana\AppData\Local\Temp\ccA1VCOD.s:599    .text.SnakeGameStart:0000000000000078 .L31
C:\Users\rana\AppData\Local\Temp\ccA1VCOD.s:776    .text.SnakeGameStart:00000000000001ac .L34
C:\Users\rana\AppData\Local\Temp\ccA1VCOD.s:786    .text.SnakeGameStart:00000000000001c2 .L38
C:\Users\rana\AppData\Local\Temp\ccA1VCOD.s:837    .text.SnakeGameStart:00000000000001fe .L98
C:\Users\rana\AppData\Local\Temp\ccA1VCOD.s:732    .text.SnakeGameStart:0000000000000156 .L53
C:\Users\rana\AppData\Local\Temp\ccA1VCOD.s:1044   .text.SnakeGameStart:0000000000000352 .L54
C:\Users\rana\AppData\Local\Temp\ccA1VCOD.s:1003   .text.SnakeGameStart:000000000000030a .L99
C:\Users\rana\AppData\Local\Temp\ccA1VCOD.s:1067   .text.SnakeGameStart:000000000000037a .L57
C:\Users\rana\AppData\Local\Temp\ccA1VCOD.s:684    .text.SnakeGameStart:00000000000000f8 .L32
C:\Users\rana\AppData\Local\Temp\ccA1VCOD.s:1034   .text.SnakeGameStart:000000000000033c .L36
C:\Users\rana\AppData\Local\Temp\ccA1VCOD.s:709    .text.SnakeGameStart:0000000000000134 .L100
C:\Users\rana\AppData\Local\Temp\ccA1VCOD.s:721    .text.SnakeGameStart:000000000000014a .L40
C:\Users\rana\AppData\Local\Temp\ccA1VCOD.s:850    .text.SnakeGameStart:0000000000000214 .L41
C:\Users\rana\AppData\Local\Temp\ccA1VCOD.s:859    .text.SnakeGameStart:0000000000000220 .L42
C:\Users\rana\AppData\Local\Temp\ccA1VCOD.s:870    .text.SnakeGameStart:0000000000000232 .L43
C:\Users\rana\AppData\Local\Temp\ccA1VCOD.s:880    .text.SnakeGameStart:0000000000000244 .L44
C:\Users\rana\AppData\Local\Temp\ccA1VCOD.s:952    .text.SnakeGameStart:00000000000002be .L85
C:\Users\rana\AppData\Local\Temp\ccA1VCOD.s:915    .text.SnakeGameStart:0000000000000282 .L84
C:\Users\rana\AppData\Local\Temp\ccA1VCOD.s:943    .text.SnakeGameStart:00000000000002b2 .L47
C:\Users\rana\AppData\Local\Temp\ccA1VCOD.s:938    .text.SnakeGameStart:00000000000002aa .L48
C:\Users\rana\AppData\Local\Temp\ccA1VCOD.s:992    .text.SnakeGameStart:00000000000002fc .L49
C:\Users\rana\AppData\Local\Temp\ccA1VCOD.s:983    .text.SnakeGameStart:00000000000002f0 .L51
C:\Users\rana\AppData\Local\Temp\ccA1VCOD.s:978    .text.SnakeGameStart:00000000000002e8 .L52
C:\Users\rana\AppData\Local\Temp\ccA1VCOD.s:1097   .text.SnakeGameStart:00000000000003aa .L37
C:\Users\rana\AppData\Local\Temp\ccA1VCOD.s:706    .text.SnakeGameStart:0000000000000130 .L35
C:\Users\rana\AppData\Local\Temp\ccA1VCOD.s:3461   .debug_abbrev:0000000000000000 .Ldebug_abbrev0
C:\Users\rana\AppData\Local\Temp\ccA1VCOD.s:6073   .debug_str:000000000000032d .LASF147
C:\Users\rana\AppData\Local\Temp\ccA1VCOD.s:6071   .debug_str:000000000000031e .LASF148
C:\Users\rana\AppData\Local\Temp\ccA1VCOD.s:5919   .debug_str:000000000000000c .LASF149
C:\Users\rana\AppData\Local\Temp\ccA1VCOD.s:5887   .debug_ranges:0000000000000000 .Ldebug_ranges0
C:\Users\rana\AppData\Local\Temp\ccA1VCOD.s:5915   .debug_line:0000000000000000 .Ldebug_line0
C:\Users\rana\AppData\Local\Temp\ccA1VCOD.s:5965   .debug_str:000000000000012e .LASF0
C:\Users\rana\AppData\Local\Temp\ccA1VCOD.s:5933   .debug_str:000000000000006a .LASF5
C:\Users\rana\AppData\Local\Temp\ccA1VCOD.s:6111   .debug_str:0000000000000480 .LASF1
C:\Users\rana\AppData\Local\Temp\ccA1VCOD.s:6119   .debug_str:00000000000004a2 .LASF2
C:\Users\rana\AppData\Local\Temp\ccA1VCOD.s:6055   .debug_str:00000000000002cc .LASF3
C:\Users\rana\AppData\Local\Temp\ccA1VCOD.s:5987   .debug_str:000000000000018d .LASF4
C:\Users\rana\AppData\Local\Temp\ccA1VCOD.s:6009   .debug_str:00000000000001f1 .LASF6
C:\Users\rana\AppData\Local\Temp\ccA1VCOD.s:6035   .debug_str:0000000000000263 .LASF7
C:\Users\rana\AppData\Local\Temp\ccA1VCOD.s:5963   .debug_str:0000000000000120 .LASF8
C:\Users\rana\AppData\Local\Temp\ccA1VCOD.s:5945   .debug_str:00000000000000b7 .LASF9
C:\Users\rana\AppData\Local\Temp\ccA1VCOD.s:6027   .debug_str:000000000000023f .LASF10
C:\Users\rana\AppData\Local\Temp\ccA1VCOD.s:6201   .debug_str:0000000000000613 .LASF11
C:\Users\rana\AppData\Local\Temp\ccA1VCOD.s:6159   .debug_str:0000000000000557 .LASF12
C:\Users\rana\AppData\Local\Temp\ccA1VCOD.s:6091   .debug_str:0000000000000416 .LASF13
C:\Users\rana\AppData\Local\Temp\ccA1VCOD.s:6109   .debug_str:000000000000046e .LASF14
C:\Users\rana\AppData\Local\Temp\ccA1VCOD.s:6103   .debug_str:000000000000044f .LASF15
C:\Users\rana\AppData\Local\Temp\ccA1VCOD.s:6165   .debug_str:0000000000000572 .LASF16
C:\Users\rana\AppData\Local\Temp\ccA1VCOD.s:6047   .debug_str:000000000000029e .LASF17
C:\Users\rana\AppData\Local\Temp\ccA1VCOD.s:6075   .debug_str:00000000000003cf .LASF18
C:\Users\rana\AppData\Local\Temp\ccA1VCOD.s:5975   .debug_str:0000000000000155 .LASF19
C:\Users\rana\AppData\Local\Temp\ccA1VCOD.s:6029   .debug_str:000000000000024c .LASF20
C:\Users\rana\AppData\Local\Temp\ccA1VCOD.s:6157   .debug_str:000000000000054f .LASF21
C:\Users\rana\AppData\Local\Temp\ccA1VCOD.s:6179   .debug_str:00000000000005a8 .LASF22
C:\Users\rana\AppData\Local\Temp\ccA1VCOD.s:6129   .debug_str:00000000000004ca .LASF23
C:\Users\rana\AppData\Local\Temp\ccA1VCOD.s:6013   .debug_str:0000000000000202 .LASF24
C:\Users\rana\AppData\Local\Temp\ccA1VCOD.s:6169   .debug_str:0000000000000581 .LASF25
C:\Users\rana\AppData\Local\Temp\ccA1VCOD.s:6185   .debug_str:00000000000005be .LASF26
C:\Users\rana\AppData\Local\Temp\ccA1VCOD.s:6017   .debug_str:0000000000000213 .LASF31
C:\Users\rana\AppData\Local\Temp\ccA1VCOD.s:6175   .debug_str:0000000000000595 .LASF27
C:\Users\rana\AppData\Local\Temp\ccA1VCOD.s:6151   .debug_str:000000000000053a .LASF28
C:\Users\rana\AppData\Local\Temp\ccA1VCOD.s:6011   .debug_str:00000000000001fc .LASF29
C:\Users\rana\AppData\Local\Temp\ccA1VCOD.s:6195   .debug_str:00000000000005fe .LASF30
C:\Users\rana\AppData\Local\Temp\ccA1VCOD.s:6025   .debug_str:000000000000023a .LASF32
C:\Users\rana\AppData\Local\Temp\ccA1VCOD.s:5957   .debug_str:000000000000010b .LASF33
C:\Users\rana\AppData\Local\Temp\ccA1VCOD.s:6171   .debug_str:0000000000000586 .LASF34
C:\Users\rana\AppData\Local\Temp\ccA1VCOD.s:5973   .debug_str:000000000000014b .LASF35
C:\Users\rana\AppData\Local\Temp\ccA1VCOD.s:6225   .debug_str:0000000000000689 .LASF36
C:\Users\rana\AppData\Local\Temp\ccA1VCOD.s:6095   .debug_str:0000000000000429 .LASF37
C:\Users\rana\AppData\Local\Temp\ccA1VCOD.s:6087   .debug_str:0000000000000403 .LASF38
C:\Users\rana\AppData\Local\Temp\ccA1VCOD.s:6197   .debug_str:0000000000000603 .LASF39
C:\Users\rana\AppData\Local\Temp\ccA1VCOD.s:6121   .debug_str:00000000000004ac .LASF40
C:\Users\rana\AppData\Local\Temp\ccA1VCOD.s:6211   .debug_str:000000000000063d .LASF41
C:\Users\rana\AppData\Local\Temp\ccA1VCOD.s:5979   .debug_str:0000000000000160 .LASF42
C:\Users\rana\AppData\Local\Temp\ccA1VCOD.s:6005   .debug_str:00000000000001e4 .LASF43
C:\Users\rana\AppData\Local\Temp\ccA1VCOD.s:5917   .debug_str:0000000000000000 .LASF44
C:\Users\rana\AppData\Local\Temp\ccA1VCOD.s:6181   .debug_str:00000000000005b0 .LASF45
C:\Users\rana\AppData\Local\Temp\ccA1VCOD.s:5991   .debug_str:000000000000019d .LASF46
C:\Users\rana\AppData\Local\Temp\ccA1VCOD.s:6097   .debug_str:0000000000000432 .LASF47
C:\Users\rana\AppData\Local\Temp\ccA1VCOD.s:6143   .debug_str:000000000000050a .LASF48
C:\Users\rana\AppData\Local\Temp\ccA1VCOD.s:6007   .debug_str:00000000000001ec .LASF49
C:\Users\rana\AppData\Local\Temp\ccA1VCOD.s:6123   .debug_str:00000000000004b6 .LASF50
C:\Users\rana\AppData\Local\Temp\ccA1VCOD.s:5971   .debug_str:0000000000000145 .LASF51
C:\Users\rana\AppData\Local\Temp\ccA1VCOD.s:5927   .debug_str:0000000000000051 .LASF52
C:\Users\rana\AppData\Local\Temp\ccA1VCOD.s:6131   .debug_str:00000000000004d5 .LASF53
C:\Users\rana\AppData\Local\Temp\ccA1VCOD.s:5989   .debug_str:0000000000000196 .LASF54
C:\Users\rana\AppData\Local\Temp\ccA1VCOD.s:6037   .debug_str:0000000000000275 .LASF55
C:\Users\rana\AppData\Local\Temp\ccA1VCOD.s:5947   .debug_str:00000000000000ce .LASF56
C:\Users\rana\AppData\Local\Temp\ccA1VCOD.s:5983   .debug_str:000000000000017d .LASF57
C:\Users\rana\AppData\Local\Temp\ccA1VCOD.s:6021   .debug_str:000000000000022a .LASF58
C:\Users\rana\AppData\Local\Temp\ccA1VCOD.s:6085   .debug_str:00000000000003fc .LASF59
C:\Users\rana\AppData\Local\Temp\ccA1VCOD.s:6161   .debug_str:0000000000000560 .LASF60
C:\Users\rana\AppData\Local\Temp\ccA1VCOD.s:6215   .debug_str:0000000000000657 .LASF61
C:\Users\rana\AppData\Local\Temp\ccA1VCOD.s:5969   .debug_str:000000000000013f .LASF62
C:\Users\rana\AppData\Local\Temp\ccA1VCOD.s:6207   .debug_str:000000000000062f .LASF63
C:\Users\rana\AppData\Local\Temp\ccA1VCOD.s:5995   .debug_str:00000000000001ac .LASF64
C:\Users\rana\AppData\Local\Temp\ccA1VCOD.s:5999   .debug_str:00000000000001bd .LASF65
C:\Users\rana\AppData\Local\Temp\ccA1VCOD.s:5937   .debug_str:000000000000007e .LASF66
C:\Users\rana\AppData\Local\Temp\ccA1VCOD.s:6077   .debug_str:00000000000003d6 .LASF67
C:\Users\rana\AppData\Local\Temp\ccA1VCOD.s:6133   .debug_str:00000000000004dd .LASF68
C:\Users\rana\AppData\Local\Temp\ccA1VCOD.s:6079   .debug_str:00000000000003dc .LASF69
C:\Users\rana\AppData\Local\Temp\ccA1VCOD.s:6153   .debug_str:0000000000000542 .LASF70
C:\Users\rana\AppData\Local\Temp\ccA1VCOD.s:6167   .debug_str:000000000000057a .LASF71
C:\Users\rana\AppData\Local\Temp\ccA1VCOD.s:5993   .debug_str:00000000000001a5 .LASF72
C:\Users\rana\AppData\Local\Temp\ccA1VCOD.s:6031   .debug_str:0000000000000253 .LASF73
C:\Users\rana\AppData\Local\Temp\ccA1VCOD.s:6015   .debug_str:000000000000020b .LASF74
C:\Users\rana\AppData\Local\Temp\ccA1VCOD.s:6141   .debug_str:0000000000000505 .LASF75
C:\Users\rana\AppData\Local\Temp\ccA1VCOD.s:5931   .debug_str:000000000000005f .LASF76
C:\Users\rana\AppData\Local\Temp\ccA1VCOD.s:6149   .debug_str:0000000000000521 .LASF77
C:\Users\rana\AppData\Local\Temp\ccA1VCOD.s:6145   .debug_str:000000000000050f .LASF78
C:\Users\rana\AppData\Local\Temp\ccA1VCOD.s:6101   .debug_str:0000000000000444 .LASF79
C:\Users\rana\AppData\Local\Temp\ccA1VCOD.s:6147   .debug_str:0000000000000517 .LASF80
C:\Users\rana\AppData\Local\Temp\ccA1VCOD.s:6069   .debug_str:0000000000000316 .LASF81
C:\Users\rana\AppData\Local\Temp\ccA1VCOD.s:6023   .debug_str:0000000000000230 .LASF82
C:\Users\rana\AppData\Local\Temp\ccA1VCOD.s:6223   .debug_str:0000000000000684 .LASF83
C:\Users\rana\AppData\Local\Temp\ccA1VCOD.s:6107   .debug_str:0000000000000464 .LASF84
C:\Users\rana\AppData\Local\Temp\ccA1VCOD.s:6033   .debug_str:000000000000025b .LASF85
C:\Users\rana\AppData\Local\Temp\ccA1VCOD.s:5997   .debug_str:00000000000001b5 .LASF86
C:\Users\rana\AppData\Local\Temp\ccA1VCOD.s:6113   .debug_str:000000000000048e .LASF87
C:\Users\rana\AppData\Local\Temp\ccA1VCOD.s:6059   .debug_str:00000000000002e7 .LASF88
C:\Users\rana\AppData\Local\Temp\ccA1VCOD.s:6205   .debug_str:0000000000000625 .LASF89
C:\Users\rana\AppData\Local\Temp\ccA1VCOD.s:5985   .debug_str:0000000000000185 .LASF90
C:\Users\rana\AppData\Local\Temp\ccA1VCOD.s:5977   .debug_str:000000000000015b .LASF91
C:\Users\rana\AppData\Local\Temp\ccA1VCOD.s:6127   .debug_str:00000000000004c3 .LASF92
C:\Users\rana\AppData\Local\Temp\ccA1VCOD.s:6199   .debug_str:000000000000060d .LASF93
C:\Users\rana\AppData\Local\Temp\ccA1VCOD.s:6049   .debug_str:00000000000002a7 .LASF94
C:\Users\rana\AppData\Local\Temp\ccA1VCOD.s:6125   .debug_str:00000000000004bd .LASF95
C:\Users\rana\AppData\Local\Temp\ccA1VCOD.s:5929   .debug_str:0000000000000057 .LASF96
C:\Users\rana\AppData\Local\Temp\ccA1VCOD.s:6155   .debug_str:0000000000000549 .LASF97
C:\Users\rana\AppData\Local\Temp\ccA1VCOD.s:6173   .debug_str:000000000000058f .LASF98
C:\Users\rana\AppData\Local\Temp\ccA1VCOD.s:6183   .debug_str:00000000000005b9 .LASF99
C:\Users\rana\AppData\Local\Temp\ccA1VCOD.s:6193   .debug_str:00000000000005f1 .LASF100
C:\Users\rana\AppData\Local\Temp\ccA1VCOD.s:6177   .debug_str:000000000000059b .LASF101
C:\Users\rana\AppData\Local\Temp\ccA1VCOD.s:6063   .debug_str:00000000000002fc .LASF102
C:\Users\rana\AppData\Local\Temp\ccA1VCOD.s:6213   .debug_str:0000000000000648 .LASF103
C:\Users\rana\AppData\Local\Temp\ccA1VCOD.s:6019   .debug_str:000000000000021b .LASF104
C:\Users\rana\AppData\Local\Temp\ccA1VCOD.s:6135   .debug_str:00000000000004e6 .LASF105
C:\Users\rana\AppData\Local\Temp\ccA1VCOD.s:6217   .debug_str:000000000000065e .LASF106
C:\Users\rana\AppData\Local\Temp\ccA1VCOD.s:6139   .debug_str:00000000000004f8 .LASF107
C:\Users\rana\AppData\Local\Temp\ccA1VCOD.s:6221   .debug_str:0000000000000676 .LASF108
C:\Users\rana\AppData\Local\Temp\ccA1VCOD.s:5955   .debug_str:00000000000000fd .LASF109
C:\Users\rana\AppData\Local\Temp\ccA1VCOD.s:6203   .debug_str:000000000000061b .LASF110
C:\Users\rana\AppData\Local\Temp\ccA1VCOD.s:6061   .debug_str:00000000000002f0 .LASF111
C:\Users\rana\AppData\Local\Temp\ccA1VCOD.s:6187   .debug_str:00000000000005c6 .LASF112
C:\Users\rana\AppData\Local\Temp\ccA1VCOD.s:6003   .debug_str:00000000000001d6 .LASF113
C:\Users\rana\AppData\Local\Temp\ccA1VCOD.s:5953   .debug_str:00000000000000ee .LASF114
C:\Users\rana\AppData\Local\Temp\ccA1VCOD.s:6001   .debug_str:00000000000001c5 .LASF115
C:\Users\rana\AppData\Local\Temp\ccA1VCOD.s:5939   .debug_str:0000000000000084 .LASF116
C:\Users\rana\AppData\Local\Temp\ccA1VCOD.s:5941   .debug_str:0000000000000093 .LASF117
C:\Users\rana\AppData\Local\Temp\ccA1VCOD.s:6117   .debug_str:0000000000000499 .LASF118
C:\Users\rana\AppData\Local\Temp\ccA1VCOD.s:6093   .debug_str:0000000000000422 .LASF119
C:\Users\rana\AppData\Local\Temp\ccA1VCOD.s:6089   .debug_str:000000000000040d .LASF120
C:\Users\rana\AppData\Local\Temp\ccA1VCOD.s:6209   .debug_str:0000000000000635 .LASF121
C:\Users\rana\AppData\Local\Temp\ccA1VCOD.s:5951   .debug_str:00000000000000e3 .LASF150
C:\Users\rana\AppData\Local\Temp\ccA1VCOD.s:6163   .debug_str:0000000000000566 .LASF122
C:\Users\rana\AppData\Local\Temp\ccA1VCOD.s:6189   .debug_str:00000000000005d3 .LASF123
C:\Users\rana\AppData\Local\Temp\ccA1VCOD.s:6099   .debug_str:000000000000043a .LASF124
C:\Users\rana\AppData\Local\Temp\ccA1VCOD.s:6067   .debug_str:0000000000000310 .LASF125
C:\Users\rana\AppData\Local\Temp\ccA1VCOD.s:6053   .debug_str:00000000000002c1 .LASF126
C:\Users\rana\AppData\Local\Temp\ccA1VCOD.s:6039   .debug_str:000000000000027b .LASF127
C:\Users\rana\AppData\Local\Temp\ccA1VCOD.s:6083   .debug_str:00000000000003ed .LASF151
C:\Users\rana\AppData\Local\Temp\ccA1VCOD.s:515    .text.SnakeGameStart:0000000000000000 .LFB11
C:\Users\rana\AppData\Local\Temp\ccA1VCOD.s:1108   .text.SnakeGameStart:00000000000003c2 .LFE11
C:\Users\rana\AppData\Local\Temp\ccA1VCOD.s:4377   .debug_loc:0000000000000000 .LLST65
C:\Users\rana\AppData\Local\Temp\ccA1VCOD.s:4423   .debug_loc:0000000000000077 .LLST66
C:\Users\rana\AppData\Local\Temp\ccA1VCOD.s:6065   .debug_str:0000000000000309 .LASF128
C:\Users\rana\AppData\Local\Temp\ccA1VCOD.s:4455   .debug_loc:00000000000000cd .LLST67
C:\Users\rana\AppData\Local\Temp\ccA1VCOD.s:5961   .debug_str:0000000000000119 .LASF129
C:\Users\rana\AppData\Local\Temp\ccA1VCOD.s:4486   .debug_loc:000000000000010d .LLST68
C:\Users\rana\AppData\Local\Temp\ccA1VCOD.s:5959   .debug_str:0000000000000114 .LASF130
C:\Users\rana\AppData\Local\Temp\ccA1VCOD.s:4520   .debug_loc:0000000000000157 .LLST69
C:\Users\rana\AppData\Local\Temp\ccA1VCOD.s:5967   .debug_str:000000000000013a .LASF133
C:\Users\rana\AppData\Local\Temp\ccA1VCOD.s:5925   .debug_str:000000000000004a .LASF131
C:\Users\rana\AppData\Local\Temp\ccA1VCOD.s:4575   .debug_loc:00000000000001d2 .LLST70
C:\Users\rana\AppData\Local\Temp\ccA1VCOD.s:6057   .debug_str:00000000000002df .LASF132
C:\Users\rana\AppData\Local\Temp\ccA1VCOD.s:4586   .debug_loc:00000000000001f0 .LLST71
C:\Users\rana\AppData\Local\Temp\ccA1VCOD.s:591    .text.SnakeGameStart:000000000000006c .LBB102
C:\Users\rana\AppData\Local\Temp\ccA1VCOD.s:614    .text.SnakeGameStart:000000000000008e .LBE102
C:\Users\rana\AppData\Local\Temp\ccA1VCOD.s:4597   .debug_loc:000000000000020e .LLST72
C:\Users\rana\AppData\Local\Temp\ccA1VCOD.s:4605   .debug_loc:0000000000000222 .LLST73
C:\Users\rana\AppData\Local\Temp\ccA1VCOD.s:4612   .debug_loc:0000000000000235 .LLST74
C:\Users\rana\AppData\Local\Temp\ccA1VCOD.s:592    .text.SnakeGameStart:000000000000006c .LBB103
C:\Users\rana\AppData\Local\Temp\ccA1VCOD.s:613    .text.SnakeGameStart:000000000000008e .LBE103
C:\Users\rana\AppData\Local\Temp\ccA1VCOD.s:4621   .debug_loc:000000000000024d .LLST75
C:\Users\rana\AppData\Local\Temp\ccA1VCOD.s:600    .text.SnakeGameStart:0000000000000078 .LBB104
C:\Users\rana\AppData\Local\Temp\ccA1VCOD.s:609    .text.SnakeGameStart:000000000000008a .LBE104
C:\Users\rana\AppData\Local\Temp\ccA1VCOD.s:4629   .debug_loc:0000000000000261 .LLST76
C:\Users\rana\AppData\Local\Temp\ccA1VCOD.s:4637   .debug_loc:0000000000000275 .LLST77
C:\Users\rana\AppData\Local\Temp\ccA1VCOD.s:4650   .debug_loc:0000000000000295 .LLST78
C:\Users\rana\AppData\Local\Temp\ccA1VCOD.s:607    .text.SnakeGameStart:000000000000008a .LVL68
C:\Users\rana\AppData\Local\Temp\ccA1VCOD.s:649    .text.SnakeGameStart:00000000000000c6 .LBB106
C:\Users\rana\AppData\Local\Temp\ccA1VCOD.s:4663   .debug_loc:00000000000002b5 .LLST79
C:\Users\rana\AppData\Local\Temp\ccA1VCOD.s:4698   .debug_loc:00000000000002f1 .LLST80
C:\Users\rana\AppData\Local\Temp\ccA1VCOD.s:667    .text.SnakeGameStart:00000000000000e0 .LBB109
C:\Users\rana\AppData\Local\Temp\ccA1VCOD.s:674    .text.SnakeGameStart:00000000000000ec .LBE109
C:\Users\rana\AppData\Local\Temp\ccA1VCOD.s:4733   .debug_loc:000000000000032d .LLST81
C:\Users\rana\AppData\Local\Temp\ccA1VCOD.s:4741   .debug_loc:0000000000000341 .LLST82
C:\Users\rana\AppData\Local\Temp\ccA1VCOD.s:4749   .debug_loc:0000000000000355 .LLST83
C:\Users\rana\AppData\Local\Temp\ccA1VCOD.s:672    .text.SnakeGameStart:00000000000000ec .LVL75
C:\Users\rana\AppData\Local\Temp\ccA1VCOD.s:926    .text.SnakeGameStart:0000000000000298 .LBB112
C:\Users\rana\AppData\Local\Temp\ccA1VCOD.s:954    .text.SnakeGameStart:00000000000002be .LBE112
C:\Users\rana\AppData\Local\Temp\ccA1VCOD.s:4757   .debug_loc:0000000000000369 .LLST84
C:\Users\rana\AppData\Local\Temp\ccA1VCOD.s:4764   .debug_loc:000000000000037c .LLST85
C:\Users\rana\AppData\Local\Temp\ccA1VCOD.s:927    .text.SnakeGameStart:0000000000000298 .LBB113
C:\Users\rana\AppData\Local\Temp\ccA1VCOD.s:953    .text.SnakeGameStart:00000000000002be .LBE113
C:\Users\rana\AppData\Local\Temp\ccA1VCOD.s:4771   .debug_loc:000000000000038f .LLST86
C:\Users\rana\AppData\Local\Temp\ccA1VCOD.s:966    .text.SnakeGameStart:00000000000002d6 .LBB114
C:\Users\rana\AppData\Local\Temp\ccA1VCOD.s:994    .text.SnakeGameStart:00000000000002fc .LBE114
C:\Users\rana\AppData\Local\Temp\ccA1VCOD.s:4787   .debug_loc:00000000000003b9 .LLST87
C:\Users\rana\AppData\Local\Temp\ccA1VCOD.s:4794   .debug_loc:00000000000003cc .LLST88
C:\Users\rana\AppData\Local\Temp\ccA1VCOD.s:967    .text.SnakeGameStart:00000000000002d6 .LBB115
C:\Users\rana\AppData\Local\Temp\ccA1VCOD.s:993    .text.SnakeGameStart:00000000000002fc .LBE115
C:\Users\rana\AppData\Local\Temp\ccA1VCOD.s:4801   .debug_loc:00000000000003df .LLST89
C:\Users\rana\AppData\Local\Temp\ccA1VCOD.s:995    .text.SnakeGameStart:00000000000002fc .LBB116
C:\Users\rana\AppData\Local\Temp\ccA1VCOD.s:1005   .text.SnakeGameStart:000000000000030a .LBE116
C:\Users\rana\AppData\Local\Temp\ccA1VCOD.s:4817   .debug_loc:0000000000000409 .LLST90
C:\Users\rana\AppData\Local\Temp\ccA1VCOD.s:4825   .debug_loc:000000000000041d .LLST91
C:\Users\rana\AppData\Local\Temp\ccA1VCOD.s:4832   .debug_loc:0000000000000430 .LLST92
C:\Users\rana\AppData\Local\Temp\ccA1VCOD.s:1000   .text.SnakeGameStart:0000000000000308 .LVL123
C:\Users\rana\AppData\Local\Temp\ccA1VCOD.s:617    .text.SnakeGameStart:0000000000000096 .LVL70
C:\Users\rana\AppData\Local\Temp\ccA1VCOD.s:622    .text.SnakeGameStart:00000000000000a0 .LVL72
C:\Users\rana\AppData\Local\Temp\ccA1VCOD.s:666    .text.SnakeGameStart:00000000000000e0 .LVL74
C:\Users\rana\AppData\Local\Temp\ccA1VCOD.s:738    .text.SnakeGameStart:0000000000000168 .LVL82
C:\Users\rana\AppData\Local\Temp\ccA1VCOD.s:774    .text.SnakeGameStart:00000000000001aa .LVL87
C:\Users\rana\AppData\Local\Temp\ccA1VCOD.s:789    .text.SnakeGameStart:00000000000001ca .LVL88
C:\Users\rana\AppData\Local\Temp\ccA1VCOD.s:794    .text.SnakeGameStart:00000000000001da .LVL89
C:\Users\rana\AppData\Local\Temp\ccA1VCOD.s:914    .text.SnakeGameStart:0000000000000282 .LVL108
C:\Users\rana\AppData\Local\Temp\ccA1VCOD.s:918    .text.SnakeGameStart:000000000000028a .LVL109
C:\Users\rana\AppData\Local\Temp\ccA1VCOD.s:957    .text.SnakeGameStart:00000000000002c6 .LVL116
C:\Users\rana\AppData\Local\Temp\ccA1VCOD.s:1031   .text.SnakeGameStart:0000000000000336 .LVL129
C:\Users\rana\AppData\Local\Temp\ccA1VCOD.s:1064   .text.SnakeGameStart:0000000000000374 .LVL133
C:\Users\rana\AppData\Local\Temp\ccA1VCOD.s:1095   .text.SnakeGameStart:00000000000003a8 .LVL138
C:\Users\rana\AppData\Local\Temp\ccA1VCOD.s:6191   .debug_str:00000000000005e6 .LASF152
C:\Users\rana\AppData\Local\Temp\ccA1VCOD.s:58     .text.Snake_Move:0000000000000000 .LFB10
C:\Users\rana\AppData\Local\Temp\ccA1VCOD.s:221    .text.Snake_Move:00000000000000d2 .LFE10
C:\Users\rana\AppData\Local\Temp\ccA1VCOD.s:4839   .debug_loc:0000000000000443 .LLST6
C:\Users\rana\AppData\Local\Temp\ccA1VCOD.s:4853   .debug_loc:0000000000000464 .LLST7
C:\Users\rana\AppData\Local\Temp\ccA1VCOD.s:4867   .debug_loc:0000000000000485 .LLST8
C:\Users\rana\AppData\Local\Temp\ccA1VCOD.s:85     .text.Snake_Move:0000000000000028 .LBB56
C:\Users\rana\AppData\Local\Temp\ccA1VCOD.s:102    .text.Snake_Move:000000000000003a .LBE56
C:\Users\rana\AppData\Local\Temp\ccA1VCOD.s:4883   .debug_loc:00000000000004af .LLST9
C:\Users\rana\AppData\Local\Temp\ccA1VCOD.s:4902   .debug_loc:00000000000004d1 .LLST10
C:\Users\rana\AppData\Local\Temp\ccA1VCOD.s:86     .text.Snake_Move:0000000000000028 .LBB57
C:\Users\rana\AppData\Local\Temp\ccA1VCOD.s:101    .text.Snake_Move:000000000000003a .LBE57
C:\Users\rana\AppData\Local\Temp\ccA1VCOD.s:4921   .debug_loc:00000000000004f3 .LLST11
C:\Users\rana\AppData\Local\Temp\ccA1VCOD.s:103    .text.Snake_Move:000000000000003a .LBB58
C:\Users\rana\AppData\Local\Temp\ccA1VCOD.s:134    .text.Snake_Move:000000000000005a .LBE58
C:\Users\rana\AppData\Local\Temp\ccA1VCOD.s:4986   .debug_loc:0000000000000553 .LLST12
C:\Users\rana\AppData\Local\Temp\ccA1VCOD.s:4994   .debug_loc:000000000000056a .LLST13
C:\Users\rana\AppData\Local\Temp\ccA1VCOD.s:110    .text.Snake_Move:0000000000000042 .LBB60
C:\Users\rana\AppData\Local\Temp\ccA1VCOD.s:132    .text.Snake_Move:000000000000005a .LBE60
C:\Users\rana\AppData\Local\Temp\ccA1VCOD.s:5002   .debug_loc:0000000000000581 .LLST14
C:\Users\rana\AppData\Local\Temp\ccA1VCOD.s:5031   .debug_loc:00000000000005be .LLST15
C:\Users\rana\AppData\Local\Temp\ccA1VCOD.s:111    .text.Snake_Move:0000000000000042 .LBB61
C:\Users\rana\AppData\Local\Temp\ccA1VCOD.s:131    .text.Snake_Move:000000000000005a .LBE61
C:\Users\rana\AppData\Local\Temp\ccA1VCOD.s:5049   .debug_loc:00000000000005e6 .LLST16
C:\Users\rana\AppData\Local\Temp\ccA1VCOD.s:5074   .debug_loc:0000000000000611 .LLST17
C:\Users\rana\AppData\Local\Temp\ccA1VCOD.s:177    .text.Snake_Move:000000000000009a .LBB62
C:\Users\rana\AppData\Local\Temp\ccA1VCOD.s:194    .text.Snake_Move:00000000000000ac .LBE62
C:\Users\rana\AppData\Local\Temp\ccA1VCOD.s:5100   .debug_loc:000000000000064c .LLST18
C:\Users\rana\AppData\Local\Temp\ccA1VCOD.s:5129   .debug_loc:0000000000000689 .LLST19
C:\Users\rana\AppData\Local\Temp\ccA1VCOD.s:178    .text.Snake_Move:000000000000009a .LBB63
C:\Users\rana\AppData\Local\Temp\ccA1VCOD.s:193    .text.Snake_Move:00000000000000ac .LBE63
C:\Users\rana\AppData\Local\Temp\ccA1VCOD.s:5143   .debug_loc:00000000000006a6 .LLST20
C:\Users\rana\AppData\Local\Temp\ccA1VCOD.s:195    .text.Snake_Move:00000000000000ac .LBB64
C:\Users\rana\AppData\Local\Temp\ccA1VCOD.s:200    .text.Snake_Move:00000000000000b4 .LBE64
C:\Users\rana\AppData\Local\Temp\ccA1VCOD.s:5168   .debug_loc:00000000000006d1 .LLST21
C:\Users\rana\AppData\Local\Temp\ccA1VCOD.s:5176   .debug_loc:00000000000006e5 .LLST22
C:\Users\rana\AppData\Local\Temp\ccA1VCOD.s:5183   .debug_loc:00000000000006f8 .LLST23
C:\Users\rana\AppData\Local\Temp\ccA1VCOD.s:198    .text.Snake_Move:00000000000000b4 .LVL28
C:\Users\rana\AppData\Local\Temp\ccA1VCOD.s:219    .text.Snake_Move:00000000000000d2 .LVL29
C:\Users\rana\AppData\Local\Temp\ccA1VCOD.s:5943   .debug_str:00000000000000a4 .LASF134
C:\Users\rana\AppData\Local\Temp\ccA1VCOD.s:6219   .debug_str:0000000000000663 .LASF135
C:\Users\rana\AppData\Local\Temp\ccA1VCOD.s:6051   .debug_str:00000000000002ae .LASF153
C:\Users\rana\AppData\Local\Temp\ccA1VCOD.s:6105   .debug_str:0000000000000456 .LASF154
C:\Users\rana\AppData\Local\Temp\ccA1VCOD.s:413    .text.draw_gameover:0000000000000000 .LFB6
C:\Users\rana\AppData\Local\Temp\ccA1VCOD.s:508    .text.draw_gameover:000000000000005e .LFE6
C:\Users\rana\AppData\Local\Temp\ccA1VCOD.s:417    .text.draw_gameover:0000000000000000 .LBB70
C:\Users\rana\AppData\Local\Temp\ccA1VCOD.s:428    .text.draw_gameover:000000000000000e .LBE70
C:\Users\rana\AppData\Local\Temp\ccA1VCOD.s:5190   .debug_loc:000000000000070b .LLST41
C:\Users\rana\AppData\Local\Temp\ccA1VCOD.s:5198   .debug_loc:000000000000071f .LLST42
C:\Users\rana\AppData\Local\Temp\ccA1VCOD.s:5206   .debug_loc:0000000000000733 .LLST43
C:\Users\rana\AppData\Local\Temp\ccA1VCOD.s:418    .text.draw_gameover:0000000000000000 .LBB71
C:\Users\rana\AppData\Local\Temp\ccA1VCOD.s:427    .text.draw_gameover:000000000000000e .LBE71
C:\Users\rana\AppData\Local\Temp\ccA1VCOD.s:429    .text.draw_gameover:000000000000000e .LBB72
C:\Users\rana\AppData\Local\Temp\ccA1VCOD.s:439    .text.draw_gameover:000000000000001a .LBE72
C:\Users\rana\AppData\Local\Temp\ccA1VCOD.s:5214   .debug_loc:0000000000000747 .LLST44
C:\Users\rana\AppData\Local\Temp\ccA1VCOD.s:5222   .debug_loc:000000000000075b .LLST45
C:\Users\rana\AppData\Local\Temp\ccA1VCOD.s:5230   .debug_loc:000000000000076f .LLST46
C:\Users\rana\AppData\Local\Temp\ccA1VCOD.s:430    .text.draw_gameover:000000000000000e .LBB73
C:\Users\rana\AppData\Local\Temp\ccA1VCOD.s:438    .text.draw_gameover:000000000000001a .LBE73
C:\Users\rana\AppData\Local\Temp\ccA1VCOD.s:440    .text.draw_gameover:000000000000001a .LBB74
C:\Users\rana\AppData\Local\Temp\ccA1VCOD.s:450    .text.draw_gameover:0000000000000026 .LBE74
C:\Users\rana\AppData\Local\Temp\ccA1VCOD.s:5238   .debug_loc:0000000000000783 .LLST47
C:\Users\rana\AppData\Local\Temp\ccA1VCOD.s:5246   .debug_loc:0000000000000797 .LLST48
C:\Users\rana\AppData\Local\Temp\ccA1VCOD.s:5254   .debug_loc:00000000000007ab .LLST49
C:\Users\rana\AppData\Local\Temp\ccA1VCOD.s:441    .text.draw_gameover:000000000000001a .LBB75
C:\Users\rana\AppData\Local\Temp\ccA1VCOD.s:449    .text.draw_gameover:0000000000000026 .LBE75
C:\Users\rana\AppData\Local\Temp\ccA1VCOD.s:451    .text.draw_gameover:0000000000000026 .LBB76
C:\Users\rana\AppData\Local\Temp\ccA1VCOD.s:461    .text.draw_gameover:0000000000000032 .LBE76
C:\Users\rana\AppData\Local\Temp\ccA1VCOD.s:5262   .debug_loc:00000000000007bf .LLST50
C:\Users\rana\AppData\Local\Temp\ccA1VCOD.s:5270   .debug_loc:00000000000007d3 .LLST51
C:\Users\rana\AppData\Local\Temp\ccA1VCOD.s:5278   .debug_loc:00000000000007e7 .LLST52
C:\Users\rana\AppData\Local\Temp\ccA1VCOD.s:452    .text.draw_gameover:0000000000000026 .LBB77
C:\Users\rana\AppData\Local\Temp\ccA1VCOD.s:460    .text.draw_gameover:0000000000000032 .LBE77
C:\Users\rana\AppData\Local\Temp\ccA1VCOD.s:462    .text.draw_gameover:0000000000000032 .LBB78
C:\Users\rana\AppData\Local\Temp\ccA1VCOD.s:472    .text.draw_gameover:000000000000003e .LBE78
C:\Users\rana\AppData\Local\Temp\ccA1VCOD.s:5286   .debug_loc:00000000000007fb .LLST53
C:\Users\rana\AppData\Local\Temp\ccA1VCOD.s:5294   .debug_loc:000000000000080f .LLST54
C:\Users\rana\AppData\Local\Temp\ccA1VCOD.s:5302   .debug_loc:0000000000000823 .LLST55
C:\Users\rana\AppData\Local\Temp\ccA1VCOD.s:463    .text.draw_gameover:0000000000000032 .LBB79
C:\Users\rana\AppData\Local\Temp\ccA1VCOD.s:471    .text.draw_gameover:000000000000003e .LBE79
C:\Users\rana\AppData\Local\Temp\ccA1VCOD.s:473    .text.draw_gameover:000000000000003e .LBB80
C:\Users\rana\AppData\Local\Temp\ccA1VCOD.s:483    .text.draw_gameover:000000000000004a .LBE80
C:\Users\rana\AppData\Local\Temp\ccA1VCOD.s:5310   .debug_loc:0000000000000837 .LLST56
C:\Users\rana\AppData\Local\Temp\ccA1VCOD.s:5318   .debug_loc:000000000000084b .LLST57
C:\Users\rana\AppData\Local\Temp\ccA1VCOD.s:5326   .debug_loc:000000000000085f .LLST58
C:\Users\rana\AppData\Local\Temp\ccA1VCOD.s:474    .text.draw_gameover:000000000000003e .LBB81
C:\Users\rana\AppData\Local\Temp\ccA1VCOD.s:482    .text.draw_gameover:000000000000004a .LBE81
C:\Users\rana\AppData\Local\Temp\ccA1VCOD.s:484    .text.draw_gameover:000000000000004a .LBB82
C:\Users\rana\AppData\Local\Temp\ccA1VCOD.s:493    .text.draw_gameover:0000000000000052 .LBE82
C:\Users\rana\AppData\Local\Temp\ccA1VCOD.s:5334   .debug_loc:0000000000000873 .LLST59
C:\Users\rana\AppData\Local\Temp\ccA1VCOD.s:5342   .debug_loc:0000000000000887 .LLST60
C:\Users\rana\AppData\Local\Temp\ccA1VCOD.s:5350   .debug_loc:000000000000089b .LLST61
C:\Users\rana\AppData\Local\Temp\ccA1VCOD.s:485    .text.draw_gameover:000000000000004a .LBB83
C:\Users\rana\AppData\Local\Temp\ccA1VCOD.s:492    .text.draw_gameover:0000000000000052 .LBE83
C:\Users\rana\AppData\Local\Temp\ccA1VCOD.s:494    .text.draw_gameover:0000000000000052 .LBB84
C:\Users\rana\AppData\Local\Temp\ccA1VCOD.s:504    .text.draw_gameover:000000000000005c .LBE84
C:\Users\rana\AppData\Local\Temp\ccA1VCOD.s:5358   .debug_loc:00000000000008af .LLST62
C:\Users\rana\AppData\Local\Temp\ccA1VCOD.s:5366   .debug_loc:00000000000008c3 .LLST63
C:\Users\rana\AppData\Local\Temp\ccA1VCOD.s:5374   .debug_loc:00000000000008d7 .LLST64
C:\Users\rana\AppData\Local\Temp\ccA1VCOD.s:495    .text.draw_gameover:0000000000000052 .LBB85
C:\Users\rana\AppData\Local\Temp\ccA1VCOD.s:503    .text.draw_gameover:000000000000005c .LBE85
C:\Users\rana\AppData\Local\Temp\ccA1VCOD.s:6137   .debug_str:00000000000004f1 .LASF138
C:\Users\rana\AppData\Local\Temp\ccA1VCOD.s:5935   .debug_str:0000000000000074 .LASF136
C:\Users\rana\AppData\Local\Temp\ccA1VCOD.s:6045   .debug_str:0000000000000294 .LASF137
C:\Users\rana\AppData\Local\Temp\ccA1VCOD.s:6115   .debug_str:0000000000000493 .LASF139
C:\Users\rana\AppData\Local\Temp\ccA1VCOD.s:5921   .debug_str:000000000000003d .LASF140
C:\Users\rana\AppData\Local\Temp\ccA1VCOD.s:5949   .debug_str:00000000000000d7 .LASF141
C:\Users\rana\AppData\Local\Temp\ccA1VCOD.s:6081   .debug_str:00000000000003e4 .LASF142
C:\Users\rana\AppData\Local\Temp\ccA1VCOD.s:6043   .debug_str:0000000000000289 .LASF143
C:\Users\rana\AppData\Local\Temp\ccA1VCOD.s:5981   .debug_str:000000000000016e .LASF144
C:\Users\rana\AppData\Local\Temp\ccA1VCOD.s:10     .text.HDMI_DrawPoint.part.0:0000000000000000 .LFB12
C:\Users\rana\AppData\Local\Temp\ccA1VCOD.s:52     .text.HDMI_DrawPoint.part.0:000000000000002c .LFE12
C:\Users\rana\AppData\Local\Temp\ccA1VCOD.s:5382   .debug_loc:00000000000008eb .LLST0
C:\Users\rana\AppData\Local\Temp\ccA1VCOD.s:5396   .debug_loc:000000000000090c .LLST1
C:\Users\rana\AppData\Local\Temp\ccA1VCOD.s:15     .text.HDMI_DrawPoint.part.0:0000000000000000 .LBB54
C:\Users\rana\AppData\Local\Temp\ccA1VCOD.s:48     .text.HDMI_DrawPoint.part.0:000000000000002a .LBE54
C:\Users\rana\AppData\Local\Temp\ccA1VCOD.s:5410   .debug_loc:000000000000092d .LLST2
C:\Users\rana\AppData\Local\Temp\ccA1VCOD.s:5424   .debug_loc:000000000000094e .LLST3
C:\Users\rana\AppData\Local\Temp\ccA1VCOD.s:16     .text.HDMI_DrawPoint.part.0:0000000000000000 .LBB55
C:\Users\rana\AppData\Local\Temp\ccA1VCOD.s:47     .text.HDMI_DrawPoint.part.0:000000000000002a .LBE55
C:\Users\rana\AppData\Local\Temp\ccA1VCOD.s:5438   .debug_loc:000000000000096f .LLST4
C:\Users\rana\AppData\Local\Temp\ccA1VCOD.s:5504   .debug_loc:00000000000009cb .LLST5
C:\Users\rana\AppData\Local\Temp\ccA1VCOD.s:228    .text.HDMI_DrawPoint:0000000000000000 .LFB1
C:\Users\rana\AppData\Local\Temp\ccA1VCOD.s:262    .text.HDMI_DrawPoint:0000000000000024 .LFE1
C:\Users\rana\AppData\Local\Temp\ccA1VCOD.s:5531   .debug_loc:0000000000000a0a .LLST24
C:\Users\rana\AppData\Local\Temp\ccA1VCOD.s:5549   .debug_loc:0000000000000a36 .LLST25
C:\Users\rana\AppData\Local\Temp\ccA1VCOD.s:5567   .debug_loc:0000000000000a62 .LLST26
C:\Users\rana\AppData\Local\Temp\ccA1VCOD.s:237    .text.HDMI_DrawPoint:000000000000000a .LBB68
C:\Users\rana\AppData\Local\Temp\ccA1VCOD.s:258    .text.HDMI_DrawPoint:0000000000000022 .LBE68
C:\Users\rana\AppData\Local\Temp\ccA1VCOD.s:238    .text.HDMI_DrawPoint:000000000000000a .LBB69
C:\Users\rana\AppData\Local\Temp\ccA1VCOD.s:257    .text.HDMI_DrawPoint:0000000000000022 .LBE69
C:\Users\rana\AppData\Local\Temp\ccA1VCOD.s:5585   .debug_loc:0000000000000a8e .LLST27
C:\Users\rana\AppData\Local\Temp\ccA1VCOD.s:235    .text.HDMI_DrawPoint:000000000000000a .LVL31
C:\Users\rana\AppData\Local\Temp\ccA1VCOD.s:269    .text.draw_point:0000000000000000 .LFB2
C:\Users\rana\AppData\Local\Temp\ccA1VCOD.s:290    .text.draw_point:0000000000000014 .LFE2
C:\Users\rana\AppData\Local\Temp\ccA1VCOD.s:5611   .debug_loc:0000000000000ac9 .LLST28
C:\Users\rana\AppData\Local\Temp\ccA1VCOD.s:5625   .debug_loc:0000000000000aea .LLST29
C:\Users\rana\AppData\Local\Temp\ccA1VCOD.s:297    .text.clear_point:0000000000000000 .LFB3
C:\Users\rana\AppData\Local\Temp\ccA1VCOD.s:325    .text.clear_point:000000000000001a .LFE3
C:\Users\rana\AppData\Local\Temp\ccA1VCOD.s:5653   .debug_loc:0000000000000b19 .LLST30
C:\Users\rana\AppData\Local\Temp\ccA1VCOD.s:5667   .debug_loc:0000000000000b3a .LLST31
C:\Users\rana\AppData\Local\Temp\ccA1VCOD.s:5695   .debug_loc:0000000000000b69 .LLST32
C:\Users\rana\AppData\Local\Temp\ccA1VCOD.s:332    .text.delay:0000000000000000 .LFB4
C:\Users\rana\AppData\Local\Temp\ccA1VCOD.s:369    .text.delay:0000000000000026 .LFE4
C:\Users\rana\AppData\Local\Temp\ccA1VCOD.s:5721   .debug_loc:0000000000000ba4 .LLST33
C:\Users\rana\AppData\Local\Temp\ccA1VCOD.s:5741   .debug_loc:0000000000000bd2 .LLST34
C:\Users\rana\AppData\Local\Temp\ccA1VCOD.s:5755   .debug_loc:0000000000000bf3 .LLST35
C:\Users\rana\AppData\Local\Temp\ccA1VCOD.s:5769   .debug_loc:0000000000000c14 .LLST36
C:\Users\rana\AppData\Local\Temp\ccA1VCOD.s:376    .text.draw_c:0000000000000000 .LFB5
C:\Users\rana\AppData\Local\Temp\ccA1VCOD.s:406    .text.draw_c:000000000000001c .LFE5
C:\Users\rana\AppData\Local\Temp\ccA1VCOD.s:5780   .debug_loc:0000000000000c32 .LLST37
C:\Users\rana\AppData\Local\Temp\ccA1VCOD.s:5794   .debug_loc:0000000000000c53 .LLST38
C:\Users\rana\AppData\Local\Temp\ccA1VCOD.s:5808   .debug_loc:0000000000000c74 .LLST39
C:\Users\rana\AppData\Local\Temp\ccA1VCOD.s:5836   .debug_loc:0000000000000ca3 .LLST40
C:\Users\rana\AppData\Local\Temp\ccA1VCOD.s:6041   .debug_str:0000000000000284 .LASF145
C:\Users\rana\AppData\Local\Temp\ccA1VCOD.s:5923   .debug_str:0000000000000043 .LASF146
C:\Users\rana\AppData\Local\Temp\ccA1VCOD.s:518    .text.SnakeGameStart:0000000000000000 .LVL63
C:\Users\rana\AppData\Local\Temp\ccA1VCOD.s:583    .text.SnakeGameStart:0000000000000062 .LVL64
C:\Users\rana\AppData\Local\Temp\ccA1VCOD.s:683    .text.SnakeGameStart:00000000000000f8 .LVL78
C:\Users\rana\AppData\Local\Temp\ccA1VCOD.s:766    .text.SnakeGameStart:000000000000019a .LVL86
C:\Users\rana\AppData\Local\Temp\ccA1VCOD.s:834    .text.SnakeGameStart:00000000000001fc .LVL95
C:\Users\rana\AppData\Local\Temp\ccA1VCOD.s:836    .text.SnakeGameStart:00000000000001fe .LVL96
C:\Users\rana\AppData\Local\Temp\ccA1VCOD.s:1087   .text.SnakeGameStart:0000000000000398 .LVL137
C:\Users\rana\AppData\Local\Temp\ccA1VCOD.s:824    .text.SnakeGameStart:00000000000001f4 .LVL92
C:\Users\rana\AppData\Local\Temp\ccA1VCOD.s:847    .text.SnakeGameStart:0000000000000210 .LVL97
C:\Users\rana\AppData\Local\Temp\ccA1VCOD.s:849    .text.SnakeGameStart:0000000000000214 .LVL98
C:\Users\rana\AppData\Local\Temp\ccA1VCOD.s:856    .text.SnakeGameStart:000000000000021c .LVL99
C:\Users\rana\AppData\Local\Temp\ccA1VCOD.s:858    .text.SnakeGameStart:0000000000000220 .LVL100
C:\Users\rana\AppData\Local\Temp\ccA1VCOD.s:1020   .text.SnakeGameStart:0000000000000322 .LVL127
C:\Users\rana\AppData\Local\Temp\ccA1VCOD.s:1027   .text.SnakeGameStart:000000000000032c .LVL128
C:\Users\rana\AppData\Local\Temp\ccA1VCOD.s:1053   .text.SnakeGameStart:0000000000000360 .LVL131
C:\Users\rana\AppData\Local\Temp\ccA1VCOD.s:1060   .text.SnakeGameStart:000000000000036a .LVL132
C:\Users\rana\AppData\Local\Temp\ccA1VCOD.s:619    .text.SnakeGameStart:0000000000000098 .LVL71
C:\Users\rana\AppData\Local\Temp\ccA1VCOD.s:830    .text.SnakeGameStart:00000000000001f8 .LVL94
C:\Users\rana\AppData\Local\Temp\ccA1VCOD.s:630    .text.SnakeGameStart:00000000000000ae .LVL73
C:\Users\rana\AppData\Local\Temp\ccA1VCOD.s:821    .text.SnakeGameStart:00000000000001f2 .LVL91
C:\Users\rana\AppData\Local\Temp\ccA1VCOD.s:866    .text.SnakeGameStart:000000000000022c .LVL101
C:\Users\rana\AppData\Local\Temp\ccA1VCOD.s:965    .text.SnakeGameStart:00000000000002d6 .LVL117
C:\Users\rana\AppData\Local\Temp\ccA1VCOD.s:747    .text.SnakeGameStart:000000000000017e .LVL83
C:\Users\rana\AppData\Local\Temp\ccA1VCOD.s:752    .text.SnakeGameStart:0000000000000186 .LVL84
C:\Users\rana\AppData\Local\Temp\ccA1VCOD.s:760    .text.SnakeGameStart:0000000000000192 .LVL85
C:\Users\rana\AppData\Local\Temp\ccA1VCOD.s:827    .text.SnakeGameStart:00000000000001f6 .LVL93
C:\Users\rana\AppData\Local\Temp\ccA1VCOD.s:1009   .text.SnakeGameStart:0000000000000310 .LVL125
C:\Users\rana\AppData\Local\Temp\ccA1VCOD.s:1014   .text.SnakeGameStart:0000000000000318 .LVL126
C:\Users\rana\AppData\Local\Temp\ccA1VCOD.s:1068   .text.SnakeGameStart:000000000000037a .LVL134
C:\Users\rana\AppData\Local\Temp\ccA1VCOD.s:1073   .text.SnakeGameStart:0000000000000382 .LVL135
C:\Users\rana\AppData\Local\Temp\ccA1VCOD.s:1081   .text.SnakeGameStart:0000000000000390 .LVL136
C:\Users\rana\AppData\Local\Temp\ccA1VCOD.s:678    .text.SnakeGameStart:00000000000000f2 .LVL76
C:\Users\rana\AppData\Local\Temp\ccA1VCOD.s:681    .text.SnakeGameStart:00000000000000f4 .LVL77
C:\Users\rana\AppData\Local\Temp\ccA1VCOD.s:724    .text.SnakeGameStart:000000000000014e .LVL79
C:\Users\rana\AppData\Local\Temp\ccA1VCOD.s:727    .text.SnakeGameStart:0000000000000150 .LVL80
C:\Users\rana\AppData\Local\Temp\ccA1VCOD.s:806    .text.SnakeGameStart:00000000000001e4 .LVL90
C:\Users\rana\AppData\Local\Temp\ccA1VCOD.s:590    .text.SnakeGameStart:000000000000006c .LVL65
C:\Users\rana\AppData\Local\Temp\ccA1VCOD.s:612    .text.SnakeGameStart:000000000000008e .LVL69
C:\Users\rana\AppData\Local\Temp\ccA1VCOD.s:598    .text.SnakeGameStart:0000000000000078 .LVL66
C:\Users\rana\AppData\Local\Temp\ccA1VCOD.s:605    .text.SnakeGameStart:0000000000000082 .LVL67
C:\Users\rana\AppData\Local\Temp\ccA1VCOD.s:886    .text.SnakeGameStart:000000000000024e .LVL104
C:\Users\rana\AppData\Local\Temp\ccA1VCOD.s:888    .text.SnakeGameStart:0000000000000250 .LVL105
C:\Users\rana\AppData\Local\Temp\ccA1VCOD.s:904    .text.SnakeGameStart:000000000000026c .LVL107
C:\Users\rana\AppData\Local\Temp\ccA1VCOD.s:925    .text.SnakeGameStart:0000000000000298 .LVL110
C:\Users\rana\AppData\Local\Temp\ccA1VCOD.s:951    .text.SnakeGameStart:00000000000002be .LVL115
C:\Users\rana\AppData\Local\Temp\ccA1VCOD.s:1002   .text.SnakeGameStart:000000000000030a .LVL124
C:\Users\rana\AppData\Local\Temp\ccA1VCOD.s:937    .text.SnakeGameStart:00000000000002aa .LVL111
C:\Users\rana\AppData\Local\Temp\ccA1VCOD.s:946    .text.SnakeGameStart:00000000000002b4 .LVL113
C:\Users\rana\AppData\Local\Temp\ccA1VCOD.s:948    .text.SnakeGameStart:00000000000002b8 .LVL114
C:\Users\rana\AppData\Local\Temp\ccA1VCOD.s:991    .text.SnakeGameStart:00000000000002fc .LVL122
C:\Users\rana\AppData\Local\Temp\ccA1VCOD.s:977    .text.SnakeGameStart:00000000000002e8 .LVL118
C:\Users\rana\AppData\Local\Temp\ccA1VCOD.s:986    .text.SnakeGameStart:00000000000002f2 .LVL120
C:\Users\rana\AppData\Local\Temp\ccA1VCOD.s:988    .text.SnakeGameStart:00000000000002f6 .LVL121
C:\Users\rana\AppData\Local\Temp\ccA1VCOD.s:61     .text.Snake_Move:0000000000000000 .LVL6
C:\Users\rana\AppData\Local\Temp\ccA1VCOD.s:138    .text.Snake_Move:0000000000000060 .LVL18
C:\Users\rana\AppData\Local\Temp\ccA1VCOD.s:152    .text.Snake_Move:0000000000000076 .LVL19
C:\Users\rana\AppData\Local\Temp\ccA1VCOD.s:154    .text.Snake_Move:000000000000007a .LVL20
C:\Users\rana\AppData\Local\Temp\ccA1VCOD.s:162    .text.Snake_Move:0000000000000088 .LVL21
C:\Users\rana\AppData\Local\Temp\ccA1VCOD.s:71     .text.Snake_Move:000000000000000e .LVL7
C:\Users\rana\AppData\Local\Temp\ccA1VCOD.s:96     .text.Snake_Move:0000000000000036 .LVL10
C:\Users\rana\AppData\Local\Temp\ccA1VCOD.s:76     .text.Snake_Move:000000000000001a .LVL8
C:\Users\rana\AppData\Local\Temp\ccA1VCOD.s:79     .text.Snake_Move:000000000000001c .LVL9
C:\Users\rana\AppData\Local\Temp\ccA1VCOD.s:100    .text.Snake_Move:000000000000003a .LVL11
C:\Users\rana\AppData\Local\Temp\ccA1VCOD.s:121    .text.Snake_Move:0000000000000050 .LVL15
C:\Users\rana\AppData\Local\Temp\ccA1VCOD.s:107    .text.Snake_Move:000000000000003e .LVL12
C:\Users\rana\AppData\Local\Temp\ccA1VCOD.s:118    .text.Snake_Move:000000000000004e .LVL14
C:\Users\rana\AppData\Local\Temp\ccA1VCOD.s:109    .text.Snake_Move:0000000000000042 .LVL13
C:\Users\rana\AppData\Local\Temp\ccA1VCOD.s:126    .text.Snake_Move:0000000000000056 .LVL16
C:\Users\rana\AppData\Local\Temp\ccA1VCOD.s:128    .text.Snake_Move:0000000000000058 .LVL17
C:\Users\rana\AppData\Local\Temp\ccA1VCOD.s:168    .text.Snake_Move:000000000000008e .LVL22
C:\Users\rana\AppData\Local\Temp\ccA1VCOD.s:171    .text.Snake_Move:0000000000000092 .LVL23
C:\Users\rana\AppData\Local\Temp\ccA1VCOD.s:186    .text.Snake_Move:00000000000000a6 .LVL25
C:\Users\rana\AppData\Local\Temp\ccA1VCOD.s:188    .text.Snake_Move:00000000000000a8 .LVL26
C:\Users\rana\AppData\Local\Temp\ccA1VCOD.s:174    .text.Snake_Move:0000000000000096 .LVL24
C:\Users\rana\AppData\Local\Temp\ccA1VCOD.s:192    .text.Snake_Move:00000000000000ac .LVL27
C:\Users\rana\AppData\Local\Temp\ccA1VCOD.s:416    .text.draw_gameover:0000000000000000 .LVL54
C:\Users\rana\AppData\Local\Temp\ccA1VCOD.s:426    .text.draw_gameover:000000000000000e .LVL55
C:\Users\rana\AppData\Local\Temp\ccA1VCOD.s:437    .text.draw_gameover:000000000000001a .LVL56
C:\Users\rana\AppData\Local\Temp\ccA1VCOD.s:448    .text.draw_gameover:0000000000000026 .LVL57
C:\Users\rana\AppData\Local\Temp\ccA1VCOD.s:459    .text.draw_gameover:0000000000000032 .LVL58
C:\Users\rana\AppData\Local\Temp\ccA1VCOD.s:470    .text.draw_gameover:000000000000003e .LVL59
C:\Users\rana\AppData\Local\Temp\ccA1VCOD.s:481    .text.draw_gameover:000000000000004a .LVL60
C:\Users\rana\AppData\Local\Temp\ccA1VCOD.s:491    .text.draw_gameover:0000000000000052 .LVL61
C:\Users\rana\AppData\Local\Temp\ccA1VCOD.s:502    .text.draw_gameover:000000000000005c .LVL62
C:\Users\rana\AppData\Local\Temp\ccA1VCOD.s:14     .text.HDMI_DrawPoint.part.0:0000000000000000 .LVL0
C:\Users\rana\AppData\Local\Temp\ccA1VCOD.s:24     .text.HDMI_DrawPoint.part.0:000000000000000c .LVL2
C:\Users\rana\AppData\Local\Temp\ccA1VCOD.s:19     .text.HDMI_DrawPoint.part.0:0000000000000002 .LVL1
C:\Users\rana\AppData\Local\Temp\ccA1VCOD.s:36     .text.HDMI_DrawPoint.part.0:0000000000000022 .LVL3
C:\Users\rana\AppData\Local\Temp\ccA1VCOD.s:42     .text.HDMI_DrawPoint.part.0:0000000000000026 .LVL4
C:\Users\rana\AppData\Local\Temp\ccA1VCOD.s:44     .text.HDMI_DrawPoint.part.0:0000000000000028 .LVL5
C:\Users\rana\AppData\Local\Temp\ccA1VCOD.s:231    .text.HDMI_DrawPoint:0000000000000000 .LVL30
C:\Users\rana\AppData\Local\Temp\ccA1VCOD.s:247    .text.HDMI_DrawPoint:0000000000000018 .LVL32
C:\Users\rana\AppData\Local\Temp\ccA1VCOD.s:252    .text.HDMI_DrawPoint:000000000000001e .LVL33
C:\Users\rana\AppData\Local\Temp\ccA1VCOD.s:254    .text.HDMI_DrawPoint:0000000000000020 .LVL34
C:\Users\rana\AppData\Local\Temp\ccA1VCOD.s:272    .text.draw_point:0000000000000000 .LVL35
C:\Users\rana\AppData\Local\Temp\ccA1VCOD.s:276    .text.draw_point:0000000000000006 .LVL36
C:\Users\rana\AppData\Local\Temp\ccA1VCOD.s:300    .text.clear_point:0000000000000000 .LVL37
C:\Users\rana\AppData\Local\Temp\ccA1VCOD.s:306    .text.clear_point:000000000000000a .LVL38
C:\Users\rana\AppData\Local\Temp\ccA1VCOD.s:311    .text.clear_point:000000000000000e .LVL39
C:\Users\rana\AppData\Local\Temp\ccA1VCOD.s:317    .text.clear_point:0000000000000014 .LVL40
C:\Users\rana\AppData\Local\Temp\ccA1VCOD.s:319    .text.clear_point:0000000000000016 .LVL41
C:\Users\rana\AppData\Local\Temp\ccA1VCOD.s:335    .text.delay:0000000000000000 .LVL42
C:\Users\rana\AppData\Local\Temp\ccA1VCOD.s:351    .text.delay:0000000000000016 .LVL46
C:\Users\rana\AppData\Local\Temp\ccA1VCOD.s:355    .text.delay:000000000000001a .LVL47
C:\Users\rana\AppData\Local\Temp\ccA1VCOD.s:342    .text.delay:000000000000000a .LVL44
C:\Users\rana\AppData\Local\Temp\ccA1VCOD.s:339    .text.delay:0000000000000006 .LVL43
C:\Users\rana\AppData\Local\Temp\ccA1VCOD.s:345    .text.delay:000000000000000e .LVL45
C:\Users\rana\AppData\Local\Temp\ccA1VCOD.s:379    .text.draw_c:0000000000000000 .LVL49
C:\Users\rana\AppData\Local\Temp\ccA1VCOD.s:384    .text.draw_c:0000000000000006 .LVL51
C:\Users\rana\AppData\Local\Temp\ccA1VCOD.s:395    .text.draw_c:0000000000000014 .LVL52
C:\Users\rana\AppData\Local\Temp\ccA1VCOD.s:382    .text.draw_c:0000000000000004 .LVL50
C:\Users\rana\AppData\Local\Temp\ccA1VCOD.s:400    .text.draw_c:0000000000000018 .LVL53
C:\Users\rana\AppData\Local\Temp\ccA1VCOD.s:1152   .debug_info:0000000000000000 .Ldebug_info0
C:\Users\rana\AppData\Local\Temp\ccA1VCOD.s:654    .text.SnakeGameStart:00000000000000c8 .LBE106
C:\Users\rana\AppData\Local\Temp\ccA1VCOD.s:895    .text.SnakeGameStart:000000000000025e .LBB111
C:\Users\rana\AppData\Local\Temp\ccA1VCOD.s:909    .text.SnakeGameStart:0000000000000272 .LBE111

UNDEFINED SYMBOLS
printk
rand
